CCS PCH C Compiler, Version 4.104, 5967               17-feb.-18 14:42

               Filename: H:\JP\JP\Laboratorio\Incubadora\2018\Incubadora 22L Avantika #004587722\Firmware V1.0\Horno.lst

               ROM used: 29318 bytes (89%)
                         Largest free fragment is 3446
               RAM used: 1557 (76%) at main() level
                         1609 (79%) worst case
               Stack:    5 worst case (4 in main + 1 for interrupts)

*
0000:  GOTO   317E
*
0008:  MOVWF  04
000A:  MOVFF  FD8,05
000E:  MOVFF  FE0,06
0012:  MOVLB  0
0014:  MOVFF  FE9,0C
0018:  MOVFF  FEA,07
001C:  MOVFF  FE1,08
0020:  MOVFF  FE2,09
0024:  MOVFF  FD9,0A
0028:  MOVFF  FDA,0B
002C:  MOVFF  FF3,12
0030:  MOVFF  FF4,13
0034:  MOVFF  FFA,14
0038:  MOVFF  00,0E
003C:  MOVFF  01,0F
0040:  MOVFF  02,10
0044:  MOVFF  03,11
0048:  BTFSS  F9D.0
004A:  GOTO   0054
004E:  BTFSC  F9E.0
0050:  GOTO   0C4A
0054:  MOVFF  0E,00
0058:  MOVFF  0F,01
005C:  MOVFF  10,02
0060:  MOVFF  11,03
0064:  MOVFF  0C,FE9
0068:  MOVFF  07,FEA
006C:  BSF    07.7
006E:  MOVFF  08,FE1
0072:  MOVFF  09,FE2
0076:  MOVFF  0A,FD9
007A:  MOVFF  0B,FDA
007E:  MOVFF  12,FF3
0082:  MOVFF  13,FF4
0086:  MOVFF  14,FFA
008A:  MOVF   04,W
008C:  MOVFF  06,FE0
0090:  MOVFF  05,FD8
0094:  RETFIE 0
....................  
.................... #include <18F4550.h> 
.................... //////// Standard Header file for the PIC18F4550 device //////////////// 
.................... #device PIC18F4550 
.................... #list 
....................  
.................... #device adc=10 
.................... #fuses XTPLL,NOWDT,NOPROTECT,NOLVP,NODEBUG,USBDIV,PLL1,CPUDIV1,VREGEN,NOMCLR 
.................... #use delay(clock=48000000) 
*
0CD0:  MOVLW  06
0CD2:  MOVWF  FEA
0CD4:  MOVLW  17
0CD6:  MOVWF  FE9
0CD8:  MOVF   FEF,W
0CDA:  BZ    0CF8
0CDC:  MOVLW  0F
0CDE:  MOVWF  01
0CE0:  CLRF   00
0CE2:  DECFSZ 00,F
0CE4:  BRA    0CE2
0CE6:  DECFSZ 01,F
0CE8:  BRA    0CE0
0CEA:  MOVLW  8F
0CEC:  MOVWF  00
0CEE:  DECFSZ 00,F
0CF0:  BRA    0CEE
0CF2:  NOP   
0CF4:  DECFSZ FEF,F
0CF6:  BRA    0CDC
0CF8:  RETLW  00
.................... #include "HDM64GS12.c" 
.................... ///////////////////////////////////////////////////////////////////////// 
.................... ////                           HDM64GS12.c                           //// 
.................... ////                                                                 //// 
.................... //// This file contains drivers for using a Hantronix HDM64GS12 with //// 
.................... //// a KS0108 display controller. The HDM64GS12 is 128 by 64 pixels. //// 
.................... //// The driver treats the upper left pixel as (0,0).                //// 
.................... ////                                                                 //// 
.................... //// Use #define FAST_GLCD if the target chip has at least 1k of RAM //// 
.................... //// to decrease the time it takes to update the display.            //// 
.................... //// glcd_update() must then be called to update the display after   //// 
.................... //// changing the pixel information.                                 //// 
.................... //// See ex_glcd.c for suggested usage.                              //// 
.................... //// See KS0108.c for controlling a single 64 by 64 display          //// 
.................... ///////////////////////////////////////////////////////////////////////// 
.................... ////                                                                 //// 
.................... //// LCD Pin connections:                                            //// 
.................... //// (These can be changed as needed in the following defines).      //// 
.................... ////  * 1: VSS is connected to GND                                   //// 
.................... ////  * 2: VDD is connected to +5V                                   //// 
.................... ////  * 3: V0  - LCD operating voltage (Constrast adjustment)        //// 
.................... ////  * 4: D/I - Data or Instruction is connected to B2              //// 
.................... ////  * 5: R/W - Read or Write is connected to B4                    //// 
.................... ////  * 6: Enable is connected to B5                                 //// 
.................... ////  *7-14: Data Bus 0 to 7 is connected to port d                  //// 
.................... ////  *15: Chip Select 1 is connected to B0                          //// 
.................... ////  *16: Chip Select 2 is connected to B1                          //// 
.................... ////  *17: Reset is connected to C0                                  //// 
.................... ////  *18: Negative voltage is also connected to the 20k Ohm POT     //// 
.................... ////  *19: Positive voltage for LED backlight is connected to +5V    //// 
.................... ////  *20: Negavtive voltage for LED backlight is connected to GND   //// 
.................... ////                                                                 //// 
.................... ///////////////////////////////////////////////////////////////////////// 
.................... ////                                                                 //// 
.................... ////  glcd_init(mode)                                                //// 
.................... ////     * Must be called before any other function.                 //// 
.................... ////       - mode can be ON or OFF to turn the LCD on or off         //// 
.................... ////                                                                 //// 
.................... ////  glcd_pixel(x,y,color)                                          //// 
.................... ////     * Sets the pixel to the given color.                        //// 
.................... ////       - color can be ON or OFF                                  //// 
.................... ////                                                                 //// 
.................... ////  glcd_fillScreen(color)                                         //// 
.................... ////     * Fills the entire LCD with the given color.                //// 
.................... ////       - color can be ON or OFF                                  //// 
.................... ////                                                                 //// 
.................... ////  glcd_update()                                                  //// 
.................... ////     * Write the display data stored in RAM to the LCD           //// 
.................... ////     * Only available if FAST_GLCD is defined                    //// 
.................... ////                                                                 //// 
.................... ///////////////////////////////////////////////////////////////////////// 
.................... ////        (C) Copyright 1996, 2004 Custom Computer Services        //// 
.................... //// This source code may only be used by licensed users of the CCS  //// 
.................... //// C compiler.  This source code may only be distributed to other  //// 
.................... //// licensed users of the CCS C compiler.  No other use,            //// 
.................... //// reproduction or distribution is permitted without written       //// 
.................... //// permission.  Derivative programs created using this software    //// 
.................... //// in object code form are not restricted in any way.              //// 
.................... ///////////////////////////////////////////////////////////////////////// 
....................  
....................  
....................  
.................... #ifndef HDM64GS12 
.................... #define HDM64GS12 
....................  
.................... #ifndef FAST_GLCD 
.................... #define FAST_GLCD 
....................  
.................... #ifndef GLCD_WIDTH 
.................... #define GLCD_WIDTH   128 
.................... #endif 
....................  
.................... #ifndef GLCD_CS1 
.................... #define GLCD_CS1     PIN_B0   // Chip Selection 1 
.................... #endif 
....................  
.................... #ifndef GLCD_CS2 
.................... #define GLCD_CS2     PIN_B1   // Chip Selection 2 
.................... #endif 
....................  
.................... #ifndef GLCD_DI 
.................... #define GLCD_DI      PIN_B5   // Data or Instruction input 
.................... #endif 
....................  
.................... #ifndef GLCD_RW 
.................... #define GLCD_RW      PIN_B4   // Read/Write 
.................... #endif 
....................  
.................... #ifndef GLCD_E 
.................... #define GLCD_E       PIN_B3   // Enable 
.................... #endif 
....................  
.................... #ifndef GLCD_RST 
.................... #define GLCD_RST     PIN_B2   // Reset 
.................... #endif 
....................  
.................... #define GLCD_LEFT    0 
.................... #define GLCD_RIGHT   1 
....................  
.................... #ifndef ON 
.................... #define ON           1 
.................... #endif 
....................  
.................... #ifndef OFF 
.................... #define OFF          0 
.................... #endif 
....................  
.................... ///////////////////////////////////////////////////////////////////////// 
.................... // Function Prototypes 
.................... ///////////////////////////////////////////////////////////////////////// 
.................... void glcd_init(int1 mode); 
.................... void glcd_pixel(int8 x, int8 y, int1 color); 
.................... void glcd_fillScreen(int1 color); 
.................... void glcd_writeByte(int1 side, BYTE data); 
.................... BYTE glcd_readByte(int1 side); 
.................... void glcd_update(); 
.................... ///////////////////////////////////////////////////////////////////////// 
....................  
.................... #ifdef FAST_GLCD 
.................... struct 
.................... { 
....................    int8 left[512]; 
....................    int8 right[512]; 
.................... } displayData; 
.................... #endif 
....................  
....................  
.................... // Purpose:       Initialize the LCD. 
.................... //                Call before using any other LCD function. 
.................... // Inputs:        OFF - Turns the LCD off 
.................... //                ON  - Turns the LCD on 
.................... void glcd_init(int1 mode) 
.................... { 
....................    // Initialze some pins 
....................    output_high(GLCD_RST); 
*
0EFC:  BCF    F93.2
0EFE:  BSF    F8A.2
....................    output_low(GLCD_E); 
0F00:  BCF    F93.3
0F02:  BCF    F8A.3
....................    output_low(GLCD_CS1); 
0F04:  BCF    F93.0
0F06:  BCF    F8A.0
....................    output_low(GLCD_CS2); 
0F08:  BCF    F93.1
0F0A:  BCF    F8A.1
....................  
....................    output_low(GLCD_DI);                 // Set for instruction 
0F0C:  BCF    F93.5
0F0E:  BCF    F8A.5
....................    glcd_writeByte(GLCD_LEFT,  0xC0);    // Specify first RAM line at the top 
0F10:  MOVLB  6
0F12:  CLRF   x29
0F14:  MOVLW  C0
0F16:  MOVWF  x2A
0F18:  MOVLB  0
0F1A:  RCALL  0DAA
....................    glcd_writeByte(GLCD_RIGHT, 0xC0);    //   of the screen 
0F1C:  MOVLW  01
0F1E:  MOVLB  6
0F20:  MOVWF  x29
0F22:  MOVLW  C0
0F24:  MOVWF  x2A
0F26:  MOVLB  0
0F28:  RCALL  0DAA
....................    glcd_writeByte(GLCD_LEFT,  0x40);    // Set the column address to 0 
0F2A:  MOVLB  6
0F2C:  CLRF   x29
0F2E:  MOVLW  40
0F30:  MOVWF  x2A
0F32:  MOVLB  0
0F34:  RCALL  0DAA
....................    glcd_writeByte(GLCD_RIGHT, 0x40); 
0F36:  MOVLW  01
0F38:  MOVLB  6
0F3A:  MOVWF  x29
0F3C:  MOVLW  40
0F3E:  MOVWF  x2A
0F40:  MOVLB  0
0F42:  RCALL  0DAA
....................    glcd_writeByte(GLCD_LEFT,  0xB8);    // Set the page address to 0 
0F44:  MOVLB  6
0F46:  CLRF   x29
0F48:  MOVLW  B8
0F4A:  MOVWF  x2A
0F4C:  MOVLB  0
0F4E:  RCALL  0DAA
....................    glcd_writeByte(GLCD_RIGHT, 0xB8); 
0F50:  MOVLW  01
0F52:  MOVLB  6
0F54:  MOVWF  x29
0F56:  MOVLW  B8
0F58:  MOVWF  x2A
0F5A:  MOVLB  0
0F5C:  RCALL  0DAA
....................  
....................    if(mode == ON) 
0F5E:  MOVLB  6
0F60:  DECFSZ x11,W
0F62:  BRA    0F80
....................    { 
....................       glcd_writeByte(GLCD_LEFT,  0x3F); // Turn the display on 
0F64:  CLRF   x29
0F66:  MOVLW  3F
0F68:  MOVWF  x2A
0F6A:  MOVLB  0
0F6C:  RCALL  0DAA
....................       glcd_writeByte(GLCD_RIGHT, 0x3F); 
0F6E:  MOVLW  01
0F70:  MOVLB  6
0F72:  MOVWF  x29
0F74:  MOVLW  3F
0F76:  MOVWF  x2A
0F78:  MOVLB  0
0F7A:  RCALL  0DAA
....................    } 
....................    else 
0F7C:  BRA    0F98
0F7E:  MOVLB  6
....................    { 
....................       glcd_writeByte(GLCD_LEFT,  0x3E); // Turn the display off 
0F80:  CLRF   x29
0F82:  MOVLW  3E
0F84:  MOVWF  x2A
0F86:  MOVLB  0
0F88:  RCALL  0DAA
....................       glcd_writeByte(GLCD_RIGHT, 0x3E); 
0F8A:  MOVLW  01
0F8C:  MOVLB  6
0F8E:  MOVWF  x29
0F90:  MOVLW  3E
0F92:  MOVWF  x2A
0F94:  MOVLB  0
0F96:  RCALL  0DAA
....................    } 
....................  
....................    glcd_fillScreen(OFF);                // Clear the display 
0F98:  MOVLB  6
0F9A:  CLRF   x12
0F9C:  MOVLB  0
0F9E:  RCALL  0DEA
....................  
....................    #ifdef FAST_GLCD 
....................    glcd_update(); 
0FA0:  RCALL  0E44
....................    #endif 
.................... } 
0FA2:  RETLW  00
....................  
....................  
.................... // Purpose:    Update the LCD with data from the display arrays 
.................... #ifdef FAST_GLCD 
.................... void glcd_update() 
.................... { 
....................    int8 i, j; 
....................    int8 *p1, *p2; 
....................  
....................    p1 = displayData.left; 
*
0E44:  MOVLB  6
0E46:  CLRF   x25
0E48:  MOVLW  16
0E4A:  MOVWF  x24
....................    p2 = displayData.right; 
0E4C:  MOVLW  02
0E4E:  MOVWF  x27
0E50:  MOVLW  16
0E52:  MOVWF  x26
....................  
....................    // Loop through the vertical pages 
....................    for(i = 0; i < 8; ++i) 
0E54:  CLRF   x22
0E56:  MOVF   x22,W
0E58:  SUBLW  07
0E5A:  BNC   0EF8
....................    { 
....................       output_low(GLCD_DI);                      // Set for instruction 
0E5C:  BCF    F93.5
0E5E:  BCF    F8A.5
....................       glcd_writeByte(GLCD_LEFT, 0x40);          // Set horizontal address to 0 
0E60:  CLRF   x29
0E62:  MOVLW  40
0E64:  MOVWF  x2A
0E66:  MOVLB  0
0E68:  RCALL  0DAA
....................       glcd_writeByte(GLCD_RIGHT, 0x40); 
0E6A:  MOVLW  01
0E6C:  MOVLB  6
0E6E:  MOVWF  x29
0E70:  MOVLW  40
0E72:  MOVWF  x2A
0E74:  MOVLB  0
0E76:  RCALL  0DAA
....................       glcd_writeByte(GLCD_LEFT, i | 0xB8);      // Set page address 
0E78:  MOVLB  6
0E7A:  MOVF   x22,W
0E7C:  IORLW  B8
0E7E:  MOVWF  x28
0E80:  CLRF   x29
0E82:  MOVWF  x2A
0E84:  MOVLB  0
0E86:  RCALL  0DAA
....................       glcd_writeByte(GLCD_RIGHT, i | 0xB8); 
0E88:  MOVLB  6
0E8A:  MOVF   x22,W
0E8C:  IORLW  B8
0E8E:  MOVWF  x28
0E90:  MOVLW  01
0E92:  MOVWF  x29
0E94:  MOVFF  628,62A
0E98:  MOVLB  0
0E9A:  RCALL  0DAA
....................       output_high(GLCD_DI);                     // Set for data 
0E9C:  BCF    F93.5
0E9E:  BSF    F8A.5
....................  
....................       // Loop through the horizontal sections 
....................       for(j = 0; j < 64; ++j) 
0EA0:  MOVLB  6
0EA2:  CLRF   x23
0EA4:  MOVF   x23,W
0EA6:  SUBLW  3F
0EA8:  BNC   0EF4
....................       { 
....................          glcd_writeByte(GLCD_LEFT, *p1++);      // Turn pixels on or off 
0EAA:  MOVFF  625,03
0EAE:  MOVF   x24,W
0EB0:  INCF   x24,F
0EB2:  BTFSC  FD8.2
0EB4:  INCF   x25,F
0EB6:  MOVWF  FE9
0EB8:  MOVFF  03,FEA
0EBC:  MOVFF  FEF,628
0EC0:  CLRF   x29
0EC2:  MOVFF  628,62A
0EC6:  MOVLB  0
0EC8:  RCALL  0DAA
....................          glcd_writeByte(GLCD_RIGHT, *p2++);     // Turn pixels on or off 
0ECA:  MOVLB  6
0ECC:  MOVFF  627,03
0ED0:  MOVF   x26,W
0ED2:  INCF   x26,F
0ED4:  BTFSC  FD8.2
0ED6:  INCF   x27,F
0ED8:  MOVWF  FE9
0EDA:  MOVFF  03,FEA
0EDE:  MOVFF  FEF,628
0EE2:  MOVLW  01
0EE4:  MOVWF  x29
0EE6:  MOVFF  628,62A
0EEA:  MOVLB  0
0EEC:  RCALL  0DAA
....................       } 
0EEE:  MOVLB  6
0EF0:  INCF   x23,F
0EF2:  BRA    0EA4
....................    } 
0EF4:  INCF   x22,F
0EF6:  BRA    0E56
.................... } 
0EF8:  MOVLB  0
0EFA:  RETLW  00
.................... #endif 
....................  
....................  
.................... // Purpose:    Turn a pixel on a graphic LCD on or off 
.................... // Inputs:     1) x - the x coordinate of the pixel 
.................... //             2) y - the y coordinate of the pixel 
.................... //             3) color - ON or OFF 
.................... void glcd_pixel(int8 x, int8 y, int1 color) 
.................... #ifdef FAST_GLCD 
.................... { 
....................    int8* p; 
....................    int16 temp; 
....................    temp =  y/8; 
*
0FA4:  MOVLB  6
0FA6:  CLRF   x45
0FA8:  RRCF   x40,W
0FAA:  MOVWF  x44
0FAC:  RRCF   x44,F
0FAE:  RRCF   x44,F
0FB0:  MOVLW  1F
0FB2:  ANDWF  x44,F
....................    temp *= 64; 
0FB4:  RLCF   x44,F
0FB6:  RLCF   x45,F
0FB8:  RLCF   x44,F
0FBA:  RLCF   x45,F
0FBC:  RLCF   x44,F
0FBE:  RLCF   x45,F
0FC0:  RLCF   x44,F
0FC2:  RLCF   x45,F
0FC4:  RLCF   x44,F
0FC6:  RLCF   x45,F
0FC8:  RLCF   x44,F
0FCA:  RLCF   x45,F
0FCC:  MOVLW  C0
0FCE:  ANDWF  x44,F
....................    temp += x; 
0FD0:  MOVF   x3F,W
0FD2:  ADDWF  x44,F
0FD4:  MOVLW  00
0FD6:  ADDWFC x45,F
....................  
....................    if(x > 63) 
0FD8:  MOVF   x3F,W
0FDA:  SUBLW  3F
0FDC:  BC    0FF8
....................    { 
....................       p = displayData.right + temp - 64; 
0FDE:  MOVLW  16
0FE0:  ADDWF  x44,W
0FE2:  MOVWF  x46
0FE4:  MOVLW  02
0FE6:  ADDWFC x45,W
0FE8:  MOVWF  x47
0FEA:  MOVLW  40
0FEC:  SUBWF  x46,W
0FEE:  MOVWF  x42
0FF0:  MOVLW  00
0FF2:  SUBWFB x47,W
0FF4:  MOVWF  x43
....................    } 
....................    else 
0FF6:  BRA    1004
....................    { 
....................       p = displayData.left + temp; 
0FF8:  MOVLW  16
0FFA:  ADDWF  x44,W
0FFC:  MOVWF  x42
0FFE:  MOVLW  00
1000:  ADDWFC x45,W
1002:  MOVWF  x43
....................    } 
....................  
....................    if(color) 
1004:  MOVF   x41,F
1006:  BZ    1032
....................    { 
....................       bit_set(*p, y%8); 
1008:  MOVFF  643,03
100C:  MOVFF  642,FE9
1010:  MOVFF  643,FEA
1014:  MOVF   x40,W
1016:  ANDLW  07
1018:  MOVWF  x46
101A:  MOVLW  01
101C:  MOVWF  00
101E:  MOVF   x46,W
1020:  MOVWF  01
1022:  BZ    102C
1024:  BCF    FD8.0
1026:  RLCF   00,F
1028:  DECFSZ 01,F
102A:  BRA    1024
102C:  MOVF   00,W
102E:  IORWF  FEF,F
....................    } 
....................    else 
1030:  BRA    105C
....................    { 
....................       bit_clear(*p, y%8); 
1032:  MOVFF  643,03
1036:  MOVFF  642,FE9
103A:  MOVFF  643,FEA
103E:  MOVF   x40,W
1040:  ANDLW  07
1042:  MOVWF  x46
1044:  MOVLW  01
1046:  MOVWF  00
1048:  MOVF   x46,W
104A:  MOVWF  01
104C:  BZ    1056
104E:  BCF    FD8.0
1050:  RLCF   00,F
1052:  DECFSZ 01,F
1054:  BRA    104E
1056:  MOVF   00,W
1058:  XORLW  FF
105A:  ANDWF  FEF,F
....................    } 
.................... } 
105C:  MOVLB  0
105E:  RETLW  00
.................... #else 
.................... { 
....................    BYTE data; 
....................    int1 side = GLCD_LEFT;  // Stores which chip to use on the LCD 
....................  
....................    if(x > 63)              // Check for first or second display area 
....................    { 
....................       x -= 64; 
....................       side = GLCD_RIGHT; 
....................    } 
....................  
....................    output_low(GLCD_DI);                         // Set for instruction 
....................    bit_clear(x,7);                              // Clear the MSB. Part of an instruction code 
....................    bit_set(x,6);                                // Set bit 6. Also part of an instruction code 
....................    glcd_writeByte(side, x);                     // Set the horizontal address 
....................    glcd_writeByte(side, (y/8 & 0xBF) | 0xB8);   // Set the vertical page address 
....................    output_high(GLCD_DI);                        // Set for data 
....................    glcd_readByte(side);                         // Need two reads to get data 
....................    data = glcd_readByte(side);                  //  at new address 
....................  
....................    if(color == ON) 
....................       bit_set(data, y%8);        // Turn the pixel on 
....................    else                          // or 
....................       bit_clear(data, y%8);      // turn the pixel off 
....................  
....................    output_low(GLCD_DI);          // Set for instruction 
....................    glcd_writeByte(side, x);      // Set the horizontal address 
....................    output_high(GLCD_DI);         // Set for data 
....................    glcd_writeByte(side, data);   // Write the pixel data 
.................... } 
.................... #endif 
....................  
....................  
.................... // Purpose:    Fill the LCD screen with the passed in color 
.................... // Inputs:     ON  - turn all the pixels on 
.................... //             OFF - turn all the pixels off 
.................... void glcd_fillScreen(int1 color) 
.................... #ifdef FAST_GLCD 
.................... { 
....................    int8  data; 
....................    int8  *p1, *p2; 
....................    int16 i; 
....................  
....................    p1 = displayData.left; 
*
0DEA:  MOVLB  6
0DEC:  CLRF   x15
0DEE:  MOVLW  16
0DF0:  MOVWF  x14
....................    p2 = displayData.right; 
0DF2:  MOVLW  02
0DF4:  MOVWF  x17
0DF6:  MOVLW  16
0DF8:  MOVWF  x16
....................    data = 0xFF * color; 
0DFA:  MOVF   x12,W
0DFC:  MULLW  FF
0DFE:  MOVFF  FF3,613
....................  
....................    for(i=0; i<512; ++i) 
0E02:  CLRF   x19
0E04:  CLRF   x18
0E06:  MOVF   x19,W
0E08:  SUBLW  01
0E0A:  BNC   0E40
....................    { 
....................       *p1++ = data; 
0E0C:  MOVFF  615,03
0E10:  MOVF   x14,W
0E12:  INCF   x14,F
0E14:  BTFSC  FD8.2
0E16:  INCF   x15,F
0E18:  MOVWF  FE9
0E1A:  MOVFF  03,FEA
0E1E:  MOVFF  613,FEF
....................       *p2++ = data; 
0E22:  MOVFF  617,03
0E26:  MOVF   x16,W
0E28:  INCF   x16,F
0E2A:  BTFSC  FD8.2
0E2C:  INCF   x17,F
0E2E:  MOVWF  FE9
0E30:  MOVFF  03,FEA
0E34:  MOVFF  613,FEF
....................    } 
0E38:  INCF   x18,F
0E3A:  BTFSC  FD8.2
0E3C:  INCF   x19,F
0E3E:  BRA    0E06
.................... } 
0E40:  MOVLB  0
0E42:  RETLW  00
.................... #else 
.................... { 
....................    int8 i, j; 
....................  
....................    // Loop through the vertical pages 
....................    for(i = 0; i < 8; ++i) 
....................    { 
....................       output_low(GLCD_DI);                      // Set for instruction 
....................       glcd_writeByte(GLCD_LEFT, 0b01000000);    // Set horizontal address to 0 
....................       glcd_writeByte(GLCD_RIGHT, 0b01000000); 
....................       glcd_writeByte(GLCD_LEFT, i | 0b10111000);// Set page address 
....................       glcd_writeByte(GLCD_RIGHT, i | 0b10111000); 
....................       output_high(GLCD_DI);                     // Set for data 
....................  
....................       // Loop through the horizontal sections 
....................       for(j = 0; j < 64; ++j) 
....................       { 
....................          glcd_writeByte(GLCD_LEFT, 0xFF*color);  // Turn pixels on or off 
....................          glcd_writeByte(GLCD_RIGHT, 0xFF*color); // Turn pixels on or off 
....................       } 
....................    } 
.................... } 
.................... #endif 
....................  
....................  
.................... // Purpose:    Write a byte of data to the specified chip 
.................... // Inputs:     1) chipSelect - which chip to write the data to 
.................... //             2) data - the byte of data to write 
.................... void glcd_writeByte(int1 side, BYTE data) 
.................... { 
....................    if(side)                   // Choose which side to write to 
*
0DAA:  MOVLB  6
0DAC:  MOVF   x29,F
0DAE:  BZ    0DB6
....................       output_high(GLCD_CS2); 
0DB0:  BCF    F93.1
0DB2:  BSF    F8A.1
....................    else 
0DB4:  BRA    0DBA
....................       output_high(GLCD_CS1); 
0DB6:  BCF    F93.0
0DB8:  BSF    F8A.0
....................  
....................    output_low(GLCD_RW);       // Set for writing 
0DBA:  BCF    F93.4
0DBC:  BCF    F8A.4
....................    output_d(data);            // Put the data on the port 
0DBE:  CLRF   F95
0DC0:  MOVFF  62A,F8C
....................    delay_cycles(50); 
0DC4:  MOVLW  10
0DC6:  MOVWF  00
0DC8:  DECFSZ 00,F
0DCA:  BRA    0DC8
0DCC:  NOP   
....................    output_high(GLCD_E);       // Pulse the enable pin 
0DCE:  BCF    F93.3
0DD0:  BSF    F8A.3
....................    delay_cycles(250); 
0DD2:  MOVLW  53
0DD4:  MOVWF  00
0DD6:  DECFSZ 00,F
0DD8:  BRA    0DD6
....................    output_low(GLCD_E); 
0DDA:  BCF    F93.3
0DDC:  BCF    F8A.3
....................  
....................    output_low(GLCD_CS1);      // Reset the chip select lines 
0DDE:  BCF    F93.0
0DE0:  BCF    F8A.0
....................    output_low(GLCD_CS2); 
0DE2:  BCF    F93.1
0DE4:  BCF    F8A.1
.................... } 
0DE6:  MOVLB  0
0DE8:  RETLW  00
....................  
....................  
.................... // Purpose:    Reads a byte of data from the specified chip 
.................... // Ouputs:     A byte of data read from the chip 
.................... BYTE glcd_readByte(int1 side) 
.................... { 
....................    BYTE data;                 // Stores the data read from the LCD 
....................  
....................    set_tris_d(0xFF);          // Set port d to input 
....................    output_high(GLCD_RW);      // Set for reading 
....................  
....................    if(side)                   // Choose which side to write to 
....................       output_high(GLCD_CS2); 
....................    else 
....................       output_high(GLCD_CS1); 
....................  
....................    delay_cycles(50); 
....................    output_high(GLCD_E);       // Pulse the enable pin 
....................    delay_cycles(200); 
....................    data = input_d();          // Get the data from the display's output register 
....................    output_low(GLCD_E); 
....................  
....................    output_low(GLCD_CS1);      // Reset the chip select lines 
....................    output_low(GLCD_CS2); 
....................    return data;               // Return the read data 
.................... } 
....................  
.................... #endif 
....................  
.................... #include "GRAPHICS.c" 
.................... ///////////////////////////////////////////////////////////////////////// 
.................... ////                          graphics.c                             //// 
.................... ////                                                                 //// 
.................... ////   This file contains functions to draw lines, rectangles, bars, //// 
.................... ////   circles and text to a display. A function which draws a       //// 
.................... ////   single pixel must be defined before calling the functions in  //// 
.................... ////   this file. Call it glcd_pixel(x, y, color) where x is the     //// 
.................... ////   horizontal coordinate, y is the vertical coordinate, and      //// 
.................... ////   color is 1 bit to turn the pixel on or off.                   //// 
.................... ////                                                                 //// 
.................... ////   * Note: (0, 0) is treated as the upper left corner            //// 
.................... ////                                                                 //// 
.................... ///////////////////////////////////////////////////////////////////////// 
.................... ////                                                                 //// 
.................... ////  glcd_line(x1, y1, x2, y2, color)                               //// 
.................... ////     * Draws a line from the first point to the second point     //// 
.................... ////       with the given color                                      //// 
.................... ////       - color can be ON or OFF                                  //// 
.................... ////                                                                 //// 
.................... ////  glcd_rect(x1, y1, x2, y2, fill, color)                         //// 
.................... ////     * Draws a rectangle with one corner at point (x1,y1) and    //// 
.................... ////       the other corner at point (x2,y2)                         //// 
.................... ////       - fill can be YES or NO                                   //// 
.................... ////       - color can be ON or OFF                                  //// 
.................... ////                                                                 //// 
.................... ////  glcd_bar(x1, y1, x2, y2, width, color)                         //// 
.................... ////     * Draws a bar (wide line) from the first point to the       //// 
.................... ////       second point                                              //// 
.................... ////       - width is the number of pixels wide                      //// 
.................... ////       - color is ON or OFF                                      //// 
.................... ////                                                                 //// 
.................... ////  glcd_circle(x, y, radius, fill, color)                         //// 
.................... ////     * Draws a circle with center at (x,y)                       //// 
.................... ////       - fill can be YES or NO                                   //// 
.................... ////       - color can be ON or OFF                                  //// 
.................... ////                                                                 //// 
.................... ////  glcd_text57(x, y, textptr, size, color)                        //// 
.................... ////     * Write the null terminated text pointed to by textptr with //// 
.................... ////       the upper left coordinate of the first character at (x,y) //// 
.................... ////       Characters are 5 pixels wide and 7 pixels tall            //// 
.................... ////       - size is an integer that scales the size of the text     //// 
.................... ////       - color is ON or OFF                                      //// 
.................... ////     * Note - This function wraps characters to the next line    //// 
.................... ////              use #define GLCD_WIDTH to specify a display width  //// 
.................... ////                                                                 //// 
.................... ///////////////////////////////////////////////////////////////////////// 
.................... ////        (C) Copyright 1996, 2004 Custom Computer Services        //// 
.................... //// This source code may only be used by licensed users of the CCS  //// 
.................... //// C compiler.  This source code may only be distributed to other  //// 
.................... //// licensed users of the CCS C compiler.  No other use,            //// 
.................... //// reproduction or distribution is permitted without written       //// 
.................... //// permission.  Derivative programs created using this software    //// 
.................... //// in object code form are not restricted in any way.              //// 
.................... ///////////////////////////////////////////////////////////////////////// 
....................  
....................  
.................... ///////////////////////////////////////////////////////////////////////// 
.................... #ifndef GRAPHICS_DRAWING_FUNCTIONS 
.................... #define GRAPHICS_DRAWING_FUNCTIONS 
.................... ///////////////////////////////////////////////////////////////////////// 
....................  
....................  
.................... ///////////////////////////////////////////////////////////////////////// 
.................... #ifndef ON 
.................... #define ON  1 
.................... #endif 
....................  
.................... #ifndef OFF 
.................... #define OFF 0 
.................... #endif 
....................  
.................... #ifndef YES 
.................... #define YES 1 
.................... #endif 
....................  
.................... #ifndef NO 
.................... #define NO  0 
.................... #endif 
.................... ///////////////////////////////////////////////////////////////////////// 
....................  
....................  
.................... ///////////////////////////////////////////////////////////////////////// 
.................... //// Defines a 5x7 font 
.................... ///////////////////////////////////////////////////////////////////////// 
.................... const int8 FONT[51][5] ={0x00, 0x00, 0x00, 0x00, 0x00, // SPACE 
....................                          0x00, 0x00, 0x5F, 0x00, 0x00, // ! 
....................                          0x00, 0x03, 0x00, 0x03, 0x00, // " 
....................                          0x14, 0x3E, 0x14, 0x3E, 0x14, // # 
....................                          0x24, 0x2A, 0x7F, 0x2A, 0x12, // $ 
....................                          0x43, 0x33, 0x08, 0x66, 0x61, // % 
....................                          0x36, 0x49, 0x55, 0x22, 0x50, // & 
....................                          0x00, 0x05, 0x03, 0x00, 0x00, // ' 
....................                          0x00, 0x1C, 0x22, 0x41, 0x00, // ( 
....................                          0x00, 0x41, 0x22, 0x1C, 0x00, // ) 
....................                          0x14, 0x08, 0x3E, 0x08, 0x14, // * 
....................                          0x08, 0x08, 0x3E, 0x08, 0x08, // + 
....................                          0x00, 0x50, 0x30, 0x00, 0x00, // , 
....................                          0x08, 0x08, 0x08, 0x08, 0x08, // - 
....................                          0x00, 0x60, 0x60, 0x00, 0x00, // . 
....................                          0x20, 0x10, 0x08, 0x04, 0x02, // / 
....................                          0x3E, 0x51, 0x49, 0x45, 0x3E, // 0 
....................                          0x00, 0x04, 0x02, 0x7F, 0x00, // 1 
....................                          0x42, 0x61, 0x51, 0x49, 0x46, // 2 
....................                          0x22, 0x41, 0x49, 0x49, 0x36, // 3 
....................                          0x18, 0x14, 0x12, 0x7F, 0x10, // 4 
....................                          0x27, 0x45, 0x45, 0x45, 0x39, // 5 
....................                          0x3E, 0x49, 0x49, 0x49, 0x32, // 6 
....................                          0x01, 0x01, 0x71, 0x09, 0x07, // 7 
....................                          0x36, 0x49, 0x49, 0x49, 0x36, // 8 
....................                          0x26, 0x49, 0x49, 0x49, 0x3E, // 9 
....................                          0x00, 0x36, 0x36, 0x00, 0x00, // : 
....................                          0x00, 0x56, 0x36, 0x00, 0x00, // ; 
....................                          0x08, 0x14, 0x22, 0x41, 0x00, // < 
....................                          0x14, 0x14, 0x14, 0x14, 0x14, // = 
....................                          0x00, 0x41, 0x22, 0x14, 0x08, // > 
....................                          0x02, 0x01, 0x51, 0x09, 0x06, // ? 
....................                          0x3E, 0x41, 0x59, 0x55, 0x5E, // @ 
....................                          0x7E, 0x09, 0x09, 0x09, 0x7E, // A 
....................                          0x7F, 0x49, 0x49, 0x49, 0x36, // B 
....................                          0x3E, 0x41, 0x41, 0x41, 0x22, // C 
....................                          0x7F, 0x41, 0x41, 0x41, 0x3E, // D 
....................                          0x7F, 0x49, 0x49, 0x49, 0x41, // E 
....................                          0x7F, 0x09, 0x09, 0x09, 0x01, // F 
....................                          0x3E, 0x41, 0x41, 0x49, 0x3A, // G 
....................                          0x7F, 0x08, 0x08, 0x08, 0x7F, // H 
....................                          0x00, 0x41, 0x7F, 0x41, 0x00, // I 
....................                          0x30, 0x40, 0x40, 0x40, 0x3F, // J 
....................                          0x7F, 0x08, 0x14, 0x22, 0x41, // K 
....................                          0x7F, 0x40, 0x40, 0x40, 0x40, // L 
....................                          0x7F, 0x02, 0x0C, 0x02, 0x7F, // M 
....................                          0x7F, 0x02, 0x04, 0x08, 0x7F, // N 
....................                          0x3E, 0x41, 0x41, 0x41, 0x3E, // O 
....................                          0x7F, 0x09, 0x09, 0x09, 0x06, // P 
....................                          0x1E, 0x21, 0x21, 0x21, 0x5E, // Q 
....................                          0x7F, 0x09, 0x09, 0x09, 0x76};// R 
....................  
.................... const int8 FONT2[44][5]={0x26, 0x49, 0x49, 0x49, 0x32, // S 
....................                          0x01, 0x01, 0x7F, 0x01, 0x01, // T 
....................                          0x3F, 0x40, 0x40, 0x40, 0x3F, // U 
....................                          0x1F, 0x20, 0x40, 0x20, 0x1F, // V 
....................                          0x7F, 0x20, 0x10, 0x20, 0x7F, // W 
....................                          0x41, 0x22, 0x1C, 0x22, 0x41, // X 
....................                          0x07, 0x08, 0x70, 0x08, 0x07, // Y 
....................                          0x61, 0x51, 0x49, 0x45, 0x43, // Z 
....................                          0x00, 0x7F, 0x41, 0x00, 0x00, // [ 
....................                          0x02, 0x04, 0x08, 0x10, 0x20, // \ 
....................                          0x00, 0x00, 0x41, 0x7F, 0x00, // ] 
....................                          0x04, 0x02, 0x01, 0x02, 0x04, // ^ 
....................                          0x40, 0x40, 0x40, 0x40, 0x40, // _ 
....................                          0x00, 0x01, 0x02, 0x04, 0x00, // ` 
....................                          0x20, 0x54, 0x54, 0x54, 0x78, // a 
....................                          0x7F, 0x44, 0x44, 0x44, 0x38, // b 
....................                          0x38, 0x44, 0x44, 0x44, 0x44, // c 
....................                          0x38, 0x44, 0x44, 0x44, 0x7F, // d 
....................                          0x38, 0x54, 0x54, 0x54, 0x18, // e 
....................                          0x04, 0x04, 0x7E, 0x05, 0x05, // f 
....................                          0x08, 0x54, 0x54, 0x54, 0x3C, // g 
....................                          0x7F, 0x08, 0x04, 0x04, 0x78, // h 
....................                          0x00, 0x44, 0x7D, 0x40, 0x00, // i 
....................                          0x20, 0x40, 0x44, 0x3D, 0x00, // j 
....................                          0x7F, 0x10, 0x28, 0x44, 0x00, // k 
....................                          0x00, 0x41, 0x7F, 0x40, 0x00, // l 
....................                          0x7C, 0x04, 0x78, 0x04, 0x78, // m 
....................                          0x7C, 0x08, 0x04, 0x04, 0x78, // n 
....................                          0x38, 0x44, 0x44, 0x44, 0x38, // o 
....................                          0x7C, 0x14, 0x14, 0x14, 0x08, // p 
....................                          0x08, 0x14, 0x14, 0x14, 0x7C, // q 
....................                          0x00, 0x7C, 0x08, 0x04, 0x04, // r 
....................                          0x48, 0x54, 0x54, 0x54, 0x20, // s 
....................                          0x04, 0x04, 0x3F, 0x44, 0x44, // t 
....................                          0x3C, 0x40, 0x40, 0x20, 0x7C, // u 
....................                          0x1C, 0x20, 0x40, 0x20, 0x1C, // v 
....................                          0x3C, 0x40, 0x30, 0x40, 0x3C, // w 
....................                          0x44, 0x28, 0x10, 0x28, 0x44, // x 
....................                          0x0C, 0x50, 0x50, 0x50, 0x3C, // y 
....................                          0x44, 0x64, 0x54, 0x4C, 0x44, // z 
....................                          0x00, 0x08, 0x36, 0x41, 0x41, // { 
....................                          0x00, 0x00, 0x7F, 0x00, 0x00, // | 
....................                          0x41, 0x41, 0x36, 0x08, 0x00, // } 
....................                          0x02, 0x01, 0x02, 0x04, 0x02};// ~ 
.................... ///////////////////////////////////////////////////////////////////////// 
....................  
....................  
.................... ///////////////////////////////////////////////////////////////////////// 
.................... // Purpose:       Draw a line on a graphic LCD using Bresenham's 
.................... //                line drawing algorithm 
.................... // Inputs:        (x1, y1) - the start coordinate 
.................... //                (x2, y2) - the end coordinate 
.................... //                color - ON or OFF 
.................... // Dependencies:  glcd_pixel() 
.................... ///////////////////////////////////////////////////////////////////////// 
.................... #ifdef LARGE_LCD 
.................... void glcd_line(int16 x1, int16 y1, int16 x2, int16 y2, int1 color) 
.................... #else 
.................... void glcd_line(int8 x1, int8 y1, int8 x2, int8 y2, int1 color) 
.................... #endif 
.................... { 
*
1218:  MOVLW  01
121A:  MOVLB  6
121C:  MOVWF  x38
121E:  MOVWF  x39
1220:  CLRF   x3E
....................    int16        dy, dx; 
....................    signed int8  addx=1, addy=1; 
....................    signed int16 P, diff; 
....................  
....................    #ifdef LARGE_LCD 
....................    int16 i=0; 
....................    dx = abs((signed int16)(x2 - x1)); 
....................    dy = abs((signed int16)(y2 - y1)); 
....................    #else 
....................    int8 i=0; 
....................    dx = abs((signed int8)(x2 - x1)); 
1222:  MOVF   x2F,W
1224:  SUBWF  x31,W
1226:  MOVWF  x3F
1228:  MOVF   x3F,W
122A:  BTFSS  x3F.7
122C:  BRA    1234
122E:  MOVLW  00
1230:  BSF    FD8.0
1232:  SUBFWB x3F,W
1234:  CLRF   03
1236:  MOVWF  x36
1238:  MOVFF  03,637
....................    dy = abs((signed int8)(y2 - y1)); 
123C:  MOVF   x30,W
123E:  SUBWF  x32,W
1240:  MOVWF  x3F
1242:  MOVF   x3F,W
1244:  BTFSS  x3F.7
1246:  BRA    124E
1248:  MOVLW  00
124A:  BSF    FD8.0
124C:  SUBFWB x3F,W
124E:  CLRF   03
1250:  MOVWF  x34
1252:  MOVFF  03,635
....................    #endif 
....................  
....................    if(x1 > x2) 
1256:  MOVF   x2F,W
1258:  SUBWF  x31,W
125A:  BC    1260
....................       addx = -1; 
125C:  MOVLW  FF
125E:  MOVWF  x38
....................    if(y1 > y2) 
1260:  MOVF   x30,W
1262:  SUBWF  x32,W
1264:  BC    126A
....................       addy = -1; 
1266:  MOVLW  FF
1268:  MOVWF  x39
....................  
....................    if(dx >= dy) 
126A:  MOVF   x35,W
126C:  SUBWF  x37,W
126E:  BNC   12E6
1270:  BNZ   1278
1272:  MOVF   x34,W
1274:  SUBWF  x36,W
1276:  BNC   12E6
....................    { 
....................       dy *= 2; 
1278:  BCF    FD8.0
127A:  RLCF   x34,F
127C:  RLCF   x35,F
....................       P = dy - dx; 
127E:  MOVF   x36,W
1280:  SUBWF  x34,W
1282:  MOVWF  00
1284:  MOVF   x37,W
1286:  SUBWFB x35,W
1288:  MOVFF  00,63A
128C:  MOVWF  x3B
....................       diff = P - dx; 
128E:  MOVF   x36,W
1290:  SUBWF  x3A,W
1292:  MOVWF  x3C
1294:  MOVF   x37,W
1296:  SUBWFB x3B,W
1298:  MOVWF  x3D
....................  
....................       for(; i<=dx; ++i) 
129A:  MOVF   x37,F
129C:  BNZ   12A4
129E:  MOVF   x3E,W
12A0:  SUBWF  x36,W
12A2:  BNC   12E4
....................       { 
....................          glcd_pixel(x1, y1, color); 
12A4:  MOVFF  62F,63F
12A8:  MOVFF  630,640
12AC:  MOVFF  633,641
12B0:  MOVLB  0
12B2:  RCALL  0FA4
....................  
....................          if(P < 0) 
12B4:  MOVLB  6
12B6:  BTFSC  x3B.7
12B8:  BRA    12BC
12BA:  BRA    12CC
....................          { 
....................             P  += dy; 
12BC:  MOVF   x34,W
12BE:  ADDWF  x3A,F
12C0:  MOVF   x35,W
12C2:  ADDWFC x3B,F
....................             x1 += addx; 
12C4:  MOVF   x38,W
12C6:  ADDWF  x2F,W
12C8:  MOVWF  x2F
....................          } 
....................          else 
12CA:  BRA    12E0
....................          { 
....................             P  += diff; 
12CC:  MOVF   x3C,W
12CE:  ADDWF  x3A,F
12D0:  MOVF   x3D,W
12D2:  ADDWFC x3B,F
....................             x1 += addx; 
12D4:  MOVF   x38,W
12D6:  ADDWF  x2F,W
12D8:  MOVWF  x2F
....................             y1 += addy; 
12DA:  MOVF   x39,W
12DC:  ADDWF  x30,W
12DE:  MOVWF  x30
....................          } 
....................       } 
12E0:  INCF   x3E,F
12E2:  BRA    129A
....................    } 
....................    else 
12E4:  BRA    1352
....................    { 
....................       dx *= 2; 
12E6:  BCF    FD8.0
12E8:  RLCF   x36,F
12EA:  RLCF   x37,F
....................       P = dx - dy; 
12EC:  MOVF   x34,W
12EE:  SUBWF  x36,W
12F0:  MOVWF  00
12F2:  MOVF   x35,W
12F4:  SUBWFB x37,W
12F6:  MOVFF  00,63A
12FA:  MOVWF  x3B
....................       diff = P - dy; 
12FC:  MOVF   x34,W
12FE:  SUBWF  x3A,W
1300:  MOVWF  x3C
1302:  MOVF   x35,W
1304:  SUBWFB x3B,W
1306:  MOVWF  x3D
....................  
....................       for(; i<=dy; ++i) 
1308:  MOVF   x35,F
130A:  BNZ   1312
130C:  MOVF   x3E,W
130E:  SUBWF  x34,W
1310:  BNC   1352
....................       { 
....................          glcd_pixel(x1, y1, color); 
1312:  MOVFF  62F,63F
1316:  MOVFF  630,640
131A:  MOVFF  633,641
131E:  MOVLB  0
1320:  RCALL  0FA4
....................  
....................          if(P < 0) 
1322:  MOVLB  6
1324:  BTFSC  x3B.7
1326:  BRA    132A
1328:  BRA    133A
....................          { 
....................             P  += dx; 
132A:  MOVF   x36,W
132C:  ADDWF  x3A,F
132E:  MOVF   x37,W
1330:  ADDWFC x3B,F
....................             y1 += addy; 
1332:  MOVF   x39,W
1334:  ADDWF  x30,W
1336:  MOVWF  x30
....................          } 
....................          else 
1338:  BRA    134E
....................          { 
....................             P  += diff; 
133A:  MOVF   x3C,W
133C:  ADDWF  x3A,F
133E:  MOVF   x3D,W
1340:  ADDWFC x3B,F
....................             x1 += addx; 
1342:  MOVF   x38,W
1344:  ADDWF  x2F,W
1346:  MOVWF  x2F
....................             y1 += addy; 
1348:  MOVF   x39,W
134A:  ADDWF  x30,W
134C:  MOVWF  x30
....................          } 
....................       } 
134E:  INCF   x3E,F
1350:  BRA    1308
....................    } 
.................... } 
1352:  MOVLB  0
1354:  RETLW  00
....................  
....................  
.................... ///////////////////////////////////////////////////////////////////////// 
.................... // Purpose:       Draw a rectangle on a graphic LCD 
.................... // Inputs:        (x1, y1) - the start coordinate 
.................... //                (x2, y2) - the end coordinate 
.................... //                fill  - YES or NO 
.................... //                color - ON or OFF 
.................... // Dependencies:  glcd_pixel(), glcd_line() 
.................... ///////////////////////////////////////////////////////////////////////// 
.................... #ifdef LARGE_LCD 
.................... void glcd_rect(int16 x1, int16 y1, int16 x2, int16 y2, int1 fill, int1 color) 
.................... #else 
.................... void glcd_rect(int8 x1, int8 y1, int8 x2, int8 y2, int1 fill, int1 color) 
.................... #endif 
.................... { 
....................    if(fill) 
1356:  MOVLB  6
1358:  MOVF   x28,F
135A:  BZ    13B8
....................    { 
....................       #ifdef LARGE_LCD 
....................       int16 i, xmin, xmax, ymin, ymax; 
....................       #else 
....................       int8  i, xmin, xmax, ymin, ymax; 
....................       #endif 
....................  
....................       if(x1 < x2)                            //  Find x min and max 
135C:  MOVF   x26,W
135E:  SUBWF  x24,W
1360:  BC    136C
....................       { 
....................          xmin = x1; 
1362:  MOVFF  624,62B
....................          xmax = x2; 
1366:  MOVFF  626,62C
....................       } 
....................       else 
136A:  BRA    1374
....................       { 
....................          xmin = x2; 
136C:  MOVFF  626,62B
....................          xmax = x1; 
1370:  MOVFF  624,62C
....................       } 
....................  
....................       if(y1 < y2)                            // Find the y min and max 
1374:  MOVF   x27,W
1376:  SUBWF  x25,W
1378:  BC    1384
....................       { 
....................          ymin = y1; 
137A:  MOVFF  625,62D
....................          ymax = y2; 
137E:  MOVFF  627,62E
....................       } 
....................       else 
1382:  BRA    138C
....................       { 
....................          ymin = y2; 
1384:  MOVFF  627,62D
....................          ymax = y1; 
1388:  MOVFF  625,62E
....................       } 
....................  
....................       for(; xmin <= xmax; ++xmin) 
138C:  MOVF   x2B,W
138E:  SUBWF  x2C,W
1390:  BNC   13B6
....................       { 
....................          for(i=ymin; i<=ymax; ++i) 
1392:  MOVFF  62D,62A
1396:  MOVF   x2A,W
1398:  SUBWF  x2E,W
139A:  BNC   13B2
....................          { 
....................             glcd_pixel(xmin, i, color); 
139C:  MOVFF  62B,63F
13A0:  MOVFF  62A,640
13A4:  MOVFF  629,641
13A8:  MOVLB  0
13AA:  RCALL  0FA4
....................          } 
13AC:  MOVLB  6
13AE:  INCF   x2A,F
13B0:  BRA    1396
....................       } 
13B2:  INCF   x2B,F
13B4:  BRA    138C
....................    } 
....................    else 
13B6:  BRA    1414
....................    { 
....................       glcd_line(x1, y1, x2, y1, color);      // Draw the 4 sides 
13B8:  MOVFF  624,62F
13BC:  MOVFF  625,630
13C0:  MOVFF  626,631
13C4:  MOVFF  625,632
13C8:  MOVFF  629,633
13CC:  MOVLB  0
13CE:  RCALL  1218
....................       glcd_line(x1, y2, x2, y2, color); 
13D0:  MOVFF  624,62F
13D4:  MOVFF  627,630
13D8:  MOVFF  626,631
13DC:  MOVFF  627,632
13E0:  MOVFF  629,633
13E4:  RCALL  1218
....................       glcd_line(x1, y1, x1, y2, color); 
13E6:  MOVFF  624,62F
13EA:  MOVFF  625,630
13EE:  MOVFF  624,631
13F2:  MOVFF  627,632
13F6:  MOVFF  629,633
13FA:  RCALL  1218
....................       glcd_line(x2, y1, x2, y2, color); 
13FC:  MOVFF  626,62F
1400:  MOVFF  625,630
1404:  MOVFF  626,631
1408:  MOVFF  627,632
140C:  MOVFF  629,633
1410:  RCALL  1218
1412:  MOVLB  6
....................    } 
.................... } 
1414:  MOVLB  0
1416:  RETLW  00
....................  
.................... ///////////////////////////////////////////////////////////////////////// 
.................... // Purpose:       Draw a bar (wide line) on a graphic LCD 
.................... // Inputs:        (x1, y1) - the start coordinate 
.................... //                (x2, y2) - the end coordinate 
.................... //                width  - The number of pixels wide 
.................... //                color - ON or OFF 
.................... ///////////////////////////////////////////////////////////////////////// 
.................... #ifdef LARGE_LCD 
.................... void glcd_bar(int16 x1, int16 y1, int16 x2, int16 y2, int8 width, int1 color) 
.................... #else 
.................... void glcd_bar(int8 x1, int8 y1, int8 x2, int8 y2, int8 width, int1 color) 
.................... #endif 
.................... { 
....................    int8         half_width; 
....................    signed int16 dy, dx; 
....................    signed int8  addx=1, addy=1, j; 
....................    signed int16 P, diff, c1, c2; 
....................  
....................    #ifdef LARGE_LCD 
....................    int16 i=0; 
....................    dx = abs((signed int16)(x2 - x1)); 
....................    dy = abs((signed int16)(y2 - y1)); 
....................    #else 
....................    int8 i=0; 
....................    dx = abs((signed int8)(x2 - x1)); 
....................    dy = abs((signed int8)(y2 - y1)); 
....................    #endif 
....................  
....................    half_width = width/2; 
....................    c1 = -(dx*x1 + dy*y1); 
....................    c2 = -(dx*x2 + dy*y2); 
....................  
....................    if(x1 > x2) 
....................    { 
....................       signed int16 temp; 
....................       temp = c1; 
....................       c1 = c2; 
....................       c2 = temp; 
....................       addx = -1; 
....................    } 
....................    if(y1 > y2) 
....................    { 
....................       signed int16 temp; 
....................       temp = c1; 
....................       c1 = c2; 
....................       c2 = temp; 
....................       addy = -1; 
....................    } 
....................  
....................    if(dx >= dy) 
....................    { 
....................       P = 2*dy - dx; 
....................       diff = P - dx; 
....................  
....................       for(i=0; i<=dx; ++i) 
....................       { 
....................          for(j=-half_width; j<half_width+width%2; ++j) 
....................          { 
....................             #ifdef LARGE_LCD 
....................             int16 temp; 
....................             #else 
....................             int8 temp; 
....................             #endif 
....................  
....................             temp = dx*x1+dy*(y1+j);    // Use more RAM to increase speed 
....................             if(temp+c1 >= 0 && temp+c2 <=0) 
....................                glcd_pixel(x1, y1+j, color); 
....................          } 
....................          if(P < 0) 
....................          { 
....................             P  += 2*dy; 
....................             x1 += addx; 
....................          } 
....................          else 
....................          { 
....................             P  += diff; 
....................             x1 += addx; 
....................             y1 += addy; 
....................          } 
....................       } 
....................    } 
....................    else 
....................    { 
....................       P = 2*dx - dy; 
....................       diff = P - dy; 
....................  
....................       for(i=0; i<=dy; ++i) 
....................       { 
....................          if(P < 0) 
....................          { 
....................             P  += 2*dx; 
....................             y1 += addy; 
....................          } 
....................          else 
....................          { 
....................             P  += diff; 
....................             x1 += addx; 
....................             y1 += addy; 
....................          } 
....................          for(j=-half_width; j<half_width+width%2; ++j) 
....................          { 
....................             #ifdef LARGE_LCD 
....................             int16 temp; 
....................             #else 
....................             int8 temp; 
....................             #endif 
....................  
....................             temp = dx*x1+dy*(y1+j);    // Use more RAM to increase speed 
....................             if(temp+c1 >= 0 && temp+c2 <=0) 
....................                glcd_pixel(x1+j, y1, color); 
....................          } 
....................       } 
....................    } 
.................... } 
....................  
....................  
.................... ///////////////////////////////////////////////////////////////////////// 
.................... // Purpose:       Draw a circle on a graphic LCD 
.................... // Inputs:        (x,y) - the center of the circle 
.................... //                radius - the radius of the circle 
.................... //                fill - YES or NO 
.................... //                color - ON or OFF 
.................... ///////////////////////////////////////////////////////////////////////// 
.................... #ifdef LARGE_LCD 
.................... void glcd_circle(int16 x, int16 y, int16 radius, int1 fill, int1 color) 
.................... #else 
.................... void glcd_circle(int8 x, int8 y, int8 radius, int1 fill, int1 color) 
.................... #endif 
.................... { 
....................    #ifdef LARGE_LCD 
....................    signed int16 a, b, P; 
....................    #else 
....................    signed int8  a, b, P; 
....................    #endif 
....................  
....................    a = 0; 
*
2030:  MOVLB  6
2032:  CLRF   x16
....................    b = radius; 
2034:  MOVFF  613,617
....................    P = 1 - radius; 
2038:  MOVLW  01
203A:  BSF    FD8.0
203C:  SUBFWB x13,W
203E:  MOVWF  x18
....................  
....................    do 
....................    { 
....................       if(fill) 
2040:  MOVF   x14,F
2042:  BZ    210E
....................       { 
....................          glcd_line(x-a, y+b, x+a, y+b, color); 
2044:  MOVF   x16,W
2046:  SUBWF  x11,W
2048:  MOVWF  x19
204A:  MOVF   x17,W
204C:  ADDWF  x12,W
204E:  MOVWF  x1A
2050:  MOVF   x16,W
2052:  ADDWF  x11,W
2054:  MOVWF  x1B
2056:  MOVF   x17,W
2058:  ADDWF  x12,W
205A:  MOVWF  x1C
205C:  MOVFF  619,62F
2060:  MOVFF  61A,630
2064:  MOVFF  61B,631
2068:  MOVWF  x32
206A:  MOVFF  615,633
206E:  MOVLB  0
2070:  CALL   1218
....................          glcd_line(x-a, y-b, x+a, y-b, color); 
2074:  MOVLB  6
2076:  MOVF   x16,W
2078:  SUBWF  x11,W
207A:  MOVWF  x19
207C:  MOVF   x17,W
207E:  SUBWF  x12,W
2080:  MOVWF  x1A
2082:  MOVF   x16,W
2084:  ADDWF  x11,W
2086:  MOVWF  x1B
2088:  MOVF   x17,W
208A:  SUBWF  x12,W
208C:  MOVWF  x1C
208E:  MOVFF  619,62F
2092:  MOVFF  61A,630
2096:  MOVFF  61B,631
209A:  MOVWF  x32
209C:  MOVFF  615,633
20A0:  MOVLB  0
20A2:  CALL   1218
....................          glcd_line(x-b, y+a, x+b, y+a, color); 
20A6:  MOVLB  6
20A8:  MOVF   x17,W
20AA:  SUBWF  x11,W
20AC:  MOVWF  x19
20AE:  MOVF   x16,W
20B0:  ADDWF  x12,W
20B2:  MOVWF  x1A
20B4:  MOVF   x17,W
20B6:  ADDWF  x11,W
20B8:  MOVWF  x1B
20BA:  MOVF   x16,W
20BC:  ADDWF  x12,W
20BE:  MOVWF  x1C
20C0:  MOVFF  619,62F
20C4:  MOVFF  61A,630
20C8:  MOVFF  61B,631
20CC:  MOVWF  x32
20CE:  MOVFF  615,633
20D2:  MOVLB  0
20D4:  CALL   1218
....................          glcd_line(x-b, y-a, x+b, y-a, color); 
20D8:  MOVLB  6
20DA:  MOVF   x17,W
20DC:  SUBWF  x11,W
20DE:  MOVWF  x19
20E0:  MOVF   x16,W
20E2:  SUBWF  x12,W
20E4:  MOVWF  x1A
20E6:  MOVF   x17,W
20E8:  ADDWF  x11,W
20EA:  MOVWF  x1B
20EC:  MOVF   x16,W
20EE:  SUBWF  x12,W
20F0:  MOVWF  x1C
20F2:  MOVFF  619,62F
20F6:  MOVFF  61A,630
20FA:  MOVFF  61B,631
20FE:  MOVWF  x32
2100:  MOVFF  615,633
2104:  MOVLB  0
2106:  CALL   1218
....................       } 
....................       else 
210A:  BRA    21FC
210C:  MOVLB  6
....................       { 
....................          glcd_pixel(a+x, b+y, color); 
210E:  MOVF   x11,W
2110:  ADDWF  x16,W
2112:  MOVWF  x19
2114:  MOVF   x12,W
2116:  ADDWF  x17,W
2118:  MOVWF  x1A
211A:  MOVFF  619,63F
211E:  MOVWF  x40
2120:  MOVFF  615,641
2124:  MOVLB  0
2126:  CALL   0FA4
....................          glcd_pixel(b+x, a+y, color); 
212A:  MOVLB  6
212C:  MOVF   x11,W
212E:  ADDWF  x17,W
2130:  MOVWF  x19
2132:  MOVF   x12,W
2134:  ADDWF  x16,W
2136:  MOVWF  x1A
2138:  MOVFF  619,63F
213C:  MOVWF  x40
213E:  MOVFF  615,641
2142:  MOVLB  0
2144:  CALL   0FA4
....................          glcd_pixel(x-a, b+y, color); 
2148:  MOVLB  6
214A:  MOVF   x16,W
214C:  SUBWF  x11,W
214E:  MOVWF  x19
2150:  MOVF   x12,W
2152:  ADDWF  x17,W
2154:  MOVWF  x1A
2156:  MOVFF  619,63F
215A:  MOVWF  x40
215C:  MOVFF  615,641
2160:  MOVLB  0
2162:  CALL   0FA4
....................          glcd_pixel(x-b, a+y, color); 
2166:  MOVLB  6
2168:  MOVF   x17,W
216A:  SUBWF  x11,W
216C:  MOVWF  x19
216E:  MOVF   x12,W
2170:  ADDWF  x16,W
2172:  MOVWF  x1A
2174:  MOVFF  619,63F
2178:  MOVWF  x40
217A:  MOVFF  615,641
217E:  MOVLB  0
2180:  CALL   0FA4
....................          glcd_pixel(b+x, y-a, color); 
2184:  MOVLB  6
2186:  MOVF   x11,W
2188:  ADDWF  x17,W
218A:  MOVWF  x19
218C:  MOVF   x16,W
218E:  SUBWF  x12,W
2190:  MOVWF  x1A
2192:  MOVFF  619,63F
2196:  MOVWF  x40
2198:  MOVFF  615,641
219C:  MOVLB  0
219E:  CALL   0FA4
....................          glcd_pixel(a+x, y-b, color); 
21A2:  MOVLB  6
21A4:  MOVF   x11,W
21A6:  ADDWF  x16,W
21A8:  MOVWF  x19
21AA:  MOVF   x17,W
21AC:  SUBWF  x12,W
21AE:  MOVWF  x1A
21B0:  MOVFF  619,63F
21B4:  MOVWF  x40
21B6:  MOVFF  615,641
21BA:  MOVLB  0
21BC:  CALL   0FA4
....................          glcd_pixel(x-a, y-b, color); 
21C0:  MOVLB  6
21C2:  MOVF   x16,W
21C4:  SUBWF  x11,W
21C6:  MOVWF  x19
21C8:  MOVF   x17,W
21CA:  SUBWF  x12,W
21CC:  MOVWF  x1A
21CE:  MOVFF  619,63F
21D2:  MOVWF  x40
21D4:  MOVFF  615,641
21D8:  MOVLB  0
21DA:  CALL   0FA4
....................          glcd_pixel(x-b, y-a, color); 
21DE:  MOVLB  6
21E0:  MOVF   x17,W
21E2:  SUBWF  x11,W
21E4:  MOVWF  x19
21E6:  MOVF   x16,W
21E8:  SUBWF  x12,W
21EA:  MOVWF  x1A
21EC:  MOVFF  619,63F
21F0:  MOVWF  x40
21F2:  MOVFF  615,641
21F6:  MOVLB  0
21F8:  CALL   0FA4
....................       } 
....................  
....................       if(P < 0) 
21FC:  MOVLB  6
21FE:  BTFSC  x18.7
2200:  BRA    2204
2202:  BRA    2220
....................          P += 3 + 2 * a++; 
2204:  MOVF   x16,W
2206:  INCF   x16,F
2208:  MOVWF  x19
220A:  MOVLW  02
220C:  MOVWF  x1A
220E:  MOVFF  619,61B
2212:  MOVLB  0
2214:  RCALL  1FE2
2216:  MOVF   01,W
2218:  ADDLW  03
221A:  MOVLB  6
221C:  ADDWF  x18,F
....................       else 
221E:  BRA    2242
....................          P += 5 + 2 * (a++ - b--); 
2220:  MOVF   x16,W
2222:  INCF   x16,F
2224:  MOVWF  x19
2226:  MOVF   x17,W
2228:  DECF   x17,F
222A:  SUBWF  x19,W
222C:  MOVWF  x19
222E:  MOVLW  02
2230:  MOVWF  x1A
2232:  MOVFF  619,61B
2236:  MOVLB  0
2238:  RCALL  1FE2
223A:  MOVF   01,W
223C:  ADDLW  05
223E:  MOVLB  6
2240:  ADDWF  x18,F
....................     } while(a <= b); 
2242:  MOVF   x16,W
2244:  XORLW  80
2246:  MOVWF  00
2248:  MOVF   x17,W
224A:  XORLW  80
224C:  SUBWF  00,W
224E:  BTFSC  FD8.2
2250:  BRA    2040
2252:  BTFSS  FD8.0
2254:  BRA    2040
.................... } 
2256:  MOVLB  0
2258:  RETLW  00
....................  
....................  
.................... ///////////////////////////////////////////////////////////////////////// 
.................... // Purpose:       Write text on a graphic LCD 
.................... // Inputs:        (x,y) - The upper left coordinate of the first letter 
.................... //                textptr - A pointer to an array of text to display 
.................... //                size - The size of the text: 1 = 5x7, 2 = 10x14, ... 
.................... //                color - ON or OFF 
.................... ///////////////////////////////////////////////////////////////////////// 
.................... #ifdef LARGE_LCD 
.................... void glcd_text57(int16 x, int16 y, char* textptr, int8 size, int1 color) 
.................... #else 
.................... void glcd_text57(int8 x, int8 y, char* textptr, int8 size, int1 color) 
.................... #endif 
.................... { 
....................    int8 j, k, l, m;                       // Loop counters 
....................    int8 pixelData[5];                     // Stores character data 
....................  
....................    for(; *textptr != '\0'; ++textptr, ++x)// Loop through the passed string 
*
1060:  MOVFF  627,03
1064:  MOVLB  6
1066:  MOVFF  626,FE9
106A:  MOVFF  627,FEA
106E:  MOVF   FEF,F
1070:  BTFSC  FD8.2
1072:  BRA    1214
....................    { 
....................       if(*textptr < 'S') // Checks if the letter is in the first font array 
1074:  MOVFF  627,03
1078:  MOVFF  626,FE9
107C:  MOVFF  627,FEA
1080:  MOVF   FEF,W
1082:  SUBLW  52
1084:  BNC   10D4
....................          memcpy(pixelData, FONT[*textptr - ' '], 5); 
1086:  MOVFF  627,03
108A:  MOVFF  626,FE9
108E:  MOVFF  627,FEA
1092:  MOVLW  20
1094:  SUBWF  FEF,W
1096:  MULLW  05
1098:  MOVF   FF3,W
109A:  CLRF   03
109C:  MOVWF  x33
109E:  MOVLW  06
10A0:  MOVWF  FEA
10A2:  MOVLW  2E
10A4:  MOVWF  FE9
10A6:  CLRF   x37
10A8:  MOVFF  633,636
10AC:  MOVFF  FF2,634
10B0:  BCF    FF2.7
10B2:  MOVLW  05
10B4:  MOVWF  01
10B6:  CLRF   FF7
10B8:  MOVF   x33,W
10BA:  MOVLB  0
10BC:  CALL   0096
10C0:  TBLRD*-
10C2:  TBLRD*+
10C4:  MOVFF  FF5,FEE
10C8:  DECFSZ 01,F
10CA:  BRA    10C2
10CC:  MOVLB  6
10CE:  BTFSC  x34.7
10D0:  BSF    FF2.7
....................       else if(*textptr <= '~') // Check if the letter is in the second font array 
10D2:  BRA    113E
10D4:  MOVFF  627,03
10D8:  MOVFF  626,FE9
10DC:  MOVFF  627,FEA
10E0:  MOVF   FEF,W
10E2:  SUBLW  7E
10E4:  BNC   1134
....................          memcpy(pixelData, FONT2[*textptr - 'S'], 5); 
10E6:  MOVFF  627,03
10EA:  MOVFF  626,FE9
10EE:  MOVFF  627,FEA
10F2:  MOVLW  53
10F4:  SUBWF  FEF,W
10F6:  MULLW  05
10F8:  MOVF   FF3,W
10FA:  CLRF   03
10FC:  MOVWF  x33
10FE:  MOVLW  06
1100:  MOVWF  FEA
1102:  MOVLW  2E
1104:  MOVWF  FE9
1106:  CLRF   x37
1108:  MOVFF  633,636
110C:  MOVFF  FF2,634
1110:  BCF    FF2.7
1112:  MOVLW  05
1114:  MOVWF  01
1116:  CLRF   FF7
1118:  MOVF   x33,W
111A:  MOVLB  0
111C:  CALL   01B0
1120:  TBLRD*-
1122:  TBLRD*+
1124:  MOVFF  FF5,FEE
1128:  DECFSZ 01,F
112A:  BRA    1122
112C:  MOVLB  6
112E:  BTFSC  x34.7
1130:  BSF    FF2.7
....................       else 
1132:  BRA    113E
....................          memcpy(pixelData, FONT[0], 5);   // Default to space 
1134:  CLRF   x2E
1136:  CLRF   x2F
1138:  CLRF   x30
113A:  CLRF   x31
113C:  CLRF   x32
....................  
....................       // Handles newline and carriage returns 
....................       switch(*textptr) 
....................       { 
113E:  MOVFF  627,03
1142:  MOVF   x26,W
1144:  MOVWF  FE9
1146:  MOVFF  03,FEA
114A:  MOVF   FEF,W
114C:  XORLW  0A
114E:  MOVLB  0
1150:  BZ    1158
1152:  XORLW  07
1154:  BZ    1168
1156:  BRA    116E
....................          case '\n': 
....................             y += 7*size + 1; 
1158:  MOVLB  6
115A:  MOVF   x28,W
115C:  MULLW  07
115E:  MOVF   FF3,W
1160:  ADDLW  01
1162:  ADDWF  x25,F
....................             continue; 
1164:  BRA    1206
1166:  MOVLB  0
....................          case '\r': 
....................             x = 0; 
1168:  MOVLB  6
116A:  CLRF   x24
....................             continue; 
116C:  BRA    1206
....................       } 
....................  
....................       if(x+5*size >= GLCD_WIDTH)          // Performs character wrapping 
116E:  MOVLB  6
1170:  MOVF   x28,W
1172:  MULLW  05
1174:  MOVF   FF3,W
1176:  ADDWF  x24,W
1178:  SUBLW  7F
117A:  BC    1188
....................       { 
....................          x = 0;                           // Set x at far left position 
117C:  CLRF   x24
....................          y += 7*size + 1;                 // Set y at next position down 
117E:  MOVF   x28,W
1180:  MULLW  07
1182:  MOVF   FF3,W
1184:  ADDLW  01
1186:  ADDWF  x25,F
....................       } 
....................       for(j=0; j<5; ++j, x+=size)         // Loop through character byte data 
1188:  CLRF   x2A
118A:  MOVF   x2A,W
118C:  SUBLW  04
118E:  BNC   1206
....................       { 
....................          for(k=0; k < 7; ++k)             // Loop through the vertical pixels 
1190:  CLRF   x2B
1192:  MOVF   x2B,W
1194:  SUBLW  06
1196:  BNC   11FE
....................          { 
....................             if(bit_test(pixelData[j], k)) // Check if the pixel should be set 
1198:  CLRF   03
119A:  MOVF   x2A,W
119C:  ADDLW  2E
119E:  MOVWF  FE9
11A0:  MOVLW  06
11A2:  ADDWFC 03,W
11A4:  MOVWF  FEA
11A6:  MOVFF  FEF,633
11AA:  MOVFF  633,00
11AE:  MOVF   x2B,W
11B0:  MOVWF  01
11B2:  BZ    11BC
11B4:  BCF    FD8.0
11B6:  RRCF   00,F
11B8:  DECFSZ 01,F
11BA:  BRA    11B4
11BC:  BTFSS  00.0
11BE:  BRA    11FA
....................             { 
....................                for(l=0; l < size; ++l)    // These two loops change the 
11C0:  CLRF   x2C
11C2:  MOVF   x28,W
11C4:  SUBWF  x2C,W
11C6:  BC    11FA
....................                {                          // character's size 
....................                   for(m=0; m < size; ++m) 
11C8:  CLRF   x2D
11CA:  MOVF   x28,W
11CC:  SUBWF  x2D,W
11CE:  BC    11F6
....................                   { 
....................                      glcd_pixel(x+m, y+k*size+l, color); // Draws the pixel 
11D0:  MOVF   x2D,W
11D2:  ADDWF  x24,W
11D4:  MOVWF  x33
11D6:  MOVF   x2B,W
11D8:  MULWF  x28
11DA:  MOVF   FF3,W
11DC:  ADDWF  x25,W
11DE:  ADDWF  x2C,W
11E0:  MOVWF  x34
11E2:  MOVFF  633,63F
11E6:  MOVWF  x40
11E8:  MOVFF  629,641
11EC:  MOVLB  0
11EE:  RCALL  0FA4
....................                   } 
11F0:  MOVLB  6
11F2:  INCF   x2D,F
11F4:  BRA    11CA
....................                } 
11F6:  INCF   x2C,F
11F8:  BRA    11C2
....................             } 
....................          } 
11FA:  INCF   x2B,F
11FC:  BRA    1192
....................       } 
11FE:  INCF   x2A,F
1200:  MOVF   x28,W
1202:  ADDWF  x24,F
1204:  BRA    118A
....................    } 
1206:  INCF   x26,F
1208:  BTFSC  FD8.2
120A:  INCF   x27,F
120C:  INCF   x24,F
120E:  MOVLB  0
1210:  BRA    1060
1212:  MOVLB  6
.................... } 
1214:  MOVLB  0
1216:  RETLW  00
....................  
.................... #endif 
....................  
.................... #include "imagen.h" 
.................... const int8 Horno [64][16] = { 
.................... 0x00, 0x00, 0x00, 0x00, 0x00, 0x00, 0x00, 0x00, 0x00, 0x00, 0x00, 0x1F, 0xFF, 0xFF, 0xFF, 0xFE, 
.................... 0x00, 0x00, 0x00, 0x00, 0x00, 0x00, 0x00, 0x00, 0x00, 0x00, 0x00, 0x1F, 0xFF, 0xFF, 0xFF, 0xFE, 
.................... 0x01, 0xC0, 0x00, 0x00, 0x00, 0x00, 0x00, 0x00, 0x00, 0x00, 0x00, 0x1C, 0x00, 0x00, 0x00, 0x0E, 
.................... 0x07, 0xF0, 0x00, 0x00, 0x00, 0x00, 0x00, 0x00, 0x00, 0x00, 0x00, 0x1C, 0x00, 0x00, 0x00, 0x0E, 
.................... 0x1C, 0x9C, 0x00, 0x00, 0x00, 0x00, 0x00, 0x00, 0x00, 0x00, 0x00, 0x1C, 0x7F, 0x00, 0x00, 0x0E, 
.................... 0x18, 0x0C, 0x00, 0x00, 0x00, 0x00, 0x00, 0x00, 0x00, 0x00, 0x00, 0x1C, 0x41, 0x00, 0x00, 0x0E, 
.................... 0x30, 0x86, 0x00, 0x00, 0x00, 0x00, 0x00, 0x00, 0x00, 0x00, 0x00, 0x1C, 0x41, 0x00, 0x00, 0x0E, 
.................... 0x20, 0x82, 0x00, 0x00, 0x00, 0x00, 0x00, 0x00, 0x00, 0x00, 0x00, 0x1C, 0x41, 0x02, 0x00, 0x0E, 
.................... 0x60, 0x83, 0x00, 0x00, 0x00, 0x00, 0x00, 0x00, 0x00, 0x00, 0x00, 0x1C, 0x7F, 0x05, 0x00, 0x0E, 
.................... 0x70, 0x87, 0x00, 0x00, 0x00, 0x00, 0x00, 0x00, 0x00, 0x00, 0x00, 0x1C, 0x00, 0x02, 0x00, 0x0E, 
.................... 0x60, 0xC3, 0x00, 0x00, 0x00, 0x00, 0x00, 0x00, 0x00, 0x00, 0x00, 0x1C, 0x00, 0x00, 0x00, 0x0E, 
.................... 0x20, 0x62, 0x00, 0x00, 0x00, 0x00, 0x00, 0x00, 0x00, 0x00, 0x00, 0x1C, 0x00, 0x00, 0x00, 0x0E, 
.................... 0x30, 0x26, 0x00, 0x00, 0x00, 0x00, 0x00, 0x00, 0x00, 0x00, 0x00, 0x1F, 0xFF, 0xFF, 0xFF, 0xFE, 
.................... 0x18, 0x0C, 0x00, 0x00, 0x00, 0x00, 0x00, 0x00, 0x00, 0x00, 0x00, 0x1C, 0x00, 0x00, 0x00, 0x0E, 
.................... 0x1C, 0x9C, 0x00, 0x00, 0x00, 0x00, 0x00, 0x00, 0x00, 0x00, 0x00, 0x1C, 0x00, 0x00, 0x00, 0x0E, 
.................... 0x07, 0xF0, 0x00, 0x00, 0x00, 0x00, 0x00, 0x00, 0x00, 0x00, 0x00, 0x1C, 0x00, 0x00, 0x00, 0x0E, 
.................... 0x01, 0xC0, 0x00, 0x00, 0x00, 0x00, 0x00, 0x00, 0x00, 0x00, 0x00, 0x1C, 0x00, 0x00, 0x00, 0x0E, 
.................... 0x00, 0x00, 0x00, 0x00, 0x00, 0x00, 0x00, 0x00, 0x00, 0x00, 0x00, 0x1C, 0x00, 0x00, 0x00, 0x0E, 
.................... 0x00, 0x00, 0x00, 0x00, 0x00, 0x00, 0x00, 0x00, 0x00, 0x00, 0x00, 0x1C, 0x00, 0x00, 0x00, 0x0E, 
.................... 0x00, 0x00, 0x00, 0x00, 0x00, 0x00, 0x00, 0x00, 0x00, 0x00, 0x00, 0x1C, 0x00, 0x00, 0x00, 0x0E, 
.................... 0x00, 0x00, 0x00, 0x00, 0x00, 0x00, 0x00, 0x00, 0x00, 0x00, 0x00, 0x1C, 0x00, 0x00, 0x00, 0x0E, 
.................... 0x00, 0x00, 0x00, 0x00, 0x00, 0x00, 0x00, 0x00, 0x00, 0x00, 0x00, 0x1C, 0x00, 0x1E, 0x00, 0x0E, 
.................... 0x00, 0x00, 0x00, 0x00, 0x00, 0x00, 0x00, 0x00, 0x00, 0x00, 0x00, 0x1C, 0x00, 0xE1, 0xC0, 0x0E, 
.................... 0x00, 0x00, 0x00, 0x00, 0x00, 0x00, 0x00, 0x00, 0x00, 0x00, 0x00, 0x1C, 0x01, 0x80, 0x60, 0x0E, 
.................... 0x00, 0x00, 0x00, 0x00, 0x00, 0x00, 0x00, 0x00, 0x00, 0x00, 0x00, 0x1C, 0x02, 0x78, 0x10, 0x0E, 
.................... 0x00, 0x00, 0x00, 0x00, 0x00, 0x00, 0x00, 0x00, 0x00, 0x00, 0x00, 0x1C, 0x06, 0x7C, 0x18, 0x0E, 
.................... 0x00, 0x00, 0x00, 0x00, 0x00, 0x00, 0x00, 0x00, 0x00, 0x00, 0x00, 0x1C, 0x04, 0x7C, 0x08, 0x0E, 
.................... 0x00, 0x00, 0x00, 0x00, 0x00, 0x00, 0x00, 0x00, 0x00, 0x00, 0x00, 0x1C, 0x08, 0x3C, 0x04, 0x0E, 
.................... 0x00, 0x00, 0x00, 0x00, 0x00, 0x00, 0x00, 0x00, 0x00, 0x00, 0x00, 0x1C, 0x08, 0x10, 0x04, 0x0E, 
.................... 0x01, 0x80, 0x00, 0x00, 0x00, 0x00, 0x00, 0x00, 0x00, 0x00, 0x00, 0x1C, 0x08, 0x0C, 0xE4, 0x0E, 
.................... 0x02, 0x40, 0x00, 0x00, 0x00, 0x00, 0x00, 0x00, 0x00, 0x00, 0x00, 0x1C, 0x08, 0x2D, 0xF4, 0x0E, 
.................... 0x02, 0x70, 0x00, 0x00, 0x00, 0x00, 0x00, 0x00, 0x00, 0x00, 0x00, 0x1C, 0x08, 0x63, 0xF4, 0x0E, 
.................... 0x02, 0x40, 0x00, 0x00, 0x00, 0x00, 0x00, 0x00, 0x00, 0x00, 0x00, 0x1C, 0x08, 0xF1, 0xE4, 0x0E, 
.................... 0x03, 0xC0, 0x00, 0x00, 0x00, 0x00, 0x00, 0x00, 0x00, 0x00, 0x00, 0x1C, 0x04, 0xF0, 0x08, 0x0E, 
.................... 0x03, 0xF0, 0x00, 0x00, 0x00, 0x00, 0x00, 0x00, 0x00, 0x00, 0x00, 0x1C, 0x04, 0xF0, 0x08, 0x0E, 
.................... 0x03, 0xC0, 0x00, 0x00, 0x00, 0x00, 0x00, 0x00, 0x00, 0x00, 0x00, 0x1C, 0x02, 0x70, 0x10, 0x0E, 
.................... 0x03, 0xC0, 0x00, 0x00, 0x00, 0x00, 0x00, 0x00, 0x00, 0x00, 0x00, 0x1C, 0x03, 0x00, 0x30, 0x0E, 
.................... 0x07, 0xE0, 0x00, 0x00, 0x00, 0x00, 0x00, 0x00, 0x00, 0x00, 0x00, 0x1C, 0x00, 0xC0, 0xC0, 0x0E, 
.................... 0x0F, 0xF0, 0x00, 0x00, 0x00, 0x00, 0x00, 0x00, 0x00, 0x00, 0x00, 0x1C, 0x00, 0x7F, 0x80, 0x0E, 
.................... 0x0B, 0xF0, 0x00, 0x00, 0x00, 0x00, 0x00, 0x00, 0x00, 0x00, 0x00, 0x1C, 0x00, 0x00, 0x00, 0x0E, 
.................... 0x0B, 0xF0, 0x00, 0x00, 0x00, 0x00, 0x00, 0x00, 0x00, 0x00, 0x00, 0x1C, 0x00, 0x00, 0x00, 0x0E, 
.................... 0x0F, 0xF0, 0x00, 0x00, 0x00, 0x00, 0x00, 0x00, 0x00, 0x00, 0x00, 0x1C, 0x00, 0x00, 0x00, 0x0E, 
.................... 0x0F, 0xF0, 0x00, 0x00, 0x00, 0x00, 0x00, 0x00, 0x00, 0x00, 0x00, 0x1C, 0x00, 0x00, 0x00, 0x0E, 
.................... 0x07, 0xE0, 0x00, 0x00, 0x00, 0x00, 0x00, 0x00, 0x00, 0x00, 0x00, 0x1C, 0x00, 0x00, 0x00, 0x0E, 
.................... 0x03, 0xC0, 0x00, 0x00, 0x00, 0x00, 0x00, 0x00, 0x00, 0x00, 0x00, 0x1C, 0x00, 0x00, 0x00, 0x0E, 
.................... 0x00, 0x00, 0x00, 0x00, 0x00, 0x00, 0x00, 0x00, 0x00, 0x00, 0x00, 0x1C, 0x00, 0x00, 0x00, 0x0E, 
.................... 0x00, 0x00, 0x00, 0x00, 0x00, 0x00, 0x00, 0x00, 0x00, 0x00, 0x00, 0x1C, 0x00, 0x00, 0x00, 0x0E, 
.................... 0x00, 0x00, 0x00, 0x00, 0x00, 0x00, 0x00, 0x00, 0x00, 0x00, 0x00, 0x1C, 0x00, 0x00, 0x00, 0x0E, 
.................... 0x00, 0x00, 0x00, 0x00, 0x00, 0x00, 0x00, 0x00, 0x00, 0x00, 0x00, 0x1C, 0x00, 0x00, 0x00, 0x0E, 
.................... 0x00, 0x00, 0x00, 0x00, 0x00, 0x00, 0x00, 0x00, 0x00, 0x00, 0x00, 0x1C, 0x00, 0x00, 0x00, 0x0E, 
.................... 0x00, 0x00, 0x00, 0x00, 0x00, 0x00, 0x00, 0x00, 0x00, 0x00, 0x00, 0x1C, 0x00, 0x00, 0x00, 0x0E, 
.................... 0x00, 0x00, 0x00, 0x00, 0x00, 0x00, 0x00, 0x00, 0x00, 0x00, 0x00, 0x1C, 0x00, 0x00, 0x00, 0x0E, 
.................... 0x00, 0x00, 0x00, 0x00, 0x00, 0x00, 0x00, 0x00, 0x00, 0x00, 0x00, 0x1F, 0xFF, 0xFF, 0xFF, 0xFE, 
.................... 0x00, 0x00, 0x00, 0x00, 0x00, 0x00, 0x00, 0x00, 0x00, 0x00, 0x00, 0x1F, 0xFF, 0xFF, 0xFF, 0xFE, 
.................... 0x00, 0x00, 0x00, 0x00, 0x00, 0x00, 0x00, 0x00, 0x00, 0x00, 0x00, 0x1F, 0xFF, 0xFF, 0xFF, 0xFE, 
.................... 0x00, 0x00, 0x00, 0x00, 0x00, 0x00, 0x00, 0x00, 0x00, 0x00, 0x00, 0x00, 0x00, 0x00, 0x00, 0x00, 
.................... 0x00, 0x00, 0x00, 0x00, 0x00, 0x00, 0x00, 0x00, 0x00, 0x00, 0x00, 0x00, 0x00, 0x00, 0x00, 0x00, 
.................... 0x00, 0x00, 0x00, 0x00, 0x00, 0x00, 0x00, 0x00, 0x00, 0x00, 0x00, 0x00, 0x00, 0x00, 0x00, 0x00, 
.................... 0x00, 0x00, 0x00, 0x00, 0x00, 0x00, 0x00, 0x00, 0x00, 0x00, 0x00, 0x00, 0x00, 0x00, 0x00, 0x00, 
.................... 0x00, 0x00, 0x00, 0x00, 0x00, 0x00, 0x00, 0x00, 0x00, 0x00, 0x00, 0x00, 0x00, 0x00, 0x00, 0x00, 
.................... 0x00, 0x00, 0x00, 0x00, 0x00, 0x00, 0x00, 0x00, 0x00, 0x00, 0x00, 0x00, 0x00, 0x00, 0x00, 0x00, 
.................... 0x00, 0x00, 0x00, 0x00, 0x00, 0x00, 0x00, 0x00, 0x00, 0x00, 0x00, 0x00, 0x00, 0x00, 0x00, 0x00, 
.................... 0x00, 0x00, 0x00, 0x00, 0x00, 0x00, 0x00, 0x00, 0x00, 0x00, 0x00, 0x00, 0x00, 0x00, 0x00, 0x00, 
.................... 0x00, 0x00, 0x00, 0x00, 0x00, 0x00, 0x00, 0x00, 0x00, 0x00, 0x00, 0x00, 0x00, 0x00, 0x00, 0x00 
.................... }; 
....................  
....................  
....................  
.................... // Definicin de teclado - NO 
.................... #define   UP            input(PIN_A5) 
.................... #define   DOWN          input(PIN_E0) 
.................... #define   RIGHT         input(PIN_E1) 
.................... #define   LEFT          input(PIN_E2) 
....................  
.................... #define   DOOR          input(PIN_A4) 
.................... #define   TERM          input(PIN_A3) 
....................  
.................... // Definicin de Salidas 
.................... #define   Resistencia_on     output_bit(PIN_C0,1) 
.................... #define   Resistencia_off    output_bit(PIN_C0,0) 
.................... #define   Peltier_on         output_bit(PIN_C2,1) 
.................... #define   Peltier_off        output_bit(PIN_C2,0) 
.................... #define   Vent_on            output_bit(PIN_C1,1) 
.................... #define   Vent_off           output_bit(PIN_C1,0) 
.................... #define   Buzzer_on          output_bit(PIN_C6,1) 
.................... #define   Buzzer_off         output_bit(PIN_C6,0) 
....................  
....................  
.................... float promedio[80]={0.0,0.0,0.0,0.0,0.0,0.0,0.0,0.0,0.0,0.0,0.0,0.0,0.0,0.0,0.0,0.0,0.0,0.0,0.0,0.0,0.0,0.0,0.0,0.0,0.0,0.0,0.0,0.0,0.0,0.0,0.0,0.0,0.0,0.0,0.0,0.0,0.0,0.0,0.0,0.0,0.0,0.0,0.0,0.0,0.0,0.0,0.0,0.0,0.0,0.0,0.0,0.0,0.0,0.0,0.0,0.0,0.0,0.0,0.0,0.0,0.0,0.0,0.0,0.0}; 
.................... float X[2]={0.0,0.0}; 
.................... int8 h=0,l=0,Ajuste=0,Ajusten=0,MediaMovil=10,tiemporecta=0,flag_ganancia=0,infinito=0,Control=0; 
.................... short Flanco=0,Flanco1=0,Flanco2=0,visual=1,Lectura=0,flag_ajuste=0,flag_ajuste2=0; 
.................... short flag_clear=0,flag_clear2=0,flag_clear3=0,flag_tiempocalentamiento=0,flag_display=0,flag_setpoint=0,flag_control=0; 
.................... int8 y=0,tiemporeset=0; 
.................... int8 Menu=0, unidad=1,i=0,Pausa=0,TiempoControl=0; 
.................... int8 Opcion=1,tiempo_esterilizacion=0,tiempo_secado=0; 
.................... int16 tiempos=0,tiempos3=0,tiempoctrl=0,tinicio=0,tiempocalentamiento=0,tiemposetpoint=0,Setpoint=0,Tp=0,Tc=0; 
.................... float Potencia=0.0,Gananciamax=0.0; 
.................... signed int  Testerilizacion[4]={0,0,0,0};   // Tiempo transcurrido 
.................... signed int  Testerilizacionp[4]={0,0,0,0};   // Tiempo transcurrido 
.................... signed int  Contrasena[4]={0,0,0,0};      // Contrasena de 4 digitos 
.................... signed int  Password[4]={0,0,0,0};        // Contrasena Almacenada de 4 digitos 
.................... float V0=0.0,R1=6210.0,Pt,Tciclo=10.0,Tpulso=0.0,error=0.0,Prom=0.0,Temperature=0.0,tmp=0.0,Ganancia=25.0,desvio=1.0,Coeficiente=30.0; 
.................... float Aumento=0.0,Temperatura=0.0,Saturacion=10.0,TpulsoMax=0,Potenciamax=0,Tpulsomin=0; 
.................... float a=0.0011,b=2.3302,c=-244.0723; 
....................  
.................... typedef struct{ 
....................    char Letra[30]; 
.................... }MENUU; 
....................  
.................... MENUU Menus; 
....................  
.................... void ActualizaRecta(){ 
....................    X[y]=Temperatura; 
*
27CE:  MOVLB  5
27D0:  MOVF   x69,W
27D2:  MULLW  04
27D4:  MOVF   FF3,W
27D6:  CLRF   03
27D8:  ADDLW  56
27DA:  MOVWF  FE9
27DC:  MOVLW  05
27DE:  ADDWFC 03,W
27E0:  MOVWF  FEA
27E2:  MOVFF  5D1,FEF
27E6:  MOVFF  5D2,FEC
27EA:  MOVFF  5D3,FEC
27EE:  MOVFF  5D4,FEC
....................    y++; 
27F2:  INCF   x69,F
....................    if(y>=2) 
27F4:  MOVF   x69,W
27F6:  SUBLW  01
27F8:  BC    2836
....................    { 
....................       y=0; 
27FA:  CLRF   x69
....................       Aumento=X[1]-X[0]; 
27FC:  BSF    FD8.1
27FE:  MOVFF  55D,619
2802:  MOVFF  55C,618
2806:  MOVFF  55B,617
280A:  MOVFF  55A,616
280E:  MOVFF  559,61D
2812:  MOVFF  558,61C
2816:  MOVFF  557,61B
281A:  MOVFF  556,61A
281E:  MOVLB  0
2820:  CALL   18AC
2824:  MOVFF  03,5D0
2828:  MOVFF  02,5CF
282C:  MOVFF  01,5CE
2830:  MOVFF  00,5CD
2834:  MOVLB  5
....................    } 
.................... } 
2836:  MOVLB  0
2838:  GOTO   2884 (RETURN)
....................  
.................... // Funcion para conversor analogo-digital 
.................... float sensores(int x){ 
.................... float y;set_adc_channel(x);delay_ms(1);y=read_adc();return (y); 
*
16F4:  MOVLB  6
16F6:  RLCF   x12,W
16F8:  MOVWF  00
16FA:  RLCF   00,F
16FC:  MOVLW  FC
16FE:  ANDWF  00,F
1700:  MOVFF  00,01
1704:  MOVF   FC2,W
1706:  ANDLW  C3
1708:  IORWF  00,W
170A:  MOVWF  FC2
170C:  MOVLW  01
170E:  MOVWF  x17
1710:  MOVLB  0
1712:  CALL   0CD0
1716:  BSF    FC2.1
1718:  BTFSC  FC2.1
171A:  BRA    1718
171C:  MOVFF  FC4,618
1720:  MOVFF  FC3,617
1724:  MOVLB  0
1726:  CALL   0CFA
172A:  MOVFF  03,616
172E:  MOVFF  02,615
1732:  MOVFF  01,614
1736:  MOVFF  00,613
173A:  MOVFF  613,00
173E:  MOVFF  614,01
1742:  MOVFF  615,02
1746:  MOVFF  616,03
.................... } 
174A:  GOTO   1C4E (RETURN)
.................... float Leer_Sensor(int media) 
.................... { 
....................    Prom=0.0; 
*
1C3C:  MOVLB  5
1C3E:  CLRF   xB8
1C40:  CLRF   xB7
1C42:  CLRF   xB6
1C44:  CLRF   xB5
....................    V0 = sensores(0);   //Lectura de Divisor de Voltaje de PT100 con resistencia de 6.18k (+-2%) 
1C46:  MOVLB  6
1C48:  CLRF   x12
1C4A:  MOVLB  0
1C4C:  BRA    16F4
1C4E:  MOVFF  03,5A0
1C52:  MOVFF  02,59F
1C56:  MOVFF  01,59E
1C5A:  MOVFF  00,59D
....................    V0 = V0/41.54; // Se elimina la ganancia 
1C5E:  MOVFF  5A0,618
1C62:  MOVFF  59F,617
1C66:  MOVFF  59E,616
1C6A:  MOVFF  59D,615
1C6E:  MOVLW  F6
1C70:  MOVLB  6
1C72:  MOVWF  x1C
1C74:  MOVLW  28
1C76:  MOVWF  x1B
1C78:  MOVLW  26
1C7A:  MOVWF  x1A
1C7C:  MOVLW  84
1C7E:  MOVWF  x19
1C80:  MOVLB  0
1C82:  RCALL  174E
1C84:  MOVFF  03,5A0
1C88:  MOVFF  02,59F
1C8C:  MOVFF  01,59E
1C90:  MOVFF  00,59D
....................    Pt=(R1)/((1023.0/V0)-1.0); // Se calcula el valor de la PT100 
1C94:  MOVLB  6
1C96:  CLRF   x18
1C98:  MOVLW  C0
1C9A:  MOVWF  x17
1C9C:  MOVLW  7F
1C9E:  MOVWF  x16
1CA0:  MOVLW  88
1CA2:  MOVWF  x15
1CA4:  MOVFF  5A0,61C
1CA8:  MOVFF  59F,61B
1CAC:  MOVFF  59E,61A
1CB0:  MOVFF  59D,619
1CB4:  MOVLB  0
1CB6:  RCALL  174E
1CB8:  MOVFF  00,612
1CBC:  MOVFF  01,613
1CC0:  MOVFF  02,614
1CC4:  MOVFF  03,615
1CC8:  BSF    FD8.1
1CCA:  MOVFF  03,619
1CCE:  MOVFF  02,618
1CD2:  MOVFF  01,617
1CD6:  MOVFF  00,616
1CDA:  MOVLB  6
1CDC:  CLRF   x1D
1CDE:  CLRF   x1C
1CE0:  CLRF   x1B
1CE2:  MOVLW  7F
1CE4:  MOVWF  x1A
1CE6:  MOVLB  0
1CE8:  RCALL  18AC
1CEA:  MOVFF  5A4,618
1CEE:  MOVFF  5A3,617
1CF2:  MOVFF  5A2,616
1CF6:  MOVFF  5A1,615
1CFA:  MOVFF  03,61C
1CFE:  MOVFF  02,61B
1D02:  MOVFF  01,61A
1D06:  MOVFF  00,619
1D0A:  RCALL  174E
1D0C:  MOVFF  03,5A8
1D10:  MOVFF  02,5A7
1D14:  MOVFF  01,5A6
1D18:  MOVFF  00,5A5
....................    //Pt=R1/((1023.0/V0)-1.0); // Se calcula el valor de la PT100 
....................    Pt=Pt-0.3; 
1D1C:  BSF    FD8.1
1D1E:  MOVFF  5A8,619
1D22:  MOVFF  5A7,618
1D26:  MOVFF  5A6,617
1D2A:  MOVFF  5A5,616
1D2E:  MOVLW  9A
1D30:  MOVLB  6
1D32:  MOVWF  x1D
1D34:  MOVLW  99
1D36:  MOVWF  x1C
1D38:  MOVLW  19
1D3A:  MOVWF  x1B
1D3C:  MOVLW  7D
1D3E:  MOVWF  x1A
1D40:  MOVLB  0
1D42:  RCALL  18AC
1D44:  MOVFF  03,5A8
1D48:  MOVFF  02,5A7
1D4C:  MOVFF  01,5A6
1D50:  MOVFF  00,5A5
....................     
....................              
....................    if(l>(media-1)) 
1D54:  MOVLW  01
1D56:  MOVLB  6
1D58:  SUBWF  x11,W
1D5A:  MOVLB  5
1D5C:  SUBWF  x5F,W
1D5E:  BZ    1D64
1D60:  BNC   1D64
....................    {l=0;} 
1D62:  CLRF   x5F
....................    //promedio[l]=Temperature;l++; 
....................    promedio[l]=Pt;l++; 
1D64:  MOVLB  6
1D66:  CLRF   x16
1D68:  MOVFF  55F,615
1D6C:  CLRF   x18
1D6E:  MOVLW  04
1D70:  MOVWF  x17
1D72:  MOVLB  0
1D74:  RCALL  1B24
1D76:  MOVF   01,W
1D78:  ADDLW  16
1D7A:  MOVWF  FE9
1D7C:  MOVLW  04
1D7E:  ADDWFC 02,W
1D80:  MOVWF  FEA
1D82:  MOVFF  5A5,FEF
1D86:  MOVFF  5A6,FEC
1D8A:  MOVFF  5A7,FEC
1D8E:  MOVFF  5A8,FEC
1D92:  MOVLB  5
1D94:  INCF   x5F,F
....................           
....................    for(h=0;h<media;h++) 
1D96:  CLRF   x5E
1D98:  MOVLB  6
1D9A:  MOVF   x11,W
1D9C:  MOVLB  5
1D9E:  SUBWF  x5E,W
1DA0:  BC    1E1E
....................    { 
....................       Prom+=promedio[h]; 
1DA2:  MOVLB  6
1DA4:  CLRF   x16
1DA6:  MOVFF  55E,615
1DAA:  CLRF   x18
1DAC:  MOVLW  04
1DAE:  MOVWF  x17
1DB0:  MOVLB  0
1DB2:  RCALL  1B24
1DB4:  MOVFF  02,03
1DB8:  MOVF   01,W
1DBA:  ADDLW  16
1DBC:  MOVWF  FE9
1DBE:  MOVLW  04
1DC0:  ADDWFC 02,W
1DC2:  MOVWF  FEA
1DC4:  MOVFF  FEF,00
1DC8:  MOVFF  FEC,01
1DCC:  MOVFF  FEC,02
1DD0:  MOVFF  FEC,03
1DD4:  MOVFF  FEA,613
1DD8:  MOVFF  FE9,612
1DDC:  BCF    FD8.1
1DDE:  MOVFF  5B8,619
1DE2:  MOVFF  5B7,618
1DE6:  MOVFF  5B6,617
1DEA:  MOVFF  5B5,616
1DEE:  MOVFF  03,61D
1DF2:  MOVFF  02,61C
1DF6:  MOVFF  01,61B
1DFA:  MOVFF  00,61A
1DFE:  RCALL  18AC
1E00:  MOVFF  613,FEA
1E04:  MOVFF  612,FE9
1E08:  MOVFF  03,5B8
1E0C:  MOVFF  02,5B7
1E10:  MOVFF  01,5B6
1E14:  MOVFF  00,5B5
....................    }  
1E18:  MOVLB  5
1E1A:  INCF   x5E,F
1E1C:  BRA    1D98
....................    Prom=Prom/media;    
1E1E:  MOVLB  6
1E20:  CLRF   x18
1E22:  MOVFF  611,617
1E26:  MOVLB  0
1E28:  CALL   0CFA
1E2C:  MOVFF  5B8,618
1E30:  MOVFF  5B7,617
1E34:  MOVFF  5B6,616
1E38:  MOVFF  5B5,615
1E3C:  MOVFF  03,61C
1E40:  MOVFF  02,61B
1E44:  MOVFF  01,61A
1E48:  MOVFF  00,619
1E4C:  RCALL  174E
1E4E:  MOVFF  03,5B8
1E52:  MOVFF  02,5B7
1E56:  MOVFF  01,5B6
1E5A:  MOVFF  00,5B5
....................    //Temperature=(Prom-100.0)/(0.385);  // Ecuacin determinada por linealizacin en Matlab. Revisar este polinomio.   
....................    Temperature=((Prom*Prom)*a)+(Prom*b)+c;  // Ecuacin determinada por linealizacin en Matlab. Revisar este polinomio. 
1E5E:  MOVFF  5B8,631
1E62:  MOVFF  5B7,630
1E66:  MOVFF  5B6,62F
1E6A:  MOVFF  5B5,62E
1E6E:  MOVFF  5B8,635
1E72:  MOVFF  5B7,634
1E76:  MOVFF  5B6,633
1E7A:  MOVFF  5B5,632
1E7E:  RCALL  1B46
1E80:  MOVFF  00,612
1E84:  MOVFF  01,613
1E88:  MOVFF  02,614
1E8C:  MOVFF  03,615
1E90:  MOVFF  03,631
1E94:  MOVFF  02,630
1E98:  MOVFF  01,62F
1E9C:  MOVFF  00,62E
1EA0:  MOVFF  5E8,635
1EA4:  MOVFF  5E7,634
1EA8:  MOVFF  5E6,633
1EAC:  MOVFF  5E5,632
1EB0:  RCALL  1B46
1EB2:  MOVFF  00,612
1EB6:  MOVFF  01,613
1EBA:  MOVFF  02,614
1EBE:  MOVFF  03,615
1EC2:  MOVFF  5B8,631
1EC6:  MOVFF  5B7,630
1ECA:  MOVFF  5B6,62F
1ECE:  MOVFF  5B5,62E
1ED2:  MOVFF  5EC,635
1ED6:  MOVFF  5EB,634
1EDA:  MOVFF  5EA,633
1EDE:  MOVFF  5E9,632
1EE2:  RCALL  1B46
1EE4:  BCF    FD8.1
1EE6:  MOVFF  615,619
1EEA:  MOVFF  614,618
1EEE:  MOVFF  613,617
1EF2:  MOVFF  612,616
1EF6:  MOVFF  03,61D
1EFA:  MOVFF  02,61C
1EFE:  MOVFF  01,61B
1F02:  MOVFF  00,61A
1F06:  RCALL  18AC
1F08:  MOVFF  00,612
1F0C:  MOVFF  01,613
1F10:  MOVFF  02,614
1F14:  MOVFF  03,615
1F18:  BCF    FD8.1
1F1A:  MOVFF  03,619
1F1E:  MOVFF  02,618
1F22:  MOVFF  01,617
1F26:  MOVFF  00,616
1F2A:  MOVFF  5F0,61D
1F2E:  MOVFF  5EF,61C
1F32:  MOVFF  5EE,61B
1F36:  MOVFF  5ED,61A
1F3A:  RCALL  18AC
1F3C:  MOVFF  03,5BC
1F40:  MOVFF  02,5BB
1F44:  MOVFF  01,5BA
1F48:  MOVFF  00,5B9
....................     
....................    Temperature+=((float)Ajuste-(float)Ajusten); 
1F4C:  MOVLB  6
1F4E:  CLRF   x18
1F50:  MOVFF  560,617
1F54:  MOVLB  0
1F56:  CALL   0CFA
1F5A:  MOVFF  00,612
1F5E:  MOVFF  01,613
1F62:  MOVFF  02,614
1F66:  MOVFF  03,615
1F6A:  MOVLB  6
1F6C:  CLRF   x18
1F6E:  MOVFF  561,617
1F72:  MOVLB  0
1F74:  CALL   0CFA
1F78:  BSF    FD8.1
1F7A:  MOVFF  615,619
1F7E:  MOVFF  614,618
1F82:  MOVFF  613,617
1F86:  MOVFF  612,616
1F8A:  MOVFF  03,61D
1F8E:  MOVFF  02,61C
1F92:  MOVFF  01,61B
1F96:  MOVFF  00,61A
1F9A:  RCALL  18AC
1F9C:  BCF    FD8.1
1F9E:  MOVFF  5BC,619
1FA2:  MOVFF  5BB,618
1FA6:  MOVFF  5BA,617
1FAA:  MOVFF  5B9,616
1FAE:  MOVFF  03,61D
1FB2:  MOVFF  02,61C
1FB6:  MOVFF  01,61B
1FBA:  MOVFF  00,61A
1FBE:  RCALL  18AC
1FC0:  MOVFF  03,5BC
1FC4:  MOVFF  02,5BB
1FC8:  MOVFF  01,5BA
1FCC:  MOVFF  00,5B9
....................     
....................    //return Prom; 
....................    return Temperature; 
1FD0:  MOVFF  5B9,00
1FD4:  MOVFF  5BA,01
1FD8:  MOVFF  5BB,02
1FDC:  MOVFF  5BC,03
.................... } 
1FE0:  RETLW  00
....................  
.................... void Controla(){ 
.................... //-------------------------------Control de Calentamiento------------------------------------------------------------//          
....................    if(tiemporecta>=30) 
*
2878:  MOVLB  5
287A:  MOVF   x63,W
287C:  SUBLW  1D
287E:  BC    2888
....................    { 
....................       ActualizaRecta(); 
2880:  MOVLB  0
2882:  BRA    27CE
....................       tiemporecta=0; 
2884:  MOVLB  5
2886:  CLRF   x63
....................    } 
....................     
....................    if(tiemposetpoint>600) 
2888:  MOVF   x7E,W
288A:  SUBLW  01
288C:  BC    289A
288E:  XORLW  FF
2890:  BNZ   2898
2892:  MOVF   x7D,W
2894:  SUBLW  58
2896:  BC    289A
....................    { 
....................       flag_control=1; 
2898:  BSF    x68.5
....................    } 
....................     
....................    error=desvio+Setpoint-Temperatura;      // Clculo del error ****** 
289A:  MOVFF  580,618
289E:  MOVFF  57F,617
28A2:  MOVLB  0
28A4:  CALL   0CFA
28A8:  BCF    FD8.1
28AA:  MOVFF  5C8,619
28AE:  MOVFF  5C7,618
28B2:  MOVFF  5C6,617
28B6:  MOVFF  5C5,616
28BA:  MOVFF  03,61D
28BE:  MOVFF  02,61C
28C2:  MOVFF  01,61B
28C6:  MOVFF  00,61A
28CA:  CALL   18AC
28CE:  MOVFF  00,611
28D2:  MOVFF  01,612
28D6:  MOVFF  02,613
28DA:  MOVFF  03,614
28DE:  BSF    FD8.1
28E0:  MOVFF  03,619
28E4:  MOVFF  02,618
28E8:  MOVFF  01,617
28EC:  MOVFF  00,616
28F0:  MOVFF  5D4,61D
28F4:  MOVFF  5D3,61C
28F8:  MOVFF  5D2,61B
28FC:  MOVFF  5D1,61A
2900:  CALL   18AC
2904:  MOVFF  03,5B4
2908:  MOVFF  02,5B3
290C:  MOVFF  01,5B2
2910:  MOVFF  00,5B1
....................     
....................        
....................       if(error>2.0 && error<50 && Aumento<0.3 && flag_setpoint==0) 
2914:  MOVLB  6
2916:  CLRF   x14
2918:  CLRF   x13
291A:  CLRF   x12
291C:  MOVLW  80
291E:  MOVWF  x11
2920:  MOVFF  5B4,618
2924:  MOVFF  5B3,617
2928:  MOVFF  5B2,616
292C:  MOVFF  5B1,615
2930:  MOVLB  0
2932:  CALL   0D30
2936:  BTFSS  FD8.0
2938:  BRA    2AC6
293A:  MOVFF  5B4,614
293E:  MOVFF  5B3,613
2942:  MOVFF  5B2,612
2946:  MOVFF  5B1,611
294A:  MOVLB  6
294C:  CLRF   x18
294E:  CLRF   x17
2950:  MOVLW  48
2952:  MOVWF  x16
2954:  MOVLW  84
2956:  MOVWF  x15
2958:  MOVLB  0
295A:  CALL   0D30
295E:  BTFSS  FD8.0
2960:  BRA    2AC6
2962:  MOVFF  5D0,614
2966:  MOVFF  5CF,613
296A:  MOVFF  5CE,612
296E:  MOVFF  5CD,611
2972:  MOVLW  9A
2974:  MOVLB  6
2976:  MOVWF  x18
2978:  MOVLW  99
297A:  MOVWF  x17
297C:  MOVLW  19
297E:  MOVWF  x16
2980:  MOVLW  7D
2982:  MOVWF  x15
2984:  MOVLB  0
2986:  CALL   0D30
298A:  BTFSS  FD8.0
298C:  BRA    2AC6
298E:  MOVLB  5
2990:  BTFSS  x68.4
2992:  BRA    2998
2994:  MOVLB  0
2996:  BRA    2AC6
....................       { 
....................          flag_ajuste=0; 
2998:  BCF    x67.5
....................          flag_ajuste2=0; 
299A:  BCF    x67.6
....................          if(Potencia<Potenciamax) 
299C:  MOVFF  588,614
29A0:  MOVFF  587,613
29A4:  MOVFF  586,612
29A8:  MOVFF  585,611
29AC:  MOVFF  5E0,618
29B0:  MOVFF  5DF,617
29B4:  MOVFF  5DE,616
29B8:  MOVFF  5DD,615
29BC:  MOVLB  0
29BE:  CALL   0D30
29C2:  BTFSS  FD8.0
29C4:  BRA    2AC6
....................          { 
....................             if(TiempoControl>=60) 
29C6:  MOVLB  5
29C8:  MOVF   x6F,W
29CA:  SUBLW  3B
29CC:  BTFSC  FD8.0
29CE:  BRA    2AC8
....................             { 
....................                TiempoControl=0; 
29D0:  CLRF   x6F
....................                if(Aumento<-0.5) 
29D2:  MOVFF  5D0,614
29D6:  MOVFF  5CF,613
29DA:  MOVFF  5CE,612
29DE:  MOVFF  5CD,611
29E2:  MOVLB  6
29E4:  CLRF   x18
29E6:  CLRF   x17
29E8:  MOVLW  80
29EA:  MOVWF  x16
29EC:  MOVLW  7E
29EE:  MOVWF  x15
29F0:  MOVLB  0
29F2:  CALL   0D30
29F6:  BNC   2A2E
....................                { 
....................                   Ganancia+=1; 
29F8:  BCF    FD8.1
29FA:  MOVFF  5C4,619
29FE:  MOVFF  5C3,618
2A02:  MOVFF  5C2,617
2A06:  MOVFF  5C1,616
2A0A:  MOVLB  6
2A0C:  CLRF   x1D
2A0E:  CLRF   x1C
2A10:  CLRF   x1B
2A12:  MOVLW  7F
2A14:  MOVWF  x1A
2A16:  MOVLB  0
2A18:  CALL   18AC
2A1C:  MOVFF  03,5C4
2A20:  MOVFF  02,5C3
2A24:  MOVFF  01,5C2
2A28:  MOVFF  00,5C1
....................                } 
....................                else 
2A2C:  BRA    2AC6
....................                { 
....................                   if(Aumento<-0.1) 
2A2E:  MOVFF  5D0,614
2A32:  MOVFF  5CF,613
2A36:  MOVFF  5CE,612
2A3A:  MOVFF  5CD,611
2A3E:  MOVLW  CD
2A40:  MOVLB  6
2A42:  MOVWF  x18
2A44:  MOVLW  CC
2A46:  MOVWF  x17
2A48:  MOVWF  x16
2A4A:  MOVLW  7B
2A4C:  MOVWF  x15
2A4E:  MOVLB  0
2A50:  CALL   0D30
2A54:  BNC   2A8C
....................                   { 
....................                      Ganancia+=0.5; 
2A56:  BCF    FD8.1
2A58:  MOVFF  5C4,619
2A5C:  MOVFF  5C3,618
2A60:  MOVFF  5C2,617
2A64:  MOVFF  5C1,616
2A68:  MOVLB  6
2A6A:  CLRF   x1D
2A6C:  CLRF   x1C
2A6E:  CLRF   x1B
2A70:  MOVLW  7E
2A72:  MOVWF  x1A
2A74:  MOVLB  0
2A76:  CALL   18AC
2A7A:  MOVFF  03,5C4
2A7E:  MOVFF  02,5C3
2A82:  MOVFF  01,5C2
2A86:  MOVFF  00,5C1
....................                   }    
....................                   else 
2A8A:  BRA    2AC6
....................                   { 
....................                      Ganancia+=0.2; 
2A8C:  BCF    FD8.1
2A8E:  MOVFF  5C4,619
2A92:  MOVFF  5C3,618
2A96:  MOVFF  5C2,617
2A9A:  MOVFF  5C1,616
2A9E:  MOVLW  CD
2AA0:  MOVLB  6
2AA2:  MOVWF  x1D
2AA4:  MOVLW  CC
2AA6:  MOVWF  x1C
2AA8:  MOVLW  4C
2AAA:  MOVWF  x1B
2AAC:  MOVLW  7C
2AAE:  MOVWF  x1A
2AB0:  MOVLB  0
2AB2:  CALL   18AC
2AB6:  MOVFF  03,5C4
2ABA:  MOVFF  02,5C3
2ABE:  MOVFF  01,5C2
2AC2:  MOVFF  00,5C1
2AC6:  MOVLB  5
....................                   } 
....................                } 
....................             } 
....................          } 
....................       } 
....................     
....................    if(error<0.0) 
2AC8:  MOVFF  5B4,614
2ACC:  MOVFF  5B3,613
2AD0:  MOVFF  5B2,612
2AD4:  MOVFF  5B1,611
2AD8:  MOVLB  6
2ADA:  CLRF   x18
2ADC:  CLRF   x17
2ADE:  CLRF   x16
2AE0:  CLRF   x15
2AE2:  MOVLB  0
2AE4:  CALL   0D30
2AE8:  BNC   2B28
....................    { 
....................       if(TiempoControl>=60) 
2AEA:  MOVLB  5
2AEC:  MOVF   x6F,W
2AEE:  SUBLW  3B
2AF0:  BC    2B2A
....................       { 
....................          TiempoControl=0; 
2AF2:  CLRF   x6F
....................          Ganancia-=0.5; 
2AF4:  BSF    FD8.1
2AF6:  MOVFF  5C4,619
2AFA:  MOVFF  5C3,618
2AFE:  MOVFF  5C2,617
2B02:  MOVFF  5C1,616
2B06:  MOVLB  6
2B08:  CLRF   x1D
2B0A:  CLRF   x1C
2B0C:  CLRF   x1B
2B0E:  MOVLW  7E
2B10:  MOVWF  x1A
2B12:  MOVLB  0
2B14:  CALL   18AC
2B18:  MOVFF  03,5C4
2B1C:  MOVFF  02,5C3
2B20:  MOVFF  01,5C2
2B24:  MOVFF  00,5C1
2B28:  MOVLB  5
....................       } 
....................    } 
....................     
....................    if(Ganancia<0.5) 
2B2A:  MOVFF  5C4,614
2B2E:  MOVFF  5C3,613
2B32:  MOVFF  5C2,612
2B36:  MOVFF  5C1,611
2B3A:  MOVLB  6
2B3C:  CLRF   x18
2B3E:  CLRF   x17
2B40:  CLRF   x16
2B42:  MOVLW  7E
2B44:  MOVWF  x15
2B46:  MOVLB  0
2B48:  CALL   0D30
2B4C:  BNC   2B5C
....................    { 
....................       Ganancia=0.5; 
2B4E:  MOVLB  5
2B50:  CLRF   xC4
2B52:  CLRF   xC3
2B54:  CLRF   xC2
2B56:  MOVLW  7E
2B58:  MOVWF  xC1
2B5A:  MOVLB  0
....................    } 
....................    if(Ganancia>Gananciamax) 
2B5C:  MOVFF  58C,614
2B60:  MOVFF  58B,613
2B64:  MOVFF  58A,612
2B68:  MOVFF  589,611
2B6C:  MOVFF  5C4,618
2B70:  MOVFF  5C3,617
2B74:  MOVFF  5C2,616
2B78:  MOVFF  5C1,615
2B7C:  CALL   0D30
2B80:  BNC   2B92
....................    { 
....................       Ganancia=Gananciamax; 
2B82:  MOVFF  58C,5C4
2B86:  MOVFF  58B,5C3
2B8A:  MOVFF  58A,5C2
2B8E:  MOVFF  589,5C1
....................    } 
....................     
....................    if(error<0.0)     // Anti Wind_DOWN     
2B92:  MOVFF  5B4,614
2B96:  MOVFF  5B3,613
2B9A:  MOVFF  5B2,612
2B9E:  MOVFF  5B1,611
2BA2:  MOVLB  6
2BA4:  CLRF   x18
2BA6:  CLRF   x17
2BA8:  CLRF   x16
2BAA:  CLRF   x15
2BAC:  MOVLB  0
2BAE:  CALL   0D30
2BB2:  BNC   2BC0
....................    { 
....................       error=0.0; 
2BB4:  MOVLB  5
2BB6:  CLRF   xB4
2BB8:  CLRF   xB3
2BBA:  CLRF   xB2
2BBC:  CLRF   xB1
2BBE:  MOVLB  0
....................    } 
....................    //tmp=(Setpoint-Prom)*Ganancia;  // Control Proporcional. 
....................    tmp=error*Ganancia;  // Control Proporcional. 
2BC0:  MOVFF  5B4,631
2BC4:  MOVFF  5B3,630
2BC8:  MOVFF  5B2,62F
2BCC:  MOVFF  5B1,62E
2BD0:  MOVFF  5C4,635
2BD4:  MOVFF  5C3,634
2BD8:  MOVFF  5C2,633
2BDC:  MOVFF  5C1,632
2BE0:  CALL   1B46
2BE4:  MOVFF  03,5C0
2BE8:  MOVFF  02,5BF
2BEC:  MOVFF  01,5BE
2BF0:  MOVFF  00,5BD
....................           
....................    if(tmp>Setpoint)   // Anti Wind-UP       
2BF4:  MOVFF  580,618
2BF8:  MOVFF  57F,617
2BFC:  CALL   0CFA
2C00:  MOVFF  03,614
2C04:  MOVFF  02,613
2C08:  MOVFF  01,612
2C0C:  MOVFF  00,611
2C10:  MOVFF  5C0,618
2C14:  MOVFF  5BF,617
2C18:  MOVFF  5BE,616
2C1C:  MOVFF  5BD,615
2C20:  CALL   0D30
2C24:  BNC   2C42
....................    { 
....................       tmp=Setpoint; 
2C26:  MOVFF  580,618
2C2A:  MOVFF  57F,617
2C2E:  CALL   0CFA
2C32:  MOVFF  03,5C0
2C36:  MOVFF  02,5BF
2C3A:  MOVFF  01,5BE
2C3E:  MOVFF  00,5BD
....................    } 
....................                 
....................    if(tmp<0.0)     // Anti Wind_DOWN     
2C42:  MOVFF  5C0,614
2C46:  MOVFF  5BF,613
2C4A:  MOVFF  5BE,612
2C4E:  MOVFF  5BD,611
2C52:  MOVLB  6
2C54:  CLRF   x18
2C56:  CLRF   x17
2C58:  CLRF   x16
2C5A:  CLRF   x15
2C5C:  MOVLB  0
2C5E:  CALL   0D30
2C62:  BNC   2C70
....................    { 
....................       tmp=0.0; 
2C64:  MOVLB  5
2C66:  CLRF   xC0
2C68:  CLRF   xBF
2C6A:  CLRF   xBE
2C6C:  CLRF   xBD
2C6E:  MOVLB  0
....................    } 
....................     
....................    // Tpulso(t)= Tciclo*(y(t)-ymin)/(ymax - ymin); calculo de ciclo util para control de resistencia.ymax=140.ymin=0; 
....................    // Tpulso es float, hay que pasar ese ciclo a una salida de un puerto usando el TMR1. 
....................    Tpulso=(tmp/Setpoint)*Tciclo;   
2C70:  MOVFF  580,618
2C74:  MOVFF  57F,617
2C78:  CALL   0CFA
2C7C:  MOVFF  5C0,618
2C80:  MOVFF  5BF,617
2C84:  MOVFF  5BE,616
2C88:  MOVFF  5BD,615
2C8C:  MOVFF  03,61C
2C90:  MOVFF  02,61B
2C94:  MOVFF  01,61A
2C98:  MOVFF  00,619
2C9C:  CALL   174E
2CA0:  MOVFF  00,611
2CA4:  MOVFF  01,612
2CA8:  MOVFF  02,613
2CAC:  MOVFF  03,614
2CB0:  MOVFF  03,631
2CB4:  MOVFF  02,630
2CB8:  MOVFF  01,62F
2CBC:  MOVFF  00,62E
2CC0:  MOVFF  5AC,635
2CC4:  MOVFF  5AB,634
2CC8:  MOVFF  5AA,633
2CCC:  MOVFF  5A9,632
2CD0:  CALL   1B46
2CD4:  MOVFF  03,5B0
2CD8:  MOVFF  02,5AF
2CDC:  MOVFF  01,5AE
2CE0:  MOVFF  00,5AD
....................     
....................    if(flag_control==1) 
2CE4:  MOVLB  5
2CE6:  BTFSS  x68.5
2CE8:  BRA    2D1E
....................    { 
....................       if(Tpulso>5.0) 
2CEA:  MOVLB  6
2CEC:  CLRF   x14
2CEE:  CLRF   x13
2CF0:  MOVLW  20
2CF2:  MOVWF  x12
2CF4:  MOVLW  81
2CF6:  MOVWF  x11
2CF8:  MOVFF  5B0,618
2CFC:  MOVFF  5AF,617
2D00:  MOVFF  5AE,616
2D04:  MOVFF  5AD,615
2D08:  MOVLB  0
2D0A:  CALL   0D30
2D0E:  BNC   2D20
....................       { 
....................          Tpulso=5.0; 
2D10:  MOVLB  5
2D12:  CLRF   xB0
2D14:  CLRF   xAF
2D16:  MOVLW  20
2D18:  MOVWF  xAE
2D1A:  MOVLW  81
2D1C:  MOVWF  xAD
2D1E:  MOVLB  0
....................       } 
....................       /*if(Tpulso<Tpulsomin) 
....................       { 
....................          Tpulso=Tpulsomin; 
....................       }*/ 
....................    } 
....................     
....................    if(Tpulso>Tpulsomax){ 
2D20:  MOVFF  5DC,614
2D24:  MOVFF  5DB,613
2D28:  MOVFF  5DA,612
2D2C:  MOVFF  5D9,611
2D30:  MOVFF  5B0,618
2D34:  MOVFF  5AF,617
2D38:  MOVFF  5AE,616
2D3C:  MOVFF  5AD,615
2D40:  CALL   0D30
2D44:  BNC   2D56
....................       Tpulso=Tpulsomax; 
2D46:  MOVFF  5DC,5B0
2D4A:  MOVFF  5DB,5AF
2D4E:  MOVFF  5DA,5AE
2D52:  MOVFF  5D9,5AD
....................    } 
....................       if(error<2.0) 
2D56:  MOVFF  5B4,614
2D5A:  MOVFF  5B3,613
2D5E:  MOVFF  5B2,612
2D62:  MOVFF  5B1,611
2D66:  MOVLB  6
2D68:  CLRF   x18
2D6A:  CLRF   x17
2D6C:  CLRF   x16
2D6E:  MOVLW  80
2D70:  MOVWF  x15
2D72:  MOVLB  0
2D74:  CALL   0D30
2D78:  BNC   2DFC
....................       { 
....................                   
....................          if(error<=0.8){    
2D7A:  MOVFF  5B4,614
2D7E:  MOVFF  5B3,613
2D82:  MOVFF  5B2,612
2D86:  MOVFF  5B1,611
2D8A:  MOVLW  CD
2D8C:  MOVLB  6
2D8E:  MOVWF  x18
2D90:  MOVLW  CC
2D92:  MOVWF  x17
2D94:  MOVLW  4C
2D96:  MOVWF  x16
2D98:  MOVLW  7E
2D9A:  MOVWF  x15
2D9C:  MOVLB  0
2D9E:  CALL   0D30
2DA2:  BC    2DA6
2DA4:  BNZ   2DBE
....................             if(flag_ajuste2==0){ 
2DA6:  MOVLB  5
2DA8:  BTFSC  x67.6
2DAA:  BRA    2DBE
....................                Tpulsomin=Tpulso; 
2DAC:  MOVFF  5B0,5E4
2DB0:  MOVFF  5AF,5E3
2DB4:  MOVFF  5AE,5E2
2DB8:  MOVFF  5AD,5E1
....................                flag_ajuste2=1;            
2DBC:  BSF    x67.6
....................             } 
....................          } 
....................           
....................          if(flag_ajuste2==1){ 
2DBE:  MOVLB  5
2DC0:  BTFSS  x67.6
2DC2:  BRA    2DFE
....................             if(Tpulso<Tpulsomin){ 
2DC4:  MOVFF  5B0,614
2DC8:  MOVFF  5AF,613
2DCC:  MOVFF  5AE,612
2DD0:  MOVFF  5AD,611
2DD4:  MOVFF  5E4,618
2DD8:  MOVFF  5E3,617
2DDC:  MOVFF  5E2,616
2DE0:  MOVFF  5E1,615
2DE4:  MOVLB  0
2DE6:  CALL   0D30
2DEA:  BNC   2DFC
....................                Tpulso=Tpulsomin; 
2DEC:  MOVFF  5E4,5B0
2DF0:  MOVFF  5E3,5AF
2DF4:  MOVFF  5E2,5AE
2DF8:  MOVFF  5E1,5AD
2DFC:  MOVLB  5
....................             } 
....................          } 
....................       } 
....................        
....................    Tp=Tpulso/0.005; 
2DFE:  MOVFF  5B0,618
2E02:  MOVFF  5AF,617
2E06:  MOVFF  5AE,616
2E0A:  MOVFF  5AD,615
2E0E:  MOVLW  0A
2E10:  MOVLB  6
2E12:  MOVWF  x1C
2E14:  MOVLW  D7
2E16:  MOVWF  x1B
2E18:  MOVLW  23
2E1A:  MOVWF  x1A
2E1C:  MOVLW  77
2E1E:  MOVWF  x19
2E20:  MOVLB  0
2E22:  CALL   174E
2E26:  MOVFF  03,614
2E2A:  MOVFF  02,613
2E2E:  MOVFF  01,612
2E32:  MOVFF  00,611
2E36:  RCALL  283C
2E38:  MOVFF  02,582
2E3C:  MOVFF  01,581
....................    Tc=Tciclo/0.005; 
2E40:  MOVFF  5AC,618
2E44:  MOVFF  5AB,617
2E48:  MOVFF  5AA,616
2E4C:  MOVFF  5A9,615
2E50:  MOVLW  0A
2E52:  MOVLB  6
2E54:  MOVWF  x1C
2E56:  MOVLW  D7
2E58:  MOVWF  x1B
2E5A:  MOVLW  23
2E5C:  MOVWF  x1A
2E5E:  MOVLW  77
2E60:  MOVWF  x19
2E62:  MOVLB  0
2E64:  CALL   174E
2E68:  MOVFF  03,614
2E6C:  MOVFF  02,613
2E70:  MOVFF  01,612
2E74:  MOVFF  00,611
2E78:  RCALL  283C
2E7A:  MOVFF  02,584
2E7E:  MOVFF  01,583
....................    Control=1; 
2E82:  MOVLW  01
2E84:  MOVLB  5
2E86:  MOVWF  x66
....................  
.................... //--------------------------------------------------------------------------------------------------------------------//    
....................     
.................... } 
2E88:  MOVLB  0
2E8A:  RETLW  00
....................  
.................... void displayMenu(char palabra[30], int x, int y, int sombreado, int tamano) 
.................... { 
....................    strcpy(Menus.Letra,palabra); 
*
1418:  MOVLB  6
141A:  MOVFF  611,01
141E:  MOVFF  612,03
1422:  MOVFF  611,617
1426:  MOVFF  612,618
142A:  MOVLW  05
142C:  MOVWF  FEA
142E:  MOVLW  F1
1430:  MOVWF  FE9
1432:  MOVFF  612,FE2
1436:  MOVFF  611,FE1
143A:  MOVF   FE7,F
143C:  MOVFF  FE6,FEE
1440:  BNZ   143A
....................    if(sombreado==2) 
1442:  MOVF   x15,W
1444:  SUBLW  02
1446:  BNZ   1470
....................       {glcd_text57(x+1, y+1, Menus.Letra, tamano, ON);} 
1448:  MOVLW  01
144A:  ADDWF  x13,W
144C:  MOVWF  x17
144E:  MOVLW  01
1450:  ADDWF  x14,W
1452:  MOVWF  x18
1454:  MOVFF  617,624
1458:  MOVWF  x25
145A:  MOVLW  05
145C:  MOVWF  x27
145E:  MOVLW  F1
1460:  MOVWF  x26
1462:  MOVFF  616,628
1466:  MOVLW  01
1468:  MOVWF  x29
146A:  MOVLB  0
146C:  RCALL  1060
146E:  MOVLB  6
....................    if(sombreado==1) 
1470:  DECFSZ x15,W
1472:  BRA    14BE
....................       {glcd_rect(0, y, 127, y+(tamano*8), YES, ON);glcd_text57(x+1, y+1, Menus.Letra, tamano, OFF);} 
1474:  MOVF   x16,W
1476:  MULLW  08
1478:  MOVF   FF3,W
147A:  ADDWF  x14,W
147C:  MOVWF  x17
147E:  CLRF   x24
1480:  MOVFF  614,625
1484:  MOVLW  7F
1486:  MOVWF  x26
1488:  MOVFF  617,627
148C:  MOVLW  01
148E:  MOVWF  x28
1490:  MOVWF  x29
1492:  MOVLB  0
1494:  RCALL  1356
1496:  MOVLW  01
1498:  MOVLB  6
149A:  ADDWF  x13,W
149C:  MOVWF  x17
149E:  MOVLW  01
14A0:  ADDWF  x14,W
14A2:  MOVWF  x18
14A4:  MOVFF  617,624
14A8:  MOVWF  x25
14AA:  MOVLW  05
14AC:  MOVWF  x27
14AE:  MOVLW  F1
14B0:  MOVWF  x26
14B2:  MOVFF  616,628
14B6:  CLRF   x29
14B8:  MOVLB  0
14BA:  RCALL  1060
14BC:  MOVLB  6
....................    if(sombreado==0) 
14BE:  MOVF   x15,F
14C0:  BNZ   150C
....................       {glcd_rect(0, y, 127, y+(tamano*8), YES, OFF);glcd_text57(x+1, y+1, Menus.Letra, tamano, ON);} 
14C2:  MOVF   x16,W
14C4:  MULLW  08
14C6:  MOVF   FF3,W
14C8:  ADDWF  x14,W
14CA:  MOVWF  x17
14CC:  CLRF   x24
14CE:  MOVFF  614,625
14D2:  MOVLW  7F
14D4:  MOVWF  x26
14D6:  MOVFF  617,627
14DA:  MOVLW  01
14DC:  MOVWF  x28
14DE:  CLRF   x29
14E0:  MOVLB  0
14E2:  RCALL  1356
14E4:  MOVLW  01
14E6:  MOVLB  6
14E8:  ADDWF  x13,W
14EA:  MOVWF  x17
14EC:  MOVLW  01
14EE:  ADDWF  x14,W
14F0:  MOVWF  x18
14F2:  MOVFF  617,624
14F6:  MOVWF  x25
14F8:  MOVLW  05
14FA:  MOVWF  x27
14FC:  MOVLW  F1
14FE:  MOVWF  x26
1500:  MOVFF  616,628
1504:  MOVLW  01
1506:  MOVWF  x29
1508:  MOVLB  0
150A:  RCALL  1060
....................    glcd_update(); 
150C:  MOVLB  0
150E:  RCALL  0E44
.................... } 
1510:  RETLW  00
....................  
.................... void displayTiempo(int digito, int x, int y, int sombreado, int tamano) 
.................... { 
....................    char voltage[9]; 
....................     
....................    if(sombreado==2) 
*
2556:  MOVLB  6
2558:  MOVF   x15,W
255A:  SUBLW  02
255C:  BNZ   25CE
....................    { 
....................       sprintf(voltage, "%03u", digito); 
255E:  MOVLW  06
2560:  MOVWF  x10
2562:  MOVLW  17
2564:  MOVWF  x0F
2566:  MOVFF  612,620
256A:  MOVLW  03
256C:  MOVWF  x21
256E:  MOVLB  0
2570:  RCALL  24D0
....................       glcd_rect(x, y, x+(tamano*18), y+(tamano*8), YES, ON); 
2572:  MOVLB  6
2574:  MOVF   x16,W
2576:  MULLW  12
2578:  MOVF   FF3,W
257A:  ADDWF  x13,W
257C:  MOVWF  x20
257E:  MOVF   x16,W
2580:  MULLW  08
2582:  MOVF   FF3,W
2584:  ADDWF  x14,W
2586:  MOVWF  x21
2588:  MOVFF  613,624
258C:  MOVFF  614,625
2590:  MOVFF  620,626
2594:  MOVWF  x27
2596:  MOVLW  01
2598:  MOVWF  x28
259A:  MOVWF  x29
259C:  MOVLB  0
259E:  CALL   1356
....................       glcd_text57(x+1, y+1, voltage, tamano, OFF); 
25A2:  MOVLW  01
25A4:  MOVLB  6
25A6:  ADDWF  x13,W
25A8:  MOVWF  x20
25AA:  MOVLW  01
25AC:  ADDWF  x14,W
25AE:  MOVWF  x21
25B0:  MOVFF  620,624
25B4:  MOVWF  x25
25B6:  MOVLW  06
25B8:  MOVWF  x27
25BA:  MOVLW  17
25BC:  MOVWF  x26
25BE:  MOVFF  616,628
25C2:  CLRF   x29
25C4:  MOVLB  0
25C6:  CALL   1060
....................    } 
....................    else 
25CA:  BRA    2712
25CC:  MOVLB  6
....................    { 
....................       if(sombreado==3) 
25CE:  MOVF   x15,W
25D0:  SUBLW  03
25D2:  BNZ   2644
....................       { 
....................          sprintf(voltage, "%03u", digito); 
25D4:  MOVLW  06
25D6:  MOVWF  x10
25D8:  MOVLW  17
25DA:  MOVWF  x0F
25DC:  MOVFF  612,620
25E0:  MOVLW  03
25E2:  MOVWF  x21
25E4:  MOVLB  0
25E6:  RCALL  24D0
....................          glcd_rect(x, y, x+(tamano*18), y+(tamano*8), YES, OFF); 
25E8:  MOVLB  6
25EA:  MOVF   x16,W
25EC:  MULLW  12
25EE:  MOVF   FF3,W
25F0:  ADDWF  x13,W
25F2:  MOVWF  x20
25F4:  MOVF   x16,W
25F6:  MULLW  08
25F8:  MOVF   FF3,W
25FA:  ADDWF  x14,W
25FC:  MOVWF  x21
25FE:  MOVFF  613,624
2602:  MOVFF  614,625
2606:  MOVFF  620,626
260A:  MOVWF  x27
260C:  MOVLW  01
260E:  MOVWF  x28
2610:  CLRF   x29
2612:  MOVLB  0
2614:  CALL   1356
....................          glcd_text57(x+1, y+1, voltage, tamano, ON); 
2618:  MOVLW  01
261A:  MOVLB  6
261C:  ADDWF  x13,W
261E:  MOVWF  x20
2620:  MOVLW  01
2622:  ADDWF  x14,W
2624:  MOVWF  x21
2626:  MOVFF  620,624
262A:  MOVWF  x25
262C:  MOVLW  06
262E:  MOVWF  x27
2630:  MOVLW  17
2632:  MOVWF  x26
2634:  MOVFF  616,628
2638:  MOVLW  01
263A:  MOVWF  x29
263C:  MOVLB  0
263E:  CALL   1060
2642:  MOVLB  6
....................       } 
....................       sprintf(voltage, "%u", digito); 
2644:  MOVLW  06
2646:  MOVWF  x10
2648:  MOVLW  17
264A:  MOVWF  x0F
264C:  MOVFF  612,620
2650:  MOVLW  1B
2652:  MOVWF  x21
2654:  MOVLB  0
2656:  RCALL  24D0
....................       if(sombreado==1) 
2658:  MOVLB  6
265A:  DECFSZ x15,W
265C:  BRA    26B6
....................          {glcd_rect(x, y, x+(tamano*5), y+(tamano*8), YES, ON);glcd_text57(x+1, y+1, voltage, tamano, OFF);} 
265E:  MOVF   x16,W
2660:  MULLW  05
2662:  MOVF   FF3,W
2664:  ADDWF  x13,W
2666:  MOVWF  x20
2668:  MOVF   x16,W
266A:  MULLW  08
266C:  MOVF   FF3,W
266E:  ADDWF  x14,W
2670:  MOVWF  x21
2672:  MOVFF  613,624
2676:  MOVFF  614,625
267A:  MOVFF  620,626
267E:  MOVWF  x27
2680:  MOVLW  01
2682:  MOVWF  x28
2684:  MOVWF  x29
2686:  MOVLB  0
2688:  CALL   1356
268C:  MOVLW  01
268E:  MOVLB  6
2690:  ADDWF  x13,W
2692:  MOVWF  x20
2694:  MOVLW  01
2696:  ADDWF  x14,W
2698:  MOVWF  x21
269A:  MOVFF  620,624
269E:  MOVWF  x25
26A0:  MOVLW  06
26A2:  MOVWF  x27
26A4:  MOVLW  17
26A6:  MOVWF  x26
26A8:  MOVFF  616,628
26AC:  CLRF   x29
26AE:  MOVLB  0
26B0:  CALL   1060
26B4:  MOVLB  6
....................       if(sombreado==0) 
26B6:  MOVF   x15,F
26B8:  BNZ   2714
....................          {glcd_rect(x, y, x+(tamano*5), y+(tamano*8), YES, OFF);glcd_text57(x+1, y+1, voltage, tamano, ON);} 
26BA:  MOVF   x16,W
26BC:  MULLW  05
26BE:  MOVF   FF3,W
26C0:  ADDWF  x13,W
26C2:  MOVWF  x20
26C4:  MOVF   x16,W
26C6:  MULLW  08
26C8:  MOVF   FF3,W
26CA:  ADDWF  x14,W
26CC:  MOVWF  x21
26CE:  MOVFF  613,624
26D2:  MOVFF  614,625
26D6:  MOVFF  620,626
26DA:  MOVWF  x27
26DC:  MOVLW  01
26DE:  MOVWF  x28
26E0:  CLRF   x29
26E2:  MOVLB  0
26E4:  CALL   1356
26E8:  MOVLW  01
26EA:  MOVLB  6
26EC:  ADDWF  x13,W
26EE:  MOVWF  x20
26F0:  MOVLW  01
26F2:  ADDWF  x14,W
26F4:  MOVWF  x21
26F6:  MOVFF  620,624
26FA:  MOVWF  x25
26FC:  MOVLW  06
26FE:  MOVWF  x27
2700:  MOVLW  17
2702:  MOVWF  x26
2704:  MOVFF  616,628
2708:  MOVLW  01
270A:  MOVWF  x29
270C:  MOVLB  0
270E:  CALL   1060
2712:  MOVLB  6
....................    } 
....................    glcd_update(); 
2714:  MOVLB  0
2716:  CALL   0E44
.................... } 
271A:  RETLW  00
....................  
.................... void displayTemperatura(int16 digito, int x, int y, int sombreado, int tamano) 
.................... { 
....................    char voltage[9]; 
....................     
....................    if(sombreado==2) 
*
2318:  MOVLB  6
231A:  MOVF   x17,W
231C:  SUBLW  02
231E:  BNZ   2394
....................    { 
....................       sprintf(voltage, "%03Lu", digito); 
2320:  MOVLW  06
2322:  MOVWF  x10
2324:  MOVLW  19
2326:  MOVWF  x0F
2328:  MOVLW  0A
232A:  MOVWF  FE9
232C:  MOVFF  614,623
2330:  MOVFF  613,622
2334:  MOVLB  0
2336:  RCALL  225A
....................       glcd_rect(x, y, x+(tamano*18), y+(tamano*8), YES, ON); 
2338:  MOVLB  6
233A:  MOVF   x18,W
233C:  MULLW  12
233E:  MOVF   FF3,W
2340:  ADDWF  x15,W
2342:  MOVWF  x22
2344:  MOVF   x18,W
2346:  MULLW  08
2348:  MOVF   FF3,W
234A:  ADDWF  x16,W
234C:  MOVWF  x23
234E:  MOVFF  615,624
2352:  MOVFF  616,625
2356:  MOVFF  622,626
235A:  MOVWF  x27
235C:  MOVLW  01
235E:  MOVWF  x28
2360:  MOVWF  x29
2362:  MOVLB  0
2364:  CALL   1356
....................       glcd_text57(x+1, y+1, voltage, tamano, OFF); 
2368:  MOVLW  01
236A:  MOVLB  6
236C:  ADDWF  x15,W
236E:  MOVWF  x22
2370:  MOVLW  01
2372:  ADDWF  x16,W
2374:  MOVWF  x23
2376:  MOVFF  622,624
237A:  MOVWF  x25
237C:  MOVLW  06
237E:  MOVWF  x27
2380:  MOVLW  19
2382:  MOVWF  x26
2384:  MOVFF  618,628
2388:  CLRF   x29
238A:  MOVLB  0
238C:  CALL   1060
....................    } 
....................    else 
2390:  BRA    24C6
2392:  MOVLB  6
....................    { 
....................       sprintf(voltage, "%03Lu", digito); 
2394:  MOVLW  06
2396:  MOVWF  x10
2398:  MOVLW  19
239A:  MOVWF  x0F
239C:  MOVLW  0A
239E:  MOVWF  FE9
23A0:  MOVFF  614,623
23A4:  MOVFF  613,622
23A8:  MOVLB  0
23AA:  RCALL  225A
....................     
....................       if(sombreado==4) 
23AC:  MOVLB  6
23AE:  MOVF   x17,W
23B0:  SUBLW  04
23B2:  BNZ   240E
....................       { 
....................          glcd_rect(x, y, x+(tamano*16), y+(tamano*8), YES, OFF); 
23B4:  MOVF   x18,W
23B6:  MULLW  10
23B8:  MOVF   FF3,W
23BA:  ADDWF  x15,W
23BC:  MOVWF  x22
23BE:  MOVF   x18,W
23C0:  MULLW  08
23C2:  MOVF   FF3,W
23C4:  ADDWF  x16,W
23C6:  MOVWF  x23
23C8:  MOVFF  615,624
23CC:  MOVFF  616,625
23D0:  MOVFF  622,626
23D4:  MOVWF  x27
23D6:  MOVLW  01
23D8:  MOVWF  x28
23DA:  CLRF   x29
23DC:  MOVLB  0
23DE:  CALL   1356
....................          glcd_text57(x+1, y+1, voltage, tamano, ON); 
23E2:  MOVLW  01
23E4:  MOVLB  6
23E6:  ADDWF  x15,W
23E8:  MOVWF  x22
23EA:  MOVLW  01
23EC:  ADDWF  x16,W
23EE:  MOVWF  x23
23F0:  MOVFF  622,624
23F4:  MOVWF  x25
23F6:  MOVLW  06
23F8:  MOVWF  x27
23FA:  MOVLW  19
23FC:  MOVWF  x26
23FE:  MOVFF  618,628
2402:  MOVLW  01
2404:  MOVWF  x29
2406:  MOVLB  0
2408:  CALL   1060
240C:  MOVLB  6
....................       } 
....................       if(sombreado==1) 
240E:  DECFSZ x17,W
2410:  BRA    246A
....................          {glcd_rect(x, y, x+(tamano*5), y+(tamano*8), YES, ON);glcd_text57(x+1, y+1, voltage, tamano, OFF);} 
2412:  MOVF   x18,W
2414:  MULLW  05
2416:  MOVF   FF3,W
2418:  ADDWF  x15,W
241A:  MOVWF  x22
241C:  MOVF   x18,W
241E:  MULLW  08
2420:  MOVF   FF3,W
2422:  ADDWF  x16,W
2424:  MOVWF  x23
2426:  MOVFF  615,624
242A:  MOVFF  616,625
242E:  MOVFF  622,626
2432:  MOVWF  x27
2434:  MOVLW  01
2436:  MOVWF  x28
2438:  MOVWF  x29
243A:  MOVLB  0
243C:  CALL   1356
2440:  MOVLW  01
2442:  MOVLB  6
2444:  ADDWF  x15,W
2446:  MOVWF  x22
2448:  MOVLW  01
244A:  ADDWF  x16,W
244C:  MOVWF  x23
244E:  MOVFF  622,624
2452:  MOVWF  x25
2454:  MOVLW  06
2456:  MOVWF  x27
2458:  MOVLW  19
245A:  MOVWF  x26
245C:  MOVFF  618,628
2460:  CLRF   x29
2462:  MOVLB  0
2464:  CALL   1060
2468:  MOVLB  6
....................       if(sombreado==0) 
246A:  MOVF   x17,F
246C:  BNZ   24C8
....................          {glcd_rect(x, y, x+(tamano*5), y+(tamano*8), YES, OFF);glcd_text57(x+1, y+1, voltage, tamano, ON);} 
246E:  MOVF   x18,W
2470:  MULLW  05
2472:  MOVF   FF3,W
2474:  ADDWF  x15,W
2476:  MOVWF  x22
2478:  MOVF   x18,W
247A:  MULLW  08
247C:  MOVF   FF3,W
247E:  ADDWF  x16,W
2480:  MOVWF  x23
2482:  MOVFF  615,624
2486:  MOVFF  616,625
248A:  MOVFF  622,626
248E:  MOVWF  x27
2490:  MOVLW  01
2492:  MOVWF  x28
2494:  CLRF   x29
2496:  MOVLB  0
2498:  CALL   1356
249C:  MOVLW  01
249E:  MOVLB  6
24A0:  ADDWF  x15,W
24A2:  MOVWF  x22
24A4:  MOVLW  01
24A6:  ADDWF  x16,W
24A8:  MOVWF  x23
24AA:  MOVFF  622,624
24AE:  MOVWF  x25
24B0:  MOVLW  06
24B2:  MOVWF  x27
24B4:  MOVLW  19
24B6:  MOVWF  x26
24B8:  MOVFF  618,628
24BC:  MOVLW  01
24BE:  MOVWF  x29
24C0:  MOVLB  0
24C2:  CALL   1060
24C6:  MOVLB  6
....................    } 
....................    glcd_update(); 
24C8:  MOVLB  0
24CA:  CALL   0E44
.................... } 
24CE:  RETLW  00
....................  
.................... void glcd_imagen(int8 x) 
.................... { 
....................    char i,j; 
....................    signed char k;  
....................     
....................    if(x==5){ 
*
271C:  MOVLB  6
271E:  MOVF   x11,W
2720:  SUBLW  05
2722:  BNZ   27C8
....................    for( i = 0 ; i < 64 ; i ++ ) 
2724:  CLRF   x12
2726:  MOVF   x12,W
2728:  SUBLW  3F
272A:  BNC   27C8
....................    {   
....................       for( j = 0 ; j < 16 ; j ++) 
272C:  CLRF   x13
272E:  MOVF   x13,W
2730:  SUBLW  0F
2732:  BNC   27C4
....................       {     
....................          for(k=7;k>-1;k--) 
2734:  MOVLW  07
2736:  MOVWF  x14
2738:  MOVF   x14,W
273A:  XORLW  80
273C:  SUBLW  7F
273E:  BC    27C0
....................          {       
....................             if( bit_test(Horno[i][j] ,7-k ))  
2740:  CLRF   x16
2742:  MOVFF  612,615
2746:  CLRF   x18
2748:  MOVLW  10
274A:  MOVWF  x17
274C:  MOVLB  0
274E:  CALL   1B24
2752:  MOVFF  02,616
2756:  MOVFF  01,615
275A:  MOVLB  6
275C:  MOVF   x13,W
275E:  ADDWF  01,W
2760:  MOVWF  01
2762:  MOVLW  00
2764:  ADDWFC 02,W
2766:  MOVWF  03
2768:  MOVF   01,W
276A:  MOVFF  FF2,615
276E:  BCF    FF2.7
2770:  MOVFF  03,FF7
2774:  MOVLB  0
2776:  CALL   02A6
277A:  MOVLB  6
277C:  BTFSC  x15.7
277E:  BSF    FF2.7
2780:  MOVWF  x15
2782:  MOVLW  07
2784:  BSF    FD8.0
2786:  SUBFWB x14,W
2788:  MOVWF  x16
278A:  MOVFF  615,00
278E:  MOVF   x16,W
2790:  MOVWF  01
2792:  BZ    279C
2794:  BCF    FD8.0
2796:  RRCF   00,F
2798:  DECFSZ 01,F
279A:  BRA    2794
279C:  BTFSS  00.0
279E:  BRA    27BC
....................                glcd_pixel( j*8+k,i, ON ); 
27A0:  MOVF   x13,W
27A2:  MULLW  08
27A4:  MOVF   FF3,W
27A6:  ADDWF  x14,W
27A8:  MOVWF  x15
27AA:  MOVWF  x3F
27AC:  MOVFF  612,640
27B0:  MOVLW  01
27B2:  MOVWF  x41
27B4:  MOVLB  0
27B6:  CALL   0FA4
27BA:  MOVLB  6
....................          }   
27BC:  DECF   x14,F
27BE:  BRA    2738
....................       } 
27C0:  INCF   x13,F
27C2:  BRA    272E
....................    } 
27C4:  INCF   x12,F
27C6:  BRA    2726
....................    } 
....................     
.................... } 
27C8:  MOVLB  0
27CA:  GOTO   565E (RETURN)
....................  
.................... #int_TIMER1 
.................... void temp1s(void){ 
....................    //set_timer1(45612);  // 5 ms 5536 , Posiblemente cargar con 22144 debido a F=12MHz 
....................    set_timer1(5536); 
*
0C4A:  MOVLW  15
0C4C:  MOVWF  FCF
0C4E:  MOVLW  A0
0C50:  MOVWF  FCE
....................    tiempos++; 
0C52:  MOVLB  5
0C54:  INCF   x73,F
0C56:  BTFSC  FD8.2
0C58:  INCF   x74,F
....................    tiempos3++; 
0C5A:  INCF   x75,F
0C5C:  BTFSC  FD8.2
0C5E:  INCF   x76,F
....................    tiempoctrl++; 
0C60:  INCF   x77,F
0C62:  BTFSC  FD8.2
0C64:  INCF   x78,F
....................     
....................    if(Control==1){ 
0C66:  DECFSZ x66,W
0C68:  BRA    0C94
....................       if(tiempoctrl<Tp) // Si el tiempo es menor o igual al tiempo de control se enciende la resistencia de lo contrario se apaga. 
0C6A:  MOVF   x78,W
0C6C:  SUBWF  x82,W
0C6E:  BNC   0C7E
0C70:  BNZ   0C78
0C72:  MOVF   x81,W
0C74:  SUBWF  x77,W
0C76:  BC    0C7E
....................       { 
....................          Resistencia_on;       
0C78:  BSF    F8B.0
0C7A:  BCF    F94.0
....................       } 
....................       else          
0C7C:  BRA    0C82
....................       { 
....................          Resistencia_off; 
0C7E:  BCF    F8B.0
0C80:  BCF    F94.0
....................       } 
....................              
....................       if(tiempoctrl>=Tc) // Si el tiempo de control es mayor al tiempo de ciclo se reinicia tiempo de control 
0C82:  MOVF   x84,W
0C84:  SUBWF  x78,W
0C86:  BNC   0C94
0C88:  BNZ   0C90
0C8A:  MOVF   x83,W
0C8C:  SUBWF  x77,W
0C8E:  BNC   0C94
....................       { 
....................          tiempoctrl=0; 
0C90:  CLRF   x78
0C92:  CLRF   x77
....................       } // tiempoctrl incrementa una unidad cada 5ms, por eso se dividen los tiempos por 0.005. 
....................    } 
....................     
....................    if(tiempos>=200)  // 12000 para que incremente cada minuto, 200para que incremente cada segundo. 
0C94:  MOVF   x74,F
0C96:  BNZ   0C9E
0C98:  MOVF   x73,W
0C9A:  SUBLW  C7
0C9C:  BC    0CC8
....................    {tiempos=0;Lectura=1;tiemporeset++;TiempoControl++;tiemporecta++; 
0C9E:  CLRF   x74
0CA0:  CLRF   x73
0CA2:  BSF    x67.4
0CA4:  INCF   x6A,F
0CA6:  INCF   x6F,F
0CA8:  INCF   x63,F
....................     
....................       if(flag_setpoint==1) 
0CAA:  BTFSS  x68.4
0CAC:  BRA    0CB4
....................          tiemposetpoint++; 
0CAE:  INCF   x7D,F
0CB0:  BTFSC  FD8.2
0CB2:  INCF   x7E,F
....................           
....................       if(tiempo_esterilizacion==1) 
0CB4:  DECFSZ x71,W
0CB6:  BRA    0CBE
....................       {                
....................          tinicio++; 
0CB8:  INCF   x79,F
0CBA:  BTFSC  FD8.2
0CBC:  INCF   x7A,F
....................       } 
....................        
....................       if(flag_tiempocalentamiento==1) 
0CBE:  BTFSS  x68.2
0CC0:  BRA    0CC8
....................       { 
....................          tiempocalentamiento++; 
0CC2:  INCF   x7B,F
0CC4:  BTFSC  FD8.2
0CC6:  INCF   x7C,F
....................       } 
....................    }         
.................... } 
....................     
0CC8:  BCF    F9E.0
0CCA:  MOVLB  0
0CCC:  GOTO   0054
.................... void Limpia(int x1,int x2,int y){ 
....................    glcd_rect(x1, y, x2, y+7, YES, OFF); 
.................... } 
....................  
.................... void displayT(float adc,int x,int y,int w) { 
....................    char voltage[9];     
....................    sprintf(voltage, "%03.1f",adc); // Converts adc to text 
*
3106:  MOVLW  06
3108:  MOVLB  6
310A:  MOVWF  x10
310C:  MOVLW  18
310E:  MOVWF  x0F
3110:  MOVLW  42
3112:  MOVWF  FE9
3114:  MOVFF  614,624
3118:  MOVFF  613,623
311C:  MOVFF  612,622
3120:  MOVFF  611,621
3124:  MOVLW  01
3126:  MOVWF  x25
3128:  MOVLB  0
312A:  BRA    2F50
....................    glcd_rect(x, y, x+(w*27), y+(w*8), YES, OFF); 
312C:  MOVLB  6
312E:  MOVF   x17,W
3130:  MULLW  1B
3132:  MOVF   FF3,W
3134:  ADDWF  x15,W
3136:  MOVWF  x21
3138:  MOVF   x17,W
313A:  MULLW  08
313C:  MOVF   FF3,W
313E:  ADDWF  x16,W
3140:  MOVWF  x22
3142:  MOVFF  615,624
3146:  MOVFF  616,625
314A:  MOVFF  621,626
314E:  MOVWF  x27
3150:  MOVLW  01
3152:  MOVWF  x28
3154:  CLRF   x29
3156:  MOVLB  0
3158:  CALL   1356
....................    glcd_text57(x, y, voltage, w, ON); 
315C:  MOVFF  615,624
3160:  MOVFF  616,625
3164:  MOVLW  06
3166:  MOVLB  6
3168:  MOVWF  x27
316A:  MOVLW  18
316C:  MOVWF  x26
316E:  MOVFF  617,628
3172:  MOVLW  01
3174:  MOVWF  x29
3176:  MOVLB  0
3178:  CALL   1060
.................... } 
317C:  RETLW  00
....................  
.................... void displayContrasena(int digito, int x, int y, int sombreado) 
.................... { 
....................    char voltage[9]; 
....................    sprintf(voltage, "%i", digito); 
*
163E:  MOVLW  06
1640:  MOVLB  6
1642:  MOVWF  x10
1644:  MOVLW  17
1646:  MOVWF  x0F
1648:  MOVFF  613,620
164C:  MOVLW  1F
164E:  MOVWF  x21
1650:  MOVLB  0
1652:  BRA    155E
....................     
....................    if(sombreado==1) 
1654:  MOVLB  6
1656:  DECFSZ x16,W
1658:  BRA    16A8
....................       {glcd_rect(x, y, x+18, y+24, YES, ON);glcd_text57(x+2, y+1, voltage, 2, OFF);} 
165A:  MOVLW  12
165C:  ADDWF  x14,W
165E:  MOVWF  x20
1660:  MOVLW  18
1662:  ADDWF  x15,W
1664:  MOVWF  x21
1666:  MOVFF  614,624
166A:  MOVFF  615,625
166E:  MOVFF  620,626
1672:  MOVWF  x27
1674:  MOVLW  01
1676:  MOVWF  x28
1678:  MOVWF  x29
167A:  MOVLB  0
167C:  RCALL  1356
167E:  MOVLW  02
1680:  MOVLB  6
1682:  ADDWF  x14,W
1684:  MOVWF  x20
1686:  MOVLW  01
1688:  ADDWF  x15,W
168A:  MOVWF  x21
168C:  MOVFF  620,624
1690:  MOVWF  x25
1692:  MOVLW  06
1694:  MOVWF  x27
1696:  MOVLW  17
1698:  MOVWF  x26
169A:  MOVLW  02
169C:  MOVWF  x28
169E:  CLRF   x29
16A0:  MOVLB  0
16A2:  RCALL  1060
....................    else    
16A4:  BRA    16F2
16A6:  MOVLB  6
....................       {glcd_rect(x, y, x+18, y+24, NO, OFF);glcd_text57(x+2, y+1, voltage, 2, ON);} 
16A8:  MOVLW  12
16AA:  ADDWF  x14,W
16AC:  MOVWF  x20
16AE:  MOVLW  18
16B0:  ADDWF  x15,W
16B2:  MOVWF  x21
16B4:  MOVFF  614,624
16B8:  MOVFF  615,625
16BC:  MOVFF  620,626
16C0:  MOVWF  x27
16C2:  CLRF   x28
16C4:  CLRF   x29
16C6:  MOVLB  0
16C8:  RCALL  1356
16CA:  MOVLW  02
16CC:  MOVLB  6
16CE:  ADDWF  x14,W
16D0:  MOVWF  x20
16D2:  MOVLW  01
16D4:  ADDWF  x15,W
16D6:  MOVWF  x21
16D8:  MOVFF  620,624
16DC:  MOVWF  x25
16DE:  MOVLW  06
16E0:  MOVWF  x27
16E2:  MOVLW  17
16E4:  MOVWF  x26
16E6:  MOVLW  02
16E8:  MOVWF  x28
16EA:  MOVLW  01
16EC:  MOVWF  x29
16EE:  MOVLB  0
16F0:  RCALL  1060
....................  
.................... } 
16F2:  RETLW  00
....................  
....................  
.................... void main() 
.................... { 
*
317E:  CLRF   FF8
3180:  BCF    FD0.7
3182:  BSF    07.7
3184:  CLRF   FEA
3186:  CLRF   FE9
3188:  MOVLB  5
318A:  CLRF   x5E
318C:  CLRF   x5F
318E:  CLRF   x60
3190:  CLRF   x61
3192:  MOVLW  0A
3194:  MOVWF  x62
3196:  CLRF   x63
3198:  CLRF   x64
319A:  CLRF   x65
319C:  CLRF   x66
319E:  BCF    x67.0
31A0:  BCF    x67.1
31A2:  BCF    x67.2
31A4:  BSF    x67.3
31A6:  BCF    x67.4
31A8:  BCF    x67.5
31AA:  BCF    x67.6
31AC:  BCF    x67.7
31AE:  BCF    x68.0
31B0:  BCF    x68.1
31B2:  BCF    x68.2
31B4:  BCF    x68.3
31B6:  BCF    x68.4
31B8:  BCF    x68.5
31BA:  CLRF   x69
31BC:  CLRF   x6A
31BE:  CLRF   x6B
31C0:  MOVLW  01
31C2:  MOVWF  x6C
31C4:  CLRF   x6D
31C6:  CLRF   x6E
31C8:  CLRF   x6F
31CA:  MOVWF  x70
31CC:  CLRF   x71
31CE:  CLRF   x72
31D0:  CLRF   x74
31D2:  CLRF   x73
31D4:  CLRF   x76
31D6:  CLRF   x75
31D8:  CLRF   x78
31DA:  CLRF   x77
31DC:  CLRF   x7A
31DE:  CLRF   x79
31E0:  CLRF   x7C
31E2:  CLRF   x7B
31E4:  CLRF   x7E
31E6:  CLRF   x7D
31E8:  CLRF   x80
31EA:  CLRF   x7F
31EC:  CLRF   x82
31EE:  CLRF   x81
31F0:  CLRF   x84
31F2:  CLRF   x83
31F4:  CLRF   x88
31F6:  CLRF   x87
31F8:  CLRF   x86
31FA:  CLRF   x85
31FC:  CLRF   x8C
31FE:  CLRF   x8B
3200:  CLRF   x8A
3202:  CLRF   x89
3204:  CLRF   xA0
3206:  CLRF   x9F
3208:  CLRF   x9E
320A:  CLRF   x9D
320C:  CLRF   xA4
320E:  MOVLW  10
3210:  MOVWF  xA3
3212:  MOVLW  42
3214:  MOVWF  xA2
3216:  MOVLW  8B
3218:  MOVWF  xA1
321A:  CLRF   xAC
321C:  CLRF   xAB
321E:  MOVLW  20
3220:  MOVWF  xAA
3222:  MOVLW  82
3224:  MOVWF  xA9
3226:  CLRF   xB0
3228:  CLRF   xAF
322A:  CLRF   xAE
322C:  CLRF   xAD
322E:  CLRF   xB4
3230:  CLRF   xB3
3232:  CLRF   xB2
3234:  CLRF   xB1
3236:  CLRF   xB8
3238:  CLRF   xB7
323A:  CLRF   xB6
323C:  CLRF   xB5
323E:  CLRF   xBC
3240:  CLRF   xBB
3242:  CLRF   xBA
3244:  CLRF   xB9
3246:  CLRF   xC0
3248:  CLRF   xBF
324A:  CLRF   xBE
324C:  CLRF   xBD
324E:  CLRF   xC4
3250:  CLRF   xC3
3252:  MOVLW  48
3254:  MOVWF  xC2
3256:  MOVLW  83
3258:  MOVWF  xC1
325A:  CLRF   xC8
325C:  CLRF   xC7
325E:  CLRF   xC6
3260:  MOVLW  7F
3262:  MOVWF  xC5
3264:  CLRF   xCC
3266:  CLRF   xCB
3268:  MOVLW  70
326A:  MOVWF  xCA
326C:  MOVLW  83
326E:  MOVWF  xC9
3270:  CLRF   xD0
3272:  CLRF   xCF
3274:  CLRF   xCE
3276:  CLRF   xCD
3278:  CLRF   xD4
327A:  CLRF   xD3
327C:  CLRF   xD2
327E:  CLRF   xD1
3280:  CLRF   xD8
3282:  CLRF   xD7
3284:  MOVLW  20
3286:  MOVWF  xD6
3288:  MOVLW  82
328A:  MOVWF  xD5
328C:  CLRF   xDC
328E:  CLRF   xDB
3290:  CLRF   xDA
3292:  CLRF   xD9
3294:  CLRF   xE0
3296:  CLRF   xDF
3298:  CLRF   xDE
329A:  CLRF   xDD
329C:  CLRF   xE4
329E:  CLRF   xE3
32A0:  CLRF   xE2
32A2:  CLRF   xE1
32A4:  MOVLW  E0
32A6:  MOVWF  xE8
32A8:  MOVLW  2D
32AA:  MOVWF  xE7
32AC:  MOVLW  10
32AE:  MOVWF  xE6
32B0:  MOVLW  75
32B2:  MOVWF  xE5
32B4:  MOVLW  FF
32B6:  MOVWF  xEC
32B8:  MOVLW  21
32BA:  MOVWF  xEB
32BC:  MOVLW  15
32BE:  MOVWF  xEA
32C0:  MOVLW  80
32C2:  MOVWF  xE9
32C4:  MOVLW  82
32C6:  MOVWF  xF0
32C8:  MOVLW  12
32CA:  MOVWF  xEF
32CC:  MOVLW  F4
32CE:  MOVWF  xEE
32D0:  MOVLW  86
32D2:  MOVWF  xED
32D4:  MOVF   FC1,W
32D6:  ANDLW  C0
32D8:  IORLW  0F
32DA:  MOVWF  FC1
32DC:  MOVLW  07
32DE:  MOVWF  FB4
32E0:  MOVLB  4
32E2:  CLRF   x16
32E4:  CLRF   x17
32E6:  CLRF   x18
32E8:  CLRF   x19
32EA:  CLRF   x1A
32EC:  CLRF   x1B
32EE:  CLRF   x1C
32F0:  CLRF   x1D
32F2:  CLRF   x1E
32F4:  CLRF   x1F
32F6:  CLRF   x20
32F8:  CLRF   x21
32FA:  CLRF   x22
32FC:  CLRF   x23
32FE:  CLRF   x24
3300:  CLRF   x25
3302:  CLRF   x26
3304:  CLRF   x27
3306:  CLRF   x28
3308:  CLRF   x29
330A:  CLRF   x2A
330C:  CLRF   x2B
330E:  CLRF   x2C
3310:  CLRF   x2D
3312:  CLRF   x2E
3314:  CLRF   x2F
3316:  CLRF   x30
3318:  CLRF   x31
331A:  CLRF   x32
331C:  CLRF   x33
331E:  CLRF   x34
3320:  CLRF   x35
3322:  CLRF   x36
3324:  CLRF   x37
3326:  CLRF   x38
3328:  CLRF   x39
332A:  CLRF   x3A
332C:  CLRF   x3B
332E:  CLRF   x3C
3330:  CLRF   x3D
3332:  CLRF   x3E
3334:  CLRF   x3F
3336:  CLRF   x40
3338:  CLRF   x41
333A:  CLRF   x42
333C:  CLRF   x43
333E:  CLRF   x44
3340:  CLRF   x45
3342:  CLRF   x46
3344:  CLRF   x47
3346:  CLRF   x48
3348:  CLRF   x49
334A:  CLRF   x4A
334C:  CLRF   x4B
334E:  CLRF   x4C
3350:  CLRF   x4D
3352:  CLRF   x4E
3354:  CLRF   x4F
3356:  CLRF   x50
3358:  CLRF   x51
335A:  CLRF   x52
335C:  CLRF   x53
335E:  CLRF   x54
3360:  CLRF   x55
3362:  CLRF   x56
3364:  CLRF   x57
3366:  CLRF   x58
3368:  CLRF   x59
336A:  CLRF   x5A
336C:  CLRF   x5B
336E:  CLRF   x5C
3370:  CLRF   x5D
3372:  CLRF   x5E
3374:  CLRF   x5F
3376:  CLRF   x60
3378:  CLRF   x61
337A:  CLRF   x62
337C:  CLRF   x63
337E:  CLRF   x64
3380:  CLRF   x65
3382:  CLRF   x66
3384:  CLRF   x67
3386:  CLRF   x68
3388:  CLRF   x69
338A:  CLRF   x6A
338C:  CLRF   x6B
338E:  CLRF   x6C
3390:  CLRF   x6D
3392:  CLRF   x6E
3394:  CLRF   x6F
3396:  CLRF   x70
3398:  CLRF   x71
339A:  CLRF   x72
339C:  CLRF   x73
339E:  CLRF   x74
33A0:  CLRF   x75
33A2:  CLRF   x76
33A4:  CLRF   x77
33A6:  CLRF   x78
33A8:  CLRF   x79
33AA:  CLRF   x7A
33AC:  CLRF   x7B
33AE:  CLRF   x7C
33B0:  CLRF   x7D
33B2:  CLRF   x7E
33B4:  CLRF   x7F
33B6:  CLRF   x80
33B8:  CLRF   x81
33BA:  CLRF   x82
33BC:  CLRF   x83
33BE:  CLRF   x84
33C0:  CLRF   x85
33C2:  CLRF   x86
33C4:  CLRF   x87
33C6:  CLRF   x88
33C8:  CLRF   x89
33CA:  CLRF   x8A
33CC:  CLRF   x8B
33CE:  CLRF   x8C
33D0:  CLRF   x8D
33D2:  CLRF   x8E
33D4:  CLRF   x8F
33D6:  CLRF   x90
33D8:  CLRF   x91
33DA:  CLRF   x92
33DC:  CLRF   x93
33DE:  CLRF   x94
33E0:  CLRF   x95
33E2:  CLRF   x96
33E4:  CLRF   x97
33E6:  CLRF   x98
33E8:  CLRF   x99
33EA:  CLRF   x9A
33EC:  CLRF   x9B
33EE:  CLRF   x9C
33F0:  CLRF   x9D
33F2:  CLRF   x9E
33F4:  CLRF   x9F
33F6:  CLRF   xA0
33F8:  CLRF   xA1
33FA:  CLRF   xA2
33FC:  CLRF   xA3
33FE:  CLRF   xA4
3400:  CLRF   xA5
3402:  CLRF   xA6
3404:  CLRF   xA7
3406:  CLRF   xA8
3408:  CLRF   xA9
340A:  CLRF   xAA
340C:  CLRF   xAB
340E:  CLRF   xAC
3410:  CLRF   xAD
3412:  CLRF   xAE
3414:  CLRF   xAF
3416:  CLRF   xB0
3418:  CLRF   xB1
341A:  CLRF   xB2
341C:  CLRF   xB3
341E:  CLRF   xB4
3420:  CLRF   xB5
3422:  CLRF   xB6
3424:  CLRF   xB7
3426:  CLRF   xB8
3428:  CLRF   xB9
342A:  CLRF   xBA
342C:  CLRF   xBB
342E:  CLRF   xBC
3430:  CLRF   xBD
3432:  CLRF   xBE
3434:  CLRF   xBF
3436:  CLRF   xC0
3438:  CLRF   xC1
343A:  CLRF   xC2
343C:  CLRF   xC3
343E:  CLRF   xC4
3440:  CLRF   xC5
3442:  CLRF   xC6
3444:  CLRF   xC7
3446:  CLRF   xC8
3448:  CLRF   xC9
344A:  CLRF   xCA
344C:  CLRF   xCB
344E:  CLRF   xCC
3450:  CLRF   xCD
3452:  CLRF   xCE
3454:  CLRF   xCF
3456:  CLRF   xD0
3458:  CLRF   xD1
345A:  CLRF   xD2
345C:  CLRF   xD3
345E:  CLRF   xD4
3460:  CLRF   xD5
3462:  CLRF   xD6
3464:  CLRF   xD7
3466:  CLRF   xD8
3468:  CLRF   xD9
346A:  CLRF   xDA
346C:  CLRF   xDB
346E:  CLRF   xDC
3470:  CLRF   xDD
3472:  CLRF   xDE
3474:  CLRF   xDF
3476:  CLRF   xE0
3478:  CLRF   xE1
347A:  CLRF   xE2
347C:  CLRF   xE3
347E:  CLRF   xE4
3480:  CLRF   xE5
3482:  CLRF   xE6
3484:  CLRF   xE7
3486:  CLRF   xE8
3488:  CLRF   xE9
348A:  CLRF   xEA
348C:  CLRF   xEB
348E:  CLRF   xEC
3490:  CLRF   xED
3492:  CLRF   xEE
3494:  CLRF   xEF
3496:  CLRF   xF0
3498:  CLRF   xF1
349A:  CLRF   xF2
349C:  CLRF   xF3
349E:  CLRF   xF4
34A0:  CLRF   xF5
34A2:  CLRF   xF6
34A4:  CLRF   xF7
34A6:  CLRF   xF8
34A8:  CLRF   xF9
34AA:  CLRF   xFA
34AC:  CLRF   xFB
34AE:  CLRF   xFC
34B0:  CLRF   xFD
34B2:  CLRF   xFE
34B4:  CLRF   xFF
34B6:  MOVLB  5
34B8:  CLRF   x00
34BA:  CLRF   x01
34BC:  CLRF   x02
34BE:  CLRF   x03
34C0:  CLRF   x04
34C2:  CLRF   x05
34C4:  CLRF   x06
34C6:  CLRF   x07
34C8:  CLRF   x08
34CA:  CLRF   x09
34CC:  CLRF   x0A
34CE:  CLRF   x0B
34D0:  CLRF   x0C
34D2:  CLRF   x0D
34D4:  CLRF   x0E
34D6:  CLRF   x0F
34D8:  CLRF   x10
34DA:  CLRF   x11
34DC:  CLRF   x12
34DE:  CLRF   x13
34E0:  CLRF   x14
34E2:  CLRF   x15
34E4:  CLRF   x16
34E6:  CLRF   x17
34E8:  CLRF   x18
34EA:  CLRF   x19
34EC:  CLRF   x1A
34EE:  CLRF   x1B
34F0:  CLRF   x1C
34F2:  CLRF   x1D
34F4:  CLRF   x1E
34F6:  CLRF   x1F
34F8:  CLRF   x20
34FA:  CLRF   x21
34FC:  CLRF   x22
34FE:  CLRF   x23
3500:  CLRF   x24
3502:  CLRF   x25
3504:  CLRF   x26
3506:  CLRF   x27
3508:  CLRF   x28
350A:  CLRF   x29
350C:  CLRF   x2A
350E:  CLRF   x2B
3510:  CLRF   x2C
3512:  CLRF   x2D
3514:  CLRF   x2E
3516:  CLRF   x2F
3518:  CLRF   x30
351A:  CLRF   x31
351C:  CLRF   x32
351E:  CLRF   x33
3520:  CLRF   x34
3522:  CLRF   x35
3524:  CLRF   x36
3526:  CLRF   x37
3528:  CLRF   x38
352A:  CLRF   x39
352C:  CLRF   x3A
352E:  CLRF   x3B
3530:  CLRF   x3C
3532:  CLRF   x3D
3534:  CLRF   x3E
3536:  CLRF   x3F
3538:  CLRF   x40
353A:  CLRF   x41
353C:  CLRF   x42
353E:  CLRF   x43
3540:  CLRF   x44
3542:  CLRF   x45
3544:  CLRF   x46
3546:  CLRF   x47
3548:  CLRF   x48
354A:  CLRF   x49
354C:  CLRF   x4A
354E:  CLRF   x4B
3550:  CLRF   x4C
3552:  CLRF   x4D
3554:  CLRF   x4E
3556:  CLRF   x4F
3558:  CLRF   x50
355A:  CLRF   x51
355C:  CLRF   x52
355E:  CLRF   x53
3560:  CLRF   x54
3562:  CLRF   x55
3564:  CLRF   x56
3566:  CLRF   x57
3568:  CLRF   x58
356A:  CLRF   x59
356C:  CLRF   x5A
356E:  CLRF   x5B
3570:  CLRF   x5C
3572:  CLRF   x5D
3574:  CLRF   x8D
3576:  CLRF   x8E
3578:  CLRF   x8F
357A:  CLRF   x90
357C:  CLRF   x91
357E:  CLRF   x92
3580:  CLRF   x93
3582:  CLRF   x94
3584:  CLRF   x95
3586:  CLRF   x96
3588:  CLRF   x97
358A:  CLRF   x98
358C:  CLRF   x99
358E:  CLRF   x9A
3590:  CLRF   x9B
3592:  CLRF   x9C
3594:  MOVLB  6
3596:  CLRF   x0F
3598:  CLRF   x10
....................    delay_ms(1000);    
359A:  MOVLW  04
359C:  MOVWF  x11
359E:  MOVLW  FA
35A0:  MOVWF  x17
35A2:  MOVLB  0
35A4:  CALL   0CD0
35A8:  MOVLB  6
35AA:  DECFSZ x11,F
35AC:  BRA    359E
....................    Resistencia_off;Peltier_off;Buzzer_off; 
35AE:  BCF    F8B.0
35B0:  BCF    F94.0
35B2:  BCF    F8B.2
35B4:  BCF    F94.2
35B6:  BCF    F8B.6
35B8:  BCF    F94.6
....................    setup_timer_1(T1_INTERNAL|T1_DIV_BY_1); 
35BA:  MOVLW  85
35BC:  MOVWF  FCD
....................    enable_interrupts(INT_TIMER1); 
35BE:  BSF    F9D.0
....................    setup_adc_ports(AN0); 
35C0:  MOVF   FC1,W
35C2:  ANDLW  C0
35C4:  IORLW  0E
35C6:  MOVWF  FC1
....................    setup_adc(ADC_CLOCK_DIV_64); 
35C8:  BCF    FC0.0
35CA:  BSF    FC0.1
35CC:  BSF    FC0.2
35CE:  BSF    FC0.7
35D0:  BSF    FC2.0
....................    /*setup_ccp1 (CCP_PWM); 
....................    setup_timer_2(T2_DIV_BY_4, 255, 1);    
....................    set_pwm1_duty(0);*/ 
....................    enable_interrupts(global); 
35D2:  MOVLW  C0
35D4:  IORWF  FF2,F
....................    Testerilizacionp[0]=read_eeprom(0); 
35D6:  MOVFF  FF2,611
35DA:  BCF    FF2.7
35DC:  CLRF   FA9
35DE:  BCF    FA6.6
35E0:  BCF    FA6.7
35E2:  BSF    FA6.0
35E4:  MOVF   FA8,W
35E6:  BTFSC  x11.7
35E8:  BSF    FF2.7
35EA:  MOVLB  5
35EC:  MOVWF  x91
....................    delay_ms(50);    
35EE:  MOVLW  32
35F0:  MOVLB  6
35F2:  MOVWF  x17
35F4:  MOVLB  0
35F6:  CALL   0CD0
....................    Testerilizacionp[1]=read_eeprom(1); 
35FA:  MOVFF  FF2,611
35FE:  BCF    FF2.7
3600:  MOVLW  01
3602:  MOVWF  FA9
3604:  BCF    FA6.6
3606:  BCF    FA6.7
3608:  BSF    FA6.0
360A:  MOVF   FA8,W
360C:  MOVLB  6
360E:  BTFSC  x11.7
3610:  BSF    FF2.7
3612:  MOVLB  5
3614:  MOVWF  x92
....................    delay_ms(50);    
3616:  MOVLW  32
3618:  MOVLB  6
361A:  MOVWF  x17
361C:  MOVLB  0
361E:  CALL   0CD0
....................    Testerilizacionp[2]=read_eeprom(2); 
3622:  MOVFF  FF2,611
3626:  BCF    FF2.7
3628:  MOVLW  02
362A:  MOVWF  FA9
362C:  BCF    FA6.6
362E:  BCF    FA6.7
3630:  BSF    FA6.0
3632:  MOVF   FA8,W
3634:  MOVLB  6
3636:  BTFSC  x11.7
3638:  BSF    FF2.7
363A:  MOVLB  5
363C:  MOVWF  x93
....................    delay_ms(50); 
363E:  MOVLW  32
3640:  MOVLB  6
3642:  MOVWF  x17
3644:  MOVLB  0
3646:  CALL   0CD0
....................    Testerilizacionp[3]=read_eeprom(3); 
364A:  MOVFF  FF2,611
364E:  BCF    FF2.7
3650:  MOVLW  03
3652:  MOVWF  FA9
3654:  BCF    FA6.6
3656:  BCF    FA6.7
3658:  BSF    FA6.0
365A:  MOVF   FA8,W
365C:  MOVLB  6
365E:  BTFSC  x11.7
3660:  BSF    FF2.7
3662:  MOVLB  5
3664:  MOVWF  x94
....................    delay_ms(50);    
3666:  MOVLW  32
3668:  MOVLB  6
366A:  MOVWF  x17
366C:  MOVLB  0
366E:  CALL   0CD0
....................    Setpoint=make16(read_eeprom(81),read_eeprom(80)); 
3672:  MOVFF  FF2,611
3676:  BCF    FF2.7
3678:  MOVLW  51
367A:  MOVWF  FA9
367C:  BCF    FA6.6
367E:  BCF    FA6.7
3680:  BSF    FA6.0
3682:  MOVF   FA8,W
3684:  MOVLB  6
3686:  BTFSC  x11.7
3688:  BSF    FF2.7
368A:  MOVWF  x12
368C:  MOVFF  FF2,613
3690:  BCF    FF2.7
3692:  MOVLW  50
3694:  MOVWF  FA9
3696:  BCF    FA6.6
3698:  BCF    FA6.7
369A:  BSF    FA6.0
369C:  MOVF   FA8,W
369E:  BTFSC  x13.7
36A0:  BSF    FF2.7
36A2:  MOVWF  x14
36A4:  MOVFF  612,580
36A8:  MOVFF  614,57F
....................    delay_ms(50);    
36AC:  MOVLW  32
36AE:  MOVWF  x17
36B0:  MOVLB  0
36B2:  CALL   0CD0
....................    Password[0]=read_eeprom(10); 
36B6:  MOVFF  FF2,611
36BA:  BCF    FF2.7
36BC:  MOVLW  0A
36BE:  MOVWF  FA9
36C0:  BCF    FA6.6
36C2:  BCF    FA6.7
36C4:  BSF    FA6.0
36C6:  MOVF   FA8,W
36C8:  MOVLB  6
36CA:  BTFSC  x11.7
36CC:  BSF    FF2.7
36CE:  MOVLB  5
36D0:  MOVWF  x99
....................    delay_ms(50);    
36D2:  MOVLW  32
36D4:  MOVLB  6
36D6:  MOVWF  x17
36D8:  MOVLB  0
36DA:  CALL   0CD0
....................    Password[1]=read_eeprom(11); 
36DE:  MOVFF  FF2,611
36E2:  BCF    FF2.7
36E4:  MOVLW  0B
36E6:  MOVWF  FA9
36E8:  BCF    FA6.6
36EA:  BCF    FA6.7
36EC:  BSF    FA6.0
36EE:  MOVF   FA8,W
36F0:  MOVLB  6
36F2:  BTFSC  x11.7
36F4:  BSF    FF2.7
36F6:  MOVLB  5
36F8:  MOVWF  x9A
....................    delay_ms(50);    
36FA:  MOVLW  32
36FC:  MOVLB  6
36FE:  MOVWF  x17
3700:  MOVLB  0
3702:  CALL   0CD0
....................    Password[2]=read_eeprom(12); 
3706:  MOVFF  FF2,611
370A:  BCF    FF2.7
370C:  MOVLW  0C
370E:  MOVWF  FA9
3710:  BCF    FA6.6
3712:  BCF    FA6.7
3714:  BSF    FA6.0
3716:  MOVF   FA8,W
3718:  MOVLB  6
371A:  BTFSC  x11.7
371C:  BSF    FF2.7
371E:  MOVLB  5
3720:  MOVWF  x9B
....................    delay_ms(50);    
3722:  MOVLW  32
3724:  MOVLB  6
3726:  MOVWF  x17
3728:  MOVLB  0
372A:  CALL   0CD0
....................    Password[3]=read_eeprom(13); 
372E:  MOVFF  FF2,611
3732:  BCF    FF2.7
3734:  MOVLW  0D
3736:  MOVWF  FA9
3738:  BCF    FA6.6
373A:  BCF    FA6.7
373C:  BSF    FA6.0
373E:  MOVF   FA8,W
3740:  MOVLB  6
3742:  BTFSC  x11.7
3744:  BSF    FF2.7
3746:  MOVLB  5
3748:  MOVWF  x9C
....................    delay_ms(50);    
374A:  MOVLW  32
374C:  MOVLB  6
374E:  MOVWF  x17
3750:  MOVLB  0
3752:  CALL   0CD0
....................    Ganancia=read_eeprom(90); 
3756:  MOVFF  FF2,611
375A:  BCF    FF2.7
375C:  MOVLW  5A
375E:  MOVWF  FA9
3760:  BCF    FA6.6
3762:  BCF    FA6.7
3764:  BSF    FA6.0
3766:  MOVF   FA8,W
3768:  MOVLB  6
376A:  BTFSC  x11.7
376C:  BSF    FF2.7
376E:  CLRF   x18
3770:  MOVWF  x17
3772:  MOVLB  0
3774:  CALL   0CFA
3778:  MOVFF  03,5C4
377C:  MOVFF  02,5C3
3780:  MOVFF  01,5C2
3784:  MOVFF  00,5C1
....................    delay_ms(50);    
3788:  MOVLW  32
378A:  MOVLB  6
378C:  MOVWF  x17
378E:  MOVLB  0
3790:  CALL   0CD0
....................    Tciclo=read_eeprom(30); 
3794:  MOVFF  FF2,611
3798:  BCF    FF2.7
379A:  MOVLW  1E
379C:  MOVWF  FA9
379E:  BCF    FA6.6
37A0:  BCF    FA6.7
37A2:  BSF    FA6.0
37A4:  MOVF   FA8,W
37A6:  MOVLB  6
37A8:  BTFSC  x11.7
37AA:  BSF    FF2.7
37AC:  CLRF   x18
37AE:  MOVWF  x17
37B0:  MOVLB  0
37B2:  CALL   0CFA
37B6:  MOVFF  03,5AC
37BA:  MOVFF  02,5AB
37BE:  MOVFF  01,5AA
37C2:  MOVFF  00,5A9
....................    delay_ms(50);    
37C6:  MOVLW  32
37C8:  MOVLB  6
37CA:  MOVWF  x17
37CC:  MOVLB  0
37CE:  CALL   0CD0
....................    Ajuste=read_eeprom(40); 
37D2:  MOVFF  FF2,611
37D6:  BCF    FF2.7
37D8:  MOVLW  28
37DA:  MOVWF  FA9
37DC:  BCF    FA6.6
37DE:  BCF    FA6.7
37E0:  BSF    FA6.0
37E2:  MOVF   FA8,W
37E4:  MOVLB  6
37E6:  BTFSC  x11.7
37E8:  BSF    FF2.7
37EA:  MOVLB  5
37EC:  MOVWF  x60
....................    delay_ms(50);    
37EE:  MOVLW  32
37F0:  MOVLB  6
37F2:  MOVWF  x17
37F4:  MOVLB  0
37F6:  CALL   0CD0
....................    Ajusten=read_eeprom(50); 
37FA:  MOVFF  FF2,611
37FE:  BCF    FF2.7
3800:  MOVLW  32
3802:  MOVWF  FA9
3804:  BCF    FA6.6
3806:  BCF    FA6.7
3808:  BSF    FA6.0
380A:  MOVF   FA8,W
380C:  MOVLB  6
380E:  BTFSC  x11.7
3810:  BSF    FF2.7
3812:  MOVLB  5
3814:  MOVWF  x61
....................    delay_ms(50);    
3816:  MOVLW  32
3818:  MOVLB  6
381A:  MOVWF  x17
381C:  MOVLB  0
381E:  CALL   0CD0
....................    MediaMovil=read_eeprom(60); 
3822:  MOVFF  FF2,611
3826:  BCF    FF2.7
3828:  MOVLW  3C
382A:  MOVWF  FA9
382C:  BCF    FA6.6
382E:  BCF    FA6.7
3830:  BSF    FA6.0
3832:  MOVF   FA8,W
3834:  MOVLB  6
3836:  BTFSC  x11.7
3838:  BSF    FF2.7
383A:  MOVLB  5
383C:  MOVWF  x62
....................    delay_ms(50);    
383E:  MOVLW  32
3840:  MOVLB  6
3842:  MOVWF  x17
3844:  MOVLB  0
3846:  CALL   0CD0
....................    Coeficiente=read_eeprom(70); 
384A:  MOVFF  FF2,611
384E:  BCF    FF2.7
3850:  MOVLW  46
3852:  MOVWF  FA9
3854:  BCF    FA6.6
3856:  BCF    FA6.7
3858:  BSF    FA6.0
385A:  MOVF   FA8,W
385C:  MOVLB  6
385E:  BTFSC  x11.7
3860:  BSF    FF2.7
3862:  CLRF   x18
3864:  MOVWF  x17
3866:  MOVLB  0
3868:  CALL   0CFA
386C:  MOVFF  03,5CC
3870:  MOVFF  02,5CB
3874:  MOVFF  01,5CA
3878:  MOVFF  00,5C9
....................    delay_ms(50);    
387C:  MOVLW  32
387E:  MOVLB  6
3880:  MOVWF  x17
3882:  MOVLB  0
3884:  CALL   0CD0
....................    Saturacion=read_eeprom(100); 
3888:  MOVFF  FF2,611
388C:  BCF    FF2.7
388E:  MOVLW  64
3890:  MOVWF  FA9
3892:  BCF    FA6.6
3894:  BCF    FA6.7
3896:  BSF    FA6.0
3898:  MOVF   FA8,W
389A:  MOVLB  6
389C:  BTFSC  x11.7
389E:  BSF    FF2.7
38A0:  CLRF   x18
38A2:  MOVWF  x17
38A4:  MOVLB  0
38A6:  CALL   0CFA
38AA:  MOVFF  03,5D8
38AE:  MOVFF  02,5D7
38B2:  MOVFF  01,5D6
38B6:  MOVFF  00,5D5
....................     
....................    if(Ganancia>10.0) 
38BA:  MOVLB  6
38BC:  CLRF   x14
38BE:  CLRF   x13
38C0:  MOVLW  20
38C2:  MOVWF  x12
38C4:  MOVLW  82
38C6:  MOVWF  x11
38C8:  MOVFF  5C4,618
38CC:  MOVFF  5C3,617
38D0:  MOVFF  5C2,616
38D4:  MOVFF  5C1,615
38D8:  MOVLB  0
38DA:  CALL   0D30
38DE:  BNC   38EC
....................    { 
....................       Ganancia=2.0; 
38E0:  MOVLB  5
38E2:  CLRF   xC4
38E4:  CLRF   xC3
38E6:  CLRF   xC2
38E8:  MOVLW  80
38EA:  MOVWF  xC1
....................    } 
....................     
....................    glcd_init(ON);             //Inicializa la glcd 
38EC:  MOVLW  01
38EE:  MOVLB  6
38F0:  MOVWF  x11
38F2:  MOVLB  0
38F4:  CALL   0EFC
....................    glcd_fillScreen(OFF);      //Limpia la pantalla 
38F8:  MOVLB  6
38FA:  CLRF   x12
38FC:  MOVLB  0
38FE:  CALL   0DEA
....................    strcpy(Menus.Letra,"JP Inglobal"); 
3902:  MOVLW  05
3904:  MOVWF  FEA
3906:  MOVLW  F1
3908:  MOVWF  FE9
390A:  MOVFF  FF2,611
390E:  BCF    FF2.7
3910:  MOVLW  00
3912:  CALL   06BE
3916:  TBLRD*-
3918:  TBLRD*+
391A:  MOVF   FF5,W
391C:  MOVWF  FEE
391E:  IORLW  00
3920:  BNZ   3918
3922:  MOVLB  6
3924:  BTFSC  x11.7
3926:  BSF    FF2.7
....................    displayMenu(Menus.Letra,0,0,0,2);      
3928:  MOVLW  05
392A:  MOVWF  x12
392C:  MOVLW  F1
392E:  MOVWF  x11
3930:  CLRF   x13
3932:  CLRF   x14
3934:  CLRF   x15
3936:  MOVLW  02
3938:  MOVWF  x16
393A:  MOVLB  0
393C:  CALL   1418
....................    strcpy(Menus.Letra,"    Incubadora"); 
3940:  MOVLW  05
3942:  MOVWF  FEA
3944:  MOVLW  F1
3946:  MOVWF  FE9
3948:  MOVFF  FF2,611
394C:  BCF    FF2.7
394E:  MOVLW  00
3950:  CALL   06E4
3954:  TBLRD*-
3956:  TBLRD*+
3958:  MOVF   FF5,W
395A:  MOVWF  FEE
395C:  IORLW  00
395E:  BNZ   3956
3960:  MOVLB  6
3962:  BTFSC  x11.7
3964:  BSF    FF2.7
....................    displayMenu(Menus.Letra,0,20,0,1);        
3966:  MOVLW  05
3968:  MOVWF  x12
396A:  MOVLW  F1
396C:  MOVWF  x11
396E:  CLRF   x13
3970:  MOVLW  14
3972:  MOVWF  x14
3974:  CLRF   x15
3976:  MOVLW  01
3978:  MOVWF  x16
397A:  MOVLB  0
397C:  CALL   1418
....................    strcpy(Menus.Letra,"    Digital"); 
3980:  MOVLW  05
3982:  MOVWF  FEA
3984:  MOVLW  F1
3986:  MOVWF  FE9
3988:  MOVFF  FF2,611
398C:  BCF    FF2.7
398E:  MOVLW  00
3990:  CALL   070E
3994:  TBLRD*-
3996:  TBLRD*+
3998:  MOVF   FF5,W
399A:  MOVWF  FEE
399C:  IORLW  00
399E:  BNZ   3996
39A0:  MOVLB  6
39A2:  BTFSC  x11.7
39A4:  BSF    FF2.7
....................    displayMenu(Menus.Letra,0,30,0,1); 
39A6:  MOVLW  05
39A8:  MOVWF  x12
39AA:  MOVLW  F1
39AC:  MOVWF  x11
39AE:  CLRF   x13
39B0:  MOVLW  1E
39B2:  MOVWF  x14
39B4:  CLRF   x15
39B6:  MOVLW  01
39B8:  MOVWF  x16
39BA:  MOVLB  0
39BC:  CALL   1418
....................    strcpy(Menus.Letra,"   22 Lts"); 
39C0:  MOVLW  05
39C2:  MOVWF  FEA
39C4:  MOVLW  F1
39C6:  MOVWF  FE9
39C8:  MOVFF  FF2,611
39CC:  BCF    FF2.7
39CE:  MOVLW  00
39D0:  CALL   0734
39D4:  TBLRD*-
39D6:  TBLRD*+
39D8:  MOVF   FF5,W
39DA:  MOVWF  FEE
39DC:  IORLW  00
39DE:  BNZ   39D6
39E0:  MOVLB  6
39E2:  BTFSC  x11.7
39E4:  BSF    FF2.7
....................    displayMenu(Menus.Letra,0,45,0,2); 
39E6:  MOVLW  05
39E8:  MOVWF  x12
39EA:  MOVLW  F1
39EC:  MOVWF  x11
39EE:  CLRF   x13
39F0:  MOVLW  2D
39F2:  MOVWF  x14
39F4:  CLRF   x15
39F6:  MOVLW  02
39F8:  MOVWF  x16
39FA:  MOVLB  0
39FC:  CALL   1418
....................    delay_ms(1000); 
3A00:  MOVLW  04
3A02:  MOVLB  6
3A04:  MOVWF  x11
3A06:  MOVLW  FA
3A08:  MOVWF  x17
3A0A:  MOVLB  0
3A0C:  CALL   0CD0
3A10:  MOVLB  6
3A12:  DECFSZ x11,F
3A14:  BRA    3A06
....................     
....................    glcd_fillScreen(OFF);      //Limpia la pantalla 
3A16:  CLRF   x12
3A18:  MOVLB  0
3A1A:  CALL   0DEA
....................    displayContrasena(Contrasena[0],20,30,1); 
3A1E:  MOVFF  595,613
3A22:  MOVLW  14
3A24:  MOVLB  6
3A26:  MOVWF  x14
3A28:  MOVLW  1E
3A2A:  MOVWF  x15
3A2C:  MOVLW  01
3A2E:  MOVWF  x16
3A30:  MOVLB  0
3A32:  CALL   163E
....................    displayContrasena(Contrasena[1],40,30,0); 
3A36:  MOVFF  596,613
3A3A:  MOVLW  28
3A3C:  MOVLB  6
3A3E:  MOVWF  x14
3A40:  MOVLW  1E
3A42:  MOVWF  x15
3A44:  CLRF   x16
3A46:  MOVLB  0
3A48:  CALL   163E
....................    displayContrasena(Contrasena[2],60,30,0); 
3A4C:  MOVFF  597,613
3A50:  MOVLW  3C
3A52:  MOVLB  6
3A54:  MOVWF  x14
3A56:  MOVLW  1E
3A58:  MOVWF  x15
3A5A:  CLRF   x16
3A5C:  MOVLB  0
3A5E:  CALL   163E
....................    displayContrasena(Contrasena[3],80,30,0); 
3A62:  MOVFF  598,613
3A66:  MOVLW  50
3A68:  MOVLB  6
3A6A:  MOVWF  x14
3A6C:  MOVLW  1E
3A6E:  MOVWF  x15
3A70:  CLRF   x16
3A72:  MOVLB  0
3A74:  CALL   163E
....................     
....................    for(i=0;i<80;i++) 
3A78:  MOVLB  5
3A7A:  CLRF   x6D
3A7C:  MOVF   x6D,W
3A7E:  SUBLW  4F
3A80:  BNC   3AA2
....................    { 
....................       Temperatura=Leer_Sensor(MediaMovil); 
3A82:  MOVFF  562,611
3A86:  MOVLB  0
3A88:  CALL   1C3C
3A8C:  MOVFF  03,5D4
3A90:  MOVFF  02,5D3
3A94:  MOVFF  01,5D2
3A98:  MOVFF  00,5D1
....................    } 
3A9C:  MOVLB  5
3A9E:  INCF   x6D,F
3AA0:  BRA    3A7C
....................     
....................    while(true) 
....................    { 
....................     
....................       if(UP && DOWN && RIGHT && LEFT) 
3AA2:  BSF    F92.5
3AA4:  BTFSS  F80.5
3AA6:  BRA    3B38
3AA8:  BSF    F96.0
3AAA:  BTFSS  F84.0
3AAC:  BRA    3B38
3AAE:  BSF    F96.1
3AB0:  BTFSS  F84.1
3AB2:  BRA    3B38
3AB4:  BSF    F96.2
3AB6:  BTFSS  F84.2
3AB8:  BRA    3B38
....................       { 
....................          delay_ms(500); 
3ABA:  MOVLW  02
3ABC:  MOVLB  6
3ABE:  MOVWF  x11
3AC0:  MOVLW  FA
3AC2:  MOVWF  x17
3AC4:  MOVLB  0
3AC6:  CALL   0CD0
3ACA:  MOVLB  6
3ACC:  DECFSZ x11,F
3ACE:  BRA    3AC0
....................          strcpy(Menus.Letra,"Cargando.."); 
3AD0:  MOVLW  05
3AD2:  MOVWF  FEA
3AD4:  MOVLW  F1
3AD6:  MOVWF  FE9
3AD8:  MOVFF  FF2,611
3ADC:  BCF    FF2.7
3ADE:  MOVLW  00
3AE0:  MOVLB  0
3AE2:  CALL   0758
3AE6:  TBLRD*-
3AE8:  TBLRD*+
3AEA:  MOVF   FF5,W
3AEC:  MOVWF  FEE
3AEE:  IORLW  00
3AF0:  BNZ   3AE8
3AF2:  MOVLB  6
3AF4:  BTFSC  x11.7
3AF6:  BSF    FF2.7
....................          displayMenu(Menus.Letra,0,30,1,1); 
3AF8:  MOVLW  05
3AFA:  MOVWF  x12
3AFC:  MOVLW  F1
3AFE:  MOVWF  x11
3B00:  CLRF   x13
3B02:  MOVLW  1E
3B04:  MOVWF  x14
3B06:  MOVLW  01
3B08:  MOVWF  x15
3B0A:  MOVWF  x16
3B0C:  MOVLB  0
3B0E:  CALL   1418
....................          delay_ms(2000); 
3B12:  MOVLW  08
3B14:  MOVLB  6
3B16:  MOVWF  x11
3B18:  MOVLW  FA
3B1A:  MOVWF  x17
3B1C:  MOVLB  0
3B1E:  CALL   0CD0
3B22:  MOVLB  6
3B24:  DECFSZ x11,F
3B26:  BRA    3B18
....................          Menu=100; 
3B28:  MOVLW  64
3B2A:  MOVLB  5
3B2C:  MOVWF  x6B
....................          glcd_fillScreen(OFF); 
3B2E:  MOVLB  6
3B30:  CLRF   x12
3B32:  MOVLB  0
3B34:  CALL   0DEA
....................       } 
....................     
....................       glcd_update();             
3B38:  MOVLB  0
3B3A:  CALL   0E44
.................... //_-------------------------------------------------------------------------------------------------------------------------------------------------------- 
....................       if(Menu==0){ //Menu de Contrasea. 
3B3E:  MOVLB  5
3B40:  MOVF   x6B,F
3B42:  BTFSS  FD8.2
3B44:  BRA    40DA
....................        
....................       strcpy(Menus.Letra,"Clave"); 
3B46:  MOVLW  05
3B48:  MOVWF  FEA
3B4A:  MOVLW  F1
3B4C:  MOVWF  FE9
3B4E:  MOVFF  FF2,611
3B52:  BCF    FF2.7
3B54:  MOVLW  00
3B56:  MOVLB  0
3B58:  CALL   077E
3B5C:  TBLRD*-
3B5E:  TBLRD*+
3B60:  MOVF   FF5,W
3B62:  MOVWF  FEE
3B64:  IORLW  00
3B66:  BNZ   3B5E
3B68:  MOVLB  6
3B6A:  BTFSC  x11.7
3B6C:  BSF    FF2.7
....................       displayMenu(Menus.Letra,30,0,1,2);      
3B6E:  MOVLW  05
3B70:  MOVWF  x12
3B72:  MOVLW  F1
3B74:  MOVWF  x11
3B76:  MOVLW  1E
3B78:  MOVWF  x13
3B7A:  CLRF   x14
3B7C:  MOVLW  01
3B7E:  MOVWF  x15
3B80:  MOVLW  02
3B82:  MOVWF  x16
3B84:  MOVLB  0
3B86:  CALL   1418
....................        
....................        
....................        
....................       if(UP)//Si oprime hacia arriba 
3B8A:  BSF    F92.5
3B8C:  BTFSS  F80.5
3B8E:  BRA    3C66
....................       { 
....................          if(Flanco == 0) 
3B90:  MOVLB  5
3B92:  BTFSC  x67.0
3B94:  BRA    3C64
....................          { 
....................             Flanco = 1;delay_ms(30); 
3B96:  BSF    x67.0
3B98:  MOVLW  1E
3B9A:  MOVLB  6
3B9C:  MOVWF  x17
3B9E:  MOVLB  0
3BA0:  CALL   0CD0
....................             for(i=1;i<=4;i++) 
3BA4:  MOVLW  01
3BA6:  MOVLB  5
3BA8:  MOVWF  x6D
3BAA:  MOVF   x6D,W
3BAC:  SUBLW  04
3BAE:  BNC   3C64
....................             { 
....................                if(unidad==i) 
3BB0:  MOVF   x6D,W
3BB2:  SUBWF  x6C,W
3BB4:  BNZ   3C2C
....................                { 
....................                   Contrasena[i-1]++; 
3BB6:  MOVLW  01
3BB8:  SUBWF  x6D,W
3BBA:  CLRF   03
3BBC:  ADDLW  95
3BBE:  MOVWF  FE9
3BC0:  MOVLW  05
3BC2:  ADDWFC 03,W
3BC4:  MOVWF  FEA
3BC6:  INCF   FEF,F
....................                   if(Contrasena[i-1]>9)    
3BC8:  MOVLW  01
3BCA:  SUBWF  x6D,W
3BCC:  CLRF   03
3BCE:  ADDLW  95
3BD0:  MOVWF  FE9
3BD2:  MOVLW  05
3BD4:  ADDWFC 03,W
3BD6:  MOVWF  FEA
3BD8:  BTFSC  FEF.7
3BDA:  BRA    3BF4
3BDC:  MOVF   FEF,W
3BDE:  SUBLW  09
3BE0:  BC    3BF4
....................                   { 
....................                      Contrasena[i-1]=0; 
3BE2:  MOVLW  01
3BE4:  SUBWF  x6D,W
3BE6:  CLRF   03
3BE8:  ADDLW  95
3BEA:  MOVWF  FE9
3BEC:  MOVLW  05
3BEE:  ADDWFC 03,W
3BF0:  MOVWF  FEA
3BF2:  CLRF   FEF
....................                   } 
....................                   displayContrasena(Contrasena[i-1],i*20,30,1); 
3BF4:  MOVLW  01
3BF6:  SUBWF  x6D,W
3BF8:  CLRF   03
3BFA:  ADDLW  95
3BFC:  MOVWF  FE9
3BFE:  MOVLW  05
3C00:  ADDWFC 03,W
3C02:  MOVWF  FEA
3C04:  MOVFF  FEF,611
3C08:  MOVF   x6D,W
3C0A:  MULLW  14
3C0C:  MOVFF  FF3,612
3C10:  MOVLB  6
3C12:  MOVFF  611,613
3C16:  MOVFF  612,614
3C1A:  MOVLW  1E
3C1C:  MOVWF  x15
3C1E:  MOVLW  01
3C20:  MOVWF  x16
3C22:  MOVLB  0
3C24:  CALL   163E
....................                } 
....................                else 
3C28:  BRA    3C5E
3C2A:  MOVLB  5
....................                { 
....................                   displayContrasena(Contrasena[i-1],i*20,30,0); 
3C2C:  MOVLW  01
3C2E:  SUBWF  x6D,W
3C30:  CLRF   03
3C32:  ADDLW  95
3C34:  MOVWF  FE9
3C36:  MOVLW  05
3C38:  ADDWFC 03,W
3C3A:  MOVWF  FEA
3C3C:  MOVFF  FEF,611
3C40:  MOVF   x6D,W
3C42:  MULLW  14
3C44:  MOVFF  FF3,612
3C48:  MOVLB  6
3C4A:  MOVFF  611,613
3C4E:  MOVFF  612,614
3C52:  MOVLW  1E
3C54:  MOVWF  x15
3C56:  CLRF   x16
3C58:  MOVLB  0
3C5A:  CALL   163E
....................                } 
....................             } 
3C5E:  MOVLB  5
3C60:  INCF   x6D,F
3C62:  BRA    3BAA
....................          } 
....................       } 
....................          else 
3C64:  BRA    3C6A
....................             {Flanco = 0;} 
3C66:  MOVLB  5
3C68:  BCF    x67.0
....................              
....................       if(DOWN)//Si oprime hacia abajo 
3C6A:  BSF    F96.0
3C6C:  BTFSS  F84.0
3C6E:  BRA    3D42
....................       { 
....................          if(Flanco2 == 0) 
3C70:  BTFSC  x67.2
3C72:  BRA    3D40
....................             {Flanco2 = 1;delay_ms(30); 
3C74:  BSF    x67.2
3C76:  MOVLW  1E
3C78:  MOVLB  6
3C7A:  MOVWF  x17
3C7C:  MOVLB  0
3C7E:  CALL   0CD0
....................                for(i=1;i<=4;i++) 
3C82:  MOVLW  01
3C84:  MOVLB  5
3C86:  MOVWF  x6D
3C88:  MOVF   x6D,W
3C8A:  SUBLW  04
3C8C:  BNC   3D40
....................                { 
....................                   if(unidad==i) 
3C8E:  MOVF   x6D,W
3C90:  SUBWF  x6C,W
3C92:  BNZ   3D08
....................                   {Contrasena[i-1]--;  
3C94:  MOVLW  01
3C96:  SUBWF  x6D,W
3C98:  CLRF   03
3C9A:  ADDLW  95
3C9C:  MOVWF  FE9
3C9E:  MOVLW  05
3CA0:  ADDWFC 03,W
3CA2:  MOVWF  FEA
3CA4:  DECF   FEF,F
....................                      if(Contrasena[i-1]<0) 
3CA6:  MOVLW  01
3CA8:  SUBWF  x6D,W
3CAA:  CLRF   03
3CAC:  ADDLW  95
3CAE:  MOVWF  FE9
3CB0:  MOVLW  05
3CB2:  ADDWFC 03,W
3CB4:  MOVWF  FEA
3CB6:  BTFSC  FEF.7
3CB8:  BRA    3CBC
3CBA:  BRA    3CD0
....................                         {Contrasena[i-1]=9;} 
3CBC:  MOVLW  01
3CBE:  SUBWF  x6D,W
3CC0:  CLRF   03
3CC2:  ADDLW  95
3CC4:  MOVWF  FE9
3CC6:  MOVLW  05
3CC8:  ADDWFC 03,W
3CCA:  MOVWF  FEA
3CCC:  MOVLW  09
3CCE:  MOVWF  FEF
....................                    displayContrasena(Contrasena[i-1],i*20,30,1);} 
3CD0:  MOVLW  01
3CD2:  SUBWF  x6D,W
3CD4:  CLRF   03
3CD6:  ADDLW  95
3CD8:  MOVWF  FE9
3CDA:  MOVLW  05
3CDC:  ADDWFC 03,W
3CDE:  MOVWF  FEA
3CE0:  MOVFF  FEF,611
3CE4:  MOVF   x6D,W
3CE6:  MULLW  14
3CE8:  MOVFF  FF3,612
3CEC:  MOVLB  6
3CEE:  MOVFF  611,613
3CF2:  MOVFF  612,614
3CF6:  MOVLW  1E
3CF8:  MOVWF  x15
3CFA:  MOVLW  01
3CFC:  MOVWF  x16
3CFE:  MOVLB  0
3D00:  CALL   163E
....................                   else 
3D04:  BRA    3D3A
3D06:  MOVLB  5
....................                   {displayContrasena(Contrasena[i-1],i*20,30,0);} 
3D08:  MOVLW  01
3D0A:  SUBWF  x6D,W
3D0C:  CLRF   03
3D0E:  ADDLW  95
3D10:  MOVWF  FE9
3D12:  MOVLW  05
3D14:  ADDWFC 03,W
3D16:  MOVWF  FEA
3D18:  MOVFF  FEF,611
3D1C:  MOVF   x6D,W
3D1E:  MULLW  14
3D20:  MOVFF  FF3,612
3D24:  MOVLB  6
3D26:  MOVFF  611,613
3D2A:  MOVFF  612,614
3D2E:  MOVLW  1E
3D30:  MOVWF  x15
3D32:  CLRF   x16
3D34:  MOVLB  0
3D36:  CALL   163E
....................                }       
3D3A:  MOVLB  5
3D3C:  INCF   x6D,F
3D3E:  BRA    3C88
....................             }      
....................       } 
....................          else 
3D40:  BRA    3D44
....................             {Flanco2 = 0;}   
3D42:  BCF    x67.2
....................              
....................       if(RIGHT)//Si oprime RIGHT 
3D44:  BSF    F96.1
3D46:  BTFSS  F84.1
3D48:  BRA    3DE2
....................       { 
....................          if(Flanco1 == 0) 
3D4A:  BTFSC  x67.1
3D4C:  BRA    3DE0
....................             {Flanco1 = 1;delay_ms(30);unidad++; 
3D4E:  BSF    x67.1
3D50:  MOVLW  1E
3D52:  MOVLB  6
3D54:  MOVWF  x17
3D56:  MOVLB  0
3D58:  CALL   0CD0
3D5C:  MOVLB  5
3D5E:  INCF   x6C,F
....................                for(i=1;i<=4;i++) 
3D60:  MOVLW  01
3D62:  MOVWF  x6D
3D64:  MOVF   x6D,W
3D66:  SUBLW  04
3D68:  BNC   3DE0
....................                { 
....................                   if(unidad==i) 
3D6A:  MOVF   x6D,W
3D6C:  SUBWF  x6C,W
3D6E:  BNZ   3DA8
....................                   {displayContrasena(Contrasena[i-1],i*20,30,1);} 
3D70:  MOVLW  01
3D72:  SUBWF  x6D,W
3D74:  CLRF   03
3D76:  ADDLW  95
3D78:  MOVWF  FE9
3D7A:  MOVLW  05
3D7C:  ADDWFC 03,W
3D7E:  MOVWF  FEA
3D80:  MOVFF  FEF,611
3D84:  MOVF   x6D,W
3D86:  MULLW  14
3D88:  MOVFF  FF3,612
3D8C:  MOVLB  6
3D8E:  MOVFF  611,613
3D92:  MOVFF  612,614
3D96:  MOVLW  1E
3D98:  MOVWF  x15
3D9A:  MOVLW  01
3D9C:  MOVWF  x16
3D9E:  MOVLB  0
3DA0:  CALL   163E
....................                   else 
3DA4:  BRA    3DDA
3DA6:  MOVLB  5
....................                   {displayContrasena(Contrasena[i-1],i*20,30,0);} 
3DA8:  MOVLW  01
3DAA:  SUBWF  x6D,W
3DAC:  CLRF   03
3DAE:  ADDLW  95
3DB0:  MOVWF  FE9
3DB2:  MOVLW  05
3DB4:  ADDWFC 03,W
3DB6:  MOVWF  FEA
3DB8:  MOVFF  FEF,611
3DBC:  MOVF   x6D,W
3DBE:  MULLW  14
3DC0:  MOVFF  FF3,612
3DC4:  MOVLB  6
3DC6:  MOVFF  611,613
3DCA:  MOVFF  612,614
3DCE:  MOVLW  1E
3DD0:  MOVWF  x15
3DD2:  CLRF   x16
3DD4:  MOVLB  0
3DD6:  CALL   163E
....................                } 
3DDA:  MOVLB  5
3DDC:  INCF   x6D,F
3DDE:  BRA    3D64
....................             } 
....................       } 
....................          else 
3DE0:  BRA    3DE4
....................             {Flanco1 = 0;}   
3DE2:  BCF    x67.1
....................      
....................       if(unidad>4) 
3DE4:  MOVF   x6C,W
3DE6:  SUBLW  04
3DE8:  BTFSC  FD8.0
3DEA:  BRA    40DA
....................       {glcd_fillScreen(OFF);unidad=4; 
3DEC:  MOVLB  6
3DEE:  CLRF   x12
3DF0:  MOVLB  0
3DF2:  CALL   0DEA
3DF6:  MOVLW  04
3DF8:  MOVLB  5
3DFA:  MOVWF  x6C
....................          if(Contrasena[0]==3&&Contrasena[1]==8&&Contrasena[2]==9&&Contrasena[3]==2) // Si Ingresa clave para reset general del sistema. 
3DFC:  MOVF   x95,W
3DFE:  SUBLW  03
3E00:  BNZ   3EE8
3E02:  MOVF   x96,W
3E04:  SUBLW  08
3E06:  BNZ   3EE8
3E08:  MOVF   x97,W
3E0A:  SUBLW  09
3E0C:  BNZ   3EE8
3E0E:  MOVF   x98,W
3E10:  SUBLW  02
3E12:  BNZ   3EE8
....................             {write_eeprom(10,0);delay_ms(20);write_eeprom(11,0);delay_ms(20);// Reestablece a contrasea de Fabrica y reinicia Programa. 
3E14:  MOVLW  0A
3E16:  MOVWF  FA9
3E18:  CLRF   FA8
3E1A:  BCF    FA6.6
3E1C:  BCF    FA6.7
3E1E:  BSF    FA6.2
3E20:  MOVF   FF2,W
3E22:  MOVWF  00
3E24:  BCF    FF2.7
3E26:  MOVLB  F
3E28:  MOVLW  55
3E2A:  MOVWF  FA7
3E2C:  MOVLW  AA
3E2E:  MOVWF  FA7
3E30:  BSF    FA6.1
3E32:  BTFSC  FA6.1
3E34:  BRA    3E32
3E36:  BCF    FA6.2
3E38:  MOVF   00,W
3E3A:  IORWF  FF2,F
3E3C:  MOVLW  14
3E3E:  MOVLB  6
3E40:  MOVWF  x17
3E42:  MOVLB  0
3E44:  CALL   0CD0
3E48:  MOVLW  0B
3E4A:  MOVWF  FA9
3E4C:  CLRF   FA8
3E4E:  BCF    FA6.6
3E50:  BCF    FA6.7
3E52:  BSF    FA6.2
3E54:  MOVF   FF2,W
3E56:  MOVWF  00
3E58:  BCF    FF2.7
3E5A:  MOVLB  F
3E5C:  MOVLW  55
3E5E:  MOVWF  FA7
3E60:  MOVLW  AA
3E62:  MOVWF  FA7
3E64:  BSF    FA6.1
3E66:  BTFSC  FA6.1
3E68:  BRA    3E66
3E6A:  BCF    FA6.2
3E6C:  MOVF   00,W
3E6E:  IORWF  FF2,F
3E70:  MOVLW  14
3E72:  MOVLB  6
3E74:  MOVWF  x17
3E76:  MOVLB  0
3E78:  CALL   0CD0
....................              write_eeprom(12,0);delay_ms(20);write_eeprom(13,0);delay_ms(20); 
3E7C:  MOVLW  0C
3E7E:  MOVWF  FA9
3E80:  CLRF   FA8
3E82:  BCF    FA6.6
3E84:  BCF    FA6.7
3E86:  BSF    FA6.2
3E88:  MOVF   FF2,W
3E8A:  MOVWF  00
3E8C:  BCF    FF2.7
3E8E:  MOVLB  F
3E90:  MOVLW  55
3E92:  MOVWF  FA7
3E94:  MOVLW  AA
3E96:  MOVWF  FA7
3E98:  BSF    FA6.1
3E9A:  BTFSC  FA6.1
3E9C:  BRA    3E9A
3E9E:  BCF    FA6.2
3EA0:  MOVF   00,W
3EA2:  IORWF  FF2,F
3EA4:  MOVLW  14
3EA6:  MOVLB  6
3EA8:  MOVWF  x17
3EAA:  MOVLB  0
3EAC:  CALL   0CD0
3EB0:  MOVLW  0D
3EB2:  MOVWF  FA9
3EB4:  CLRF   FA8
3EB6:  BCF    FA6.6
3EB8:  BCF    FA6.7
3EBA:  BSF    FA6.2
3EBC:  MOVF   FF2,W
3EBE:  MOVWF  00
3EC0:  BCF    FF2.7
3EC2:  MOVLB  F
3EC4:  MOVLW  55
3EC6:  MOVWF  FA7
3EC8:  MOVLW  AA
3ECA:  MOVWF  FA7
3ECC:  BSF    FA6.1
3ECE:  BTFSC  FA6.1
3ED0:  BRA    3ECE
3ED2:  BCF    FA6.2
3ED4:  MOVF   00,W
3ED6:  IORWF  FF2,F
3ED8:  MOVLW  14
3EDA:  MOVLB  6
3EDC:  MOVWF  x17
3EDE:  MOVLB  0
3EE0:  CALL   0CD0
....................              reset_cpu();}         
3EE4:  RESET
3EE6:  MOVLB  5
....................           
....................          if((Contrasena[0]==Password[0])&&(Contrasena[1]==Password[1])&&(Contrasena[2]==Password[2])&&(Contrasena[3]==Password[3])) 
3EE8:  MOVF   x99,W
3EEA:  SUBWF  x95,W
3EEC:  BNZ   3FBE
3EEE:  MOVF   x9A,W
3EF0:  SUBWF  x96,W
3EF2:  BNZ   3FBE
3EF4:  MOVF   x9B,W
3EF6:  SUBWF  x97,W
3EF8:  BNZ   3FBE
3EFA:  MOVF   x9C,W
3EFC:  SUBWF  x98,W
3EFE:  BNZ   3FBE
....................          { 
....................             glcd_fillScreen(OFF); 
3F00:  MOVLB  6
3F02:  CLRF   x12
3F04:  MOVLB  0
3F06:  CALL   0DEA
....................             strcpy(Menus.Letra,"Clave"); 
3F0A:  MOVLW  05
3F0C:  MOVWF  FEA
3F0E:  MOVLW  F1
3F10:  MOVWF  FE9
3F12:  MOVFF  FF2,611
3F16:  BCF    FF2.7
3F18:  MOVLW  00
3F1A:  CALL   077E
3F1E:  TBLRD*-
3F20:  TBLRD*+
3F22:  MOVF   FF5,W
3F24:  MOVWF  FEE
3F26:  IORLW  00
3F28:  BNZ   3F20
3F2A:  MOVLB  6
3F2C:  BTFSC  x11.7
3F2E:  BSF    FF2.7
....................             displayMenu(Menus.Letra,30,0,0,2); 
3F30:  MOVLW  05
3F32:  MOVWF  x12
3F34:  MOVLW  F1
3F36:  MOVWF  x11
3F38:  MOVLW  1E
3F3A:  MOVWF  x13
3F3C:  CLRF   x14
3F3E:  CLRF   x15
3F40:  MOVLW  02
3F42:  MOVWF  x16
3F44:  MOVLB  0
3F46:  CALL   1418
....................             strcpy(Menus.Letra,"Correcta"); 
3F4A:  MOVLW  05
3F4C:  MOVWF  FEA
3F4E:  MOVLW  F1
3F50:  MOVWF  FE9
3F52:  MOVFF  FF2,611
3F56:  BCF    FF2.7
3F58:  MOVLW  00
3F5A:  CALL   079E
3F5E:  TBLRD*-
3F60:  TBLRD*+
3F62:  MOVF   FF5,W
3F64:  MOVWF  FEE
3F66:  IORLW  00
3F68:  BNZ   3F60
3F6A:  MOVLB  6
3F6C:  BTFSC  x11.7
3F6E:  BSF    FF2.7
....................             displayMenu(Menus.Letra,15,30,0,2); 
3F70:  MOVLW  05
3F72:  MOVWF  x12
3F74:  MOVLW  F1
3F76:  MOVWF  x11
3F78:  MOVLW  0F
3F7A:  MOVWF  x13
3F7C:  MOVLW  1E
3F7E:  MOVWF  x14
3F80:  CLRF   x15
3F82:  MOVLW  02
3F84:  MOVWF  x16
3F86:  MOVLB  0
3F88:  CALL   1418
....................             Menu=1;glcd_update();delay_ms(1000); 
3F8C:  MOVLW  01
3F8E:  MOVLB  5
3F90:  MOVWF  x6B
3F92:  MOVLB  0
3F94:  CALL   0E44
3F98:  MOVLW  04
3F9A:  MOVLB  6
3F9C:  MOVWF  x11
3F9E:  MOVLW  FA
3FA0:  MOVWF  x17
3FA2:  MOVLB  0
3FA4:  CALL   0CD0
3FA8:  MOVLB  6
3FAA:  DECFSZ x11,F
3FAC:  BRA    3F9E
....................             glcd_fillScreen(OFF);unidad=1; 
3FAE:  CLRF   x12
3FB0:  MOVLB  0
3FB2:  CALL   0DEA
3FB6:  MOVLW  01
3FB8:  MOVLB  5
3FBA:  MOVWF  x6C
....................          }// Esta parte se puede agregar en el Menu 1 dependiendo de la ubicacin del vidrio. 
....................          else 
3FBC:  BRA    40DA
....................          { 
....................             glcd_fillScreen(OFF); 
3FBE:  MOVLB  6
3FC0:  CLRF   x12
3FC2:  MOVLB  0
3FC4:  CALL   0DEA
....................             strcpy(Menus.Letra,"Clave"); 
3FC8:  MOVLW  05
3FCA:  MOVWF  FEA
3FCC:  MOVLW  F1
3FCE:  MOVWF  FE9
3FD0:  MOVFF  FF2,611
3FD4:  BCF    FF2.7
3FD6:  MOVLW  00
3FD8:  CALL   077E
3FDC:  TBLRD*-
3FDE:  TBLRD*+
3FE0:  MOVF   FF5,W
3FE2:  MOVWF  FEE
3FE4:  IORLW  00
3FE6:  BNZ   3FDE
3FE8:  MOVLB  6
3FEA:  BTFSC  x11.7
3FEC:  BSF    FF2.7
....................             displayMenu(Menus.Letra,30,0,0,2); 
3FEE:  MOVLW  05
3FF0:  MOVWF  x12
3FF2:  MOVLW  F1
3FF4:  MOVWF  x11
3FF6:  MOVLW  1E
3FF8:  MOVWF  x13
3FFA:  CLRF   x14
3FFC:  CLRF   x15
3FFE:  MOVLW  02
4000:  MOVWF  x16
4002:  MOVLB  0
4004:  CALL   1418
....................             strcpy(Menus.Letra,"Incorrecta"); 
4008:  MOVLW  05
400A:  MOVWF  FEA
400C:  MOVLW  F1
400E:  MOVWF  FE9
4010:  MOVFF  FF2,611
4014:  BCF    FF2.7
4016:  MOVLW  00
4018:  CALL   07C2
401C:  TBLRD*-
401E:  TBLRD*+
4020:  MOVF   FF5,W
4022:  MOVWF  FEE
4024:  IORLW  00
4026:  BNZ   401E
4028:  MOVLB  6
402A:  BTFSC  x11.7
402C:  BSF    FF2.7
....................             displayMenu(Menus.Letra,0,30,0,2); 
402E:  MOVLW  05
4030:  MOVWF  x12
4032:  MOVLW  F1
4034:  MOVWF  x11
4036:  CLRF   x13
4038:  MOVLW  1E
403A:  MOVWF  x14
403C:  CLRF   x15
403E:  MOVLW  02
4040:  MOVWF  x16
4042:  MOVLB  0
4044:  CALL   1418
....................             Menu=0;glcd_update();delay_ms(1000); 
4048:  MOVLB  5
404A:  CLRF   x6B
404C:  MOVLB  0
404E:  CALL   0E44
4052:  MOVLW  04
4054:  MOVLB  6
4056:  MOVWF  x11
4058:  MOVLW  FA
405A:  MOVWF  x17
405C:  MOVLB  0
405E:  CALL   0CD0
4062:  MOVLB  6
4064:  DECFSZ x11,F
4066:  BRA    4058
....................             glcd_fillScreen(OFF);unidad=1; 
4068:  CLRF   x12
406A:  MOVLB  0
406C:  CALL   0DEA
4070:  MOVLW  01
4072:  MOVLB  5
4074:  MOVWF  x6C
....................             Contrasena[0]=0;Contrasena[1]=0;Contrasena[2]=0;Contrasena[3]=0; 
4076:  CLRF   x95
4078:  CLRF   x96
407A:  CLRF   x97
407C:  CLRF   x98
....................             displayContrasena(Contrasena[0],20,30,1); 
407E:  MOVFF  595,613
4082:  MOVLW  14
4084:  MOVLB  6
4086:  MOVWF  x14
4088:  MOVLW  1E
408A:  MOVWF  x15
408C:  MOVLW  01
408E:  MOVWF  x16
4090:  MOVLB  0
4092:  CALL   163E
....................             displayContrasena(Contrasena[1],40,30,0); 
4096:  MOVFF  596,613
409A:  MOVLW  28
409C:  MOVLB  6
409E:  MOVWF  x14
40A0:  MOVLW  1E
40A2:  MOVWF  x15
40A4:  CLRF   x16
40A6:  MOVLB  0
40A8:  CALL   163E
....................             displayContrasena(Contrasena[2],60,30,0); 
40AC:  MOVFF  597,613
40B0:  MOVLW  3C
40B2:  MOVLB  6
40B4:  MOVWF  x14
40B6:  MOVLW  1E
40B8:  MOVWF  x15
40BA:  CLRF   x16
40BC:  MOVLB  0
40BE:  CALL   163E
....................             displayContrasena(Contrasena[3],80,30,0); 
40C2:  MOVFF  598,613
40C6:  MOVLW  50
40C8:  MOVLB  6
40CA:  MOVWF  x14
40CC:  MOVLW  1E
40CE:  MOVWF  x15
40D0:  CLRF   x16
40D2:  MOVLB  0
40D4:  CALL   163E
40D8:  MOVLB  5
....................          } 
....................       } 
....................     } 
.................... //_--------------------------------------------------------------------------------------------------------------------------------------------------------        
....................  
....................  
.................... //_-------------------------------------------------------------------------------------------------------------------------------------------------------- 
....................       if(Menu==1){ //Menu Principal.       
40DA:  DECFSZ x6B,W
40DC:  BRA    43FA
....................        
....................          if(Opcion>4) 
40DE:  MOVF   x70,W
40E0:  SUBLW  04
40E2:  BC    40E8
....................          {Opcion=1;} 
40E4:  MOVLW  01
40E6:  MOVWF  x70
....................          if(Opcion<1) 
40E8:  MOVF   x70,F
40EA:  BNZ   40F0
....................          {Opcion=4;} 
40EC:  MOVLW  04
40EE:  MOVWF  x70
....................           
....................          strcpy(Menus.Letra,"Menu"); 
40F0:  MOVLW  05
40F2:  MOVWF  FEA
40F4:  MOVLW  F1
40F6:  MOVWF  FE9
40F8:  MOVFF  FF2,611
40FC:  BCF    FF2.7
40FE:  MOVLW  00
4100:  MOVLB  0
4102:  CALL   07E8
4106:  TBLRD*-
4108:  TBLRD*+
410A:  MOVF   FF5,W
410C:  MOVWF  FEE
410E:  IORLW  00
4110:  BNZ   4108
4112:  MOVLB  6
4114:  BTFSC  x11.7
4116:  BSF    FF2.7
....................          displayMenu(Menus.Letra,30,0,1,2); 
4118:  MOVLW  05
411A:  MOVWF  x12
411C:  MOVLW  F1
411E:  MOVWF  x11
4120:  MOVLW  1E
4122:  MOVWF  x13
4124:  CLRF   x14
4126:  MOVLW  01
4128:  MOVWF  x15
412A:  MOVLW  02
412C:  MOVWF  x16
412E:  MOVLB  0
4130:  CALL   1418
....................        
....................          if(Opcion==1)    
4134:  MOVLB  5
4136:  DECFSZ x70,W
4138:  BRA    4180
....................             {strcpy(Menus.Letra,"Iniciar Proceso"); 
413A:  MOVLW  05
413C:  MOVWF  FEA
413E:  MOVLW  F1
4140:  MOVWF  FE9
4142:  MOVFF  FF2,611
4146:  BCF    FF2.7
4148:  MOVLW  00
414A:  MOVLB  0
414C:  CALL   0808
4150:  TBLRD*-
4152:  TBLRD*+
4154:  MOVF   FF5,W
4156:  MOVWF  FEE
4158:  IORLW  00
415A:  BNZ   4152
415C:  MOVLB  6
415E:  BTFSC  x11.7
4160:  BSF    FF2.7
....................             displayMenu(Menus.Letra,0,20,1,1);} 
4162:  MOVLW  05
4164:  MOVWF  x12
4166:  MOVLW  F1
4168:  MOVWF  x11
416A:  CLRF   x13
416C:  MOVLW  14
416E:  MOVWF  x14
4170:  MOVLW  01
4172:  MOVWF  x15
4174:  MOVWF  x16
4176:  MOVLB  0
4178:  CALL   1418
....................          else 
417C:  BRA    41C2
417E:  MOVLB  5
....................             {strcpy(Menus.Letra,"Iniciar Proceso"); 
4180:  MOVLW  05
4182:  MOVWF  FEA
4184:  MOVLW  F1
4186:  MOVWF  FE9
4188:  MOVFF  FF2,611
418C:  BCF    FF2.7
418E:  MOVLW  00
4190:  MOVLB  0
4192:  CALL   0808
4196:  TBLRD*-
4198:  TBLRD*+
419A:  MOVF   FF5,W
419C:  MOVWF  FEE
419E:  IORLW  00
41A0:  BNZ   4198
41A2:  MOVLB  6
41A4:  BTFSC  x11.7
41A6:  BSF    FF2.7
....................             displayMenu(Menus.Letra,0,20,0,1);} 
41A8:  MOVLW  05
41AA:  MOVWF  x12
41AC:  MOVLW  F1
41AE:  MOVWF  x11
41B0:  CLRF   x13
41B2:  MOVLW  14
41B4:  MOVWF  x14
41B6:  CLRF   x15
41B8:  MOVLW  01
41BA:  MOVWF  x16
41BC:  MOVLB  0
41BE:  CALL   1418
....................           
....................          if(Opcion==2)    
41C2:  MOVLB  5
41C4:  MOVF   x70,W
41C6:  SUBLW  02
41C8:  BNZ   4210
....................             {strcpy(Menus.Letra,"Temperatura"); 
41CA:  MOVLW  05
41CC:  MOVWF  FEA
41CE:  MOVLW  F1
41D0:  MOVWF  FE9
41D2:  MOVFF  FF2,611
41D6:  BCF    FF2.7
41D8:  MOVLW  00
41DA:  MOVLB  0
41DC:  CALL   0832
41E0:  TBLRD*-
41E2:  TBLRD*+
41E4:  MOVF   FF5,W
41E6:  MOVWF  FEE
41E8:  IORLW  00
41EA:  BNZ   41E2
41EC:  MOVLB  6
41EE:  BTFSC  x11.7
41F0:  BSF    FF2.7
....................             displayMenu(Menus.Letra,0,30,1,1);} 
41F2:  MOVLW  05
41F4:  MOVWF  x12
41F6:  MOVLW  F1
41F8:  MOVWF  x11
41FA:  CLRF   x13
41FC:  MOVLW  1E
41FE:  MOVWF  x14
4200:  MOVLW  01
4202:  MOVWF  x15
4204:  MOVWF  x16
4206:  MOVLB  0
4208:  CALL   1418
....................          else 
420C:  BRA    4252
420E:  MOVLB  5
....................             {strcpy(Menus.Letra,"Temperatura"); 
4210:  MOVLW  05
4212:  MOVWF  FEA
4214:  MOVLW  F1
4216:  MOVWF  FE9
4218:  MOVFF  FF2,611
421C:  BCF    FF2.7
421E:  MOVLW  00
4220:  MOVLB  0
4222:  CALL   0832
4226:  TBLRD*-
4228:  TBLRD*+
422A:  MOVF   FF5,W
422C:  MOVWF  FEE
422E:  IORLW  00
4230:  BNZ   4228
4232:  MOVLB  6
4234:  BTFSC  x11.7
4236:  BSF    FF2.7
....................             displayMenu(Menus.Letra,0,30,0,1);} 
4238:  MOVLW  05
423A:  MOVWF  x12
423C:  MOVLW  F1
423E:  MOVWF  x11
4240:  CLRF   x13
4242:  MOVLW  1E
4244:  MOVWF  x14
4246:  CLRF   x15
4248:  MOVLW  01
424A:  MOVWF  x16
424C:  MOVLB  0
424E:  CALL   1418
....................              
....................          if(Opcion==3)    
4252:  MOVLB  5
4254:  MOVF   x70,W
4256:  SUBLW  03
4258:  BNZ   42A0
....................             {strcpy(Menus.Letra,"Temporizador"); 
425A:  MOVLW  05
425C:  MOVWF  FEA
425E:  MOVLW  F1
4260:  MOVWF  FE9
4262:  MOVFF  FF2,611
4266:  BCF    FF2.7
4268:  MOVLW  00
426A:  MOVLB  0
426C:  CALL   0858
4270:  TBLRD*-
4272:  TBLRD*+
4274:  MOVF   FF5,W
4276:  MOVWF  FEE
4278:  IORLW  00
427A:  BNZ   4272
427C:  MOVLB  6
427E:  BTFSC  x11.7
4280:  BSF    FF2.7
....................             displayMenu(Menus.Letra,0,40,1,1);} 
4282:  MOVLW  05
4284:  MOVWF  x12
4286:  MOVLW  F1
4288:  MOVWF  x11
428A:  CLRF   x13
428C:  MOVLW  28
428E:  MOVWF  x14
4290:  MOVLW  01
4292:  MOVWF  x15
4294:  MOVWF  x16
4296:  MOVLB  0
4298:  CALL   1418
....................          else 
429C:  BRA    42E2
429E:  MOVLB  5
....................             {strcpy(Menus.Letra,"Temporizador"); 
42A0:  MOVLW  05
42A2:  MOVWF  FEA
42A4:  MOVLW  F1
42A6:  MOVWF  FE9
42A8:  MOVFF  FF2,611
42AC:  BCF    FF2.7
42AE:  MOVLW  00
42B0:  MOVLB  0
42B2:  CALL   0858
42B6:  TBLRD*-
42B8:  TBLRD*+
42BA:  MOVF   FF5,W
42BC:  MOVWF  FEE
42BE:  IORLW  00
42C0:  BNZ   42B8
42C2:  MOVLB  6
42C4:  BTFSC  x11.7
42C6:  BSF    FF2.7
....................             displayMenu(Menus.Letra,0,40,0,1);}    
42C8:  MOVLW  05
42CA:  MOVWF  x12
42CC:  MOVLW  F1
42CE:  MOVWF  x11
42D0:  CLRF   x13
42D2:  MOVLW  28
42D4:  MOVWF  x14
42D6:  CLRF   x15
42D8:  MOVLW  01
42DA:  MOVWF  x16
42DC:  MOVLB  0
42DE:  CALL   1418
....................                          
....................          if(Opcion==4)    
42E2:  MOVLB  5
42E4:  MOVF   x70,W
42E6:  SUBLW  04
42E8:  BNZ   4330
....................             {strcpy(Menus.Letra,"Cambio Clave"); 
42EA:  MOVLW  05
42EC:  MOVWF  FEA
42EE:  MOVLW  F1
42F0:  MOVWF  FE9
42F2:  MOVFF  FF2,611
42F6:  BCF    FF2.7
42F8:  MOVLW  00
42FA:  MOVLB  0
42FC:  CALL   0880
4300:  TBLRD*-
4302:  TBLRD*+
4304:  MOVF   FF5,W
4306:  MOVWF  FEE
4308:  IORLW  00
430A:  BNZ   4302
430C:  MOVLB  6
430E:  BTFSC  x11.7
4310:  BSF    FF2.7
....................             displayMenu(Menus.Letra,0,50,1,1);} 
4312:  MOVLW  05
4314:  MOVWF  x12
4316:  MOVLW  F1
4318:  MOVWF  x11
431A:  CLRF   x13
431C:  MOVLW  32
431E:  MOVWF  x14
4320:  MOVLW  01
4322:  MOVWF  x15
4324:  MOVWF  x16
4326:  MOVLB  0
4328:  CALL   1418
....................          else 
432C:  BRA    4372
432E:  MOVLB  5
....................             {strcpy(Menus.Letra,"Cambio Clave"); 
4330:  MOVLW  05
4332:  MOVWF  FEA
4334:  MOVLW  F1
4336:  MOVWF  FE9
4338:  MOVFF  FF2,611
433C:  BCF    FF2.7
433E:  MOVLW  00
4340:  MOVLB  0
4342:  CALL   0880
4346:  TBLRD*-
4348:  TBLRD*+
434A:  MOVF   FF5,W
434C:  MOVWF  FEE
434E:  IORLW  00
4350:  BNZ   4348
4352:  MOVLB  6
4354:  BTFSC  x11.7
4356:  BSF    FF2.7
....................             displayMenu(Menus.Letra,0,50,0,1);}      
4358:  MOVLW  05
435A:  MOVWF  x12
435C:  MOVLW  F1
435E:  MOVWF  x11
4360:  CLRF   x13
4362:  MOVLW  32
4364:  MOVWF  x14
4366:  CLRF   x15
4368:  MOVLW  01
436A:  MOVWF  x16
436C:  MOVLB  0
436E:  CALL   1418
....................              
....................       if(UP)//Si oprime hacia arriba 
4372:  BSF    F92.5
4374:  BTFSS  F80.5
4376:  BRA    4394
....................          {  if(Flanco == 0)  
4378:  MOVLB  5
437A:  BTFSC  x67.0
437C:  BRA    4392
....................                {Flanco = 1;delay_ms(30);Opcion--;visual=1; 
437E:  BSF    x67.0
4380:  MOVLW  1E
4382:  MOVLB  6
4384:  MOVWF  x17
4386:  MOVLB  0
4388:  CALL   0CD0
438C:  MOVLB  5
438E:  DECF   x70,F
4390:  BSF    x67.3
....................                } 
....................          } 
....................             else 
4392:  BRA    4398
....................                {Flanco = 0;} 
4394:  MOVLB  5
4396:  BCF    x67.0
....................                    
....................          if(DOWN)//Si oprime hacia abajo 
4398:  BSF    F96.0
439A:  BTFSS  F84.0
439C:  BRA    43B8
....................          {  if(Flanco2 == 0)  
439E:  BTFSC  x67.2
43A0:  BRA    43B6
....................                {Flanco2 = 1;delay_ms(30);Opcion++;visual=1; 
43A2:  BSF    x67.2
43A4:  MOVLW  1E
43A6:  MOVLB  6
43A8:  MOVWF  x17
43AA:  MOVLB  0
43AC:  CALL   0CD0
43B0:  MOVLB  5
43B2:  INCF   x70,F
43B4:  BSF    x67.3
....................                }      
....................          } 
....................             else 
43B6:  BRA    43BA
....................                {Flanco2 = 0;}   
43B8:  BCF    x67.2
....................                 
....................        if(RIGHT)//Si oprime SET 
43BA:  BSF    F96.1
43BC:  BTFSS  F84.1
43BE:  BRA    43F8
....................          {  if(Flanco1 == 0)  
43C0:  BTFSC  x67.1
43C2:  BRA    43F6
....................                {Flanco1 = 1;delay_ms(500);Menu=Opcion+3;Opcion=1;glcd_fillscreen(OFF);visual=1; 
43C4:  BSF    x67.1
43C6:  MOVLW  02
43C8:  MOVLB  6
43CA:  MOVWF  x11
43CC:  MOVLW  FA
43CE:  MOVWF  x17
43D0:  MOVLB  0
43D2:  CALL   0CD0
43D6:  MOVLB  6
43D8:  DECFSZ x11,F
43DA:  BRA    43CC
43DC:  MOVLW  03
43DE:  MOVLB  5
43E0:  ADDWF  x70,W
43E2:  MOVWF  x6B
43E4:  MOVLW  01
43E6:  MOVWF  x70
43E8:  MOVLB  6
43EA:  CLRF   x12
43EC:  MOVLB  0
43EE:  CALL   0DEA
43F2:  MOVLB  5
43F4:  BSF    x67.3
....................                } 
....................          } 
....................             else 
43F6:  BRA    43FA
....................                {Flanco1 = 0;}   
43F8:  BCF    x67.1
....................  
....................    } 
.................... //_--------------------------------------------------------------------------------------------------------------------------------------------------------        
.................... //-Sub-Menus de seleccin de proceso. 
....................  
.................... //_-------------------------------------------------------------------------------------------------------------------------------------------------------- 
....................       if(Menu==4){ //Menu de Continuar 
43FA:  MOVF   x6B,W
43FC:  SUBLW  04
43FE:  BTFSS  FD8.2
4400:  BRA    4806
....................        
....................       if(Opcion>2) 
4402:  MOVF   x70,W
4404:  SUBLW  02
4406:  BC    440C
....................          Opcion=1; 
4408:  MOVLW  01
440A:  MOVWF  x70
....................           
....................       if(Opcion<1) 
440C:  MOVF   x70,F
440E:  BNZ   4414
....................          Opcion=2; 
4410:  MOVLW  02
4412:  MOVWF  x70
....................        
....................          strcpy(Menus.Letra,"Continuar"); 
4414:  MOVLW  05
4416:  MOVWF  FEA
4418:  MOVLW  F1
441A:  MOVWF  FE9
441C:  MOVFF  FF2,611
4420:  BCF    FF2.7
4422:  MOVLW  00
4424:  MOVLB  0
4426:  CALL   08A8
442A:  TBLRD*-
442C:  TBLRD*+
442E:  MOVF   FF5,W
4430:  MOVWF  FEE
4432:  IORLW  00
4434:  BNZ   442C
4436:  MOVLB  6
4438:  BTFSC  x11.7
443A:  BSF    FF2.7
....................          displayMenu(Menus.Letra,0,0,1,2); 
443C:  MOVLW  05
443E:  MOVWF  x12
4440:  MOVLW  F1
4442:  MOVWF  x11
4444:  CLRF   x13
4446:  CLRF   x14
4448:  MOVLW  01
444A:  MOVWF  x15
444C:  MOVLW  02
444E:  MOVWF  x16
4450:  MOVLB  0
4452:  CALL   1418
....................           
....................          if(Opcion==2) 
4456:  MOVLB  5
4458:  MOVF   x70,W
445A:  SUBLW  02
445C:  BNZ   44E8
....................          {strcpy(Menus.Letra,"SI"); 
445E:  MOVLW  05
4460:  MOVWF  FEA
4462:  MOVLW  F1
4464:  MOVWF  FE9
4466:  MOVFF  FF2,611
446A:  BCF    FF2.7
446C:  MOVLW  00
446E:  MOVLB  0
4470:  CALL   08CC
4474:  TBLRD*-
4476:  TBLRD*+
4478:  MOVF   FF5,W
447A:  MOVWF  FEE
447C:  IORLW  00
447E:  BNZ   4476
4480:  MOVLB  6
4482:  BTFSC  x11.7
4484:  BSF    FF2.7
....................          displayMenu(Menus.Letra,50,25,1,2); 
4486:  MOVLW  05
4488:  MOVWF  x12
448A:  MOVLW  F1
448C:  MOVWF  x11
448E:  MOVLW  32
4490:  MOVWF  x13
4492:  MOVLW  19
4494:  MOVWF  x14
4496:  MOVLW  01
4498:  MOVWF  x15
449A:  MOVLW  02
449C:  MOVWF  x16
449E:  MOVLB  0
44A0:  CALL   1418
....................          strcpy(Menus.Letra,"NO"); 
44A4:  MOVLW  05
44A6:  MOVWF  FEA
44A8:  MOVLW  F1
44AA:  MOVWF  FE9
44AC:  MOVFF  FF2,611
44B0:  BCF    FF2.7
44B2:  MOVLW  00
44B4:  CALL   08EA
44B8:  TBLRD*-
44BA:  TBLRD*+
44BC:  MOVF   FF5,W
44BE:  MOVWF  FEE
44C0:  IORLW  00
44C2:  BNZ   44BA
44C4:  MOVLB  6
44C6:  BTFSC  x11.7
44C8:  BSF    FF2.7
....................          displayMenu(Menus.Letra,50,45,0,2); 
44CA:  MOVLW  05
44CC:  MOVWF  x12
44CE:  MOVLW  F1
44D0:  MOVWF  x11
44D2:  MOVLW  32
44D4:  MOVWF  x13
44D6:  MOVLW  2D
44D8:  MOVWF  x14
44DA:  CLRF   x15
44DC:  MOVLW  02
44DE:  MOVWF  x16
44E0:  MOVLB  0
44E2:  CALL   1418
44E6:  MOVLB  5
....................          } 
....................          if(Opcion==1) 
44E8:  DECFSZ x70,W
44EA:  BRA    4576
....................          {strcpy(Menus.Letra,"SI"); 
44EC:  MOVLW  05
44EE:  MOVWF  FEA
44F0:  MOVLW  F1
44F2:  MOVWF  FE9
44F4:  MOVFF  FF2,611
44F8:  BCF    FF2.7
44FA:  MOVLW  00
44FC:  MOVLB  0
44FE:  CALL   08CC
4502:  TBLRD*-
4504:  TBLRD*+
4506:  MOVF   FF5,W
4508:  MOVWF  FEE
450A:  IORLW  00
450C:  BNZ   4504
450E:  MOVLB  6
4510:  BTFSC  x11.7
4512:  BSF    FF2.7
....................          displayMenu(Menus.Letra,50,25,0,2); 
4514:  MOVLW  05
4516:  MOVWF  x12
4518:  MOVLW  F1
451A:  MOVWF  x11
451C:  MOVLW  32
451E:  MOVWF  x13
4520:  MOVLW  19
4522:  MOVWF  x14
4524:  CLRF   x15
4526:  MOVLW  02
4528:  MOVWF  x16
452A:  MOVLB  0
452C:  CALL   1418
....................          strcpy(Menus.Letra,"NO"); 
4530:  MOVLW  05
4532:  MOVWF  FEA
4534:  MOVLW  F1
4536:  MOVWF  FE9
4538:  MOVFF  FF2,611
453C:  BCF    FF2.7
453E:  MOVLW  00
4540:  CALL   08EA
4544:  TBLRD*-
4546:  TBLRD*+
4548:  MOVF   FF5,W
454A:  MOVWF  FEE
454C:  IORLW  00
454E:  BNZ   4546
4550:  MOVLB  6
4552:  BTFSC  x11.7
4554:  BSF    FF2.7
....................          displayMenu(Menus.Letra,50,45,1,2); 
4556:  MOVLW  05
4558:  MOVWF  x12
455A:  MOVLW  F1
455C:  MOVWF  x11
455E:  MOVLW  32
4560:  MOVWF  x13
4562:  MOVLW  2D
4564:  MOVWF  x14
4566:  MOVLW  01
4568:  MOVWF  x15
456A:  MOVLW  02
456C:  MOVWF  x16
456E:  MOVLB  0
4570:  CALL   1418
4574:  MOVLB  5
....................          } 
....................         
....................        
....................          
....................       if(UP)//Si oprime hacia arriba 
4576:  BSF    F92.5
4578:  BTFSS  F80.5
457A:  BRA    4584
....................       { 
....................          if(Opcion<2) 
457C:  MOVF   x70,W
457E:  SUBLW  01
4580:  BNC   4584
....................          { 
....................             Opcion++; 
4582:  INCF   x70,F
....................          } 
....................       } 
....................              
....................       if(DOWN)//Si oprime hacia abajo 
4584:  BSF    F96.0
4586:  BTFSS  F84.0
4588:  BRA    4592
....................       {   
....................          if(Opcion>1) 
458A:  MOVF   x70,W
458C:  SUBLW  01
458E:  BC    4592
....................          { 
....................             Opcion--; 
4590:  DECF   x70,F
....................          }   
....................       } 
....................              
....................       if(RIGHT)//Si oprime SET 
4592:  BSF    F96.1
4594:  BTFSS  F84.1
4596:  BRA    47D0
....................       {   
....................          if(Opcion==2) 
4598:  MOVF   x70,W
459A:  SUBLW  02
459C:  BTFSS  FD8.2
459E:  BRA    47A2
....................          { 
....................             Menu=20;glcd_rect(15, 18, 30, 53, NO, ON);tiempo_secado=0;glcd_fillScreen(OFF);pausa=0; 
45A0:  MOVLW  14
45A2:  MOVWF  x6B
45A4:  MOVLW  0F
45A6:  MOVLB  6
45A8:  MOVWF  x24
45AA:  MOVLW  12
45AC:  MOVWF  x25
45AE:  MOVLW  1E
45B0:  MOVWF  x26
45B2:  MOVLW  35
45B4:  MOVWF  x27
45B6:  CLRF   x28
45B8:  MOVLW  01
45BA:  MOVWF  x29
45BC:  MOVLB  0
45BE:  CALL   1356
45C2:  MOVLB  5
45C4:  CLRF   x72
45C6:  MOVLB  6
45C8:  CLRF   x12
45CA:  MOVLB  0
45CC:  CALL   0DEA
45D0:  MOVLB  5
45D2:  CLRF   x6E
....................             Ganancia=Setpoint*(Ganancia/Coeficiente); 
45D4:  MOVFF  5C4,618
45D8:  MOVFF  5C3,617
45DC:  MOVFF  5C2,616
45E0:  MOVFF  5C1,615
45E4:  MOVFF  5CC,61C
45E8:  MOVFF  5CB,61B
45EC:  MOVFF  5CA,61A
45F0:  MOVFF  5C9,619
45F4:  MOVLB  0
45F6:  CALL   174E
45FA:  MOVFF  00,611
45FE:  MOVFF  01,612
4602:  MOVFF  02,613
4606:  MOVFF  03,614
460A:  MOVFF  580,618
460E:  MOVFF  57F,617
4612:  CALL   0CFA
4616:  MOVFF  03,631
461A:  MOVFF  02,630
461E:  MOVFF  01,62F
4622:  MOVFF  00,62E
4626:  MOVFF  614,635
462A:  MOVFF  613,634
462E:  MOVFF  612,633
4632:  MOVFF  611,632
4636:  CALL   1B46
463A:  MOVFF  03,5C4
463E:  MOVFF  02,5C3
4642:  MOVFF  01,5C2
4646:  MOVFF  00,5C1
....................             Gananciamax=(0.35)*Setpoint; 
464A:  MOVFF  580,618
464E:  MOVFF  57F,617
4652:  CALL   0CFA
4656:  MOVLW  33
4658:  MOVLB  6
465A:  MOVWF  x31
465C:  MOVWF  x30
465E:  MOVWF  x2F
4660:  MOVLW  7D
4662:  MOVWF  x2E
4664:  MOVFF  03,635
4668:  MOVFF  02,634
466C:  MOVFF  01,633
4670:  MOVFF  00,632
4674:  MOVLB  0
4676:  CALL   1B46
467A:  MOVFF  03,58C
467E:  MOVFF  02,58B
4682:  MOVFF  01,58A
4686:  MOVFF  00,589
....................             Tpulsomax=(0.54*Setpoint*Tciclo)/100; 
468A:  MOVFF  580,618
468E:  MOVFF  57F,617
4692:  CALL   0CFA
4696:  MOVLW  71
4698:  MOVLB  6
469A:  MOVWF  x31
469C:  MOVLW  3D
469E:  MOVWF  x30
46A0:  MOVLW  0A
46A2:  MOVWF  x2F
46A4:  MOVLW  7E
46A6:  MOVWF  x2E
46A8:  MOVFF  03,635
46AC:  MOVFF  02,634
46B0:  MOVFF  01,633
46B4:  MOVFF  00,632
46B8:  MOVLB  0
46BA:  CALL   1B46
46BE:  MOVFF  00,611
46C2:  MOVFF  01,612
46C6:  MOVFF  02,613
46CA:  MOVFF  03,614
46CE:  MOVFF  03,631
46D2:  MOVFF  02,630
46D6:  MOVFF  01,62F
46DA:  MOVFF  00,62E
46DE:  MOVFF  5AC,635
46E2:  MOVFF  5AB,634
46E6:  MOVFF  5AA,633
46EA:  MOVFF  5A9,632
46EE:  CALL   1B46
46F2:  MOVFF  00,611
46F6:  MOVFF  01,612
46FA:  MOVFF  02,613
46FE:  MOVFF  03,614
4702:  MOVFF  03,618
4706:  MOVFF  02,617
470A:  MOVFF  01,616
470E:  MOVFF  00,615
4712:  MOVLB  6
4714:  CLRF   x1C
4716:  CLRF   x1B
4718:  MOVLW  48
471A:  MOVWF  x1A
471C:  MOVLW  85
471E:  MOVWF  x19
4720:  MOVLB  0
4722:  CALL   174E
4726:  MOVFF  03,5DC
472A:  MOVFF  02,5DB
472E:  MOVFF  01,5DA
4732:  MOVFF  00,5D9
....................             Potenciamax=(100*Tpulsomax)/Tciclo; 
4736:  MOVLB  6
4738:  CLRF   x31
473A:  CLRF   x30
473C:  MOVLW  48
473E:  MOVWF  x2F
4740:  MOVLW  85
4742:  MOVWF  x2E
4744:  MOVFF  5DC,635
4748:  MOVFF  5DB,634
474C:  MOVFF  5DA,633
4750:  MOVFF  5D9,632
4754:  MOVLB  0
4756:  CALL   1B46
475A:  MOVFF  00,611
475E:  MOVFF  01,612
4762:  MOVFF  02,613
4766:  MOVFF  03,614
476A:  MOVFF  03,618
476E:  MOVFF  02,617
4772:  MOVFF  01,616
4776:  MOVFF  00,615
477A:  MOVFF  5AC,61C
477E:  MOVFF  5AB,61B
4782:  MOVFF  5AA,61A
4786:  MOVFF  5A9,619
478A:  CALL   174E
478E:  MOVFF  03,5E0
4792:  MOVFF  02,5DF
4796:  MOVFF  01,5DE
479A:  MOVFF  00,5DD
....................             //Gananciamax=(0.27)*Setpoint; 
....................          } 
....................          else 
479E:  BRA    47D2
47A0:  MOVLB  5
....................          { 
....................             delay_ms(700);Menu=1;glcd_fillscreen(OFF);Opcion=1;visual=1; 
47A2:  MOVLW  04
47A4:  MOVLB  6
47A6:  MOVWF  x11
47A8:  MOVLW  AF
47AA:  MOVWF  x17
47AC:  MOVLB  0
47AE:  CALL   0CD0
47B2:  MOVLB  6
47B4:  DECFSZ x11,F
47B6:  BRA    47A8
47B8:  MOVLW  01
47BA:  MOVLB  5
47BC:  MOVWF  x6B
47BE:  MOVLB  6
47C0:  CLRF   x12
47C2:  MOVLB  0
47C4:  CALL   0DEA
47C8:  MOVLW  01
47CA:  MOVLB  5
47CC:  MOVWF  x70
47CE:  BSF    x67.3
47D0:  MOVLB  0
....................          } 
....................       }  
....................                    
....................       if(LEFT)//Si oprime boton de Toma. 
47D2:  BSF    F96.2
47D4:  BTFSS  F84.2
47D6:  BRA    4808
....................       { 
....................          delay_ms(700);Menu=1;glcd_fillscreen(OFF);Opcion=1;visual=1; 
47D8:  MOVLW  04
47DA:  MOVLB  6
47DC:  MOVWF  x11
47DE:  MOVLW  AF
47E0:  MOVWF  x17
47E2:  MOVLB  0
47E4:  CALL   0CD0
47E8:  MOVLB  6
47EA:  DECFSZ x11,F
47EC:  BRA    47DE
47EE:  MOVLW  01
47F0:  MOVLB  5
47F2:  MOVWF  x6B
47F4:  MOVLB  6
47F6:  CLRF   x12
47F8:  MOVLB  0
47FA:  CALL   0DEA
47FE:  MOVLW  01
4800:  MOVLB  5
4802:  MOVWF  x70
4804:  BSF    x67.3
4806:  MOVLB  0
....................       } 
....................      
....................      
....................     } 
.................... //_--------------------------------------------------------------------------------------------------------------------------------------------------------        
....................  
.................... //_--------------------------------------------------------------------------------------------------------------------------------------------------------       
....................       if(Menu==5){ // Menu de Temperatura 
4808:  MOVLB  5
480A:  MOVF   x6B,W
480C:  SUBLW  05
480E:  BTFSS  FD8.2
4810:  BRA    4A22
....................       if(Setpoint>70) 
4812:  MOVF   x80,F
4814:  BNZ   481C
4816:  MOVF   x7F,W
4818:  SUBLW  46
481A:  BC    4822
....................          Setpoint=70; 
481C:  CLRF   x80
481E:  MOVLW  46
4820:  MOVWF  x7F
....................           
....................       if(Setpoint<1) 
4822:  MOVF   x7F,F
4824:  BNZ   4830
4826:  MOVF   x80,F
4828:  BNZ   4830
....................          Setpoint=1;   
482A:  CLRF   x80
482C:  MOVLW  01
482E:  MOVWF  x7F
....................        
....................       glcd_circle(85,30,3,NO,ON); 
4830:  MOVLW  55
4832:  MOVLB  6
4834:  MOVWF  x11
4836:  MOVLW  1E
4838:  MOVWF  x12
483A:  MOVLW  03
483C:  MOVWF  x13
483E:  CLRF   x14
4840:  MOVLW  01
4842:  MOVWF  x15
4844:  MOVLB  0
4846:  CALL   2030
....................       strcpy(Menus.Letra,"C");displayMenu(Menus.Letra,92,30,2,3); 
484A:  MOVLW  05
484C:  MOVWF  FEA
484E:  MOVLW  F1
4850:  MOVWF  FE9
4852:  MOVFF  FF2,611
4856:  BCF    FF2.7
4858:  MOVLW  00
485A:  CALL   0908
485E:  TBLRD*-
4860:  TBLRD*+
4862:  MOVF   FF5,W
4864:  MOVWF  FEE
4866:  IORLW  00
4868:  BNZ   4860
486A:  MOVLB  6
486C:  BTFSC  x11.7
486E:  BSF    FF2.7
4870:  MOVLW  05
4872:  MOVWF  x12
4874:  MOVLW  F1
4876:  MOVWF  x11
4878:  MOVLW  5C
487A:  MOVWF  x13
487C:  MOVLW  1E
487E:  MOVWF  x14
4880:  MOVLW  02
4882:  MOVWF  x15
4884:  MOVLW  03
4886:  MOVWF  x16
4888:  MOVLB  0
488A:  CALL   1418
....................        
....................          //glcd_fillScreen(OFF); 
....................          strcpy(Menus.Letra,"Temperatura"); 
488E:  MOVLW  05
4890:  MOVWF  FEA
4892:  MOVLW  F1
4894:  MOVWF  FE9
4896:  MOVFF  FF2,611
489A:  BCF    FF2.7
489C:  MOVLW  00
489E:  CALL   0832
48A2:  TBLRD*-
48A4:  TBLRD*+
48A6:  MOVF   FF5,W
48A8:  MOVWF  FEE
48AA:  IORLW  00
48AC:  BNZ   48A4
48AE:  MOVLB  6
48B0:  BTFSC  x11.7
48B2:  BSF    FF2.7
....................          displayMenu(Menus.Letra,0,0,1,2); 
48B4:  MOVLW  05
48B6:  MOVWF  x12
48B8:  MOVLW  F1
48BA:  MOVWF  x11
48BC:  CLRF   x13
48BE:  CLRF   x14
48C0:  MOVLW  01
48C2:  MOVWF  x15
48C4:  MOVLW  02
48C6:  MOVWF  x16
48C8:  MOVLB  0
48CA:  CALL   1418
....................           
....................          displayTemperatura(Setpoint,30,30,0,3); 
48CE:  MOVFF  580,614
48D2:  MOVFF  57F,613
48D6:  MOVLW  1E
48D8:  MOVLB  6
48DA:  MOVWF  x15
48DC:  MOVWF  x16
48DE:  CLRF   x17
48E0:  MOVLW  03
48E2:  MOVWF  x18
48E4:  MOVLB  0
48E6:  CALL   2318
....................        
....................          if(UP)//Si oprime hacia arriba 
48EA:  BSF    F92.5
48EC:  BTFSS  F80.5
48EE:  BRA    4924
....................          {   
....................             //glcd_fillScreen(OFF); 
....................             glcd_rect(30, 30, 80, 55, YES, OFF); 
48F0:  MOVLW  1E
48F2:  MOVLB  6
48F4:  MOVWF  x24
48F6:  MOVWF  x25
48F8:  MOVLW  50
48FA:  MOVWF  x26
48FC:  MOVLW  37
48FE:  MOVWF  x27
4900:  MOVLW  01
4902:  MOVWF  x28
4904:  CLRF   x29
4906:  MOVLB  0
4908:  CALL   1356
....................             delay_ms(30);Setpoint++;visual=1; 
490C:  MOVLW  1E
490E:  MOVLB  6
4910:  MOVWF  x17
4912:  MOVLB  0
4914:  CALL   0CD0
4918:  MOVLB  5
491A:  INCF   x7F,F
491C:  BTFSC  FD8.2
491E:  INCF   x80,F
4920:  BSF    x67.3
4922:  MOVLB  0
....................              
....................          } 
....................                 
....................          if(DOWN)//Si oprime hacia abajo 
4924:  BSF    F96.0
4926:  BTFSS  F84.0
4928:  BRA    4960
....................          {   
....................             //glcd_fillScreen(OFF); 
....................             glcd_rect(30, 30, 80, 55, YES, OFF); 
492A:  MOVLW  1E
492C:  MOVLB  6
492E:  MOVWF  x24
4930:  MOVWF  x25
4932:  MOVLW  50
4934:  MOVWF  x26
4936:  MOVLW  37
4938:  MOVWF  x27
493A:  MOVLW  01
493C:  MOVWF  x28
493E:  CLRF   x29
4940:  MOVLB  0
4942:  CALL   1356
....................             delay_ms(30);Setpoint--;visual=1;      
4946:  MOVLW  1E
4948:  MOVLB  6
494A:  MOVWF  x17
494C:  MOVLB  0
494E:  CALL   0CD0
4952:  MOVLB  5
4954:  MOVF   x7F,W
4956:  BTFSC  FD8.2
4958:  DECF   x80,F
495A:  DECF   x7F,F
495C:  BSF    x67.3
495E:  MOVLB  0
....................          } 
....................                 
....................          if(RIGHT)//Si oprime SET 
4960:  BSF    F96.1
4962:  BTFSS  F84.1
4964:  BRA    4978
....................          {   
....................             delay_ms(30);visual=1; 
4966:  MOVLW  1E
4968:  MOVLB  6
496A:  MOVWF  x17
496C:  MOVLB  0
496E:  CALL   0CD0
4972:  MOVLB  5
4974:  BSF    x67.3
4976:  MOVLB  0
....................          }  
....................                    
....................          if(LEFT)//Si oprime boton de Toma. 
4978:  BSF    F96.2
497A:  BTFSS  F84.2
497C:  BRA    4A20
....................          { 
....................             delay_ms(700);Menu=1;glcd_fillscreen(OFF);Opcion=1;visual=1; 
497E:  MOVLW  04
4980:  MOVLB  6
4982:  MOVWF  x11
4984:  MOVLW  AF
4986:  MOVWF  x17
4988:  MOVLB  0
498A:  CALL   0CD0
498E:  MOVLB  6
4990:  DECFSZ x11,F
4992:  BRA    4984
4994:  MOVLW  01
4996:  MOVLB  5
4998:  MOVWF  x6B
499A:  MOVLB  6
499C:  CLRF   x12
499E:  MOVLB  0
49A0:  CALL   0DEA
49A4:  MOVLW  01
49A6:  MOVLB  5
49A8:  MOVWF  x70
49AA:  BSF    x67.3
....................             write_eeprom(80,make8(Setpoint,0)); 
49AC:  MOVFF  57F,611
49B0:  MOVLW  50
49B2:  MOVWF  FA9
49B4:  MOVFF  611,FA8
49B8:  BCF    FA6.6
49BA:  BCF    FA6.7
49BC:  BSF    FA6.2
49BE:  MOVF   FF2,W
49C0:  MOVWF  00
49C2:  BCF    FF2.7
49C4:  MOVLB  F
49C6:  MOVLW  55
49C8:  MOVWF  FA7
49CA:  MOVLW  AA
49CC:  MOVWF  FA7
49CE:  BSF    FA6.1
49D0:  BTFSC  FA6.1
49D2:  BRA    49D0
49D4:  BCF    FA6.2
49D6:  MOVF   00,W
49D8:  IORWF  FF2,F
....................             delay_ms(50);    
49DA:  MOVLW  32
49DC:  MOVLB  6
49DE:  MOVWF  x17
49E0:  MOVLB  0
49E2:  CALL   0CD0
....................             write_eeprom(81,make8(Setpoint,1));//Guardar valor de Setpoint en eeprom 
49E6:  MOVFF  580,611
49EA:  MOVLW  51
49EC:  MOVWF  FA9
49EE:  MOVFF  611,FA8
49F2:  BCF    FA6.6
49F4:  BCF    FA6.7
49F6:  BSF    FA6.2
49F8:  MOVF   FF2,W
49FA:  MOVWF  00
49FC:  BCF    FF2.7
49FE:  MOVLB  F
4A00:  MOVLW  55
4A02:  MOVWF  FA7
4A04:  MOVLW  AA
4A06:  MOVWF  FA7
4A08:  BSF    FA6.1
4A0A:  BTFSC  FA6.1
4A0C:  BRA    4A0A
4A0E:  BCF    FA6.2
4A10:  MOVF   00,W
4A12:  IORWF  FF2,F
....................             delay_ms(50);    
4A14:  MOVLW  32
4A16:  MOVLB  6
4A18:  MOVWF  x17
4A1A:  MOVLB  0
4A1C:  CALL   0CD0
4A20:  MOVLB  5
....................          } 
....................      } 
.................... //_--------------------------------------------------------------------------------------------------------------------------------------------------------     
....................  
....................  
.................... //_--------------------------------------------------------------------------------------------------------------------------------------------------------       
....................       if(Menu==6){ // Menu de Temporizador 
4A22:  MOVF   x6B,W
4A24:  SUBLW  06
4A26:  BTFSS  FD8.2
4A28:  BRA    4D7C
....................       
....................        
....................          if(unidad<1) 
4A2A:  MOVF   x6C,F
4A2C:  BNZ   4A32
....................          {unidad=4;} 
4A2E:  MOVLW  04
4A30:  MOVWF  x6C
....................           
....................          strcpy(Menus.Letra,"Temporiza"); 
4A32:  MOVLW  05
4A34:  MOVWF  FEA
4A36:  MOVLW  F1
4A38:  MOVWF  FE9
4A3A:  MOVFF  FF2,611
4A3E:  BCF    FF2.7
4A40:  MOVLW  00
4A42:  MOVLB  0
4A44:  CALL   0924
4A48:  TBLRD*-
4A4A:  TBLRD*+
4A4C:  MOVF   FF5,W
4A4E:  MOVWF  FEE
4A50:  IORLW  00
4A52:  BNZ   4A4A
4A54:  MOVLB  6
4A56:  BTFSC  x11.7
4A58:  BSF    FF2.7
....................          displayMenu(Menus.Letra,0,0,1,2); 
4A5A:  MOVLW  05
4A5C:  MOVWF  x12
4A5E:  MOVLW  F1
4A60:  MOVWF  x11
4A62:  CLRF   x13
4A64:  CLRF   x14
4A66:  MOVLW  01
4A68:  MOVWF  x15
4A6A:  MOVLW  02
4A6C:  MOVWF  x16
4A6E:  MOVLB  0
4A70:  CALL   1418
....................           
....................          if(unidad==4) 
4A74:  MOVLB  5
4A76:  MOVF   x6C,W
4A78:  SUBLW  04
4A7A:  BNZ   4A9A
....................          {displayTiempo(Testerilizacionp[3],20,40,1,2);} 
4A7C:  MOVFF  594,612
4A80:  MOVLW  14
4A82:  MOVLB  6
4A84:  MOVWF  x13
4A86:  MOVLW  28
4A88:  MOVWF  x14
4A8A:  MOVLW  01
4A8C:  MOVWF  x15
4A8E:  MOVLW  02
4A90:  MOVWF  x16
4A92:  MOVLB  0
4A94:  CALL   2556
....................          else 
4A98:  BRA    4AB4
....................          {displayTiempo(Testerilizacionp[3],20,40,0,2);} 
4A9A:  MOVFF  594,612
4A9E:  MOVLW  14
4AA0:  MOVLB  6
4AA2:  MOVWF  x13
4AA4:  MOVLW  28
4AA6:  MOVWF  x14
4AA8:  CLRF   x15
4AAA:  MOVLW  02
4AAC:  MOVWF  x16
4AAE:  MOVLB  0
4AB0:  CALL   2556
....................           
....................          if(unidad==3) 
4AB4:  MOVLB  5
4AB6:  MOVF   x6C,W
4AB8:  SUBLW  03
4ABA:  BNZ   4AD8
....................          {displayTiempo(Testerilizacionp[2],40,40,1,2);} 
4ABC:  MOVFF  593,612
4AC0:  MOVLW  28
4AC2:  MOVLB  6
4AC4:  MOVWF  x13
4AC6:  MOVWF  x14
4AC8:  MOVLW  01
4ACA:  MOVWF  x15
4ACC:  MOVLW  02
4ACE:  MOVWF  x16
4AD0:  MOVLB  0
4AD2:  CALL   2556
....................          else 
4AD6:  BRA    4AF0
....................          {displayTiempo(Testerilizacionp[2],40,40,0,2);} 
4AD8:  MOVFF  593,612
4ADC:  MOVLW  28
4ADE:  MOVLB  6
4AE0:  MOVWF  x13
4AE2:  MOVWF  x14
4AE4:  CLRF   x15
4AE6:  MOVLW  02
4AE8:  MOVWF  x16
4AEA:  MOVLB  0
4AEC:  CALL   2556
....................           
....................          if(unidad==2) 
4AF0:  MOVLB  5
4AF2:  MOVF   x6C,W
4AF4:  SUBLW  02
4AF6:  BNZ   4B16
....................          {displayTiempo(Testerilizacionp[1],70,40,1,2);} 
4AF8:  MOVFF  592,612
4AFC:  MOVLW  46
4AFE:  MOVLB  6
4B00:  MOVWF  x13
4B02:  MOVLW  28
4B04:  MOVWF  x14
4B06:  MOVLW  01
4B08:  MOVWF  x15
4B0A:  MOVLW  02
4B0C:  MOVWF  x16
4B0E:  MOVLB  0
4B10:  CALL   2556
....................          else 
4B14:  BRA    4B30
....................          {displayTiempo(Testerilizacionp[1],70,40,0,2);} 
4B16:  MOVFF  592,612
4B1A:  MOVLW  46
4B1C:  MOVLB  6
4B1E:  MOVWF  x13
4B20:  MOVLW  28
4B22:  MOVWF  x14
4B24:  CLRF   x15
4B26:  MOVLW  02
4B28:  MOVWF  x16
4B2A:  MOVLB  0
4B2C:  CALL   2556
....................           
....................          if(unidad==1) 
4B30:  MOVLB  5
4B32:  DECFSZ x6C,W
4B34:  BRA    4B54
....................          {displayTiempo(Testerilizacionp[0],90,40,1,2);} 
4B36:  MOVFF  591,612
4B3A:  MOVLW  5A
4B3C:  MOVLB  6
4B3E:  MOVWF  x13
4B40:  MOVLW  28
4B42:  MOVWF  x14
4B44:  MOVLW  01
4B46:  MOVWF  x15
4B48:  MOVLW  02
4B4A:  MOVWF  x16
4B4C:  MOVLB  0
4B4E:  CALL   2556
....................          else 
4B52:  BRA    4B6E
....................          {displayTiempo(Testerilizacionp[0],90,40,0,2);} 
4B54:  MOVFF  591,612
4B58:  MOVLW  5A
4B5A:  MOVLB  6
4B5C:  MOVWF  x13
4B5E:  MOVLW  28
4B60:  MOVWF  x14
4B62:  CLRF   x15
4B64:  MOVLW  02
4B66:  MOVWF  x16
4B68:  MOVLB  0
4B6A:  CALL   2556
....................           
....................          strcpy(Menus.Letra,":"); 
4B6E:  MOVLW  05
4B70:  MOVWF  FEA
4B72:  MOVLW  F1
4B74:  MOVWF  FE9
4B76:  MOVFF  FF2,611
4B7A:  BCF    FF2.7
4B7C:  MOVLW  00
4B7E:  CALL   0948
4B82:  TBLRD*-
4B84:  TBLRD*+
4B86:  MOVF   FF5,W
4B88:  MOVWF  FEE
4B8A:  IORLW  00
4B8C:  BNZ   4B84
4B8E:  MOVLB  6
4B90:  BTFSC  x11.7
4B92:  BSF    FF2.7
....................          displayMenu(Menus.Letra,60,42,2,2);            
4B94:  MOVLW  05
4B96:  MOVWF  x12
4B98:  MOVLW  F1
4B9A:  MOVWF  x11
4B9C:  MOVLW  3C
4B9E:  MOVWF  x13
4BA0:  MOVLW  2A
4BA2:  MOVWF  x14
4BA4:  MOVLW  02
4BA6:  MOVWF  x15
4BA8:  MOVWF  x16
4BAA:  MOVLB  0
4BAC:  CALL   1418
....................        
....................          if(UP)//Si oprime hacia arriba 
4BB0:  BSF    F92.5
4BB2:  BTFSS  F80.5
4BB4:  BRA    4BF6
....................          {   
....................             if(Testerilizacionp[unidad-1]<9) 
4BB6:  MOVLW  01
4BB8:  MOVLB  5
4BBA:  SUBWF  x6C,W
4BBC:  CLRF   03
4BBE:  ADDLW  91
4BC0:  MOVWF  FE9
4BC2:  MOVLW  05
4BC4:  ADDWFC 03,W
4BC6:  MOVWF  FEA
4BC8:  BTFSC  FEF.7
4BCA:  BRA    4BD2
4BCC:  MOVF   FEF,W
4BCE:  SUBLW  08
4BD0:  BNC   4BF4
....................             { 
....................                delay_ms(30);Testerilizacionp[unidad-1]++;visual=1; 
4BD2:  MOVLW  1E
4BD4:  MOVLB  6
4BD6:  MOVWF  x17
4BD8:  MOVLB  0
4BDA:  CALL   0CD0
4BDE:  MOVLW  01
4BE0:  MOVLB  5
4BE2:  SUBWF  x6C,W
4BE4:  CLRF   03
4BE6:  ADDLW  91
4BE8:  MOVWF  FE9
4BEA:  MOVLW  05
4BEC:  ADDWFC 03,W
4BEE:  MOVWF  FEA
4BF0:  INCF   FEF,F
4BF2:  BSF    x67.3
4BF4:  MOVLB  0
....................             } 
....................          } 
....................                 
....................          if(DOWN)//Si oprime hacia abajo 
4BF6:  BSF    F96.0
4BF8:  BTFSS  F84.0
4BFA:  BRA    4C3C
....................          {   
....................             if(Testerilizacionp[unidad-1]>0) 
4BFC:  MOVLW  01
4BFE:  MOVLB  5
4C00:  SUBWF  x6C,W
4C02:  CLRF   03
4C04:  ADDLW  91
4C06:  MOVWF  FE9
4C08:  MOVLW  05
4C0A:  ADDWFC 03,W
4C0C:  MOVWF  FEA
4C0E:  BTFSC  FEF.7
4C10:  BRA    4C3A
4C12:  MOVF   FEF,W
4C14:  SUBLW  00
4C16:  BC    4C3A
....................             { 
....................                delay_ms(30);Testerilizacionp[unidad-1]--;visual=1;      
4C18:  MOVLW  1E
4C1A:  MOVLB  6
4C1C:  MOVWF  x17
4C1E:  MOVLB  0
4C20:  CALL   0CD0
4C24:  MOVLW  01
4C26:  MOVLB  5
4C28:  SUBWF  x6C,W
4C2A:  CLRF   03
4C2C:  ADDLW  91
4C2E:  MOVWF  FE9
4C30:  MOVLW  05
4C32:  ADDWFC 03,W
4C34:  MOVWF  FEA
4C36:  DECF   FEF,F
4C38:  BSF    x67.3
4C3A:  MOVLB  0
....................             } 
....................          } 
....................                 
....................          if(RIGHT)//Si oprime SET 
4C3C:  BSF    F96.1
4C3E:  BTFSS  F84.1
4C40:  BRA    4C56
....................          {   
....................             delay_ms(30);unidad--;visual=1; 
4C42:  MOVLW  1E
4C44:  MOVLB  6
4C46:  MOVWF  x17
4C48:  MOVLB  0
4C4A:  CALL   0CD0
4C4E:  MOVLB  5
4C50:  DECF   x6C,F
4C52:  BSF    x67.3
4C54:  MOVLB  0
....................          }  
....................                    
....................          if(LEFT)//Si oprime boton de Toma. 
4C56:  BSF    F96.2
4C58:  BTFSS  F84.2
4C5A:  BRA    4D7E
....................          { 
....................             delay_ms(700);Menu=1;glcd_fillscreen(OFF);Opcion=1;visual=1; 
4C5C:  MOVLW  04
4C5E:  MOVLB  6
4C60:  MOVWF  x11
4C62:  MOVLW  AF
4C64:  MOVWF  x17
4C66:  MOVLB  0
4C68:  CALL   0CD0
4C6C:  MOVLB  6
4C6E:  DECFSZ x11,F
4C70:  BRA    4C62
4C72:  MOVLW  01
4C74:  MOVLB  5
4C76:  MOVWF  x6B
4C78:  MOVLB  6
4C7A:  CLRF   x12
4C7C:  MOVLB  0
4C7E:  CALL   0DEA
4C82:  MOVLW  01
4C84:  MOVLB  5
4C86:  MOVWF  x70
4C88:  BSF    x67.3
....................             write_eeprom(0,Testerilizacionp[0]); 
4C8A:  CLRF   FA9
4C8C:  MOVFF  591,FA8
4C90:  BCF    FA6.6
4C92:  BCF    FA6.7
4C94:  BSF    FA6.2
4C96:  MOVF   FF2,W
4C98:  MOVWF  00
4C9A:  BCF    FF2.7
4C9C:  MOVLB  F
4C9E:  MOVLW  55
4CA0:  MOVWF  FA7
4CA2:  MOVLW  AA
4CA4:  MOVWF  FA7
4CA6:  BSF    FA6.1
4CA8:  BTFSC  FA6.1
4CAA:  BRA    4CA8
4CAC:  BCF    FA6.2
4CAE:  MOVF   00,W
4CB0:  IORWF  FF2,F
....................             delay_ms(50);    
4CB2:  MOVLW  32
4CB4:  MOVLB  6
4CB6:  MOVWF  x17
4CB8:  MOVLB  0
4CBA:  CALL   0CD0
....................             write_eeprom(1,Testerilizacionp[1]); 
4CBE:  MOVLW  01
4CC0:  MOVWF  FA9
4CC2:  MOVFF  592,FA8
4CC6:  BCF    FA6.6
4CC8:  BCF    FA6.7
4CCA:  BSF    FA6.2
4CCC:  MOVF   FF2,W
4CCE:  MOVWF  00
4CD0:  BCF    FF2.7
4CD2:  MOVLB  F
4CD4:  MOVLW  55
4CD6:  MOVWF  FA7
4CD8:  MOVLW  AA
4CDA:  MOVWF  FA7
4CDC:  BSF    FA6.1
4CDE:  BTFSC  FA6.1
4CE0:  BRA    4CDE
4CE2:  BCF    FA6.2
4CE4:  MOVF   00,W
4CE6:  IORWF  FF2,F
....................             delay_ms(50);    
4CE8:  MOVLW  32
4CEA:  MOVLB  6
4CEC:  MOVWF  x17
4CEE:  MOVLB  0
4CF0:  CALL   0CD0
....................             write_eeprom(2,Testerilizacionp[2]); 
4CF4:  MOVLW  02
4CF6:  MOVWF  FA9
4CF8:  MOVFF  593,FA8
4CFC:  BCF    FA6.6
4CFE:  BCF    FA6.7
4D00:  BSF    FA6.2
4D02:  MOVF   FF2,W
4D04:  MOVWF  00
4D06:  BCF    FF2.7
4D08:  MOVLB  F
4D0A:  MOVLW  55
4D0C:  MOVWF  FA7
4D0E:  MOVLW  AA
4D10:  MOVWF  FA7
4D12:  BSF    FA6.1
4D14:  BTFSC  FA6.1
4D16:  BRA    4D14
4D18:  BCF    FA6.2
4D1A:  MOVF   00,W
4D1C:  IORWF  FF2,F
....................             delay_ms(50);    
4D1E:  MOVLW  32
4D20:  MOVLB  6
4D22:  MOVWF  x17
4D24:  MOVLB  0
4D26:  CALL   0CD0
....................             write_eeprom(3,Testerilizacionp[3]); 
4D2A:  MOVLW  03
4D2C:  MOVWF  FA9
4D2E:  MOVFF  594,FA8
4D32:  BCF    FA6.6
4D34:  BCF    FA6.7
4D36:  BSF    FA6.2
4D38:  MOVF   FF2,W
4D3A:  MOVWF  00
4D3C:  BCF    FF2.7
4D3E:  MOVLB  F
4D40:  MOVLW  55
4D42:  MOVWF  FA7
4D44:  MOVLW  AA
4D46:  MOVWF  FA7
4D48:  BSF    FA6.1
4D4A:  BTFSC  FA6.1
4D4C:  BRA    4D4A
4D4E:  BCF    FA6.2
4D50:  MOVF   00,W
4D52:  IORWF  FF2,F
....................             delay_ms(50);    
4D54:  MOVLW  32
4D56:  MOVLB  6
4D58:  MOVWF  x17
4D5A:  MOVLB  0
4D5C:  CALL   0CD0
....................              
....................             if(Testerilizacionp[0]==0 && Testerilizacionp[1]==0 && Testerilizacionp[2]==0 && Testerilizacionp[3]==0){ 
4D60:  MOVLB  5
4D62:  MOVF   x91,F
4D64:  BNZ   4D78
4D66:  MOVF   x92,F
4D68:  BNZ   4D78
4D6A:  MOVF   x93,F
4D6C:  BNZ   4D78
4D6E:  MOVF   x94,F
4D70:  BNZ   4D78
....................                infinito=5; 
4D72:  MOVLW  05
4D74:  MOVWF  x65
....................             } 
....................             else{ 
4D76:  BRA    4D7C
....................                infinito=10; 
4D78:  MOVLW  0A
4D7A:  MOVWF  x65
4D7C:  MOVLB  0
....................             } 
....................          } 
....................      } 
.................... //_--------------------------------------------------------------------------------------------------------------------------------------------------------     
....................  
....................  
.................... //_--------------------------------------------------------------------------------------------------------------------------------------------------------       
....................       if(Menu==7){ // Menu de Cambio de Contrasea 
4D7E:  MOVLB  5
4D80:  MOVF   x6B,W
4D82:  SUBLW  07
4D84:  BTFSS  FD8.2
4D86:  BRA    523C
....................          
....................       strcpy(Menus.Letra,"Clave"); 
4D88:  MOVLW  05
4D8A:  MOVWF  FEA
4D8C:  MOVLW  F1
4D8E:  MOVWF  FE9
4D90:  MOVFF  FF2,611
4D94:  BCF    FF2.7
4D96:  MOVLW  00
4D98:  MOVLB  0
4D9A:  CALL   077E
4D9E:  TBLRD*-
4DA0:  TBLRD*+
4DA2:  MOVF   FF5,W
4DA4:  MOVWF  FEE
4DA6:  IORLW  00
4DA8:  BNZ   4DA0
4DAA:  MOVLB  6
4DAC:  BTFSC  x11.7
4DAE:  BSF    FF2.7
....................       displayMenu(Menus.Letra,30,0,1,2);      
4DB0:  MOVLW  05
4DB2:  MOVWF  x12
4DB4:  MOVLW  F1
4DB6:  MOVWF  x11
4DB8:  MOVLW  1E
4DBA:  MOVWF  x13
4DBC:  CLRF   x14
4DBE:  MOVLW  01
4DC0:  MOVWF  x15
4DC2:  MOVLW  02
4DC4:  MOVWF  x16
4DC6:  MOVLB  0
4DC8:  CALL   1418
....................        
....................       if(unidad==1) 
4DCC:  MOVLB  5
4DCE:  DECFSZ x6C,W
4DD0:  BRA    4E30
....................       { 
....................          displayContrasena(Contrasena[0],20,30,1); 
4DD2:  MOVFF  595,613
4DD6:  MOVLW  14
4DD8:  MOVLB  6
4DDA:  MOVWF  x14
4DDC:  MOVLW  1E
4DDE:  MOVWF  x15
4DE0:  MOVLW  01
4DE2:  MOVWF  x16
4DE4:  MOVLB  0
4DE6:  CALL   163E
....................          displayContrasena(Contrasena[1],40,30,0); 
4DEA:  MOVFF  596,613
4DEE:  MOVLW  28
4DF0:  MOVLB  6
4DF2:  MOVWF  x14
4DF4:  MOVLW  1E
4DF6:  MOVWF  x15
4DF8:  CLRF   x16
4DFA:  MOVLB  0
4DFC:  CALL   163E
....................          displayContrasena(Contrasena[2],60,30,0); 
4E00:  MOVFF  597,613
4E04:  MOVLW  3C
4E06:  MOVLB  6
4E08:  MOVWF  x14
4E0A:  MOVLW  1E
4E0C:  MOVWF  x15
4E0E:  CLRF   x16
4E10:  MOVLB  0
4E12:  CALL   163E
....................          displayContrasena(Contrasena[3],80,30,0); 
4E16:  MOVFF  598,613
4E1A:  MOVLW  50
4E1C:  MOVLB  6
4E1E:  MOVWF  x14
4E20:  MOVLW  1E
4E22:  MOVWF  x15
4E24:  CLRF   x16
4E26:  MOVLB  0
4E28:  CALL   163E
....................       } 
....................       else 
4E2C:  BRA    4F58
4E2E:  MOVLB  5
....................       { 
....................          if(unidad==2) 
4E30:  MOVF   x6C,W
4E32:  SUBLW  02
4E34:  BNZ   4E94
....................          { 
....................             displayContrasena(Contrasena[0],20,30,0); 
4E36:  MOVFF  595,613
4E3A:  MOVLW  14
4E3C:  MOVLB  6
4E3E:  MOVWF  x14
4E40:  MOVLW  1E
4E42:  MOVWF  x15
4E44:  CLRF   x16
4E46:  MOVLB  0
4E48:  CALL   163E
....................             displayContrasena(Contrasena[1],40,30,1); 
4E4C:  MOVFF  596,613
4E50:  MOVLW  28
4E52:  MOVLB  6
4E54:  MOVWF  x14
4E56:  MOVLW  1E
4E58:  MOVWF  x15
4E5A:  MOVLW  01
4E5C:  MOVWF  x16
4E5E:  MOVLB  0
4E60:  CALL   163E
....................             displayContrasena(Contrasena[2],60,30,0); 
4E64:  MOVFF  597,613
4E68:  MOVLW  3C
4E6A:  MOVLB  6
4E6C:  MOVWF  x14
4E6E:  MOVLW  1E
4E70:  MOVWF  x15
4E72:  CLRF   x16
4E74:  MOVLB  0
4E76:  CALL   163E
....................             displayContrasena(Contrasena[3],80,30,0); 
4E7A:  MOVFF  598,613
4E7E:  MOVLW  50
4E80:  MOVLB  6
4E82:  MOVWF  x14
4E84:  MOVLW  1E
4E86:  MOVWF  x15
4E88:  CLRF   x16
4E8A:  MOVLB  0
4E8C:  CALL   163E
....................          } 
....................          else 
4E90:  BRA    4F58
4E92:  MOVLB  5
....................          { 
....................             if(unidad==3) 
4E94:  MOVF   x6C,W
4E96:  SUBLW  03
4E98:  BNZ   4EF8
....................             { 
....................                displayContrasena(Contrasena[0],20,30,0); 
4E9A:  MOVFF  595,613
4E9E:  MOVLW  14
4EA0:  MOVLB  6
4EA2:  MOVWF  x14
4EA4:  MOVLW  1E
4EA6:  MOVWF  x15
4EA8:  CLRF   x16
4EAA:  MOVLB  0
4EAC:  CALL   163E
....................                displayContrasena(Contrasena[1],40,30,0); 
4EB0:  MOVFF  596,613
4EB4:  MOVLW  28
4EB6:  MOVLB  6
4EB8:  MOVWF  x14
4EBA:  MOVLW  1E
4EBC:  MOVWF  x15
4EBE:  CLRF   x16
4EC0:  MOVLB  0
4EC2:  CALL   163E
....................                displayContrasena(Contrasena[2],60,30,1); 
4EC6:  MOVFF  597,613
4ECA:  MOVLW  3C
4ECC:  MOVLB  6
4ECE:  MOVWF  x14
4ED0:  MOVLW  1E
4ED2:  MOVWF  x15
4ED4:  MOVLW  01
4ED6:  MOVWF  x16
4ED8:  MOVLB  0
4EDA:  CALL   163E
....................                displayContrasena(Contrasena[3],80,30,0); 
4EDE:  MOVFF  598,613
4EE2:  MOVLW  50
4EE4:  MOVLB  6
4EE6:  MOVWF  x14
4EE8:  MOVLW  1E
4EEA:  MOVWF  x15
4EEC:  CLRF   x16
4EEE:  MOVLB  0
4EF0:  CALL   163E
....................             } 
....................             else 
4EF4:  BRA    4F58
4EF6:  MOVLB  5
....................             { 
....................                if(unidad==4) 
4EF8:  MOVF   x6C,W
4EFA:  SUBLW  04
4EFC:  BNZ   4F5A
....................                { 
....................                   displayContrasena(Contrasena[0],20,30,0); 
4EFE:  MOVFF  595,613
4F02:  MOVLW  14
4F04:  MOVLB  6
4F06:  MOVWF  x14
4F08:  MOVLW  1E
4F0A:  MOVWF  x15
4F0C:  CLRF   x16
4F0E:  MOVLB  0
4F10:  CALL   163E
....................                   displayContrasena(Contrasena[1],40,30,0); 
4F14:  MOVFF  596,613
4F18:  MOVLW  28
4F1A:  MOVLB  6
4F1C:  MOVWF  x14
4F1E:  MOVLW  1E
4F20:  MOVWF  x15
4F22:  CLRF   x16
4F24:  MOVLB  0
4F26:  CALL   163E
....................                   displayContrasena(Contrasena[2],60,30,0); 
4F2A:  MOVFF  597,613
4F2E:  MOVLW  3C
4F30:  MOVLB  6
4F32:  MOVWF  x14
4F34:  MOVLW  1E
4F36:  MOVWF  x15
4F38:  CLRF   x16
4F3A:  MOVLB  0
4F3C:  CALL   163E
....................                   displayContrasena(Contrasena[3],80,30,1); 
4F40:  MOVFF  598,613
4F44:  MOVLW  50
4F46:  MOVLB  6
4F48:  MOVWF  x14
4F4A:  MOVLW  1E
4F4C:  MOVWF  x15
4F4E:  MOVLW  01
4F50:  MOVWF  x16
4F52:  MOVLB  0
4F54:  CALL   163E
4F58:  MOVLB  5
....................                } 
....................             } 
....................          } 
....................       } 
....................        
....................       if(UP)//Si oprime hacia arriba 
4F5A:  BSF    F92.5
4F5C:  BTFSS  F80.5
4F5E:  BRA    4FC8
....................       { 
....................          if(Flanco == 0) 
4F60:  BTFSC  x67.0
4F62:  BRA    4FC6
....................          { 
....................             Flanco = 1;delay_ms(30); 
4F64:  BSF    x67.0
4F66:  MOVLW  1E
4F68:  MOVLB  6
4F6A:  MOVWF  x17
4F6C:  MOVLB  0
4F6E:  CALL   0CD0
....................             for(i=1;i<=4;i++) 
4F72:  MOVLW  01
4F74:  MOVLB  5
4F76:  MOVWF  x6D
4F78:  MOVF   x6D,W
4F7A:  SUBLW  04
4F7C:  BNC   4FC6
....................             { 
....................                if(unidad==i) 
4F7E:  MOVF   x6D,W
4F80:  SUBWF  x6C,W
4F82:  BNZ   4FC2
....................                { 
....................                   Contrasena[i-1]++; 
4F84:  MOVLW  01
4F86:  SUBWF  x6D,W
4F88:  CLRF   03
4F8A:  ADDLW  95
4F8C:  MOVWF  FE9
4F8E:  MOVLW  05
4F90:  ADDWFC 03,W
4F92:  MOVWF  FEA
4F94:  INCF   FEF,F
....................                   if(Contrasena[i-1]>9)    
4F96:  MOVLW  01
4F98:  SUBWF  x6D,W
4F9A:  CLRF   03
4F9C:  ADDLW  95
4F9E:  MOVWF  FE9
4FA0:  MOVLW  05
4FA2:  ADDWFC 03,W
4FA4:  MOVWF  FEA
4FA6:  BTFSC  FEF.7
4FA8:  BRA    4FC2
4FAA:  MOVF   FEF,W
4FAC:  SUBLW  09
4FAE:  BC    4FC2
....................                   { 
....................                      Contrasena[i-1]=0; 
4FB0:  MOVLW  01
4FB2:  SUBWF  x6D,W
4FB4:  CLRF   03
4FB6:  ADDLW  95
4FB8:  MOVWF  FE9
4FBA:  MOVLW  05
4FBC:  ADDWFC 03,W
4FBE:  MOVWF  FEA
4FC0:  CLRF   FEF
....................                   } 
....................                } 
....................             } 
4FC2:  INCF   x6D,F
4FC4:  BRA    4F78
....................          } 
....................       } 
....................       else 
4FC6:  BRA    4FCA
....................       { 
....................          Flanco = 0; 
4FC8:  BCF    x67.0
....................       } 
....................              
....................       if(DOWN)//Si oprime hacia abajo 
4FCA:  BSF    F96.0
4FCC:  BTFSS  F84.0
4FCE:  BRA    5036
....................       { 
....................          if(Flanco2 == 0) 
4FD0:  BTFSC  x67.2
4FD2:  BRA    5034
....................             {Flanco2 = 1;delay_ms(30); 
4FD4:  BSF    x67.2
4FD6:  MOVLW  1E
4FD8:  MOVLB  6
4FDA:  MOVWF  x17
4FDC:  MOVLB  0
4FDE:  CALL   0CD0
....................                for(i=1;i<=4;i++) 
4FE2:  MOVLW  01
4FE4:  MOVLB  5
4FE6:  MOVWF  x6D
4FE8:  MOVF   x6D,W
4FEA:  SUBLW  04
4FEC:  BNC   5034
....................                { 
....................                   if(unidad==i) 
4FEE:  MOVF   x6D,W
4FF0:  SUBWF  x6C,W
4FF2:  BNZ   5030
....................                   {Contrasena[i-1]--;  
4FF4:  MOVLW  01
4FF6:  SUBWF  x6D,W
4FF8:  CLRF   03
4FFA:  ADDLW  95
4FFC:  MOVWF  FE9
4FFE:  MOVLW  05
5000:  ADDWFC 03,W
5002:  MOVWF  FEA
5004:  DECF   FEF,F
....................                      if(Contrasena[i-1]<0) 
5006:  MOVLW  01
5008:  SUBWF  x6D,W
500A:  CLRF   03
500C:  ADDLW  95
500E:  MOVWF  FE9
5010:  MOVLW  05
5012:  ADDWFC 03,W
5014:  MOVWF  FEA
5016:  BTFSC  FEF.7
5018:  BRA    501C
501A:  BRA    5030
....................                         {Contrasena[i-1]=9;} 
501C:  MOVLW  01
501E:  SUBWF  x6D,W
5020:  CLRF   03
5022:  ADDLW  95
5024:  MOVWF  FE9
5026:  MOVLW  05
5028:  ADDWFC 03,W
502A:  MOVWF  FEA
502C:  MOVLW  09
502E:  MOVWF  FEF
....................                   } 
....................                }       
5030:  INCF   x6D,F
5032:  BRA    4FE8
....................             }      
....................       } 
....................       else 
5034:  BRA    5038
....................       { 
....................          Flanco2 = 0; 
5036:  BCF    x67.2
....................       } 
....................              
....................       if(RIGHT)//Si oprime RIGHT 
5038:  BSF    F96.1
503A:  BTFSS  F84.1
503C:  BRA    5060
....................       { 
....................          if(Flanco1 == 0) 
503E:  BTFSC  x67.1
5040:  BRA    505E
....................             {Flanco1 = 1;delay_ms(300);unidad++;} 
5042:  BSF    x67.1
5044:  MOVLW  02
5046:  MOVLB  6
5048:  MOVWF  x11
504A:  MOVLW  96
504C:  MOVWF  x17
504E:  MOVLB  0
5050:  CALL   0CD0
5054:  MOVLB  6
5056:  DECFSZ x11,F
5058:  BRA    504A
505A:  MOVLB  5
505C:  INCF   x6C,F
....................       } 
....................       else 
505E:  BRA    5062
....................       { 
....................          Flanco1 = 0; 
5060:  BCF    x67.1
....................       } 
....................        
....................       if(LEFT)//Si oprime Izquierda 
5062:  BSF    F96.2
5064:  BTFSS  F84.2
5066:  BRA    5090
....................       { 
....................          delay_ms(700);Menu=1;glcd_fillscreen(OFF); 
5068:  MOVLW  04
506A:  MOVLB  6
506C:  MOVWF  x11
506E:  MOVLW  AF
5070:  MOVWF  x17
5072:  MOVLB  0
5074:  CALL   0CD0
5078:  MOVLB  6
507A:  DECFSZ x11,F
507C:  BRA    506E
507E:  MOVLW  01
5080:  MOVLB  5
5082:  MOVWF  x6B
5084:  MOVLB  6
5086:  CLRF   x12
5088:  MOVLB  0
508A:  CALL   0DEA
508E:  MOVLB  5
....................       } 
....................        
....................       if(unidad>4) 
5090:  MOVF   x6C,W
5092:  SUBLW  04
5094:  BTFSC  FD8.0
5096:  BRA    523C
....................       {glcd_fillScreen(OFF); 
5098:  MOVLB  6
509A:  CLRF   x12
509C:  MOVLB  0
509E:  CALL   0DEA
....................           
....................          if((Contrasena[0]==Password[0])&&(Contrasena[1]==Password[1])&&(Contrasena[2]==Password[2])&&(Contrasena[3]==Password[3])) 
50A2:  MOVLB  5
50A4:  MOVF   x99,W
50A6:  SUBWF  x95,W
50A8:  BNZ   517A
50AA:  MOVF   x9A,W
50AC:  SUBWF  x96,W
50AE:  BNZ   517A
50B0:  MOVF   x9B,W
50B2:  SUBWF  x97,W
50B4:  BNZ   517A
50B6:  MOVF   x9C,W
50B8:  SUBWF  x98,W
50BA:  BNZ   517A
....................          { 
....................             glcd_fillScreen(OFF); 
50BC:  MOVLB  6
50BE:  CLRF   x12
50C0:  MOVLB  0
50C2:  CALL   0DEA
....................             strcpy(Menus.Letra,"Clave"); 
50C6:  MOVLW  05
50C8:  MOVWF  FEA
50CA:  MOVLW  F1
50CC:  MOVWF  FE9
50CE:  MOVFF  FF2,611
50D2:  BCF    FF2.7
50D4:  MOVLW  00
50D6:  CALL   077E
50DA:  TBLRD*-
50DC:  TBLRD*+
50DE:  MOVF   FF5,W
50E0:  MOVWF  FEE
50E2:  IORLW  00
50E4:  BNZ   50DC
50E6:  MOVLB  6
50E8:  BTFSC  x11.7
50EA:  BSF    FF2.7
....................             displayMenu(Menus.Letra,30,0,0,2); 
50EC:  MOVLW  05
50EE:  MOVWF  x12
50F0:  MOVLW  F1
50F2:  MOVWF  x11
50F4:  MOVLW  1E
50F6:  MOVWF  x13
50F8:  CLRF   x14
50FA:  CLRF   x15
50FC:  MOVLW  02
50FE:  MOVWF  x16
5100:  MOVLB  0
5102:  CALL   1418
....................             strcpy(Menus.Letra,"Correcta"); 
5106:  MOVLW  05
5108:  MOVWF  FEA
510A:  MOVLW  F1
510C:  MOVWF  FE9
510E:  MOVFF  FF2,611
5112:  BCF    FF2.7
5114:  MOVLW  00
5116:  CALL   079E
511A:  TBLRD*-
511C:  TBLRD*+
511E:  MOVF   FF5,W
5120:  MOVWF  FEE
5122:  IORLW  00
5124:  BNZ   511C
5126:  MOVLB  6
5128:  BTFSC  x11.7
512A:  BSF    FF2.7
....................             displayMenu(Menus.Letra,15,30,0,2); 
512C:  MOVLW  05
512E:  MOVWF  x12
5130:  MOVLW  F1
5132:  MOVWF  x11
5134:  MOVLW  0F
5136:  MOVWF  x13
5138:  MOVLW  1E
513A:  MOVWF  x14
513C:  CLRF   x15
513E:  MOVLW  02
5140:  MOVWF  x16
5142:  MOVLB  0
5144:  CALL   1418
....................             Menu=91;glcd_update();delay_ms(1000); 
5148:  MOVLW  5B
514A:  MOVLB  5
514C:  MOVWF  x6B
514E:  MOVLB  0
5150:  CALL   0E44
5154:  MOVLW  04
5156:  MOVLB  6
5158:  MOVWF  x11
515A:  MOVLW  FA
515C:  MOVWF  x17
515E:  MOVLB  0
5160:  CALL   0CD0
5164:  MOVLB  6
5166:  DECFSZ x11,F
5168:  BRA    515A
....................             glcd_fillScreen(OFF);unidad=1; 
516A:  CLRF   x12
516C:  MOVLB  0
516E:  CALL   0DEA
5172:  MOVLW  01
5174:  MOVLB  5
5176:  MOVWF  x6C
....................          }// Esta parte se puede agregar en el Menu 1 dependiendo de la ubicacin del vidrio. 
....................          else 
5178:  BRA    523C
....................          { 
....................             glcd_fillScreen(OFF); 
517A:  MOVLB  6
517C:  CLRF   x12
517E:  MOVLB  0
5180:  CALL   0DEA
....................             strcpy(Menus.Letra,"Clave"); 
5184:  MOVLW  05
5186:  MOVWF  FEA
5188:  MOVLW  F1
518A:  MOVWF  FE9
518C:  MOVFF  FF2,611
5190:  BCF    FF2.7
5192:  MOVLW  00
5194:  CALL   077E
5198:  TBLRD*-
519A:  TBLRD*+
519C:  MOVF   FF5,W
519E:  MOVWF  FEE
51A0:  IORLW  00
51A2:  BNZ   519A
51A4:  MOVLB  6
51A6:  BTFSC  x11.7
51A8:  BSF    FF2.7
....................             displayMenu(Menus.Letra,30,0,0,2); 
51AA:  MOVLW  05
51AC:  MOVWF  x12
51AE:  MOVLW  F1
51B0:  MOVWF  x11
51B2:  MOVLW  1E
51B4:  MOVWF  x13
51B6:  CLRF   x14
51B8:  CLRF   x15
51BA:  MOVLW  02
51BC:  MOVWF  x16
51BE:  MOVLB  0
51C0:  CALL   1418
....................             strcpy(Menus.Letra,"Incorrecta"); 
51C4:  MOVLW  05
51C6:  MOVWF  FEA
51C8:  MOVLW  F1
51CA:  MOVWF  FE9
51CC:  MOVFF  FF2,611
51D0:  BCF    FF2.7
51D2:  MOVLW  00
51D4:  CALL   07C2
51D8:  TBLRD*-
51DA:  TBLRD*+
51DC:  MOVF   FF5,W
51DE:  MOVWF  FEE
51E0:  IORLW  00
51E2:  BNZ   51DA
51E4:  MOVLB  6
51E6:  BTFSC  x11.7
51E8:  BSF    FF2.7
....................             displayMenu(Menus.Letra,0,30,0,2); 
51EA:  MOVLW  05
51EC:  MOVWF  x12
51EE:  MOVLW  F1
51F0:  MOVWF  x11
51F2:  CLRF   x13
51F4:  MOVLW  1E
51F6:  MOVWF  x14
51F8:  CLRF   x15
51FA:  MOVLW  02
51FC:  MOVWF  x16
51FE:  MOVLB  0
5200:  CALL   1418
....................             Menu=1;glcd_update();delay_ms(1000); 
5204:  MOVLW  01
5206:  MOVLB  5
5208:  MOVWF  x6B
520A:  MOVLB  0
520C:  CALL   0E44
5210:  MOVLW  04
5212:  MOVLB  6
5214:  MOVWF  x11
5216:  MOVLW  FA
5218:  MOVWF  x17
521A:  MOVLB  0
521C:  CALL   0CD0
5220:  MOVLB  6
5222:  DECFSZ x11,F
5224:  BRA    5216
....................             glcd_fillScreen(OFF);unidad=1; 
5226:  CLRF   x12
5228:  MOVLB  0
522A:  CALL   0DEA
522E:  MOVLW  01
5230:  MOVLB  5
5232:  MOVWF  x6C
....................             Contrasena[0]=0;Contrasena[1]=0;Contrasena[2]=0;Contrasena[3]=0; 
5234:  CLRF   x95
5236:  CLRF   x96
5238:  CLRF   x97
523A:  CLRF   x98
....................          } 
....................       } 
....................     }     
.................... //_--------------------------------------------------------------------------------------------------------------------------------------------------------     
....................  
.................... //_--------------------------------------------------------------------------------------------------------------------------------------------------------       
....................       if(Menu==91){ // Menu de Cambio de Contrasea 
523C:  MOVF   x6B,W
523E:  SUBLW  5B
5240:  BTFSS  FD8.2
5242:  BRA    5648
....................          
....................       strcpy(Menus.Letra,"Clave Nueva"); 
5244:  MOVLW  05
5246:  MOVWF  FEA
5248:  MOVLW  F1
524A:  MOVWF  FE9
524C:  MOVFF  FF2,611
5250:  BCF    FF2.7
5252:  MOVLW  00
5254:  MOVLB  0
5256:  CALL   0964
525A:  TBLRD*-
525C:  TBLRD*+
525E:  MOVF   FF5,W
5260:  MOVWF  FEE
5262:  IORLW  00
5264:  BNZ   525C
5266:  MOVLB  6
5268:  BTFSC  x11.7
526A:  BSF    FF2.7
....................       displayMenu(Menus.Letra,0,0,1,2);      
526C:  MOVLW  05
526E:  MOVWF  x12
5270:  MOVLW  F1
5272:  MOVWF  x11
5274:  CLRF   x13
5276:  CLRF   x14
5278:  MOVLW  01
527A:  MOVWF  x15
527C:  MOVLW  02
527E:  MOVWF  x16
5280:  MOVLB  0
5282:  CALL   1418
....................        
....................       if(unidad==1) 
5286:  MOVLB  5
5288:  DECFSZ x6C,W
528A:  BRA    52EA
....................       { 
....................          displayContrasena(Password[0],20,30,1); 
528C:  MOVFF  599,613
5290:  MOVLW  14
5292:  MOVLB  6
5294:  MOVWF  x14
5296:  MOVLW  1E
5298:  MOVWF  x15
529A:  MOVLW  01
529C:  MOVWF  x16
529E:  MOVLB  0
52A0:  CALL   163E
....................          displayContrasena(Password[1],40,30,0); 
52A4:  MOVFF  59A,613
52A8:  MOVLW  28
52AA:  MOVLB  6
52AC:  MOVWF  x14
52AE:  MOVLW  1E
52B0:  MOVWF  x15
52B2:  CLRF   x16
52B4:  MOVLB  0
52B6:  CALL   163E
....................          displayContrasena(Password[2],60,30,0); 
52BA:  MOVFF  59B,613
52BE:  MOVLW  3C
52C0:  MOVLB  6
52C2:  MOVWF  x14
52C4:  MOVLW  1E
52C6:  MOVWF  x15
52C8:  CLRF   x16
52CA:  MOVLB  0
52CC:  CALL   163E
....................          displayContrasena(Password[3],80,30,0); 
52D0:  MOVFF  59C,613
52D4:  MOVLW  50
52D6:  MOVLB  6
52D8:  MOVWF  x14
52DA:  MOVLW  1E
52DC:  MOVWF  x15
52DE:  CLRF   x16
52E0:  MOVLB  0
52E2:  CALL   163E
....................       } 
....................       else 
52E6:  BRA    5412
52E8:  MOVLB  5
....................       { 
....................          if(unidad==2) 
52EA:  MOVF   x6C,W
52EC:  SUBLW  02
52EE:  BNZ   534E
....................          { 
....................             displayContrasena(Password[0],20,30,0); 
52F0:  MOVFF  599,613
52F4:  MOVLW  14
52F6:  MOVLB  6
52F8:  MOVWF  x14
52FA:  MOVLW  1E
52FC:  MOVWF  x15
52FE:  CLRF   x16
5300:  MOVLB  0
5302:  CALL   163E
....................             displayContrasena(Password[1],40,30,1); 
5306:  MOVFF  59A,613
530A:  MOVLW  28
530C:  MOVLB  6
530E:  MOVWF  x14
5310:  MOVLW  1E
5312:  MOVWF  x15
5314:  MOVLW  01
5316:  MOVWF  x16
5318:  MOVLB  0
531A:  CALL   163E
....................             displayContrasena(Password[2],60,30,0); 
531E:  MOVFF  59B,613
5322:  MOVLW  3C
5324:  MOVLB  6
5326:  MOVWF  x14
5328:  MOVLW  1E
532A:  MOVWF  x15
532C:  CLRF   x16
532E:  MOVLB  0
5330:  CALL   163E
....................             displayContrasena(Password[3],80,30,0); 
5334:  MOVFF  59C,613
5338:  MOVLW  50
533A:  MOVLB  6
533C:  MOVWF  x14
533E:  MOVLW  1E
5340:  MOVWF  x15
5342:  CLRF   x16
5344:  MOVLB  0
5346:  CALL   163E
....................          } 
....................          else 
534A:  BRA    5412
534C:  MOVLB  5
....................          { 
....................             if(unidad==3) 
534E:  MOVF   x6C,W
5350:  SUBLW  03
5352:  BNZ   53B2
....................             { 
....................                displayContrasena(Password[0],20,30,0); 
5354:  MOVFF  599,613
5358:  MOVLW  14
535A:  MOVLB  6
535C:  MOVWF  x14
535E:  MOVLW  1E
5360:  MOVWF  x15
5362:  CLRF   x16
5364:  MOVLB  0
5366:  CALL   163E
....................                displayContrasena(Password[1],40,30,0); 
536A:  MOVFF  59A,613
536E:  MOVLW  28
5370:  MOVLB  6
5372:  MOVWF  x14
5374:  MOVLW  1E
5376:  MOVWF  x15
5378:  CLRF   x16
537A:  MOVLB  0
537C:  CALL   163E
....................                displayContrasena(Password[2],60,30,1); 
5380:  MOVFF  59B,613
5384:  MOVLW  3C
5386:  MOVLB  6
5388:  MOVWF  x14
538A:  MOVLW  1E
538C:  MOVWF  x15
538E:  MOVLW  01
5390:  MOVWF  x16
5392:  MOVLB  0
5394:  CALL   163E
....................                displayContrasena(Password[3],80,30,0); 
5398:  MOVFF  59C,613
539C:  MOVLW  50
539E:  MOVLB  6
53A0:  MOVWF  x14
53A2:  MOVLW  1E
53A4:  MOVWF  x15
53A6:  CLRF   x16
53A8:  MOVLB  0
53AA:  CALL   163E
....................             } 
....................             else 
53AE:  BRA    5412
53B0:  MOVLB  5
....................             { 
....................                if(unidad==4) 
53B2:  MOVF   x6C,W
53B4:  SUBLW  04
53B6:  BNZ   5414
....................                { 
....................                   displayContrasena(Password[0],20,30,0); 
53B8:  MOVFF  599,613
53BC:  MOVLW  14
53BE:  MOVLB  6
53C0:  MOVWF  x14
53C2:  MOVLW  1E
53C4:  MOVWF  x15
53C6:  CLRF   x16
53C8:  MOVLB  0
53CA:  CALL   163E
....................                   displayContrasena(Password[1],40,30,0); 
53CE:  MOVFF  59A,613
53D2:  MOVLW  28
53D4:  MOVLB  6
53D6:  MOVWF  x14
53D8:  MOVLW  1E
53DA:  MOVWF  x15
53DC:  CLRF   x16
53DE:  MOVLB  0
53E0:  CALL   163E
....................                   displayContrasena(Password[2],60,30,0); 
53E4:  MOVFF  59B,613
53E8:  MOVLW  3C
53EA:  MOVLB  6
53EC:  MOVWF  x14
53EE:  MOVLW  1E
53F0:  MOVWF  x15
53F2:  CLRF   x16
53F4:  MOVLB  0
53F6:  CALL   163E
....................                   displayContrasena(Password[3],80,30,1); 
53FA:  MOVFF  59C,613
53FE:  MOVLW  50
5400:  MOVLB  6
5402:  MOVWF  x14
5404:  MOVLW  1E
5406:  MOVWF  x15
5408:  MOVLW  01
540A:  MOVWF  x16
540C:  MOVLB  0
540E:  CALL   163E
5412:  MOVLB  5
....................                } 
....................             } 
....................          } 
....................       } 
....................        
....................       if(UP)//Si oprime hacia arriba 
5414:  BSF    F92.5
5416:  BTFSS  F80.5
5418:  BRA    5482
....................       { 
....................          if(Flanco == 0) 
541A:  BTFSC  x67.0
541C:  BRA    5480
....................          { 
....................             Flanco = 1;delay_ms(30); 
541E:  BSF    x67.0
5420:  MOVLW  1E
5422:  MOVLB  6
5424:  MOVWF  x17
5426:  MOVLB  0
5428:  CALL   0CD0
....................             for(i=1;i<=4;i++) 
542C:  MOVLW  01
542E:  MOVLB  5
5430:  MOVWF  x6D
5432:  MOVF   x6D,W
5434:  SUBLW  04
5436:  BNC   5480
....................             { 
....................                if(unidad==i) 
5438:  MOVF   x6D,W
543A:  SUBWF  x6C,W
543C:  BNZ   547C
....................                { 
....................                   Password[i-1]++; 
543E:  MOVLW  01
5440:  SUBWF  x6D,W
5442:  CLRF   03
5444:  ADDLW  99
5446:  MOVWF  FE9
5448:  MOVLW  05
544A:  ADDWFC 03,W
544C:  MOVWF  FEA
544E:  INCF   FEF,F
....................                   if(Password[i-1]>9)    
5450:  MOVLW  01
5452:  SUBWF  x6D,W
5454:  CLRF   03
5456:  ADDLW  99
5458:  MOVWF  FE9
545A:  MOVLW  05
545C:  ADDWFC 03,W
545E:  MOVWF  FEA
5460:  BTFSC  FEF.7
5462:  BRA    547C
5464:  MOVF   FEF,W
5466:  SUBLW  09
5468:  BC    547C
....................                   { 
....................                      Password[i-1]=0; 
546A:  MOVLW  01
546C:  SUBWF  x6D,W
546E:  CLRF   03
5470:  ADDLW  99
5472:  MOVWF  FE9
5474:  MOVLW  05
5476:  ADDWFC 03,W
5478:  MOVWF  FEA
547A:  CLRF   FEF
....................                   } 
....................                } 
....................             } 
547C:  INCF   x6D,F
547E:  BRA    5432
....................          } 
....................       } 
....................       else 
5480:  BRA    5484
....................       { 
....................          Flanco = 0; 
5482:  BCF    x67.0
....................       } 
....................              
....................       if(DOWN)//Si oprime hacia abajo 
5484:  BSF    F96.0
5486:  BTFSS  F84.0
5488:  BRA    54F0
....................       { 
....................          if(Flanco2 == 0) 
548A:  BTFSC  x67.2
548C:  BRA    54EE
....................             {Flanco2 = 1;delay_ms(30); 
548E:  BSF    x67.2
5490:  MOVLW  1E
5492:  MOVLB  6
5494:  MOVWF  x17
5496:  MOVLB  0
5498:  CALL   0CD0
....................                for(i=1;i<=4;i++) 
549C:  MOVLW  01
549E:  MOVLB  5
54A0:  MOVWF  x6D
54A2:  MOVF   x6D,W
54A4:  SUBLW  04
54A6:  BNC   54EE
....................                { 
....................                   if(unidad==i) 
54A8:  MOVF   x6D,W
54AA:  SUBWF  x6C,W
54AC:  BNZ   54EA
....................                   { 
....................                      Password[i-1]--; 
54AE:  MOVLW  01
54B0:  SUBWF  x6D,W
54B2:  CLRF   03
54B4:  ADDLW  99
54B6:  MOVWF  FE9
54B8:  MOVLW  05
54BA:  ADDWFC 03,W
54BC:  MOVWF  FEA
54BE:  DECF   FEF,F
....................                      if(Password[i-1]<0) 
54C0:  MOVLW  01
54C2:  SUBWF  x6D,W
54C4:  CLRF   03
54C6:  ADDLW  99
54C8:  MOVWF  FE9
54CA:  MOVLW  05
54CC:  ADDWFC 03,W
54CE:  MOVWF  FEA
54D0:  BTFSC  FEF.7
54D2:  BRA    54D6
54D4:  BRA    54EA
....................                      { 
....................                         Password[i-1]=9; 
54D6:  MOVLW  01
54D8:  SUBWF  x6D,W
54DA:  CLRF   03
54DC:  ADDLW  99
54DE:  MOVWF  FE9
54E0:  MOVLW  05
54E2:  ADDWFC 03,W
54E4:  MOVWF  FEA
54E6:  MOVLW  09
54E8:  MOVWF  FEF
....................                      } 
....................                   } 
....................                }       
54EA:  INCF   x6D,F
54EC:  BRA    54A2
....................             }      
....................       } 
....................       else 
54EE:  BRA    54F2
....................       { 
....................          Flanco2 = 0; 
54F0:  BCF    x67.2
....................       } 
....................              
....................       if(RIGHT)//Si oprime RIGHT 
54F2:  BSF    F96.1
54F4:  BTFSS  F84.1
54F6:  BRA    551A
....................       { 
....................          if(Flanco1 == 0) 
54F8:  BTFSC  x67.1
54FA:  BRA    5518
....................             {Flanco1 = 1;delay_ms(300);unidad++;} 
54FC:  BSF    x67.1
54FE:  MOVLW  02
5500:  MOVLB  6
5502:  MOVWF  x11
5504:  MOVLW  96
5506:  MOVWF  x17
5508:  MOVLB  0
550A:  CALL   0CD0
550E:  MOVLB  6
5510:  DECFSZ x11,F
5512:  BRA    5504
5514:  MOVLB  5
5516:  INCF   x6C,F
....................       } 
....................       else 
5518:  BRA    551C
....................       { 
....................          Flanco1 = 0; 
551A:  BCF    x67.1
....................       } 
....................        
....................       if(LEFT)//Si oprime Izquierda 
551C:  BSF    F96.2
551E:  BTFSS  F84.2
5520:  BRA    554A
....................       { 
....................          delay_ms(700);Menu=1;glcd_fillscreen(OFF); 
5522:  MOVLW  04
5524:  MOVLB  6
5526:  MOVWF  x11
5528:  MOVLW  AF
552A:  MOVWF  x17
552C:  MOVLB  0
552E:  CALL   0CD0
5532:  MOVLB  6
5534:  DECFSZ x11,F
5536:  BRA    5528
5538:  MOVLW  01
553A:  MOVLB  5
553C:  MOVWF  x6B
553E:  MOVLB  6
5540:  CLRF   x12
5542:  MOVLB  0
5544:  CALL   0DEA
5548:  MOVLB  5
....................       } 
....................        
....................       if(unidad>4) 
554A:  MOVF   x6C,W
554C:  SUBLW  04
554E:  BTFSC  FD8.0
5550:  BRA    5648
....................       { 
....................          Opcion=1;unidad=1; 
5552:  MOVLW  01
5554:  MOVWF  x70
5556:  MOVWF  x6C
....................          write_eeprom(10,Password[0]); 
5558:  MOVLW  0A
555A:  MOVWF  FA9
555C:  MOVFF  599,FA8
5560:  BCF    FA6.6
5562:  BCF    FA6.7
5564:  BSF    FA6.2
5566:  MOVF   FF2,W
5568:  MOVWF  00
556A:  BCF    FF2.7
556C:  MOVLB  F
556E:  MOVLW  55
5570:  MOVWF  FA7
5572:  MOVLW  AA
5574:  MOVWF  FA7
5576:  BSF    FA6.1
5578:  BTFSC  FA6.1
557A:  BRA    5578
557C:  BCF    FA6.2
557E:  MOVF   00,W
5580:  IORWF  FF2,F
....................          delay_ms(50);    
5582:  MOVLW  32
5584:  MOVLB  6
5586:  MOVWF  x17
5588:  MOVLB  0
558A:  CALL   0CD0
....................          write_eeprom(11,Password[1]); 
558E:  MOVLW  0B
5590:  MOVWF  FA9
5592:  MOVFF  59A,FA8
5596:  BCF    FA6.6
5598:  BCF    FA6.7
559A:  BSF    FA6.2
559C:  MOVF   FF2,W
559E:  MOVWF  00
55A0:  BCF    FF2.7
55A2:  MOVLB  F
55A4:  MOVLW  55
55A6:  MOVWF  FA7
55A8:  MOVLW  AA
55AA:  MOVWF  FA7
55AC:  BSF    FA6.1
55AE:  BTFSC  FA6.1
55B0:  BRA    55AE
55B2:  BCF    FA6.2
55B4:  MOVF   00,W
55B6:  IORWF  FF2,F
....................          delay_ms(50);    
55B8:  MOVLW  32
55BA:  MOVLB  6
55BC:  MOVWF  x17
55BE:  MOVLB  0
55C0:  CALL   0CD0
....................          write_eeprom(12,Password[2]); 
55C4:  MOVLW  0C
55C6:  MOVWF  FA9
55C8:  MOVFF  59B,FA8
55CC:  BCF    FA6.6
55CE:  BCF    FA6.7
55D0:  BSF    FA6.2
55D2:  MOVF   FF2,W
55D4:  MOVWF  00
55D6:  BCF    FF2.7
55D8:  MOVLB  F
55DA:  MOVLW  55
55DC:  MOVWF  FA7
55DE:  MOVLW  AA
55E0:  MOVWF  FA7
55E2:  BSF    FA6.1
55E4:  BTFSC  FA6.1
55E6:  BRA    55E4
55E8:  BCF    FA6.2
55EA:  MOVF   00,W
55EC:  IORWF  FF2,F
....................          delay_ms(50);    
55EE:  MOVLW  32
55F0:  MOVLB  6
55F2:  MOVWF  x17
55F4:  MOVLB  0
55F6:  CALL   0CD0
....................          write_eeprom(13,Password[3]); 
55FA:  MOVLW  0D
55FC:  MOVWF  FA9
55FE:  MOVFF  59C,FA8
5602:  BCF    FA6.6
5604:  BCF    FA6.7
5606:  BSF    FA6.2
5608:  MOVF   FF2,W
560A:  MOVWF  00
560C:  BCF    FF2.7
560E:  MOVLB  F
5610:  MOVLW  55
5612:  MOVWF  FA7
5614:  MOVLW  AA
5616:  MOVWF  FA7
5618:  BSF    FA6.1
561A:  BTFSC  FA6.1
561C:  BRA    561A
561E:  BCF    FA6.2
5620:  MOVF   00,W
5622:  IORWF  FF2,F
....................          delay_ms(1000);glcd_fillScreen(OFF);Menu=1; 
5624:  MOVLW  04
5626:  MOVLB  6
5628:  MOVWF  x11
562A:  MOVLW  FA
562C:  MOVWF  x17
562E:  MOVLB  0
5630:  CALL   0CD0
5634:  MOVLB  6
5636:  DECFSZ x11,F
5638:  BRA    562A
563A:  CLRF   x12
563C:  MOVLB  0
563E:  CALL   0DEA
5642:  MOVLW  01
5644:  MOVLB  5
5646:  MOVWF  x6B
....................       } 
....................     }     
.................... //_--------------------------------------------------------------------------------------------------------------------------------------------------------     
....................  
....................  
....................  
.................... //_-------------------------------------------------------------------------------------------------------------------------------------------------------- 
....................       if(Menu==20){ //Menu de Funcionamiento 
5648:  MOVF   x6B,W
564A:  SUBLW  14
564C:  BTFSS  FD8.2
564E:  GOTO   5FCA
....................        
....................       // Muestra imagen de fondo en Display GLCD 
....................       glcd_imagen(5); 
5652:  MOVLW  05
5654:  MOVLB  6
5656:  MOVWF  x11
5658:  MOVLB  0
565A:  GOTO   271C
....................        
....................        
....................       if(!DOOR && !TERM) 
565E:  BSF    F92.4
5660:  BTFSC  F80.4
5662:  BRA    5844
5664:  BSF    F92.3
5666:  BTFSC  F80.3
5668:  BRA    5844
....................       { 
....................             if(Temperatura>=Setpoint) 
566A:  MOVFF  580,618
566E:  MOVFF  57F,617
5672:  CALL   0CFA
5676:  MOVFF  03,614
567A:  MOVFF  02,613
567E:  MOVFF  01,612
5682:  MOVFF  00,611
5686:  MOVFF  5D4,618
568A:  MOVFF  5D3,617
568E:  MOVFF  5D2,616
5692:  MOVFF  5D1,615
5696:  CALL   0D30
569A:  BC    569E
569C:  BNZ   56A4
....................             { 
....................                flag_setpoint=1; 
569E:  MOVLB  5
56A0:  BSF    x68.4
56A2:  MOVLB  0
....................             } 
....................             if(Temperatura<Setpoint-1.2) 
56A4:  MOVFF  580,618
56A8:  MOVFF  57F,617
56AC:  CALL   0CFA
56B0:  BSF    FD8.1
56B2:  MOVFF  03,619
56B6:  MOVFF  02,618
56BA:  MOVFF  01,617
56BE:  MOVFF  00,616
56C2:  MOVLW  9A
56C4:  MOVLB  6
56C6:  MOVWF  x1D
56C8:  MOVLW  99
56CA:  MOVWF  x1C
56CC:  MOVLW  19
56CE:  MOVWF  x1B
56D0:  MOVLW  7F
56D2:  MOVWF  x1A
56D4:  MOVLB  0
56D6:  CALL   18AC
56DA:  MOVFF  5D4,614
56DE:  MOVFF  5D3,613
56E2:  MOVFF  5D2,612
56E6:  MOVFF  5D1,611
56EA:  MOVFF  03,618
56EE:  MOVFF  02,617
56F2:  MOVFF  01,616
56F6:  MOVFF  00,615
56FA:  CALL   0D30
56FE:  BNC   5706
....................             { 
....................                flag_setpoint=0; 
5700:  MOVLB  5
5702:  BCF    x68.4
5704:  MOVLB  0
....................             } 
....................             if(Temperatura>=Setpoint-1.0) 
5706:  MOVFF  580,618
570A:  MOVFF  57F,617
570E:  CALL   0CFA
5712:  BSF    FD8.1
5714:  MOVFF  03,619
5718:  MOVFF  02,618
571C:  MOVFF  01,617
5720:  MOVFF  00,616
5724:  MOVLB  6
5726:  CLRF   x1D
5728:  CLRF   x1C
572A:  CLRF   x1B
572C:  MOVLW  7F
572E:  MOVWF  x1A
5730:  MOVLB  0
5732:  CALL   18AC
5736:  MOVFF  03,614
573A:  MOVFF  02,613
573E:  MOVFF  01,612
5742:  MOVFF  00,611
5746:  MOVFF  5D4,618
574A:  MOVFF  5D3,617
574E:  MOVFF  5D2,616
5752:  MOVFF  5D1,615
5756:  CALL   0D30
575A:  BC    575E
575C:  BNZ   57D0
....................             { 
....................                glcd_rect(0, 55, 127, 63, YES, OFF); 
575E:  MOVLB  6
5760:  CLRF   x24
5762:  MOVLW  37
5764:  MOVWF  x25
5766:  MOVLW  7F
5768:  MOVWF  x26
576A:  MOVLW  3F
576C:  MOVWF  x27
576E:  MOVLW  01
5770:  MOVWF  x28
5772:  CLRF   x29
5774:  MOVLB  0
5776:  CALL   1356
....................                strcpy(Menus.Letra,"Status:Controlando"); 
577A:  MOVLW  05
577C:  MOVWF  FEA
577E:  MOVLW  F1
5780:  MOVWF  FE9
5782:  MOVFF  FF2,611
5786:  BCF    FF2.7
5788:  MOVLW  00
578A:  CALL   098A
578E:  TBLRD*-
5790:  TBLRD*+
5792:  MOVF   FF5,W
5794:  MOVWF  FEE
5796:  IORLW  00
5798:  BNZ   5790
579A:  MOVLB  6
579C:  BTFSC  x11.7
579E:  BSF    FF2.7
....................                displayMenu(Menus.Letra,0,55,2,1); 
57A0:  MOVLW  05
57A2:  MOVWF  x12
57A4:  MOVLW  F1
57A6:  MOVWF  x11
57A8:  CLRF   x13
57AA:  MOVLW  37
57AC:  MOVWF  x14
57AE:  MOVLW  02
57B0:  MOVWF  x15
57B2:  MOVLW  01
57B4:  MOVWF  x16
57B6:  MOVLB  0
57B8:  CALL   1418
....................                tiempo_esterilizacion=1; 
57BC:  MOVLW  01
57BE:  MOVLB  5
57C0:  MOVWF  x71
....................                Controla(); 
57C2:  MOVLB  0
57C4:  CALL   2878
....................                flag_tiempocalentamiento=0; 
57C8:  MOVLB  5
57CA:  BCF    x68.2
....................             } 
....................             else 
57CC:  BRA    583E
57CE:  MOVLB  0
....................             { 
....................                flag_tiempocalentamiento=1; 
57D0:  MOVLB  5
57D2:  BSF    x68.2
....................                glcd_rect(0, 55, 127, 63, YES, OFF); 
57D4:  MOVLB  6
57D6:  CLRF   x24
57D8:  MOVLW  37
57DA:  MOVWF  x25
57DC:  MOVLW  7F
57DE:  MOVWF  x26
57E0:  MOVLW  3F
57E2:  MOVWF  x27
57E4:  MOVLW  01
57E6:  MOVWF  x28
57E8:  CLRF   x29
57EA:  MOVLB  0
57EC:  CALL   1356
....................                strcpy(Menus.Letra,"Status:Calentando"); 
57F0:  MOVLW  05
57F2:  MOVWF  FEA
57F4:  MOVLW  F1
57F6:  MOVWF  FE9
57F8:  MOVFF  FF2,611
57FC:  BCF    FF2.7
57FE:  MOVLW  00
5800:  CALL   09B8
5804:  TBLRD*-
5806:  TBLRD*+
5808:  MOVF   FF5,W
580A:  MOVWF  FEE
580C:  IORLW  00
580E:  BNZ   5806
5810:  MOVLB  6
5812:  BTFSC  x11.7
5814:  BSF    FF2.7
....................                displayMenu(Menus.Letra,0,55,2,1); 
5816:  MOVLW  05
5818:  MOVWF  x12
581A:  MOVLW  F1
581C:  MOVWF  x11
581E:  CLRF   x13
5820:  MOVLW  37
5822:  MOVWF  x14
5824:  MOVLW  02
5826:  MOVWF  x15
5828:  MOVLW  01
582A:  MOVWF  x16
582C:  MOVLB  0
582E:  CALL   1418
....................                tiempo_esterilizacion=0; 
5832:  MOVLB  5
5834:  CLRF   x71
....................                Controla(); 
5836:  MOVLB  0
5838:  CALL   2878
583C:  MOVLB  5
....................             } 
....................             Vent_on; 
583E:  BSF    F8B.1
5840:  BCF    F94.1
5842:  MOVLB  0
....................       } 
....................              
....................       if(DOOR) 
5844:  BSF    F92.4
5846:  BTFSS  F80.4
5848:  BRA    58E0
....................       { 
....................          flag_tiempocalentamiento=0; 
584A:  MOVLB  5
584C:  BCF    x68.2
....................          Control=0; 
584E:  CLRF   x66
....................          if(flag_clear2==0) 
5850:  BTFSC  x68.0
5852:  BRA    5882
....................          { 
....................             Ganancia=2; 
5854:  CLRF   xC4
5856:  CLRF   xC3
5858:  CLRF   xC2
585A:  MOVLW  80
585C:  MOVWF  xC1
....................             glcd_rect(0, 55, 127, 63, YES, OFF); 
585E:  MOVLB  6
5860:  CLRF   x24
5862:  MOVLW  37
5864:  MOVWF  x25
5866:  MOVLW  7F
5868:  MOVWF  x26
586A:  MOVLW  3F
586C:  MOVWF  x27
586E:  MOVLW  01
5870:  MOVWF  x28
5872:  CLRF   x29
5874:  MOVLB  0
5876:  CALL   1356
....................             tiempo_esterilizacion=0; 
587A:  MOVLB  5
587C:  CLRF   x71
....................             flag_clear2=1; 
587E:  BSF    x68.0
....................             flag_ganancia=0; 
5880:  CLRF   x64
....................          } 
....................          strcpy(Menus.Letra,"Status:Puerta Abierta"); 
5882:  MOVLW  05
5884:  MOVWF  FEA
5886:  MOVLW  F1
5888:  MOVWF  FE9
588A:  MOVFF  FF2,611
588E:  BCF    FF2.7
5890:  MOVLW  00
5892:  MOVLB  0
5894:  CALL   09E4
5898:  TBLRD*-
589A:  TBLRD*+
589C:  MOVF   FF5,W
589E:  MOVWF  FEE
58A0:  IORLW  00
58A2:  BNZ   589A
58A4:  MOVLB  6
58A6:  BTFSC  x11.7
58A8:  BSF    FF2.7
....................          displayMenu(Menus.Letra,0,55,2,1); 
58AA:  MOVLW  05
58AC:  MOVWF  x12
58AE:  MOVLW  F1
58B0:  MOVWF  x11
58B2:  CLRF   x13
58B4:  MOVLW  37
58B6:  MOVWF  x14
58B8:  MOVLW  02
58BA:  MOVWF  x15
58BC:  MOVLW  01
58BE:  MOVWF  x16
58C0:  MOVLB  0
58C2:  CALL   1418
....................          Vent_off; 
58C6:  BCF    F8B.1
58C8:  BCF    F94.1
....................          Resistencia_off; 
58CA:  BCF    F8B.0
58CC:  BCF    F94.0
....................          Peltier_off; 
58CE:  BCF    F8B.2
58D0:  BCF    F94.2
....................          Tpulso=0.0; 
58D2:  MOVLB  5
58D4:  CLRF   xB0
58D6:  CLRF   xAF
58D8:  CLRF   xAE
58DA:  CLRF   xAD
....................       } 
....................       else 
58DC:  BRA    5906
58DE:  MOVLB  0
....................       { 
....................          if(flag_clear2==1) 
58E0:  MOVLB  5
58E2:  BTFSS  x68.0
58E4:  BRA    5906
....................          { 
....................             glcd_rect(0, 55, 127, 63, YES, OFF); 
58E6:  MOVLB  6
58E8:  CLRF   x24
58EA:  MOVLW  37
58EC:  MOVWF  x25
58EE:  MOVLW  7F
58F0:  MOVWF  x26
58F2:  MOVLW  3F
58F4:  MOVWF  x27
58F6:  MOVLW  01
58F8:  MOVWF  x28
58FA:  CLRF   x29
58FC:  MOVLB  0
58FE:  CALL   1356
....................             flag_clear2=0; 
5902:  MOVLB  5
5904:  BCF    x68.0
....................          } 
....................       } 
....................        
....................       if(TERM) 
5906:  BSF    F92.3
5908:  BTFSS  F80.3
590A:  BRA    59C2
....................       { 
....................          flag_tiempocalentamiento=0; 
590C:  BCF    x68.2
....................          Control=0; 
590E:  CLRF   x66
....................          if(flag_clear3==0) 
5910:  BTFSC  x68.1
5912:  BRA    5948
....................          { 
....................             glcd_rect(0, 55, 127, 63, YES, OFF); 
5914:  MOVLB  6
5916:  CLRF   x24
5918:  MOVLW  37
591A:  MOVWF  x25
591C:  MOVLW  7F
591E:  MOVWF  x26
5920:  MOVLW  3F
5922:  MOVWF  x27
5924:  MOVLW  01
5926:  MOVWF  x28
5928:  CLRF   x29
592A:  MOVLB  0
592C:  CALL   1356
....................             tiempo_esterilizacion=0; 
5930:  MOVLB  5
5932:  CLRF   x71
....................             Resistencia_off; 
5934:  BCF    F8B.0
5936:  BCF    F94.0
....................             Peltier_off; 
5938:  BCF    F8B.2
593A:  BCF    F94.2
....................              
....................             Tpulso=0.0; 
593C:  CLRF   xB0
593E:  CLRF   xAF
5940:  CLRF   xAE
5942:  CLRF   xAD
....................             flag_clear3=1; 
5944:  BSF    x68.1
....................             flag_ganancia=0; 
5946:  CLRF   x64
....................          } 
....................          strcpy(Menus.Letra,"Status:Alarma 01"); 
5948:  MOVLW  05
594A:  MOVWF  FEA
594C:  MOVLW  F1
594E:  MOVWF  FE9
5950:  MOVFF  FF2,611
5954:  BCF    FF2.7
5956:  MOVLW  00
5958:  MOVLB  0
595A:  CALL   0A14
595E:  TBLRD*-
5960:  TBLRD*+
5962:  MOVF   FF5,W
5964:  MOVWF  FEE
5966:  IORLW  00
5968:  BNZ   5960
596A:  MOVLB  6
596C:  BTFSC  x11.7
596E:  BSF    FF2.7
....................          displayMenu(Menus.Letra,0,55,2,1); 
5970:  MOVLW  05
5972:  MOVWF  x12
5974:  MOVLW  F1
5976:  MOVWF  x11
5978:  CLRF   x13
597A:  MOVLW  37
597C:  MOVWF  x14
597E:  MOVLW  02
5980:  MOVWF  x15
5982:  MOVLW  01
5984:  MOVWF  x16
5986:  MOVLB  0
5988:  CALL   1418
....................           
....................          Buzzer_on; 
598C:  BSF    F8B.6
598E:  BCF    F94.6
....................          delay_ms(1000); 
5990:  MOVLW  04
5992:  MOVLB  6
5994:  MOVWF  x11
5996:  MOVLW  FA
5998:  MOVWF  x17
599A:  MOVLB  0
599C:  CALL   0CD0
59A0:  MOVLB  6
59A2:  DECFSZ x11,F
59A4:  BRA    5996
....................          Buzzer_off; 
59A6:  BCF    F8B.6
59A8:  BCF    F94.6
....................          delay_ms(1000); 
59AA:  MOVLW  04
59AC:  MOVWF  x11
59AE:  MOVLW  FA
59B0:  MOVWF  x17
59B2:  MOVLB  0
59B4:  CALL   0CD0
59B8:  MOVLB  6
59BA:  DECFSZ x11,F
59BC:  BRA    59AE
....................       } 
....................       else 
59BE:  BRA    59E8
59C0:  MOVLB  5
....................       { 
....................          if(flag_clear3==1) 
59C2:  BTFSS  x68.1
59C4:  BRA    59E6
....................          { 
....................             glcd_rect(0, 55, 127, 63, YES, OFF); 
59C6:  MOVLB  6
59C8:  CLRF   x24
59CA:  MOVLW  37
59CC:  MOVWF  x25
59CE:  MOVLW  7F
59D0:  MOVWF  x26
59D2:  MOVLW  3F
59D4:  MOVWF  x27
59D6:  MOVLW  01
59D8:  MOVWF  x28
59DA:  CLRF   x29
59DC:  MOVLB  0
59DE:  CALL   1356
....................             flag_clear3=0; 
59E2:  MOVLB  5
59E4:  BCF    x68.1
59E6:  MOVLB  6
....................          } 
....................       }   
....................                   
....................       if(RIGHT)//Si oprime SET 
59E8:  BSF    F96.1
59EA:  BTFSS  F84.1
59EC:  BRA    59FC
....................       {   
....................          glcd_init(ON);flag_display=!flag_display; 
59EE:  MOVLW  01
59F0:  MOVWF  x11
59F2:  MOVLB  0
59F4:  CALL   0EFC
59F8:  MOVLB  5
59FA:  BTG    x68.3
....................       }  
....................          
....................       if(Lectura==1)// Utilizado para visualizar la lectura de la temperatura 
59FC:  MOVLB  5
59FE:  BTFSS  x67.4
5A00:  BRA    5E8C
....................       {                  
....................          Lectura=0; 
5A02:  BCF    x67.4
....................          Potencia=(100.0/Tciclo)*Tpulso; 
5A04:  MOVLB  6
5A06:  CLRF   x18
5A08:  CLRF   x17
5A0A:  MOVLW  48
5A0C:  MOVWF  x16
5A0E:  MOVLW  85
5A10:  MOVWF  x15
5A12:  MOVFF  5AC,61C
5A16:  MOVFF  5AB,61B
5A1A:  MOVFF  5AA,61A
5A1E:  MOVFF  5A9,619
5A22:  MOVLB  0
5A24:  CALL   174E
5A28:  MOVFF  00,611
5A2C:  MOVFF  01,612
5A30:  MOVFF  02,613
5A34:  MOVFF  03,614
5A38:  MOVFF  03,631
5A3C:  MOVFF  02,630
5A40:  MOVFF  01,62F
5A44:  MOVFF  00,62E
5A48:  MOVFF  5B0,635
5A4C:  MOVFF  5AF,634
5A50:  MOVFF  5AE,633
5A54:  MOVFF  5AD,632
5A58:  CALL   1B46
5A5C:  MOVFF  03,588
5A60:  MOVFF  02,587
5A64:  MOVFF  01,586
5A68:  MOVFF  00,585
....................          Temperatura=Leer_Sensor(MediaMovil); 
5A6C:  MOVFF  562,611
5A70:  CALL   1C3C
5A74:  MOVFF  03,5D4
5A78:  MOVFF  02,5D3
5A7C:  MOVFF  01,5D2
5A80:  MOVFF  00,5D1
....................          displayT(Temperatura,15,29,2); 
5A84:  MOVFF  5D4,614
5A88:  MOVFF  5D3,613
5A8C:  MOVFF  5D2,612
5A90:  MOVFF  5D1,611
5A94:  MOVLW  0F
5A96:  MOVLB  6
5A98:  MOVWF  x15
5A9A:  MOVLW  1D
5A9C:  MOVWF  x16
5A9E:  MOVLW  02
5AA0:  MOVWF  x17
5AA2:  MOVLB  0
5AA4:  CALL   3106
....................          glcd_circle(74,30,2,NO,ON); 
5AA8:  MOVLW  4A
5AAA:  MOVLB  6
5AAC:  MOVWF  x11
5AAE:  MOVLW  1E
5AB0:  MOVWF  x12
5AB2:  MOVLW  02
5AB4:  MOVWF  x13
5AB6:  CLRF   x14
5AB8:  MOVLW  01
5ABA:  MOVWF  x15
5ABC:  MOVLB  0
5ABE:  CALL   2030
....................          strcpy(Menus.Letra,"C");displayMenu(Menus.Letra,75,30,2,2); 
5AC2:  MOVLW  05
5AC4:  MOVWF  FEA
5AC6:  MOVLW  F1
5AC8:  MOVWF  FE9
5ACA:  MOVFF  FF2,611
5ACE:  BCF    FF2.7
5AD0:  MOVLW  00
5AD2:  CALL   0908
5AD6:  TBLRD*-
5AD8:  TBLRD*+
5ADA:  MOVF   FF5,W
5ADC:  MOVWF  FEE
5ADE:  IORLW  00
5AE0:  BNZ   5AD8
5AE2:  MOVLB  6
5AE4:  BTFSC  x11.7
5AE6:  BSF    FF2.7
5AE8:  MOVLW  05
5AEA:  MOVWF  x12
5AEC:  MOVLW  F1
5AEE:  MOVWF  x11
5AF0:  MOVLW  4B
5AF2:  MOVWF  x13
5AF4:  MOVLW  1E
5AF6:  MOVWF  x14
5AF8:  MOVLW  02
5AFA:  MOVWF  x15
5AFC:  MOVWF  x16
5AFE:  MOVLB  0
5B00:  CALL   1418
....................           
....................          displayTemperatura(Setpoint,30,45,0,1); 
5B04:  MOVFF  580,614
5B08:  MOVFF  57F,613
5B0C:  MOVLW  1E
5B0E:  MOVLB  6
5B10:  MOVWF  x15
5B12:  MOVLW  2D
5B14:  MOVWF  x16
5B16:  CLRF   x17
5B18:  MOVLW  01
5B1A:  MOVWF  x18
5B1C:  MOVLB  0
5B1E:  CALL   2318
....................          glcd_circle(50,47,1,NO,ON); 
5B22:  MOVLW  32
5B24:  MOVLB  6
5B26:  MOVWF  x11
5B28:  MOVLW  2F
5B2A:  MOVWF  x12
5B2C:  MOVLW  01
5B2E:  MOVWF  x13
5B30:  CLRF   x14
5B32:  MOVWF  x15
5B34:  MOVLB  0
5B36:  CALL   2030
....................          strcpy(Menus.Letra,"C");displayMenu(Menus.Letra,53,45,2,1); 
5B3A:  MOVLW  05
5B3C:  MOVWF  FEA
5B3E:  MOVLW  F1
5B40:  MOVWF  FE9
5B42:  MOVFF  FF2,611
5B46:  BCF    FF2.7
5B48:  MOVLW  00
5B4A:  CALL   0908
5B4E:  TBLRD*-
5B50:  TBLRD*+
5B52:  MOVF   FF5,W
5B54:  MOVWF  FEE
5B56:  IORLW  00
5B58:  BNZ   5B50
5B5A:  MOVLB  6
5B5C:  BTFSC  x11.7
5B5E:  BSF    FF2.7
5B60:  MOVLW  05
5B62:  MOVWF  x12
5B64:  MOVLW  F1
5B66:  MOVWF  x11
5B68:  MOVLW  35
5B6A:  MOVWF  x13
5B6C:  MOVLW  2D
5B6E:  MOVWF  x14
5B70:  MOVLW  02
5B72:  MOVWF  x15
5B74:  MOVLW  01
5B76:  MOVWF  x16
5B78:  MOVLB  0
5B7A:  CALL   1418
....................          strcpy(Menus.Letra,"Temp:");displayMenu(Menus.Letra,0,45,2,1);  
5B7E:  MOVLW  05
5B80:  MOVWF  FEA
5B82:  MOVLW  F1
5B84:  MOVWF  FE9
5B86:  MOVFF  FF2,611
5B8A:  BCF    FF2.7
5B8C:  MOVLW  00
5B8E:  CALL   0A40
5B92:  TBLRD*-
5B94:  TBLRD*+
5B96:  MOVF   FF5,W
5B98:  MOVWF  FEE
5B9A:  IORLW  00
5B9C:  BNZ   5B94
5B9E:  MOVLB  6
5BA0:  BTFSC  x11.7
5BA2:  BSF    FF2.7
5BA4:  MOVLW  05
5BA6:  MOVWF  x12
5BA8:  MOVLW  F1
5BAA:  MOVWF  x11
5BAC:  CLRF   x13
5BAE:  MOVLW  2D
5BB0:  MOVWF  x14
5BB2:  MOVLW  02
5BB4:  MOVWF  x15
5BB6:  MOVLW  01
5BB8:  MOVWF  x16
5BBA:  MOVLB  0
5BBC:  CALL   1418
....................           
....................          displayTiempo(Potencia,97,42,3,1);strcpy(Menus.Letra,"%");displayMenu(Menus.Letra,115,42,2,1); 
5BC0:  MOVFF  588,614
5BC4:  MOVFF  587,613
5BC8:  MOVFF  586,612
5BCC:  MOVFF  585,611
5BD0:  CALL   283C
5BD4:  MOVFF  01,611
5BD8:  MOVFF  01,612
5BDC:  MOVLW  61
5BDE:  MOVLB  6
5BE0:  MOVWF  x13
5BE2:  MOVLW  2A
5BE4:  MOVWF  x14
5BE6:  MOVLW  03
5BE8:  MOVWF  x15
5BEA:  MOVLW  01
5BEC:  MOVWF  x16
5BEE:  MOVLB  0
5BF0:  CALL   2556
5BF4:  MOVLW  05
5BF6:  MOVWF  FEA
5BF8:  MOVLW  F1
5BFA:  MOVWF  FE9
5BFC:  MOVFF  FF2,611
5C00:  BCF    FF2.7
5C02:  MOVLW  00
5C04:  CALL   0A60
5C08:  TBLRD*-
5C0A:  TBLRD*+
5C0C:  MOVF   FF5,W
5C0E:  MOVWF  FEE
5C10:  IORLW  00
5C12:  BNZ   5C0A
5C14:  MOVLB  6
5C16:  BTFSC  x11.7
5C18:  BSF    FF2.7
5C1A:  MOVLW  05
5C1C:  MOVWF  x12
5C1E:  MOVLW  F1
5C20:  MOVWF  x11
5C22:  MOVLW  73
5C24:  MOVWF  x13
5C26:  MOVLW  2A
5C28:  MOVWF  x14
5C2A:  MOVLW  02
5C2C:  MOVWF  x15
5C2E:  MOVLW  01
5C30:  MOVWF  x16
5C32:  MOVLB  0
5C34:  CALL   1418
....................          //displayTiempo(Tpulsomin*10,97,42,3,1);strcpy(Menus.Letra,"%");displayMenu(Menus.Letra,115,42,2,1); 
....................           
....................          if(flag_display==1) 
5C38:  MOVLB  5
5C3A:  BTFSS  x68.3
5C3C:  BRA    5C64
....................             //displayTiempo(Ganancia,97,13,3,1); 
....................             //displayTemperatura(Prom,97,13,0,1); 
....................             displayT(Ganancia,97,13,1); 
5C3E:  MOVFF  5C4,614
5C42:  MOVFF  5C3,613
5C46:  MOVFF  5C2,612
5C4A:  MOVFF  5C1,611
5C4E:  MOVLW  61
5C50:  MOVLB  6
5C52:  MOVWF  x15
5C54:  MOVLW  0D
5C56:  MOVWF  x16
5C58:  MOVLW  01
5C5A:  MOVWF  x17
5C5C:  MOVLB  0
5C5E:  CALL   3106
....................          else 
5C62:  BRA    5C82
....................             glcd_rect(97, 13, 115, 18, YES, OFF); 
5C64:  MOVLW  61
5C66:  MOVLB  6
5C68:  MOVWF  x24
5C6A:  MOVLW  0D
5C6C:  MOVWF  x25
5C6E:  MOVLW  73
5C70:  MOVWF  x26
5C72:  MOVLW  12
5C74:  MOVWF  x27
5C76:  MOVLW  01
5C78:  MOVWF  x28
5C7A:  CLRF   x29
5C7C:  MOVLB  0
5C7E:  CALL   1356
....................           
....................          // Muestra Valor de esterilizacion Programado. 
....................          displayTiempo(Testerilizacion[3],20,2,0,2);displayTiempo(Testerilizacion[2],33,2,0,2); 
5C82:  MOVFF  590,612
5C86:  MOVLW  14
5C88:  MOVLB  6
5C8A:  MOVWF  x13
5C8C:  MOVLW  02
5C8E:  MOVWF  x14
5C90:  CLRF   x15
5C92:  MOVWF  x16
5C94:  MOVLB  0
5C96:  CALL   2556
5C9A:  MOVFF  58F,612
5C9E:  MOVLW  21
5CA0:  MOVLB  6
5CA2:  MOVWF  x13
5CA4:  MOVLW  02
5CA6:  MOVWF  x14
5CA8:  CLRF   x15
5CAA:  MOVWF  x16
5CAC:  MOVLB  0
5CAE:  CALL   2556
....................          strcpy(Menus.Letra,":");displayMenu(Menus.Letra,46,2,2,2);  
5CB2:  MOVLW  05
5CB4:  MOVWF  FEA
5CB6:  MOVLW  F1
5CB8:  MOVWF  FE9
5CBA:  MOVFF  FF2,611
5CBE:  BCF    FF2.7
5CC0:  MOVLW  00
5CC2:  CALL   0948
5CC6:  TBLRD*-
5CC8:  TBLRD*+
5CCA:  MOVF   FF5,W
5CCC:  MOVWF  FEE
5CCE:  IORLW  00
5CD0:  BNZ   5CC8
5CD2:  MOVLB  6
5CD4:  BTFSC  x11.7
5CD6:  BSF    FF2.7
5CD8:  MOVLW  05
5CDA:  MOVWF  x12
5CDC:  MOVLW  F1
5CDE:  MOVWF  x11
5CE0:  MOVLW  2E
5CE2:  MOVWF  x13
5CE4:  MOVLW  02
5CE6:  MOVWF  x14
5CE8:  MOVWF  x15
5CEA:  MOVWF  x16
5CEC:  MOVLB  0
5CEE:  CALL   1418
....................          displayTiempo(Testerilizacion[1],55,2,0,2);displayTiempo(Testerilizacion[0],68,2,0,2); 
5CF2:  MOVFF  58E,612
5CF6:  MOVLW  37
5CF8:  MOVLB  6
5CFA:  MOVWF  x13
5CFC:  MOVLW  02
5CFE:  MOVWF  x14
5D00:  CLRF   x15
5D02:  MOVWF  x16
5D04:  MOVLB  0
5D06:  CALL   2556
5D0A:  MOVFF  58D,612
5D0E:  MOVLW  44
5D10:  MOVLB  6
5D12:  MOVWF  x13
5D14:  MOVLW  02
5D16:  MOVWF  x14
5D18:  CLRF   x15
5D1A:  MOVWF  x16
5D1C:  MOVLB  0
5D1E:  CALL   2556
....................           
....................          // Muestra Valor de esterilizacion actual. 
....................          strcpy(Menus.Letra,"Time:");displayMenu(Menus.Letra,0,18,2,1);  
5D22:  MOVLW  05
5D24:  MOVWF  FEA
5D26:  MOVLW  F1
5D28:  MOVWF  FE9
5D2A:  MOVFF  FF2,611
5D2E:  BCF    FF2.7
5D30:  MOVLW  00
5D32:  CALL   0A7C
5D36:  TBLRD*-
5D38:  TBLRD*+
5D3A:  MOVF   FF5,W
5D3C:  MOVWF  FEE
5D3E:  IORLW  00
5D40:  BNZ   5D38
5D42:  MOVLB  6
5D44:  BTFSC  x11.7
5D46:  BSF    FF2.7
5D48:  MOVLW  05
5D4A:  MOVWF  x12
5D4C:  MOVLW  F1
5D4E:  MOVWF  x11
5D50:  CLRF   x13
5D52:  MOVLW  12
5D54:  MOVWF  x14
5D56:  MOVLW  02
5D58:  MOVWF  x15
5D5A:  MOVLW  01
5D5C:  MOVWF  x16
5D5E:  MOVLB  0
5D60:  CALL   1418
....................          displayTiempo(Testerilizacionp[3],30,18,0,1);displayTiempo(Testerilizacionp[2],36,18,0,1); 
5D64:  MOVFF  594,612
5D68:  MOVLW  1E
5D6A:  MOVLB  6
5D6C:  MOVWF  x13
5D6E:  MOVLW  12
5D70:  MOVWF  x14
5D72:  CLRF   x15
5D74:  MOVLW  01
5D76:  MOVWF  x16
5D78:  MOVLB  0
5D7A:  CALL   2556
5D7E:  MOVFF  593,612
5D82:  MOVLW  24
5D84:  MOVLB  6
5D86:  MOVWF  x13
5D88:  MOVLW  12
5D8A:  MOVWF  x14
5D8C:  CLRF   x15
5D8E:  MOVLW  01
5D90:  MOVWF  x16
5D92:  MOVLB  0
5D94:  CALL   2556
....................          strcpy(Menus.Letra,":");displayMenu(Menus.Letra,42,18,2,1);  
5D98:  MOVLW  05
5D9A:  MOVWF  FEA
5D9C:  MOVLW  F1
5D9E:  MOVWF  FE9
5DA0:  MOVFF  FF2,611
5DA4:  BCF    FF2.7
5DA6:  MOVLW  00
5DA8:  CALL   0948
5DAC:  TBLRD*-
5DAE:  TBLRD*+
5DB0:  MOVF   FF5,W
5DB2:  MOVWF  FEE
5DB4:  IORLW  00
5DB6:  BNZ   5DAE
5DB8:  MOVLB  6
5DBA:  BTFSC  x11.7
5DBC:  BSF    FF2.7
5DBE:  MOVLW  05
5DC0:  MOVWF  x12
5DC2:  MOVLW  F1
5DC4:  MOVWF  x11
5DC6:  MOVLW  2A
5DC8:  MOVWF  x13
5DCA:  MOVLW  12
5DCC:  MOVWF  x14
5DCE:  MOVLW  02
5DD0:  MOVWF  x15
5DD2:  MOVLW  01
5DD4:  MOVWF  x16
5DD6:  MOVLB  0
5DD8:  CALL   1418
....................          displayTiempo(Testerilizacionp[1],48,18,0,1);displayTiempo(Testerilizacionp[0],54,18,0,1); 
5DDC:  MOVFF  592,612
5DE0:  MOVLW  30
5DE2:  MOVLB  6
5DE4:  MOVWF  x13
5DE6:  MOVLW  12
5DE8:  MOVWF  x14
5DEA:  CLRF   x15
5DEC:  MOVLW  01
5DEE:  MOVWF  x16
5DF0:  MOVLB  0
5DF2:  CALL   2556
5DF6:  MOVFF  591,612
5DFA:  MOVLW  36
5DFC:  MOVLB  6
5DFE:  MOVWF  x13
5E00:  MOVLW  12
5E02:  MOVWF  x14
5E04:  CLRF   x15
5E06:  MOVLW  01
5E08:  MOVWF  x16
5E0A:  MOVLB  0
5E0C:  CALL   2556
....................          strcpy(Menus.Letra,"(H:M)");displayMenu(Menus.Letra,60,18,2,1);  
5E10:  MOVLW  05
5E12:  MOVWF  FEA
5E14:  MOVLW  F1
5E16:  MOVWF  FE9
5E18:  MOVFF  FF2,611
5E1C:  BCF    FF2.7
5E1E:  MOVLW  00
5E20:  CALL   0A9C
5E24:  TBLRD*-
5E26:  TBLRD*+
5E28:  MOVF   FF5,W
5E2A:  MOVWF  FEE
5E2C:  IORLW  00
5E2E:  BNZ   5E26
5E30:  MOVLB  6
5E32:  BTFSC  x11.7
5E34:  BSF    FF2.7
5E36:  MOVLW  05
5E38:  MOVWF  x12
5E3A:  MOVLW  F1
5E3C:  MOVWF  x11
5E3E:  MOVLW  3C
5E40:  MOVWF  x13
5E42:  MOVLW  12
5E44:  MOVWF  x14
5E46:  MOVLW  02
5E48:  MOVWF  x15
5E4A:  MOVLW  01
5E4C:  MOVWF  x16
5E4E:  MOVLB  0
5E50:  CALL   1418
....................           
....................          glcd_rect(0, 0, 89, 27, NO, ON); 
5E54:  MOVLB  6
5E56:  CLRF   x24
5E58:  CLRF   x25
5E5A:  MOVLW  59
5E5C:  MOVWF  x26
5E5E:  MOVLW  1B
5E60:  MOVWF  x27
5E62:  CLRF   x28
5E64:  MOVLW  01
5E66:  MOVWF  x29
5E68:  MOVLB  0
5E6A:  CALL   1356
....................          glcd_rect(0, 27, 89, 54, NO, ON); 
5E6E:  MOVLB  6
5E70:  CLRF   x24
5E72:  MOVLW  1B
5E74:  MOVWF  x25
5E76:  MOVLW  59
5E78:  MOVWF  x26
5E7A:  MOVLW  36
5E7C:  MOVWF  x27
5E7E:  CLRF   x28
5E80:  MOVLW  01
5E82:  MOVWF  x29
5E84:  MOVLB  0
5E86:  CALL   1356
5E8A:  MOVLB  5
....................       }  
....................        
....................       if(infinito==10){ 
5E8C:  MOVF   x65,W
5E8E:  SUBLW  0A
5E90:  BTFSS  FD8.2
5E92:  BRA    5F8E
....................        
....................          // Si cumplio el tiempo de esterilizacin, Muestre ciclo finalizado y detenga control de temperatura. 
....................          if((Testerilizacion[0]>=Testerilizacionp[0])&&(Testerilizacion[1]>=Testerilizacionp[1])&&(Testerilizacion[2]>=Testerilizacionp[2])&&(Testerilizacion[3]>=Testerilizacionp[3]) && tiempo_esterilizacion==1) 
5E94:  MOVF   x91,W
5E96:  XORLW  80
5E98:  MOVWF  00
5E9A:  MOVF   x8D,W
5E9C:  XORLW  80
5E9E:  SUBWF  00,W
5EA0:  BZ    5EA4
5EA2:  BC    5F48
5EA4:  MOVF   x92,W
5EA6:  XORLW  80
5EA8:  MOVWF  00
5EAA:  MOVF   x8E,W
5EAC:  XORLW  80
5EAE:  SUBWF  00,W
5EB0:  BZ    5EB4
5EB2:  BC    5F48
5EB4:  MOVF   x93,W
5EB6:  XORLW  80
5EB8:  MOVWF  00
5EBA:  MOVF   x8F,W
5EBC:  XORLW  80
5EBE:  SUBWF  00,W
5EC0:  BZ    5EC4
5EC2:  BC    5F48
5EC4:  MOVF   x94,W
5EC6:  XORLW  80
5EC8:  MOVWF  00
5ECA:  MOVF   x90,W
5ECC:  XORLW  80
5ECE:  SUBWF  00,W
5ED0:  BZ    5ED4
5ED2:  BC    5F48
5ED4:  DECFSZ x71,W
5ED6:  BRA    5F48
....................          { 
....................             if(flag_clear==0) 
5ED8:  BTFSC  x67.7
5EDA:  BRA    5F02
....................             { 
....................                glcd_fillScreen(OFF); 
5EDC:  MOVLB  6
5EDE:  CLRF   x12
5EE0:  MOVLB  0
5EE2:  CALL   0DEA
....................                tiempo_esterilizacion=0; 
5EE6:  MOVLB  5
5EE8:  CLRF   x71
....................                Pausa=2; 
5EEA:  MOVLW  02
5EEC:  MOVWF  x6E
....................                flag_clear=1; 
5EEE:  BSF    x67.7
....................                Resistencia_off; 
5EF0:  BCF    F8B.0
5EF2:  BCF    F94.0
....................                Peltier_off; 
5EF4:  BCF    F8B.2
5EF6:  BCF    F94.2
....................                 
....................                Tpulso=0.0; 
5EF8:  CLRF   xB0
5EFA:  CLRF   xAF
5EFC:  CLRF   xAE
5EFE:  CLRF   xAD
....................                flag_ganancia=0; 
5F00:  CLRF   x64
....................             } 
....................             strcpy(Menus.Letra,"Status:Finalizado"); 
5F02:  MOVLW  05
5F04:  MOVWF  FEA
5F06:  MOVLW  F1
5F08:  MOVWF  FE9
5F0A:  MOVFF  FF2,611
5F0E:  BCF    FF2.7
5F10:  MOVLW  00
5F12:  MOVLB  0
5F14:  CALL   0ABC
5F18:  TBLRD*-
5F1A:  TBLRD*+
5F1C:  MOVF   FF5,W
5F1E:  MOVWF  FEE
5F20:  IORLW  00
5F22:  BNZ   5F1A
5F24:  MOVLB  6
5F26:  BTFSC  x11.7
5F28:  BSF    FF2.7
....................             displayMenu(Menus.Letra,0,55,2,1); 
5F2A:  MOVLW  05
5F2C:  MOVWF  x12
5F2E:  MOVLW  F1
5F30:  MOVWF  x11
5F32:  CLRF   x13
5F34:  MOVLW  37
5F36:  MOVWF  x14
5F38:  MOVLW  02
5F3A:  MOVWF  x15
5F3C:  MOVLW  01
5F3E:  MOVWF  x16
5F40:  MOVLB  0
5F42:  CALL   1418
5F46:  MOVLB  5
....................          }  
....................           
....................             if(tinicio>=60){ 
5F48:  MOVF   x7A,F
5F4A:  BNZ   5F52
5F4C:  MOVF   x79,W
5F4E:  SUBLW  3B
5F50:  BC    5F8E
....................                tinicio=0; 
5F52:  CLRF   x7A
5F54:  CLRF   x79
....................                Testerilizacion[0]++; 
5F56:  INCF   x8D,F
....................                if(Testerilizacion[0]>9) 
5F58:  BTFSC  x8D.7
5F5A:  BRA    5F66
5F5C:  MOVF   x8D,W
5F5E:  SUBLW  09
5F60:  BC    5F66
....................                { 
....................                   Testerilizacion[0]=0; 
5F62:  CLRF   x8D
....................                   Testerilizacion[1]++; 
5F64:  INCF   x8E,F
....................                } 
....................                if(Testerilizacion[1]>5) 
5F66:  BTFSC  x8E.7
5F68:  BRA    5F74
5F6A:  MOVF   x8E,W
5F6C:  SUBLW  05
5F6E:  BC    5F74
....................                { 
....................                   Testerilizacion[1]=0; 
5F70:  CLRF   x8E
....................                   Testerilizacion[2]++; 
5F72:  INCF   x8F,F
....................                } 
....................                if(Testerilizacion[2]>9) 
5F74:  BTFSC  x8F.7
5F76:  BRA    5F82
5F78:  MOVF   x8F,W
5F7A:  SUBLW  09
5F7C:  BC    5F82
....................                { 
....................                   Testerilizacion[2]=0; 
5F7E:  CLRF   x8F
....................                   Testerilizacion[3]++; 
5F80:  INCF   x90,F
....................                } 
....................                if(Testerilizacion[3]>9) 
5F82:  BTFSC  x90.7
5F84:  BRA    5F8E
5F86:  MOVF   x90,W
5F88:  SUBLW  09
5F8A:  BC    5F8E
....................                { 
....................                   Testerilizacion[3]=0; 
5F8C:  CLRF   x90
....................                } 
....................             } 
....................          } 
....................        
....................       if(LEFT)//Si oprime boton de Toma. 
5F8E:  BSF    F96.2
5F90:  BTFSS  F84.2
5F92:  BRA    5FCA
....................       { 
....................          if(Pausa!=2) 
5F94:  MOVF   x6E,W
5F96:  SUBLW  02
5F98:  BZ    5FCA
....................          { 
....................             delay_ms(500);Menu=30;glcd_fillscreen(OFF);Opcion=1;visual=1;Pausa=1; 
5F9A:  MOVLW  02
5F9C:  MOVLB  6
5F9E:  MOVWF  x11
5FA0:  MOVLW  FA
5FA2:  MOVWF  x17
5FA4:  MOVLB  0
5FA6:  CALL   0CD0
5FAA:  MOVLB  6
5FAC:  DECFSZ x11,F
5FAE:  BRA    5FA0
5FB0:  MOVLW  1E
5FB2:  MOVLB  5
5FB4:  MOVWF  x6B
5FB6:  MOVLB  6
5FB8:  CLRF   x12
5FBA:  MOVLB  0
5FBC:  CALL   0DEA
5FC0:  MOVLW  01
5FC2:  MOVLB  5
5FC4:  MOVWF  x70
5FC6:  BSF    x67.3
5FC8:  MOVWF  x6E
....................          } 
....................       } 
....................          
....................     } 
.................... //_--------------------------------------------------------------------------------------------------------------------------------------------------------        
....................  
.................... //_-------------------------------------------------------------------------------------------------------------------------------------------------------- 
....................       if(Menu==30){ //Menu de Retroceso 
5FCA:  MOVF   x6B,W
5FCC:  SUBLW  1E
5FCE:  BTFSS  FD8.2
5FD0:  BRA    61F0
....................        
....................       strcpy(Menus.Letra,"Regresar"); 
5FD2:  MOVLW  05
5FD4:  MOVWF  FEA
5FD6:  MOVLW  F1
5FD8:  MOVWF  FE9
5FDA:  MOVFF  FF2,611
5FDE:  BCF    FF2.7
5FE0:  MOVLW  00
5FE2:  MOVLB  0
5FE4:  CALL   0AE8
5FE8:  TBLRD*-
5FEA:  TBLRD*+
5FEC:  MOVF   FF5,W
5FEE:  MOVWF  FEE
5FF0:  IORLW  00
5FF2:  BNZ   5FEA
5FF4:  MOVLB  6
5FF6:  BTFSC  x11.7
5FF8:  BSF    FF2.7
....................       displayMenu(Menus.Letra,0,0,1,2); 
5FFA:  MOVLW  05
5FFC:  MOVWF  x12
5FFE:  MOVLW  F1
6000:  MOVWF  x11
6002:  CLRF   x13
6004:  CLRF   x14
6006:  MOVLW  01
6008:  MOVWF  x15
600A:  MOVLW  02
600C:  MOVWF  x16
600E:  MOVLB  0
6010:  CALL   1418
....................           
....................       if(Opcion==2) 
6014:  MOVLB  5
6016:  MOVF   x70,W
6018:  SUBLW  02
601A:  BNZ   60A6
....................       {strcpy(Menus.Letra,"SI"); 
601C:  MOVLW  05
601E:  MOVWF  FEA
6020:  MOVLW  F1
6022:  MOVWF  FE9
6024:  MOVFF  FF2,611
6028:  BCF    FF2.7
602A:  MOVLW  00
602C:  MOVLB  0
602E:  CALL   08CC
6032:  TBLRD*-
6034:  TBLRD*+
6036:  MOVF   FF5,W
6038:  MOVWF  FEE
603A:  IORLW  00
603C:  BNZ   6034
603E:  MOVLB  6
6040:  BTFSC  x11.7
6042:  BSF    FF2.7
....................       displayMenu(Menus.Letra,50,25,1,2); 
6044:  MOVLW  05
6046:  MOVWF  x12
6048:  MOVLW  F1
604A:  MOVWF  x11
604C:  MOVLW  32
604E:  MOVWF  x13
6050:  MOVLW  19
6052:  MOVWF  x14
6054:  MOVLW  01
6056:  MOVWF  x15
6058:  MOVLW  02
605A:  MOVWF  x16
605C:  MOVLB  0
605E:  CALL   1418
....................       strcpy(Menus.Letra,"NO"); 
6062:  MOVLW  05
6064:  MOVWF  FEA
6066:  MOVLW  F1
6068:  MOVWF  FE9
606A:  MOVFF  FF2,611
606E:  BCF    FF2.7
6070:  MOVLW  00
6072:  CALL   08EA
6076:  TBLRD*-
6078:  TBLRD*+
607A:  MOVF   FF5,W
607C:  MOVWF  FEE
607E:  IORLW  00
6080:  BNZ   6078
6082:  MOVLB  6
6084:  BTFSC  x11.7
6086:  BSF    FF2.7
....................       displayMenu(Menus.Letra,50,45,0,2); 
6088:  MOVLW  05
608A:  MOVWF  x12
608C:  MOVLW  F1
608E:  MOVWF  x11
6090:  MOVLW  32
6092:  MOVWF  x13
6094:  MOVLW  2D
6096:  MOVWF  x14
6098:  CLRF   x15
609A:  MOVLW  02
609C:  MOVWF  x16
609E:  MOVLB  0
60A0:  CALL   1418
60A4:  MOVLB  5
....................       } 
....................       if(Opcion==1) 
60A6:  DECFSZ x70,W
60A8:  BRA    6134
....................       {strcpy(Menus.Letra,"SI"); 
60AA:  MOVLW  05
60AC:  MOVWF  FEA
60AE:  MOVLW  F1
60B0:  MOVWF  FE9
60B2:  MOVFF  FF2,611
60B6:  BCF    FF2.7
60B8:  MOVLW  00
60BA:  MOVLB  0
60BC:  CALL   08CC
60C0:  TBLRD*-
60C2:  TBLRD*+
60C4:  MOVF   FF5,W
60C6:  MOVWF  FEE
60C8:  IORLW  00
60CA:  BNZ   60C2
60CC:  MOVLB  6
60CE:  BTFSC  x11.7
60D0:  BSF    FF2.7
....................       displayMenu(Menus.Letra,50,25,0,2); 
60D2:  MOVLW  05
60D4:  MOVWF  x12
60D6:  MOVLW  F1
60D8:  MOVWF  x11
60DA:  MOVLW  32
60DC:  MOVWF  x13
60DE:  MOVLW  19
60E0:  MOVWF  x14
60E2:  CLRF   x15
60E4:  MOVLW  02
60E6:  MOVWF  x16
60E8:  MOVLB  0
60EA:  CALL   1418
....................       strcpy(Menus.Letra,"NO"); 
60EE:  MOVLW  05
60F0:  MOVWF  FEA
60F2:  MOVLW  F1
60F4:  MOVWF  FE9
60F6:  MOVFF  FF2,611
60FA:  BCF    FF2.7
60FC:  MOVLW  00
60FE:  CALL   08EA
6102:  TBLRD*-
6104:  TBLRD*+
6106:  MOVF   FF5,W
6108:  MOVWF  FEE
610A:  IORLW  00
610C:  BNZ   6104
610E:  MOVLB  6
6110:  BTFSC  x11.7
6112:  BSF    FF2.7
....................       displayMenu(Menus.Letra,50,45,1,2); 
6114:  MOVLW  05
6116:  MOVWF  x12
6118:  MOVLW  F1
611A:  MOVWF  x11
611C:  MOVLW  32
611E:  MOVWF  x13
6120:  MOVLW  2D
6122:  MOVWF  x14
6124:  MOVLW  01
6126:  MOVWF  x15
6128:  MOVLW  02
612A:  MOVWF  x16
612C:  MOVLB  0
612E:  CALL   1418
6132:  MOVLB  5
....................       }   
....................          
....................       if(UP)//Si oprime hacia arriba 
6134:  BSF    F92.5
6136:  BTFSS  F80.5
6138:  BRA    6144
....................       { 
....................          if(Opcion<2) 
613A:  MOVF   x70,W
613C:  SUBLW  01
613E:  BNC   6142
....................          { 
....................             Opcion++; 
6140:  INCF   x70,F
....................          } 
....................          visual=1; 
6142:  BSF    x67.3
....................       } 
....................              
....................       if(DOWN)//Si oprime hacia abajo 
6144:  BSF    F96.0
6146:  BTFSS  F84.0
6148:  BRA    6154
....................       {   
....................          if(Opcion>1) 
614A:  MOVF   x70,W
614C:  SUBLW  01
614E:  BC    6152
....................          { 
....................             Opcion--; 
6150:  DECF   x70,F
....................          }   
....................          visual=1; 
6152:  BSF    x67.3
....................       } 
....................              
....................       if(RIGHT)//Si oprime SET 
6154:  BSF    F96.1
6156:  BTFSS  F84.1
6158:  BRA    61BC
....................       {   
....................          if(Opcion==2) 
615A:  MOVF   x70,W
615C:  SUBLW  02
615E:  BNZ   618E
....................          { 
....................             Menu=1;glcd_fillScreen(OFF);Testerilizacion[0]=0;Testerilizacion[1]=0;Testerilizacion[2]=0;Testerilizacion[3]=0; 
6160:  MOVLW  01
6162:  MOVWF  x6B
6164:  MOVLB  6
6166:  CLRF   x12
6168:  MOVLB  0
616A:  CALL   0DEA
616E:  MOVLB  5
6170:  CLRF   x8D
6172:  CLRF   x8E
6174:  CLRF   x8F
6176:  CLRF   x90
....................             Resistencia_off; 
6178:  BCF    F8B.0
617A:  BCF    F94.0
....................             Peltier_off; 
617C:  BCF    F8B.2
617E:  BCF    F94.2
....................              
....................             Tpulso=0.0; 
6180:  CLRF   xB0
6182:  CLRF   xAF
6184:  CLRF   xAE
6186:  CLRF   xAD
....................             Opcion=1; 
6188:  MOVLW  01
618A:  MOVWF  x70
....................          } 
....................          else 
618C:  BRA    61BC
....................          { 
....................             delay_ms(700);Menu=20;glcd_fillscreen(OFF);Opcion=1;visual=1; 
618E:  MOVLW  04
6190:  MOVLB  6
6192:  MOVWF  x11
6194:  MOVLW  AF
6196:  MOVWF  x17
6198:  MOVLB  0
619A:  CALL   0CD0
619E:  MOVLB  6
61A0:  DECFSZ x11,F
61A2:  BRA    6194
61A4:  MOVLW  14
61A6:  MOVLB  5
61A8:  MOVWF  x6B
61AA:  MOVLB  6
61AC:  CLRF   x12
61AE:  MOVLB  0
61B0:  CALL   0DEA
61B4:  MOVLW  01
61B6:  MOVLB  5
61B8:  MOVWF  x70
61BA:  BSF    x67.3
....................          } 
....................       }  
....................                    
....................       if(LEFT)//Si oprime boton de Toma. 
61BC:  BSF    F96.2
61BE:  BTFSS  F84.2
61C0:  BRA    61F0
....................       { 
....................          delay_ms(700);Menu=20;glcd_fillscreen(OFF);Opcion=1;visual=1; 
61C2:  MOVLW  04
61C4:  MOVLB  6
61C6:  MOVWF  x11
61C8:  MOVLW  AF
61CA:  MOVWF  x17
61CC:  MOVLB  0
61CE:  CALL   0CD0
61D2:  MOVLB  6
61D4:  DECFSZ x11,F
61D6:  BRA    61C8
61D8:  MOVLW  14
61DA:  MOVLB  5
61DC:  MOVWF  x6B
61DE:  MOVLB  6
61E0:  CLRF   x12
61E2:  MOVLB  0
61E4:  CALL   0DEA
61E8:  MOVLW  01
61EA:  MOVLB  5
61EC:  MOVWF  x70
61EE:  BSF    x67.3
....................       } 
....................          
....................     } 
.................... //_--------------------------------------------------------------------------------------------------------------------------------------------------------        
....................  
.................... //_-------------------------------------------------------------------------------------------------------------------------------------------------------- 
....................       if(Menu==100){ //Menu de Configuracin de Parametros de Control 
61F0:  MOVF   x6B,W
61F2:  SUBLW  64
61F4:  BTFSS  FD8.2
61F6:  BRA    65E0
....................        
....................       if(Opcion>6) 
61F8:  MOVF   x70,W
61FA:  SUBLW  06
61FC:  BC    6202
....................       {Opcion=1;} 
61FE:  MOVLW  01
6200:  MOVWF  x70
....................       if(Opcion<1) 
6202:  MOVF   x70,F
6204:  BNZ   620A
....................       {Opcion=6;} 
6206:  MOVLW  06
6208:  MOVWF  x70
....................        
....................          if(Opcion==1)    
620A:  DECFSZ x70,W
620C:  BRA    6252
....................             {strcpy(Menus.Letra,"Ganancia"); 
620E:  MOVLW  05
6210:  MOVWF  FEA
6212:  MOVLW  F1
6214:  MOVWF  FE9
6216:  MOVFF  FF2,611
621A:  BCF    FF2.7
621C:  MOVLW  00
621E:  MOVLB  0
6220:  CALL   0B0C
6224:  TBLRD*-
6226:  TBLRD*+
6228:  MOVF   FF5,W
622A:  MOVWF  FEE
622C:  IORLW  00
622E:  BNZ   6226
6230:  MOVLB  6
6232:  BTFSC  x11.7
6234:  BSF    FF2.7
....................             displayMenu(Menus.Letra,0,0,1,1);} 
6236:  MOVLW  05
6238:  MOVWF  x12
623A:  MOVLW  F1
623C:  MOVWF  x11
623E:  CLRF   x13
6240:  CLRF   x14
6242:  MOVLW  01
6244:  MOVWF  x15
6246:  MOVWF  x16
6248:  MOVLB  0
624A:  CALL   1418
....................          else 
624E:  BRA    6292
6250:  MOVLB  5
....................             {strcpy(Menus.Letra,"Ganancia"); 
6252:  MOVLW  05
6254:  MOVWF  FEA
6256:  MOVLW  F1
6258:  MOVWF  FE9
625A:  MOVFF  FF2,611
625E:  BCF    FF2.7
6260:  MOVLW  00
6262:  MOVLB  0
6264:  CALL   0B0C
6268:  TBLRD*-
626A:  TBLRD*+
626C:  MOVF   FF5,W
626E:  MOVWF  FEE
6270:  IORLW  00
6272:  BNZ   626A
6274:  MOVLB  6
6276:  BTFSC  x11.7
6278:  BSF    FF2.7
....................             displayMenu(Menus.Letra,0,0,0,1);} 
627A:  MOVLW  05
627C:  MOVWF  x12
627E:  MOVLW  F1
6280:  MOVWF  x11
6282:  CLRF   x13
6284:  CLRF   x14
6286:  CLRF   x15
6288:  MOVLW  01
628A:  MOVWF  x16
628C:  MOVLB  0
628E:  CALL   1418
....................           
....................          if(Opcion==2)    
6292:  MOVLB  5
6294:  MOVF   x70,W
6296:  SUBLW  02
6298:  BNZ   62E0
....................             {strcpy(Menus.Letra,"Tciclo"); 
629A:  MOVLW  05
629C:  MOVWF  FEA
629E:  MOVLW  F1
62A0:  MOVWF  FE9
62A2:  MOVFF  FF2,611
62A6:  BCF    FF2.7
62A8:  MOVLW  00
62AA:  MOVLB  0
62AC:  CALL   0B30
62B0:  TBLRD*-
62B2:  TBLRD*+
62B4:  MOVF   FF5,W
62B6:  MOVWF  FEE
62B8:  IORLW  00
62BA:  BNZ   62B2
62BC:  MOVLB  6
62BE:  BTFSC  x11.7
62C0:  BSF    FF2.7
....................             displayMenu(Menus.Letra,0,9,1,1);} 
62C2:  MOVLW  05
62C4:  MOVWF  x12
62C6:  MOVLW  F1
62C8:  MOVWF  x11
62CA:  CLRF   x13
62CC:  MOVLW  09
62CE:  MOVWF  x14
62D0:  MOVLW  01
62D2:  MOVWF  x15
62D4:  MOVWF  x16
62D6:  MOVLB  0
62D8:  CALL   1418
....................          else 
62DC:  BRA    6322
62DE:  MOVLB  5
....................             {strcpy(Menus.Letra,"Tciclo"); 
62E0:  MOVLW  05
62E2:  MOVWF  FEA
62E4:  MOVLW  F1
62E6:  MOVWF  FE9
62E8:  MOVFF  FF2,611
62EC:  BCF    FF2.7
62EE:  MOVLW  00
62F0:  MOVLB  0
62F2:  CALL   0B30
62F6:  TBLRD*-
62F8:  TBLRD*+
62FA:  MOVF   FF5,W
62FC:  MOVWF  FEE
62FE:  IORLW  00
6300:  BNZ   62F8
6302:  MOVLB  6
6304:  BTFSC  x11.7
6306:  BSF    FF2.7
....................             displayMenu(Menus.Letra,0,9,0,1);} 
6308:  MOVLW  05
630A:  MOVWF  x12
630C:  MOVLW  F1
630E:  MOVWF  x11
6310:  CLRF   x13
6312:  MOVLW  09
6314:  MOVWF  x14
6316:  CLRF   x15
6318:  MOVLW  01
631A:  MOVWF  x16
631C:  MOVLB  0
631E:  CALL   1418
....................              
....................          if(Opcion==3)    
6322:  MOVLB  5
6324:  MOVF   x70,W
6326:  SUBLW  03
6328:  BNZ   6370
....................             {strcpy(Menus.Letra,"Ajuste +"); 
632A:  MOVLW  05
632C:  MOVWF  FEA
632E:  MOVLW  F1
6330:  MOVWF  FE9
6332:  MOVFF  FF2,611
6336:  BCF    FF2.7
6338:  MOVLW  00
633A:  MOVLB  0
633C:  CALL   0B52
6340:  TBLRD*-
6342:  TBLRD*+
6344:  MOVF   FF5,W
6346:  MOVWF  FEE
6348:  IORLW  00
634A:  BNZ   6342
634C:  MOVLB  6
634E:  BTFSC  x11.7
6350:  BSF    FF2.7
....................             displayMenu(Menus.Letra,0,18,1,1);} 
6352:  MOVLW  05
6354:  MOVWF  x12
6356:  MOVLW  F1
6358:  MOVWF  x11
635A:  CLRF   x13
635C:  MOVLW  12
635E:  MOVWF  x14
6360:  MOVLW  01
6362:  MOVWF  x15
6364:  MOVWF  x16
6366:  MOVLB  0
6368:  CALL   1418
....................          else 
636C:  BRA    63B2
636E:  MOVLB  5
....................             {strcpy(Menus.Letra,"Ajuste +"); 
6370:  MOVLW  05
6372:  MOVWF  FEA
6374:  MOVLW  F1
6376:  MOVWF  FE9
6378:  MOVFF  FF2,611
637C:  BCF    FF2.7
637E:  MOVLW  00
6380:  MOVLB  0
6382:  CALL   0B52
6386:  TBLRD*-
6388:  TBLRD*+
638A:  MOVF   FF5,W
638C:  MOVWF  FEE
638E:  IORLW  00
6390:  BNZ   6388
6392:  MOVLB  6
6394:  BTFSC  x11.7
6396:  BSF    FF2.7
....................             displayMenu(Menus.Letra,0,18,0,1);}    
6398:  MOVLW  05
639A:  MOVWF  x12
639C:  MOVLW  F1
639E:  MOVWF  x11
63A0:  CLRF   x13
63A2:  MOVLW  12
63A4:  MOVWF  x14
63A6:  CLRF   x15
63A8:  MOVLW  01
63AA:  MOVWF  x16
63AC:  MOVLB  0
63AE:  CALL   1418
....................                          
....................          if(Opcion==4)    
63B2:  MOVLB  5
63B4:  MOVF   x70,W
63B6:  SUBLW  04
63B8:  BNZ   6400
....................             {strcpy(Menus.Letra,"Ajuste -"); 
63BA:  MOVLW  05
63BC:  MOVWF  FEA
63BE:  MOVLW  F1
63C0:  MOVWF  FE9
63C2:  MOVFF  FF2,611
63C6:  BCF    FF2.7
63C8:  MOVLW  00
63CA:  MOVLB  0
63CC:  CALL   0B76
63D0:  TBLRD*-
63D2:  TBLRD*+
63D4:  MOVF   FF5,W
63D6:  MOVWF  FEE
63D8:  IORLW  00
63DA:  BNZ   63D2
63DC:  MOVLB  6
63DE:  BTFSC  x11.7
63E0:  BSF    FF2.7
....................             displayMenu(Menus.Letra,0,27,1,1);} 
63E2:  MOVLW  05
63E4:  MOVWF  x12
63E6:  MOVLW  F1
63E8:  MOVWF  x11
63EA:  CLRF   x13
63EC:  MOVLW  1B
63EE:  MOVWF  x14
63F0:  MOVLW  01
63F2:  MOVWF  x15
63F4:  MOVWF  x16
63F6:  MOVLB  0
63F8:  CALL   1418
....................          else 
63FC:  BRA    6442
63FE:  MOVLB  5
....................             {strcpy(Menus.Letra,"Ajuste -"); 
6400:  MOVLW  05
6402:  MOVWF  FEA
6404:  MOVLW  F1
6406:  MOVWF  FE9
6408:  MOVFF  FF2,611
640C:  BCF    FF2.7
640E:  MOVLW  00
6410:  MOVLB  0
6412:  CALL   0B76
6416:  TBLRD*-
6418:  TBLRD*+
641A:  MOVF   FF5,W
641C:  MOVWF  FEE
641E:  IORLW  00
6420:  BNZ   6418
6422:  MOVLB  6
6424:  BTFSC  x11.7
6426:  BSF    FF2.7
....................             displayMenu(Menus.Letra,0,27,0,1);}      
6428:  MOVLW  05
642A:  MOVWF  x12
642C:  MOVLW  F1
642E:  MOVWF  x11
6430:  CLRF   x13
6432:  MOVLW  1B
6434:  MOVWF  x14
6436:  CLRF   x15
6438:  MOVLW  01
643A:  MOVWF  x16
643C:  MOVLB  0
643E:  CALL   1418
....................              
....................          if(Opcion==5)    
6442:  MOVLB  5
6444:  MOVF   x70,W
6446:  SUBLW  05
6448:  BNZ   6490
....................             {strcpy(Menus.Letra,"Media Movil"); 
644A:  MOVLW  05
644C:  MOVWF  FEA
644E:  MOVLW  F1
6450:  MOVWF  FE9
6452:  MOVFF  FF2,611
6456:  BCF    FF2.7
6458:  MOVLW  00
645A:  MOVLB  0
645C:  CALL   0B9A
6460:  TBLRD*-
6462:  TBLRD*+
6464:  MOVF   FF5,W
6466:  MOVWF  FEE
6468:  IORLW  00
646A:  BNZ   6462
646C:  MOVLB  6
646E:  BTFSC  x11.7
6470:  BSF    FF2.7
....................             displayMenu(Menus.Letra,0,36,1,1);} 
6472:  MOVLW  05
6474:  MOVWF  x12
6476:  MOVLW  F1
6478:  MOVWF  x11
647A:  CLRF   x13
647C:  MOVLW  24
647E:  MOVWF  x14
6480:  MOVLW  01
6482:  MOVWF  x15
6484:  MOVWF  x16
6486:  MOVLB  0
6488:  CALL   1418
....................          else 
648C:  BRA    64D2
648E:  MOVLB  5
....................             {strcpy(Menus.Letra,"Media Movil"); 
6490:  MOVLW  05
6492:  MOVWF  FEA
6494:  MOVLW  F1
6496:  MOVWF  FE9
6498:  MOVFF  FF2,611
649C:  BCF    FF2.7
649E:  MOVLW  00
64A0:  MOVLB  0
64A2:  CALL   0B9A
64A6:  TBLRD*-
64A8:  TBLRD*+
64AA:  MOVF   FF5,W
64AC:  MOVWF  FEE
64AE:  IORLW  00
64B0:  BNZ   64A8
64B2:  MOVLB  6
64B4:  BTFSC  x11.7
64B6:  BSF    FF2.7
....................             displayMenu(Menus.Letra,0,36,0,1);}      
64B8:  MOVLW  05
64BA:  MOVWF  x12
64BC:  MOVLW  F1
64BE:  MOVWF  x11
64C0:  CLRF   x13
64C2:  MOVLW  24
64C4:  MOVWF  x14
64C6:  CLRF   x15
64C8:  MOVLW  01
64CA:  MOVWF  x16
64CC:  MOVLB  0
64CE:  CALL   1418
....................              
....................          if(Opcion==6)    
64D2:  MOVLB  5
64D4:  MOVF   x70,W
64D6:  SUBLW  06
64D8:  BNZ   6520
....................             {strcpy(Menus.Letra,"Coeficiente"); 
64DA:  MOVLW  05
64DC:  MOVWF  FEA
64DE:  MOVLW  F1
64E0:  MOVWF  FE9
64E2:  MOVFF  FF2,611
64E6:  BCF    FF2.7
64E8:  MOVLW  00
64EA:  MOVLB  0
64EC:  CALL   0BC0
64F0:  TBLRD*-
64F2:  TBLRD*+
64F4:  MOVF   FF5,W
64F6:  MOVWF  FEE
64F8:  IORLW  00
64FA:  BNZ   64F2
64FC:  MOVLB  6
64FE:  BTFSC  x11.7
6500:  BSF    FF2.7
....................             displayMenu(Menus.Letra,0,45,1,1);} 
6502:  MOVLW  05
6504:  MOVWF  x12
6506:  MOVLW  F1
6508:  MOVWF  x11
650A:  CLRF   x13
650C:  MOVLW  2D
650E:  MOVWF  x14
6510:  MOVLW  01
6512:  MOVWF  x15
6514:  MOVWF  x16
6516:  MOVLB  0
6518:  CALL   1418
....................          else 
651C:  BRA    6562
651E:  MOVLB  5
....................             {strcpy(Menus.Letra,"Coeficiente"); 
6520:  MOVLW  05
6522:  MOVWF  FEA
6524:  MOVLW  F1
6526:  MOVWF  FE9
6528:  MOVFF  FF2,611
652C:  BCF    FF2.7
652E:  MOVLW  00
6530:  MOVLB  0
6532:  CALL   0BC0
6536:  TBLRD*-
6538:  TBLRD*+
653A:  MOVF   FF5,W
653C:  MOVWF  FEE
653E:  IORLW  00
6540:  BNZ   6538
6542:  MOVLB  6
6544:  BTFSC  x11.7
6546:  BSF    FF2.7
....................             displayMenu(Menus.Letra,0,45,0,1);}     
6548:  MOVLW  05
654A:  MOVWF  x12
654C:  MOVLW  F1
654E:  MOVWF  x11
6550:  CLRF   x13
6552:  MOVLW  2D
6554:  MOVWF  x14
6556:  CLRF   x15
6558:  MOVLW  01
655A:  MOVWF  x16
655C:  MOVLB  0
655E:  CALL   1418
....................                
....................        
....................       if(UP)//Si oprime hacia arriba 
6562:  BSF    F92.5
6564:  BTFSS  F80.5
6566:  BRA    6584
....................          {  if(Flanco == 0)  
6568:  MOVLB  5
656A:  BTFSC  x67.0
656C:  BRA    6582
....................                {Flanco = 1;delay_ms(30);Opcion--;visual=1; 
656E:  BSF    x67.0
6570:  MOVLW  1E
6572:  MOVLB  6
6574:  MOVWF  x17
6576:  MOVLB  0
6578:  CALL   0CD0
657C:  MOVLB  5
657E:  DECF   x70,F
6580:  BSF    x67.3
....................                } 
....................          } 
....................             else 
6582:  BRA    6588
....................                {Flanco = 0;} 
6584:  MOVLB  5
6586:  BCF    x67.0
....................                    
....................          if(DOWN)//Si oprime hacia abajo 
6588:  BSF    F96.0
658A:  BTFSS  F84.0
658C:  BRA    65A8
....................          {  if(Flanco2 == 0)  
658E:  BTFSC  x67.2
6590:  BRA    65A6
....................                {Flanco2 = 1;delay_ms(30);Opcion++;visual=1; 
6592:  BSF    x67.2
6594:  MOVLW  1E
6596:  MOVLB  6
6598:  MOVWF  x17
659A:  MOVLB  0
659C:  CALL   0CD0
65A0:  MOVLB  5
65A2:  INCF   x70,F
65A4:  BSF    x67.3
....................                }      
....................          } 
....................             else 
65A6:  BRA    65AA
....................                {Flanco2 = 0;}   
65A8:  BCF    x67.2
....................                 
....................        if(RIGHT)//Si oprime SET 
65AA:  BSF    F96.1
65AC:  BTFSS  F84.1
65AE:  BRA    65DE
....................          {  if(Flanco1 == 0)  
65B0:  BTFSC  x67.1
65B2:  BRA    65DC
....................                {Flanco1 = 1;delay_ms(30);Menu=Opcion+100;Opcion=1;glcd_fillscreen(OFF);visual=1; 
65B4:  BSF    x67.1
65B6:  MOVLW  1E
65B8:  MOVLB  6
65BA:  MOVWF  x17
65BC:  MOVLB  0
65BE:  CALL   0CD0
65C2:  MOVLW  64
65C4:  MOVLB  5
65C6:  ADDWF  x70,W
65C8:  MOVWF  x6B
65CA:  MOVLW  01
65CC:  MOVWF  x70
65CE:  MOVLB  6
65D0:  CLRF   x12
65D2:  MOVLB  0
65D4:  CALL   0DEA
65D8:  MOVLB  5
65DA:  BSF    x67.3
....................                } 
....................          } 
....................             else 
65DC:  BRA    65E0
....................                {Flanco1 = 0;}   
65DE:  BCF    x67.1
....................          
....................     } 
.................... //_--------------------------------------------------------------------------------------------------------------------------------------------------------        
....................  
.................... //_--------------------------------------------------------------------------------------------------------------------------------------------------------       
....................       if(Menu==101){ // Menu de Ajuste de Ganancia 
65E0:  MOVF   x6B,W
65E2:  SUBLW  65
65E4:  BTFSS  FD8.2
65E6:  BRA    683C
....................        
....................       if(Ganancia>40) 
65E8:  MOVLB  6
65EA:  CLRF   x14
65EC:  CLRF   x13
65EE:  MOVLW  20
65F0:  MOVWF  x12
65F2:  MOVLW  84
65F4:  MOVWF  x11
65F6:  MOVFF  5C4,618
65FA:  MOVFF  5C3,617
65FE:  MOVFF  5C2,616
6602:  MOVFF  5C1,615
6606:  MOVLB  0
6608:  CALL   0D30
660C:  BNC   661A
....................       { 
....................          Ganancia=2; 
660E:  MOVLB  5
6610:  CLRF   xC4
6612:  CLRF   xC3
6614:  CLRF   xC2
6616:  MOVLW  80
6618:  MOVWF  xC1
....................       } 
....................        
....................       if(visual==1) 
661A:  MOVLB  5
661C:  BTFSS  x67.3
661E:  BRA    66A6
....................       { 
....................          glcd_fillScreen(OFF); 
6620:  MOVLB  6
6622:  CLRF   x12
6624:  MOVLB  0
6626:  CALL   0DEA
....................          strcpy(Menus.Letra,"Ganancia"); 
662A:  MOVLW  05
662C:  MOVWF  FEA
662E:  MOVLW  F1
6630:  MOVWF  FE9
6632:  MOVFF  FF2,611
6636:  BCF    FF2.7
6638:  MOVLW  00
663A:  CALL   0B0C
663E:  TBLRD*-
6640:  TBLRD*+
6642:  MOVF   FF5,W
6644:  MOVWF  FEE
6646:  IORLW  00
6648:  BNZ   6640
664A:  MOVLB  6
664C:  BTFSC  x11.7
664E:  BSF    FF2.7
....................          displayMenu(Menus.Letra,0,0,1,2); 
6650:  MOVLW  05
6652:  MOVWF  x12
6654:  MOVLW  F1
6656:  MOVWF  x11
6658:  CLRF   x13
665A:  CLRF   x14
665C:  MOVLW  01
665E:  MOVWF  x15
6660:  MOVLW  02
6662:  MOVWF  x16
6664:  MOVLB  0
6666:  CALL   1418
....................           
....................          displayTemperatura(Ganancia,30,30,0,3); 
666A:  MOVFF  5C4,614
666E:  MOVFF  5C3,613
6672:  MOVFF  5C2,612
6676:  MOVFF  5C1,611
667A:  CALL   283C
667E:  MOVFF  02,612
6682:  MOVFF  01,611
6686:  MOVFF  02,614
668A:  MOVFF  01,613
668E:  MOVLW  1E
6690:  MOVLB  6
6692:  MOVWF  x15
6694:  MOVWF  x16
6696:  CLRF   x17
6698:  MOVLW  03
669A:  MOVWF  x18
669C:  MOVLB  0
669E:  CALL   2318
....................           
....................          visual=0; 
66A2:  MOVLB  5
66A4:  BCF    x67.3
....................       } 
....................        
....................          if(UP)//Si oprime hacia arriba 
66A6:  BSF    F92.5
66A8:  BTFSS  F80.5
66AA:  BRA    6738
....................          {   
....................             if(Ganancia>40) 
66AC:  MOVLB  6
66AE:  CLRF   x14
66B0:  CLRF   x13
66B2:  MOVLW  20
66B4:  MOVWF  x12
66B6:  MOVLW  84
66B8:  MOVWF  x11
66BA:  MOVFF  5C4,618
66BE:  MOVFF  5C3,617
66C2:  MOVFF  5C2,616
66C6:  MOVFF  5C1,615
66CA:  MOVLB  0
66CC:  CALL   0D30
66D0:  BNC   66F4
....................             { 
....................                Ganancia=40;delay_ms(100);visual=1; 
66D2:  MOVLB  5
66D4:  CLRF   xC4
66D6:  CLRF   xC3
66D8:  MOVLW  20
66DA:  MOVWF  xC2
66DC:  MOVLW  84
66DE:  MOVWF  xC1
66E0:  MOVLW  64
66E2:  MOVLB  6
66E4:  MOVWF  x17
66E6:  MOVLB  0
66E8:  CALL   0CD0
66EC:  MOVLB  5
66EE:  BSF    x67.3
....................             } 
....................             else 
66F0:  BRA    6738
66F2:  MOVLB  0
....................             { 
....................                delay_ms(30);Ganancia+=1.0;visual=1; 
66F4:  MOVLW  1E
66F6:  MOVLB  6
66F8:  MOVWF  x17
66FA:  MOVLB  0
66FC:  CALL   0CD0
6700:  BCF    FD8.1
6702:  MOVFF  5C4,619
6706:  MOVFF  5C3,618
670A:  MOVFF  5C2,617
670E:  MOVFF  5C1,616
6712:  MOVLB  6
6714:  CLRF   x1D
6716:  CLRF   x1C
6718:  CLRF   x1B
671A:  MOVLW  7F
671C:  MOVWF  x1A
671E:  MOVLB  0
6720:  CALL   18AC
6724:  MOVFF  03,5C4
6728:  MOVFF  02,5C3
672C:  MOVFF  01,5C2
6730:  MOVFF  00,5C1
6734:  MOVLB  5
6736:  BSF    x67.3
....................             } 
....................          } 
....................                 
....................          if(DOWN)//Si oprime hacia abajo 
6738:  BSF    F96.0
673A:  BTFSS  F84.0
673C:  BRA    67A6
....................          {   
....................             if(Ganancia>1) 
673E:  MOVLB  6
6740:  CLRF   x14
6742:  CLRF   x13
6744:  CLRF   x12
6746:  MOVLW  7F
6748:  MOVWF  x11
674A:  MOVFF  5C4,618
674E:  MOVFF  5C3,617
6752:  MOVFF  5C2,616
6756:  MOVFF  5C1,615
675A:  MOVLB  0
675C:  CALL   0D30
6760:  BNC   67A8
....................             { 
....................                delay_ms(30);Ganancia-=1.0;visual=1;      
6762:  MOVLW  1E
6764:  MOVLB  6
6766:  MOVWF  x17
6768:  MOVLB  0
676A:  CALL   0CD0
676E:  BSF    FD8.1
6770:  MOVFF  5C4,619
6774:  MOVFF  5C3,618
6778:  MOVFF  5C2,617
677C:  MOVFF  5C1,616
6780:  MOVLB  6
6782:  CLRF   x1D
6784:  CLRF   x1C
6786:  CLRF   x1B
6788:  MOVLW  7F
678A:  MOVWF  x1A
678C:  MOVLB  0
678E:  CALL   18AC
6792:  MOVFF  03,5C4
6796:  MOVFF  02,5C3
679A:  MOVFF  01,5C2
679E:  MOVFF  00,5C1
67A2:  MOVLB  5
67A4:  BSF    x67.3
67A6:  MOVLB  0
....................             } 
....................          } 
....................                 
....................          if(RIGHT)//Si oprime SET 
67A8:  BSF    F96.1
67AA:  BTFSS  F84.1
67AC:  BRA    67C0
....................          {   
....................             delay_ms(30);visual=1; 
67AE:  MOVLW  1E
67B0:  MOVLB  6
67B2:  MOVWF  x17
67B4:  MOVLB  0
67B6:  CALL   0CD0
67BA:  MOVLB  5
67BC:  BSF    x67.3
67BE:  MOVLB  0
....................          }  
....................                    
....................          if(LEFT)//Si oprime boton de Toma. 
67C0:  BSF    F96.2
67C2:  BTFSS  F84.2
67C4:  BRA    683A
....................          { 
....................             delay_ms(700);Menu=100;glcd_fillscreen(OFF);Opcion=1;visual=1; 
67C6:  MOVLW  04
67C8:  MOVLB  6
67CA:  MOVWF  x11
67CC:  MOVLW  AF
67CE:  MOVWF  x17
67D0:  MOVLB  0
67D2:  CALL   0CD0
67D6:  MOVLB  6
67D8:  DECFSZ x11,F
67DA:  BRA    67CC
67DC:  MOVLW  64
67DE:  MOVLB  5
67E0:  MOVWF  x6B
67E2:  MOVLB  6
67E4:  CLRF   x12
67E6:  MOVLB  0
67E8:  CALL   0DEA
67EC:  MOVLW  01
67EE:  MOVLB  5
67F0:  MOVWF  x70
67F2:  BSF    x67.3
....................             write_eeprom(90,(int8)Ganancia); 
67F4:  MOVFF  5C4,614
67F8:  MOVFF  5C3,613
67FC:  MOVFF  5C2,612
6800:  MOVFF  5C1,611
6804:  MOVLB  0
6806:  CALL   283C
680A:  MOVFF  01,611
680E:  MOVLW  5A
6810:  MOVWF  FA9
6812:  MOVFF  611,FA8
6816:  BCF    FA6.6
6818:  BCF    FA6.7
681A:  BSF    FA6.2
681C:  MOVF   FF2,W
681E:  MOVWF  00
6820:  BCF    FF2.7
6822:  MOVLB  F
6824:  MOVLW  55
6826:  MOVWF  FA7
6828:  MOVLW  AA
682A:  MOVWF  FA7
682C:  BSF    FA6.1
682E:  BTFSC  FA6.1
6830:  BRA    682E
6832:  BCF    FA6.2
6834:  MOVF   00,W
6836:  IORWF  FF2,F
6838:  MOVLB  0
683A:  MOVLB  5
....................          } 
....................      } 
.................... //_-------------------------------------------------------------------------------------------------------------------------------------------------------- 
....................  
....................  
.................... //_--------------------------------------------------------------------------------------------------------------------------------------------------------       
....................       if(Menu==102){ // Menu de Ajuste de Ganancia2 
683C:  MOVF   x6B,W
683E:  SUBLW  66
6840:  BTFSS  FD8.2
6842:  BRA    6A9A
....................        
....................       if(Tciclo>40) 
6844:  MOVLB  6
6846:  CLRF   x14
6848:  CLRF   x13
684A:  MOVLW  20
684C:  MOVWF  x12
684E:  MOVLW  84
6850:  MOVWF  x11
6852:  MOVFF  5AC,618
6856:  MOVFF  5AB,617
685A:  MOVFF  5AA,616
685E:  MOVFF  5A9,615
6862:  MOVLB  0
6864:  CALL   0D30
6868:  BNC   6878
....................       { 
....................          Tciclo=40; 
686A:  MOVLB  5
686C:  CLRF   xAC
686E:  CLRF   xAB
6870:  MOVLW  20
6872:  MOVWF  xAA
6874:  MOVLW  84
6876:  MOVWF  xA9
....................       } 
....................        
....................       if(visual==1) 
6878:  MOVLB  5
687A:  BTFSS  x67.3
687C:  BRA    6904
....................       { 
....................          glcd_fillScreen(OFF); 
687E:  MOVLB  6
6880:  CLRF   x12
6882:  MOVLB  0
6884:  CALL   0DEA
....................          strcpy(Menus.Letra,"Tciclo"); 
6888:  MOVLW  05
688A:  MOVWF  FEA
688C:  MOVLW  F1
688E:  MOVWF  FE9
6890:  MOVFF  FF2,611
6894:  BCF    FF2.7
6896:  MOVLW  00
6898:  CALL   0B30
689C:  TBLRD*-
689E:  TBLRD*+
68A0:  MOVF   FF5,W
68A2:  MOVWF  FEE
68A4:  IORLW  00
68A6:  BNZ   689E
68A8:  MOVLB  6
68AA:  BTFSC  x11.7
68AC:  BSF    FF2.7
....................          displayMenu(Menus.Letra,0,0,1,2); 
68AE:  MOVLW  05
68B0:  MOVWF  x12
68B2:  MOVLW  F1
68B4:  MOVWF  x11
68B6:  CLRF   x13
68B8:  CLRF   x14
68BA:  MOVLW  01
68BC:  MOVWF  x15
68BE:  MOVLW  02
68C0:  MOVWF  x16
68C2:  MOVLB  0
68C4:  CALL   1418
....................           
....................          displayTemperatura(Tciclo,30,30,0,3); 
68C8:  MOVFF  5AC,614
68CC:  MOVFF  5AB,613
68D0:  MOVFF  5AA,612
68D4:  MOVFF  5A9,611
68D8:  CALL   283C
68DC:  MOVFF  02,612
68E0:  MOVFF  01,611
68E4:  MOVFF  02,614
68E8:  MOVFF  01,613
68EC:  MOVLW  1E
68EE:  MOVLB  6
68F0:  MOVWF  x15
68F2:  MOVWF  x16
68F4:  CLRF   x17
68F6:  MOVLW  03
68F8:  MOVWF  x18
68FA:  MOVLB  0
68FC:  CALL   2318
....................           
....................          visual=0; 
6900:  MOVLB  5
6902:  BCF    x67.3
....................       } 
....................        
....................          if(UP)//Si oprime hacia arriba 
6904:  BSF    F92.5
6906:  BTFSS  F80.5
6908:  BRA    6996
....................          {   
....................             if(Tciclo>40) 
690A:  MOVLB  6
690C:  CLRF   x14
690E:  CLRF   x13
6910:  MOVLW  20
6912:  MOVWF  x12
6914:  MOVLW  84
6916:  MOVWF  x11
6918:  MOVFF  5AC,618
691C:  MOVFF  5AB,617
6920:  MOVFF  5AA,616
6924:  MOVFF  5A9,615
6928:  MOVLB  0
692A:  CALL   0D30
692E:  BNC   6952
....................             { 
....................                Tciclo=40;delay_ms(100);visual=1; 
6930:  MOVLB  5
6932:  CLRF   xAC
6934:  CLRF   xAB
6936:  MOVLW  20
6938:  MOVWF  xAA
693A:  MOVLW  84
693C:  MOVWF  xA9
693E:  MOVLW  64
6940:  MOVLB  6
6942:  MOVWF  x17
6944:  MOVLB  0
6946:  CALL   0CD0
694A:  MOVLB  5
694C:  BSF    x67.3
....................             } 
....................             else 
694E:  BRA    6996
6950:  MOVLB  0
....................             { 
....................                delay_ms(30);Tciclo+=1.0;visual=1; 
6952:  MOVLW  1E
6954:  MOVLB  6
6956:  MOVWF  x17
6958:  MOVLB  0
695A:  CALL   0CD0
695E:  BCF    FD8.1
6960:  MOVFF  5AC,619
6964:  MOVFF  5AB,618
6968:  MOVFF  5AA,617
696C:  MOVFF  5A9,616
6970:  MOVLB  6
6972:  CLRF   x1D
6974:  CLRF   x1C
6976:  CLRF   x1B
6978:  MOVLW  7F
697A:  MOVWF  x1A
697C:  MOVLB  0
697E:  CALL   18AC
6982:  MOVFF  03,5AC
6986:  MOVFF  02,5AB
698A:  MOVFF  01,5AA
698E:  MOVFF  00,5A9
6992:  MOVLB  5
6994:  BSF    x67.3
....................             } 
....................          } 
....................                 
....................          if(DOWN)//Si oprime hacia abajo 
6996:  BSF    F96.0
6998:  BTFSS  F84.0
699A:  BRA    6A04
....................          {   
....................             if(Tciclo>1) 
699C:  MOVLB  6
699E:  CLRF   x14
69A0:  CLRF   x13
69A2:  CLRF   x12
69A4:  MOVLW  7F
69A6:  MOVWF  x11
69A8:  MOVFF  5AC,618
69AC:  MOVFF  5AB,617
69B0:  MOVFF  5AA,616
69B4:  MOVFF  5A9,615
69B8:  MOVLB  0
69BA:  CALL   0D30
69BE:  BNC   6A06
....................             { 
....................                delay_ms(30);Tciclo-=1.0;visual=1;      
69C0:  MOVLW  1E
69C2:  MOVLB  6
69C4:  MOVWF  x17
69C6:  MOVLB  0
69C8:  CALL   0CD0
69CC:  BSF    FD8.1
69CE:  MOVFF  5AC,619
69D2:  MOVFF  5AB,618
69D6:  MOVFF  5AA,617
69DA:  MOVFF  5A9,616
69DE:  MOVLB  6
69E0:  CLRF   x1D
69E2:  CLRF   x1C
69E4:  CLRF   x1B
69E6:  MOVLW  7F
69E8:  MOVWF  x1A
69EA:  MOVLB  0
69EC:  CALL   18AC
69F0:  MOVFF  03,5AC
69F4:  MOVFF  02,5AB
69F8:  MOVFF  01,5AA
69FC:  MOVFF  00,5A9
6A00:  MOVLB  5
6A02:  BSF    x67.3
6A04:  MOVLB  0
....................             } 
....................          } 
....................                 
....................          if(RIGHT)//Si oprime SET 
6A06:  BSF    F96.1
6A08:  BTFSS  F84.1
6A0A:  BRA    6A1E
....................          {   
....................             delay_ms(30);visual=1; 
6A0C:  MOVLW  1E
6A0E:  MOVLB  6
6A10:  MOVWF  x17
6A12:  MOVLB  0
6A14:  CALL   0CD0
6A18:  MOVLB  5
6A1A:  BSF    x67.3
6A1C:  MOVLB  0
....................          }  
....................                    
....................          if(LEFT)//Si oprime boton de Toma. 
6A1E:  BSF    F96.2
6A20:  BTFSS  F84.2
6A22:  BRA    6A98
....................          { 
....................             delay_ms(700);Menu=100;glcd_fillscreen(OFF);Opcion=1;visual=1; 
6A24:  MOVLW  04
6A26:  MOVLB  6
6A28:  MOVWF  x11
6A2A:  MOVLW  AF
6A2C:  MOVWF  x17
6A2E:  MOVLB  0
6A30:  CALL   0CD0
6A34:  MOVLB  6
6A36:  DECFSZ x11,F
6A38:  BRA    6A2A
6A3A:  MOVLW  64
6A3C:  MOVLB  5
6A3E:  MOVWF  x6B
6A40:  MOVLB  6
6A42:  CLRF   x12
6A44:  MOVLB  0
6A46:  CALL   0DEA
6A4A:  MOVLW  01
6A4C:  MOVLB  5
6A4E:  MOVWF  x70
6A50:  BSF    x67.3
....................             write_eeprom(30,(int8)Tciclo); 
6A52:  MOVFF  5AC,614
6A56:  MOVFF  5AB,613
6A5A:  MOVFF  5AA,612
6A5E:  MOVFF  5A9,611
6A62:  MOVLB  0
6A64:  CALL   283C
6A68:  MOVFF  01,611
6A6C:  MOVLW  1E
6A6E:  MOVWF  FA9
6A70:  MOVFF  611,FA8
6A74:  BCF    FA6.6
6A76:  BCF    FA6.7
6A78:  BSF    FA6.2
6A7A:  MOVF   FF2,W
6A7C:  MOVWF  00
6A7E:  BCF    FF2.7
6A80:  MOVLB  F
6A82:  MOVLW  55
6A84:  MOVWF  FA7
6A86:  MOVLW  AA
6A88:  MOVWF  FA7
6A8A:  BSF    FA6.1
6A8C:  BTFSC  FA6.1
6A8E:  BRA    6A8C
6A90:  BCF    FA6.2
6A92:  MOVF   00,W
6A94:  IORWF  FF2,F
6A96:  MOVLB  0
6A98:  MOVLB  5
....................          } 
....................      } 
.................... //_-------------------------------------------------------------------------------------------------------------------------------------------------------- 
....................  
.................... //_--------------------------------------------------------------------------------------------------------------------------------------------------------       
....................       if(Menu==103){ // Menu de Ajuste de Ajuste 
6A9A:  MOVF   x6B,W
6A9C:  SUBLW  67
6A9E:  BTFSS  FD8.2
6AA0:  BRA    6C6A
....................        
....................       if(Ajuste>100) 
6AA2:  MOVF   x60,W
6AA4:  SUBLW  64
6AA6:  BC    6AAA
....................       { 
....................          Ajuste=0; 
6AA8:  CLRF   x60
....................       } 
....................        
....................       if(visual==1) 
6AAA:  BTFSS  x67.3
6AAC:  BRA    6B16
....................       { 
....................          glcd_fillScreen(OFF); 
6AAE:  MOVLB  6
6AB0:  CLRF   x12
6AB2:  MOVLB  0
6AB4:  CALL   0DEA
....................          strcpy(Menus.Letra,"Ajuste"); 
6AB8:  MOVLW  05
6ABA:  MOVWF  FEA
6ABC:  MOVLW  F1
6ABE:  MOVWF  FE9
6AC0:  MOVFF  FF2,611
6AC4:  BCF    FF2.7
6AC6:  MOVLW  00
6AC8:  CALL   0BE6
6ACC:  TBLRD*-
6ACE:  TBLRD*+
6AD0:  MOVF   FF5,W
6AD2:  MOVWF  FEE
6AD4:  IORLW  00
6AD6:  BNZ   6ACE
6AD8:  MOVLB  6
6ADA:  BTFSC  x11.7
6ADC:  BSF    FF2.7
....................          displayMenu(Menus.Letra,0,0,1,2); 
6ADE:  MOVLW  05
6AE0:  MOVWF  x12
6AE2:  MOVLW  F1
6AE4:  MOVWF  x11
6AE6:  CLRF   x13
6AE8:  CLRF   x14
6AEA:  MOVLW  01
6AEC:  MOVWF  x15
6AEE:  MOVLW  02
6AF0:  MOVWF  x16
6AF2:  MOVLB  0
6AF4:  CALL   1418
....................           
....................          displayTemperatura(Ajuste,30,30,0,3); 
6AF8:  MOVLB  6
6AFA:  CLRF   x14
6AFC:  MOVFF  560,613
6B00:  MOVLW  1E
6B02:  MOVWF  x15
6B04:  MOVWF  x16
6B06:  CLRF   x17
6B08:  MOVLW  03
6B0A:  MOVWF  x18
6B0C:  MOVLB  0
6B0E:  CALL   2318
....................           
....................          visual=0; 
6B12:  MOVLB  5
6B14:  BCF    x67.3
....................       } 
....................        
....................          if(UP)//Si oprime hacia arriba 
6B16:  BSF    F92.5
6B18:  BTFSS  F80.5
6B1A:  BRA    6B90
....................          {   
....................             if(Ajuste>100) 
6B1C:  MOVF   x60,W
6B1E:  SUBLW  64
6B20:  BC    6B36
....................             { 
....................                Ajuste=100;delay_ms(100);visual=1; 
6B22:  MOVLW  64
6B24:  MOVWF  x60
6B26:  MOVLB  6
6B28:  MOVWF  x17
6B2A:  MOVLB  0
6B2C:  CALL   0CD0
6B30:  MOVLB  5
6B32:  BSF    x67.3
....................             } 
....................             else 
6B34:  BRA    6B90
....................             { 
....................                delay_ms(30);Ajuste+=1.0;visual=1; 
6B36:  MOVLW  1E
6B38:  MOVLB  6
6B3A:  MOVWF  x17
6B3C:  MOVLB  0
6B3E:  CALL   0CD0
6B42:  MOVLB  6
6B44:  CLRF   x18
6B46:  MOVFF  560,617
6B4A:  MOVLB  0
6B4C:  CALL   0CFA
6B50:  BCF    FD8.1
6B52:  MOVFF  03,619
6B56:  MOVFF  02,618
6B5A:  MOVFF  01,617
6B5E:  MOVFF  00,616
6B62:  MOVLB  6
6B64:  CLRF   x1D
6B66:  CLRF   x1C
6B68:  CLRF   x1B
6B6A:  MOVLW  7F
6B6C:  MOVWF  x1A
6B6E:  MOVLB  0
6B70:  CALL   18AC
6B74:  MOVFF  03,614
6B78:  MOVFF  02,613
6B7C:  MOVFF  01,612
6B80:  MOVFF  00,611
6B84:  CALL   283C
6B88:  MOVFF  01,560
6B8C:  MOVLB  5
6B8E:  BSF    x67.3
....................             } 
....................          } 
....................                 
....................          if(DOWN)//Si oprime hacia abajo 
6B90:  BSF    F96.0
6B92:  BTFSS  F84.0
6B94:  BRA    6BF4
....................          {   
....................             if(Ajuste>0) 
6B96:  MOVF   x60,F
6B98:  BZ    6BF4
....................             { 
....................                delay_ms(30);Ajuste-=1.0;visual=1;      
6B9A:  MOVLW  1E
6B9C:  MOVLB  6
6B9E:  MOVWF  x17
6BA0:  MOVLB  0
6BA2:  CALL   0CD0
6BA6:  MOVLB  6
6BA8:  CLRF   x18
6BAA:  MOVFF  560,617
6BAE:  MOVLB  0
6BB0:  CALL   0CFA
6BB4:  BSF    FD8.1
6BB6:  MOVFF  03,619
6BBA:  MOVFF  02,618
6BBE:  MOVFF  01,617
6BC2:  MOVFF  00,616
6BC6:  MOVLB  6
6BC8:  CLRF   x1D
6BCA:  CLRF   x1C
6BCC:  CLRF   x1B
6BCE:  MOVLW  7F
6BD0:  MOVWF  x1A
6BD2:  MOVLB  0
6BD4:  CALL   18AC
6BD8:  MOVFF  03,614
6BDC:  MOVFF  02,613
6BE0:  MOVFF  01,612
6BE4:  MOVFF  00,611
6BE8:  CALL   283C
6BEC:  MOVFF  01,560
6BF0:  MOVLB  5
6BF2:  BSF    x67.3
....................             } 
....................          } 
....................                 
....................          if(RIGHT)//Si oprime SET 
6BF4:  BSF    F96.1
6BF6:  BTFSS  F84.1
6BF8:  BRA    6C0A
....................          {   
....................             delay_ms(30);visual=1; 
6BFA:  MOVLW  1E
6BFC:  MOVLB  6
6BFE:  MOVWF  x17
6C00:  MOVLB  0
6C02:  CALL   0CD0
6C06:  MOVLB  5
6C08:  BSF    x67.3
....................          }  
....................                    
....................          if(LEFT)//Si oprime boton de Toma. 
6C0A:  BSF    F96.2
6C0C:  BTFSS  F84.2
6C0E:  BRA    6C6A
....................          { 
....................             delay_ms(700);Menu=100;glcd_fillscreen(OFF);Opcion=1;visual=1; 
6C10:  MOVLW  04
6C12:  MOVLB  6
6C14:  MOVWF  x11
6C16:  MOVLW  AF
6C18:  MOVWF  x17
6C1A:  MOVLB  0
6C1C:  CALL   0CD0
6C20:  MOVLB  6
6C22:  DECFSZ x11,F
6C24:  BRA    6C16
6C26:  MOVLW  64
6C28:  MOVLB  5
6C2A:  MOVWF  x6B
6C2C:  MOVLB  6
6C2E:  CLRF   x12
6C30:  MOVLB  0
6C32:  CALL   0DEA
6C36:  MOVLW  01
6C38:  MOVLB  5
6C3A:  MOVWF  x70
6C3C:  BSF    x67.3
....................             write_eeprom(40,Ajuste); 
6C3E:  MOVLW  28
6C40:  MOVWF  FA9
6C42:  MOVFF  560,FA8
6C46:  BCF    FA6.6
6C48:  BCF    FA6.7
6C4A:  BSF    FA6.2
6C4C:  MOVF   FF2,W
6C4E:  MOVWF  00
6C50:  BCF    FF2.7
6C52:  MOVLB  F
6C54:  MOVLW  55
6C56:  MOVWF  FA7
6C58:  MOVLW  AA
6C5A:  MOVWF  FA7
6C5C:  BSF    FA6.1
6C5E:  BTFSC  FA6.1
6C60:  BRA    6C5E
6C62:  BCF    FA6.2
6C64:  MOVF   00,W
6C66:  IORWF  FF2,F
6C68:  MOVLB  5
....................          } 
....................      } 
.................... //_-------------------------------------------------------------------------------------------------------------------------------------------------------- 
....................  
.................... //_--------------------------------------------------------------------------------------------------------------------------------------------------------       
....................       if(Menu==104){ // Menu de Ajuste de Ajusten 
6C6A:  MOVF   x6B,W
6C6C:  SUBLW  68
6C6E:  BTFSS  FD8.2
6C70:  BRA    6E3A
....................        
....................       if(Ajusten>100) 
6C72:  MOVF   x61,W
6C74:  SUBLW  64
6C76:  BC    6C7A
....................       { 
....................          Ajusten=0; 
6C78:  CLRF   x61
....................       } 
....................        
....................       if(visual==1) 
6C7A:  BTFSS  x67.3
6C7C:  BRA    6CE6
....................       { 
....................          glcd_fillScreen(OFF); 
6C7E:  MOVLB  6
6C80:  CLRF   x12
6C82:  MOVLB  0
6C84:  CALL   0DEA
....................          strcpy(Menus.Letra,"Ajusten"); 
6C88:  MOVLW  05
6C8A:  MOVWF  FEA
6C8C:  MOVLW  F1
6C8E:  MOVWF  FE9
6C90:  MOVFF  FF2,611
6C94:  BCF    FF2.7
6C96:  MOVLW  00
6C98:  CALL   0C08
6C9C:  TBLRD*-
6C9E:  TBLRD*+
6CA0:  MOVF   FF5,W
6CA2:  MOVWF  FEE
6CA4:  IORLW  00
6CA6:  BNZ   6C9E
6CA8:  MOVLB  6
6CAA:  BTFSC  x11.7
6CAC:  BSF    FF2.7
....................          displayMenu(Menus.Letra,0,0,1,2); 
6CAE:  MOVLW  05
6CB0:  MOVWF  x12
6CB2:  MOVLW  F1
6CB4:  MOVWF  x11
6CB6:  CLRF   x13
6CB8:  CLRF   x14
6CBA:  MOVLW  01
6CBC:  MOVWF  x15
6CBE:  MOVLW  02
6CC0:  MOVWF  x16
6CC2:  MOVLB  0
6CC4:  CALL   1418
....................           
....................          displayTemperatura(Ajusten,30,30,0,3); 
6CC8:  MOVLB  6
6CCA:  CLRF   x14
6CCC:  MOVFF  561,613
6CD0:  MOVLW  1E
6CD2:  MOVWF  x15
6CD4:  MOVWF  x16
6CD6:  CLRF   x17
6CD8:  MOVLW  03
6CDA:  MOVWF  x18
6CDC:  MOVLB  0
6CDE:  CALL   2318
....................           
....................          visual=0; 
6CE2:  MOVLB  5
6CE4:  BCF    x67.3
....................       } 
....................        
....................          if(UP)//Si oprime hacia arriba 
6CE6:  BSF    F92.5
6CE8:  BTFSS  F80.5
6CEA:  BRA    6D60
....................          {   
....................             if(Ajusten>100) 
6CEC:  MOVF   x61,W
6CEE:  SUBLW  64
6CF0:  BC    6D06
....................             { 
....................                Ajusten=100;delay_ms(100);visual=1; 
6CF2:  MOVLW  64
6CF4:  MOVWF  x61
6CF6:  MOVLB  6
6CF8:  MOVWF  x17
6CFA:  MOVLB  0
6CFC:  CALL   0CD0
6D00:  MOVLB  5
6D02:  BSF    x67.3
....................             } 
....................             else 
6D04:  BRA    6D60
....................             { 
....................                delay_ms(30);Ajusten+=1.0;visual=1; 
6D06:  MOVLW  1E
6D08:  MOVLB  6
6D0A:  MOVWF  x17
6D0C:  MOVLB  0
6D0E:  CALL   0CD0
6D12:  MOVLB  6
6D14:  CLRF   x18
6D16:  MOVFF  561,617
6D1A:  MOVLB  0
6D1C:  CALL   0CFA
6D20:  BCF    FD8.1
6D22:  MOVFF  03,619
6D26:  MOVFF  02,618
6D2A:  MOVFF  01,617
6D2E:  MOVFF  00,616
6D32:  MOVLB  6
6D34:  CLRF   x1D
6D36:  CLRF   x1C
6D38:  CLRF   x1B
6D3A:  MOVLW  7F
6D3C:  MOVWF  x1A
6D3E:  MOVLB  0
6D40:  CALL   18AC
6D44:  MOVFF  03,614
6D48:  MOVFF  02,613
6D4C:  MOVFF  01,612
6D50:  MOVFF  00,611
6D54:  CALL   283C
6D58:  MOVFF  01,561
6D5C:  MOVLB  5
6D5E:  BSF    x67.3
....................             } 
....................          } 
....................                 
....................          if(DOWN)//Si oprime hacia abajo 
6D60:  BSF    F96.0
6D62:  BTFSS  F84.0
6D64:  BRA    6DC4
....................          {   
....................             if(Ajusten>0) 
6D66:  MOVF   x61,F
6D68:  BZ    6DC4
....................             { 
....................                delay_ms(30);Ajusten-=1.0;visual=1;      
6D6A:  MOVLW  1E
6D6C:  MOVLB  6
6D6E:  MOVWF  x17
6D70:  MOVLB  0
6D72:  CALL   0CD0
6D76:  MOVLB  6
6D78:  CLRF   x18
6D7A:  MOVFF  561,617
6D7E:  MOVLB  0
6D80:  CALL   0CFA
6D84:  BSF    FD8.1
6D86:  MOVFF  03,619
6D8A:  MOVFF  02,618
6D8E:  MOVFF  01,617
6D92:  MOVFF  00,616
6D96:  MOVLB  6
6D98:  CLRF   x1D
6D9A:  CLRF   x1C
6D9C:  CLRF   x1B
6D9E:  MOVLW  7F
6DA0:  MOVWF  x1A
6DA2:  MOVLB  0
6DA4:  CALL   18AC
6DA8:  MOVFF  03,614
6DAC:  MOVFF  02,613
6DB0:  MOVFF  01,612
6DB4:  MOVFF  00,611
6DB8:  CALL   283C
6DBC:  MOVFF  01,561
6DC0:  MOVLB  5
6DC2:  BSF    x67.3
....................             } 
....................          } 
....................                 
....................          if(RIGHT)//Si oprime SET 
6DC4:  BSF    F96.1
6DC6:  BTFSS  F84.1
6DC8:  BRA    6DDA
....................          {   
....................             delay_ms(30);visual=1; 
6DCA:  MOVLW  1E
6DCC:  MOVLB  6
6DCE:  MOVWF  x17
6DD0:  MOVLB  0
6DD2:  CALL   0CD0
6DD6:  MOVLB  5
6DD8:  BSF    x67.3
....................          }  
....................                    
....................          if(LEFT)//Si oprime boton de Toma. 
6DDA:  BSF    F96.2
6DDC:  BTFSS  F84.2
6DDE:  BRA    6E3A
....................          { 
....................             delay_ms(700);Menu=100;glcd_fillscreen(OFF);Opcion=1;visual=1; 
6DE0:  MOVLW  04
6DE2:  MOVLB  6
6DE4:  MOVWF  x11
6DE6:  MOVLW  AF
6DE8:  MOVWF  x17
6DEA:  MOVLB  0
6DEC:  CALL   0CD0
6DF0:  MOVLB  6
6DF2:  DECFSZ x11,F
6DF4:  BRA    6DE6
6DF6:  MOVLW  64
6DF8:  MOVLB  5
6DFA:  MOVWF  x6B
6DFC:  MOVLB  6
6DFE:  CLRF   x12
6E00:  MOVLB  0
6E02:  CALL   0DEA
6E06:  MOVLW  01
6E08:  MOVLB  5
6E0A:  MOVWF  x70
6E0C:  BSF    x67.3
....................             write_eeprom(50,Ajusten); 
6E0E:  MOVLW  32
6E10:  MOVWF  FA9
6E12:  MOVFF  561,FA8
6E16:  BCF    FA6.6
6E18:  BCF    FA6.7
6E1A:  BSF    FA6.2
6E1C:  MOVF   FF2,W
6E1E:  MOVWF  00
6E20:  BCF    FF2.7
6E22:  MOVLB  F
6E24:  MOVLW  55
6E26:  MOVWF  FA7
6E28:  MOVLW  AA
6E2A:  MOVWF  FA7
6E2C:  BSF    FA6.1
6E2E:  BTFSC  FA6.1
6E30:  BRA    6E2E
6E32:  BCF    FA6.2
6E34:  MOVF   00,W
6E36:  IORWF  FF2,F
6E38:  MOVLB  5
....................          } 
....................      } 
.................... //_-------------------------------------------------------------------------------------------------------------------------------------------------------- 
....................  
.................... //_--------------------------------------------------------------------------------------------------------------------------------------------------------       
....................       if(Menu==105){ // Menu de Ajuste de Media Movil 
6E3A:  MOVF   x6B,W
6E3C:  SUBLW  69
6E3E:  BTFSS  FD8.2
6E40:  BRA    7010
....................        
....................       if(MediaMovil>79) 
6E42:  MOVF   x62,W
6E44:  SUBLW  4F
6E46:  BC    6E4C
....................       { 
....................          MediaMovil=10; 
6E48:  MOVLW  0A
6E4A:  MOVWF  x62
....................       } 
....................        
....................       if(visual==1) 
6E4C:  BTFSS  x67.3
6E4E:  BRA    6EB8
....................       { 
....................          glcd_fillScreen(OFF); 
6E50:  MOVLB  6
6E52:  CLRF   x12
6E54:  MOVLB  0
6E56:  CALL   0DEA
....................          strcpy(Menus.Letra,"Media"); 
6E5A:  MOVLW  05
6E5C:  MOVWF  FEA
6E5E:  MOVLW  F1
6E60:  MOVWF  FE9
6E62:  MOVFF  FF2,611
6E66:  BCF    FF2.7
6E68:  MOVLW  00
6E6A:  CALL   0C2A
6E6E:  TBLRD*-
6E70:  TBLRD*+
6E72:  MOVF   FF5,W
6E74:  MOVWF  FEE
6E76:  IORLW  00
6E78:  BNZ   6E70
6E7A:  MOVLB  6
6E7C:  BTFSC  x11.7
6E7E:  BSF    FF2.7
....................          displayMenu(Menus.Letra,0,0,1,2); 
6E80:  MOVLW  05
6E82:  MOVWF  x12
6E84:  MOVLW  F1
6E86:  MOVWF  x11
6E88:  CLRF   x13
6E8A:  CLRF   x14
6E8C:  MOVLW  01
6E8E:  MOVWF  x15
6E90:  MOVLW  02
6E92:  MOVWF  x16
6E94:  MOVLB  0
6E96:  CALL   1418
....................           
....................          displayTemperatura(MediaMovil,30,30,0,3); 
6E9A:  MOVLB  6
6E9C:  CLRF   x14
6E9E:  MOVFF  562,613
6EA2:  MOVLW  1E
6EA4:  MOVWF  x15
6EA6:  MOVWF  x16
6EA8:  CLRF   x17
6EAA:  MOVLW  03
6EAC:  MOVWF  x18
6EAE:  MOVLB  0
6EB0:  CALL   2318
....................           
....................          visual=0; 
6EB4:  MOVLB  5
6EB6:  BCF    x67.3
....................       } 
....................        
....................          if(UP)//Si oprime hacia arriba 
6EB8:  BSF    F92.5
6EBA:  BTFSS  F80.5
6EBC:  BRA    6F34
....................          {   
....................             if(MediaMovil>79) 
6EBE:  MOVF   x62,W
6EC0:  SUBLW  4F
6EC2:  BC    6EDA
....................             { 
....................                MediaMovil=79;delay_ms(100);visual=1; 
6EC4:  MOVLW  4F
6EC6:  MOVWF  x62
6EC8:  MOVLW  64
6ECA:  MOVLB  6
6ECC:  MOVWF  x17
6ECE:  MOVLB  0
6ED0:  CALL   0CD0
6ED4:  MOVLB  5
6ED6:  BSF    x67.3
....................             } 
....................             else 
6ED8:  BRA    6F34
....................             { 
....................                delay_ms(30);MediaMovil+=1.0;visual=1; 
6EDA:  MOVLW  1E
6EDC:  MOVLB  6
6EDE:  MOVWF  x17
6EE0:  MOVLB  0
6EE2:  CALL   0CD0
6EE6:  MOVLB  6
6EE8:  CLRF   x18
6EEA:  MOVFF  562,617
6EEE:  MOVLB  0
6EF0:  CALL   0CFA
6EF4:  BCF    FD8.1
6EF6:  MOVFF  03,619
6EFA:  MOVFF  02,618
6EFE:  MOVFF  01,617
6F02:  MOVFF  00,616
6F06:  MOVLB  6
6F08:  CLRF   x1D
6F0A:  CLRF   x1C
6F0C:  CLRF   x1B
6F0E:  MOVLW  7F
6F10:  MOVWF  x1A
6F12:  MOVLB  0
6F14:  CALL   18AC
6F18:  MOVFF  03,614
6F1C:  MOVFF  02,613
6F20:  MOVFF  01,612
6F24:  MOVFF  00,611
6F28:  CALL   283C
6F2C:  MOVFF  01,562
6F30:  MOVLB  5
6F32:  BSF    x67.3
....................             } 
....................          } 
....................                 
....................          if(DOWN)//Si oprime hacia abajo 
6F34:  BSF    F96.0
6F36:  BTFSS  F84.0
6F38:  BRA    6F9A
....................          {   
....................             if(MediaMovil>1) 
6F3A:  MOVF   x62,W
6F3C:  SUBLW  01
6F3E:  BC    6F9A
....................             { 
....................                delay_ms(30);MediaMovil-=1.0;visual=1;      
6F40:  MOVLW  1E
6F42:  MOVLB  6
6F44:  MOVWF  x17
6F46:  MOVLB  0
6F48:  CALL   0CD0
6F4C:  MOVLB  6
6F4E:  CLRF   x18
6F50:  MOVFF  562,617
6F54:  MOVLB  0
6F56:  CALL   0CFA
6F5A:  BSF    FD8.1
6F5C:  MOVFF  03,619
6F60:  MOVFF  02,618
6F64:  MOVFF  01,617
6F68:  MOVFF  00,616
6F6C:  MOVLB  6
6F6E:  CLRF   x1D
6F70:  CLRF   x1C
6F72:  CLRF   x1B
6F74:  MOVLW  7F
6F76:  MOVWF  x1A
6F78:  MOVLB  0
6F7A:  CALL   18AC
6F7E:  MOVFF  03,614
6F82:  MOVFF  02,613
6F86:  MOVFF  01,612
6F8A:  MOVFF  00,611
6F8E:  CALL   283C
6F92:  MOVFF  01,562
6F96:  MOVLB  5
6F98:  BSF    x67.3
....................             } 
....................          } 
....................                 
....................          if(RIGHT)//Si oprime SET 
6F9A:  BSF    F96.1
6F9C:  BTFSS  F84.1
6F9E:  BRA    6FB0
....................          {   
....................             delay_ms(30);visual=1; 
6FA0:  MOVLW  1E
6FA2:  MOVLB  6
6FA4:  MOVWF  x17
6FA6:  MOVLB  0
6FA8:  CALL   0CD0
6FAC:  MOVLB  5
6FAE:  BSF    x67.3
....................          }  
....................                    
....................          if(LEFT)//Si oprime boton de Toma. 
6FB0:  BSF    F96.2
6FB2:  BTFSS  F84.2
6FB4:  BRA    7010
....................          { 
....................             delay_ms(700);Menu=100;glcd_fillscreen(OFF);Opcion=1;visual=1; 
6FB6:  MOVLW  04
6FB8:  MOVLB  6
6FBA:  MOVWF  x11
6FBC:  MOVLW  AF
6FBE:  MOVWF  x17
6FC0:  MOVLB  0
6FC2:  CALL   0CD0
6FC6:  MOVLB  6
6FC8:  DECFSZ x11,F
6FCA:  BRA    6FBC
6FCC:  MOVLW  64
6FCE:  MOVLB  5
6FD0:  MOVWF  x6B
6FD2:  MOVLB  6
6FD4:  CLRF   x12
6FD6:  MOVLB  0
6FD8:  CALL   0DEA
6FDC:  MOVLW  01
6FDE:  MOVLB  5
6FE0:  MOVWF  x70
6FE2:  BSF    x67.3
....................             write_eeprom(60,MediaMovil); 
6FE4:  MOVLW  3C
6FE6:  MOVWF  FA9
6FE8:  MOVFF  562,FA8
6FEC:  BCF    FA6.6
6FEE:  BCF    FA6.7
6FF0:  BSF    FA6.2
6FF2:  MOVF   FF2,W
6FF4:  MOVWF  00
6FF6:  BCF    FF2.7
6FF8:  MOVLB  F
6FFA:  MOVLW  55
6FFC:  MOVWF  FA7
6FFE:  MOVLW  AA
7000:  MOVWF  FA7
7002:  BSF    FA6.1
7004:  BTFSC  FA6.1
7006:  BRA    7004
7008:  BCF    FA6.2
700A:  MOVF   00,W
700C:  IORWF  FF2,F
700E:  MOVLB  5
....................          } 
....................      } 
.................... //_-------------------------------------------------------------------------------------------------------------------------------------------------------- 
....................  
.................... //_--------------------------------------------------------------------------------------------------------------------------------------------------------       
....................       if(Menu==106){ // Menu de Ajuste de Coeficiente Regulador 
7010:  MOVF   x6B,W
7012:  SUBLW  6A
7014:  BTFSS  FD8.2
7016:  BRA    726E
....................        
....................       if(Coeficiente>250) 
7018:  MOVLB  6
701A:  CLRF   x14
701C:  CLRF   x13
701E:  MOVLW  7A
7020:  MOVWF  x12
7022:  MOVLW  86
7024:  MOVWF  x11
7026:  MOVFF  5CC,618
702A:  MOVFF  5CB,617
702E:  MOVFF  5CA,616
7032:  MOVFF  5C9,615
7036:  MOVLB  0
7038:  CALL   0D30
703C:  BNC   704C
....................       { 
....................          Coeficiente=100; 
703E:  MOVLB  5
7040:  CLRF   xCC
7042:  CLRF   xCB
7044:  MOVLW  48
7046:  MOVWF  xCA
7048:  MOVLW  85
704A:  MOVWF  xC9
....................       } 
....................        
....................       if(visual==1) 
704C:  MOVLB  5
704E:  BTFSS  x67.3
7050:  BRA    70D8
....................       { 
....................          glcd_fillScreen(OFF); 
7052:  MOVLB  6
7054:  CLRF   x12
7056:  MOVLB  0
7058:  CALL   0DEA
....................          strcpy(Menus.Letra,"Coeficiente"); 
705C:  MOVLW  05
705E:  MOVWF  FEA
7060:  MOVLW  F1
7062:  MOVWF  FE9
7064:  MOVFF  FF2,611
7068:  BCF    FF2.7
706A:  MOVLW  00
706C:  CALL   0BC0
7070:  TBLRD*-
7072:  TBLRD*+
7074:  MOVF   FF5,W
7076:  MOVWF  FEE
7078:  IORLW  00
707A:  BNZ   7072
707C:  MOVLB  6
707E:  BTFSC  x11.7
7080:  BSF    FF2.7
....................          displayMenu(Menus.Letra,0,0,1,2); 
7082:  MOVLW  05
7084:  MOVWF  x12
7086:  MOVLW  F1
7088:  MOVWF  x11
708A:  CLRF   x13
708C:  CLRF   x14
708E:  MOVLW  01
7090:  MOVWF  x15
7092:  MOVLW  02
7094:  MOVWF  x16
7096:  MOVLB  0
7098:  CALL   1418
....................           
....................          displayTemperatura(Coeficiente,30,30,0,3); 
709C:  MOVFF  5CC,614
70A0:  MOVFF  5CB,613
70A4:  MOVFF  5CA,612
70A8:  MOVFF  5C9,611
70AC:  CALL   283C
70B0:  MOVFF  02,612
70B4:  MOVFF  01,611
70B8:  MOVFF  02,614
70BC:  MOVFF  01,613
70C0:  MOVLW  1E
70C2:  MOVLB  6
70C4:  MOVWF  x15
70C6:  MOVWF  x16
70C8:  CLRF   x17
70CA:  MOVLW  03
70CC:  MOVWF  x18
70CE:  MOVLB  0
70D0:  CALL   2318
....................           
....................          visual=0; 
70D4:  MOVLB  5
70D6:  BCF    x67.3
....................       } 
....................        
....................          if(UP)//Si oprime hacia arriba 
70D8:  BSF    F92.5
70DA:  BTFSS  F80.5
70DC:  BRA    716A
....................          {   
....................             if(Coeficiente>250) 
70DE:  MOVLB  6
70E0:  CLRF   x14
70E2:  CLRF   x13
70E4:  MOVLW  7A
70E6:  MOVWF  x12
70E8:  MOVLW  86
70EA:  MOVWF  x11
70EC:  MOVFF  5CC,618
70F0:  MOVFF  5CB,617
70F4:  MOVFF  5CA,616
70F8:  MOVFF  5C9,615
70FC:  MOVLB  0
70FE:  CALL   0D30
7102:  BNC   7126
....................             { 
....................                Coeficiente=250;delay_ms(100);visual=1; 
7104:  MOVLB  5
7106:  CLRF   xCC
7108:  CLRF   xCB
710A:  MOVLW  7A
710C:  MOVWF  xCA
710E:  MOVLW  86
7110:  MOVWF  xC9
7112:  MOVLW  64
7114:  MOVLB  6
7116:  MOVWF  x17
7118:  MOVLB  0
711A:  CALL   0CD0
711E:  MOVLB  5
7120:  BSF    x67.3
....................             } 
....................             else 
7122:  BRA    716A
7124:  MOVLB  0
....................             { 
....................                delay_ms(30);Coeficiente+=1.0;visual=1; 
7126:  MOVLW  1E
7128:  MOVLB  6
712A:  MOVWF  x17
712C:  MOVLB  0
712E:  CALL   0CD0
7132:  BCF    FD8.1
7134:  MOVFF  5CC,619
7138:  MOVFF  5CB,618
713C:  MOVFF  5CA,617
7140:  MOVFF  5C9,616
7144:  MOVLB  6
7146:  CLRF   x1D
7148:  CLRF   x1C
714A:  CLRF   x1B
714C:  MOVLW  7F
714E:  MOVWF  x1A
7150:  MOVLB  0
7152:  CALL   18AC
7156:  MOVFF  03,5CC
715A:  MOVFF  02,5CB
715E:  MOVFF  01,5CA
7162:  MOVFF  00,5C9
7166:  MOVLB  5
7168:  BSF    x67.3
....................             } 
....................          } 
....................                 
....................          if(DOWN)//Si oprime hacia abajo 
716A:  BSF    F96.0
716C:  BTFSS  F84.0
716E:  BRA    71D8
....................          {   
....................             if(Coeficiente>1) 
7170:  MOVLB  6
7172:  CLRF   x14
7174:  CLRF   x13
7176:  CLRF   x12
7178:  MOVLW  7F
717A:  MOVWF  x11
717C:  MOVFF  5CC,618
7180:  MOVFF  5CB,617
7184:  MOVFF  5CA,616
7188:  MOVFF  5C9,615
718C:  MOVLB  0
718E:  CALL   0D30
7192:  BNC   71DA
....................             { 
....................                delay_ms(30);Coeficiente-=1.0;visual=1;      
7194:  MOVLW  1E
7196:  MOVLB  6
7198:  MOVWF  x17
719A:  MOVLB  0
719C:  CALL   0CD0
71A0:  BSF    FD8.1
71A2:  MOVFF  5CC,619
71A6:  MOVFF  5CB,618
71AA:  MOVFF  5CA,617
71AE:  MOVFF  5C9,616
71B2:  MOVLB  6
71B4:  CLRF   x1D
71B6:  CLRF   x1C
71B8:  CLRF   x1B
71BA:  MOVLW  7F
71BC:  MOVWF  x1A
71BE:  MOVLB  0
71C0:  CALL   18AC
71C4:  MOVFF  03,5CC
71C8:  MOVFF  02,5CB
71CC:  MOVFF  01,5CA
71D0:  MOVFF  00,5C9
71D4:  MOVLB  5
71D6:  BSF    x67.3
71D8:  MOVLB  0
....................             } 
....................          } 
....................                 
....................          if(RIGHT)//Si oprime SET 
71DA:  BSF    F96.1
71DC:  BTFSS  F84.1
71DE:  BRA    71F2
....................          {   
....................             delay_ms(30);visual=1; 
71E0:  MOVLW  1E
71E2:  MOVLB  6
71E4:  MOVWF  x17
71E6:  MOVLB  0
71E8:  CALL   0CD0
71EC:  MOVLB  5
71EE:  BSF    x67.3
71F0:  MOVLB  0
....................          }  
....................                    
....................          if(LEFT)//Si oprime boton de Toma. 
71F2:  BSF    F96.2
71F4:  BTFSS  F84.2
71F6:  BRA    726C
....................          { 
....................             delay_ms(700);Menu=100;glcd_fillscreen(OFF);Opcion=1;visual=1; 
71F8:  MOVLW  04
71FA:  MOVLB  6
71FC:  MOVWF  x11
71FE:  MOVLW  AF
7200:  MOVWF  x17
7202:  MOVLB  0
7204:  CALL   0CD0
7208:  MOVLB  6
720A:  DECFSZ x11,F
720C:  BRA    71FE
720E:  MOVLW  64
7210:  MOVLB  5
7212:  MOVWF  x6B
7214:  MOVLB  6
7216:  CLRF   x12
7218:  MOVLB  0
721A:  CALL   0DEA
721E:  MOVLW  01
7220:  MOVLB  5
7222:  MOVWF  x70
7224:  BSF    x67.3
....................             write_eeprom(70,(int8)Coeficiente); 
7226:  MOVFF  5CC,614
722A:  MOVFF  5CB,613
722E:  MOVFF  5CA,612
7232:  MOVFF  5C9,611
7236:  MOVLB  0
7238:  CALL   283C
723C:  MOVFF  01,611
7240:  MOVLW  46
7242:  MOVWF  FA9
7244:  MOVFF  611,FA8
7248:  BCF    FA6.6
724A:  BCF    FA6.7
724C:  BSF    FA6.2
724E:  MOVF   FF2,W
7250:  MOVWF  00
7252:  BCF    FF2.7
7254:  MOVLB  F
7256:  MOVLW  55
7258:  MOVWF  FA7
725A:  MOVLW  AA
725C:  MOVWF  FA7
725E:  BSF    FA6.1
7260:  BTFSC  FA6.1
7262:  BRA    7260
7264:  BCF    FA6.2
7266:  MOVF   00,W
7268:  IORWF  FF2,F
726A:  MOVLB  0
726C:  MOVLB  5
....................          } 
....................      } 
.................... //_-------------------------------------------------------------------------------------------------------------------------------------------------------- 
....................  
....................  
....................       if(tiemporeset>=60) 
726E:  MOVF   x6A,W
7270:  SUBLW  3B
7272:  BC    7284
....................       { 
....................          glcd_init(ON); 
7274:  MOVLW  01
7276:  MOVLB  6
7278:  MOVWF  x11
727A:  MOVLB  0
727C:  CALL   0EFC
....................          tiemporeset=0; 
7280:  MOVLB  5
7282:  CLRF   x6A
....................       }  
....................  
....................    } 
7284:  GOTO   3AA2
.................... } 
7288:  SLEEP 

Configuration Fuses:
   Word  1: C220   XTPLL IESO FCMEN PLL1 CPUDIV1 USBDIV
   Word  2: 1E3E   BROWNOUT NOWDT BORV20 PUT WDT32768 VREGEN
   Word  3: 0700   PBADEN CCP2C1 NOMCLR LPT1OSC
   Word  4: 0081   STVREN NODEBUG NOLVP NOXINST NOICPRT
   Word  5: C00F   NOPROTECT NOCPD NOCPB
   Word  6: E00F   NOWRT NOWRTD NOWRTC NOWRTB
   Word  7: 400F   NOEBTR NOEBTRB
