CCS PCH C Compiler, Version 4.104, 5967               30-sept.-17 10:58

               Filename: H:\JP\JP\Laboratorio\Incubadora\2017\Incubadora Refrigerada 22L Avantika #004587XX\Firmware V1.1\Horno.lst

               ROM used: 30074 bytes (92%)
                         Largest free fragment is 2690
               RAM used: 1595 (78%) at main() level
                         1647 (80%) worst case
               Stack:    5 worst case (4 in main + 1 for interrupts)

*
0000:  GOTO   33EE
*
0008:  MOVWF  04
000A:  MOVFF  FD8,05
000E:  MOVFF  FE0,06
0012:  MOVLB  0
0014:  MOVFF  FE9,0C
0018:  MOVFF  FEA,07
001C:  MOVFF  FE1,08
0020:  MOVFF  FE2,09
0024:  MOVFF  FD9,0A
0028:  MOVFF  FDA,0B
002C:  MOVFF  FF3,12
0030:  MOVFF  FF4,13
0034:  MOVFF  FFA,14
0038:  MOVFF  00,0E
003C:  MOVFF  01,0F
0040:  MOVFF  02,10
0044:  MOVFF  03,11
0048:  BTFSS  F9D.0
004A:  GOTO   0054
004E:  BTFSC  F9E.0
0050:  GOTO   0CA0
0054:  MOVFF  0E,00
0058:  MOVFF  0F,01
005C:  MOVFF  10,02
0060:  MOVFF  11,03
0064:  MOVFF  0C,FE9
0068:  MOVFF  07,FEA
006C:  BSF    07.7
006E:  MOVFF  08,FE1
0072:  MOVFF  09,FE2
0076:  MOVFF  0A,FD9
007A:  MOVFF  0B,FDA
007E:  MOVFF  12,FF3
0082:  MOVFF  13,FF4
0086:  MOVFF  14,FFA
008A:  MOVF   04,W
008C:  MOVFF  06,FE0
0090:  MOVFF  05,FD8
0094:  RETFIE 0
....................  
.................... #include <18F4550.h> 
.................... //////// Standard Header file for the PIC18F4550 device //////////////// 
.................... #device PIC18F4550 
.................... #list 
....................  
.................... #device adc=10 
.................... #fuses XTPLL,NOWDT,NOPROTECT,NOLVP,NODEBUG,USBDIV,PLL1,CPUDIV1,VREGEN,NOMCLR 
.................... #use delay(clock=48000000) 
*
0CFA:  MOVLW  06
0CFC:  MOVWF  FEA
0CFE:  MOVLW  3D
0D00:  MOVWF  FE9
0D02:  MOVF   FEF,W
0D04:  BZ    0D22
0D06:  MOVLW  0F
0D08:  MOVWF  01
0D0A:  CLRF   00
0D0C:  DECFSZ 00,F
0D0E:  BRA    0D0C
0D10:  DECFSZ 01,F
0D12:  BRA    0D0A
0D14:  MOVLW  8F
0D16:  MOVWF  00
0D18:  DECFSZ 00,F
0D1A:  BRA    0D18
0D1C:  NOP   
0D1E:  DECFSZ FEF,F
0D20:  BRA    0D06
0D22:  RETLW  00
.................... #include "HDM64GS12.c" 
.................... ///////////////////////////////////////////////////////////////////////// 
.................... ////                           HDM64GS12.c                           //// 
.................... ////                                                                 //// 
.................... //// This file contains drivers for using a Hantronix HDM64GS12 with //// 
.................... //// a KS0108 display controller. The HDM64GS12 is 128 by 64 pixels. //// 
.................... //// The driver treats the upper left pixel as (0,0).                //// 
.................... ////                                                                 //// 
.................... //// Use #define FAST_GLCD if the target chip has at least 1k of RAM //// 
.................... //// to decrease the time it takes to update the display.            //// 
.................... //// glcd_update() must then be called to update the display after   //// 
.................... //// changing the pixel information.                                 //// 
.................... //// See ex_glcd.c for suggested usage.                              //// 
.................... //// See KS0108.c for controlling a single 64 by 64 display          //// 
.................... ///////////////////////////////////////////////////////////////////////// 
.................... ////                                                                 //// 
.................... //// LCD Pin connections:                                            //// 
.................... //// (These can be changed as needed in the following defines).      //// 
.................... ////  * 1: VSS is connected to GND                                   //// 
.................... ////  * 2: VDD is connected to +5V                                   //// 
.................... ////  * 3: V0  - LCD operating voltage (Constrast adjustment)        //// 
.................... ////  * 4: D/I - Data or Instruction is connected to B2              //// 
.................... ////  * 5: R/W - Read or Write is connected to B4                    //// 
.................... ////  * 6: Enable is connected to B5                                 //// 
.................... ////  *7-14: Data Bus 0 to 7 is connected to port d                  //// 
.................... ////  *15: Chip Select 1 is connected to B0                          //// 
.................... ////  *16: Chip Select 2 is connected to B1                          //// 
.................... ////  *17: Reset is connected to C0                                  //// 
.................... ////  *18: Negative voltage is also connected to the 20k Ohm POT     //// 
.................... ////  *19: Positive voltage for LED backlight is connected to +5V    //// 
.................... ////  *20: Negavtive voltage for LED backlight is connected to GND   //// 
.................... ////                                                                 //// 
.................... ///////////////////////////////////////////////////////////////////////// 
.................... ////                                                                 //// 
.................... ////  glcd_init(mode)                                                //// 
.................... ////     * Must be called before any other function.                 //// 
.................... ////       - mode can be ON or OFF to turn the LCD on or off         //// 
.................... ////                                                                 //// 
.................... ////  glcd_pixel(x,y,color)                                          //// 
.................... ////     * Sets the pixel to the given color.                        //// 
.................... ////       - color can be ON or OFF                                  //// 
.................... ////                                                                 //// 
.................... ////  glcd_fillScreen(color)                                         //// 
.................... ////     * Fills the entire LCD with the given color.                //// 
.................... ////       - color can be ON or OFF                                  //// 
.................... ////                                                                 //// 
.................... ////  glcd_update()                                                  //// 
.................... ////     * Write the display data stored in RAM to the LCD           //// 
.................... ////     * Only available if FAST_GLCD is defined                    //// 
.................... ////                                                                 //// 
.................... ///////////////////////////////////////////////////////////////////////// 
.................... ////        (C) Copyright 1996, 2004 Custom Computer Services        //// 
.................... //// This source code may only be used by licensed users of the CCS  //// 
.................... //// C compiler.  This source code may only be distributed to other  //// 
.................... //// licensed users of the CCS C compiler.  No other use,            //// 
.................... //// reproduction or distribution is permitted without written       //// 
.................... //// permission.  Derivative programs created using this software    //// 
.................... //// in object code form are not restricted in any way.              //// 
.................... ///////////////////////////////////////////////////////////////////////// 
....................  
....................  
....................  
.................... #ifndef HDM64GS12 
.................... #define HDM64GS12 
....................  
.................... #ifndef FAST_GLCD 
.................... #define FAST_GLCD 
....................  
.................... #ifndef GLCD_WIDTH 
.................... #define GLCD_WIDTH   128 
.................... #endif 
....................  
.................... #ifndef GLCD_CS1 
.................... #define GLCD_CS1     PIN_B0   // Chip Selection 1 
.................... #endif 
....................  
.................... #ifndef GLCD_CS2 
.................... #define GLCD_CS2     PIN_B1   // Chip Selection 2 
.................... #endif 
....................  
.................... #ifndef GLCD_DI 
.................... #define GLCD_DI      PIN_B5   // Data or Instruction input 
.................... #endif 
....................  
.................... #ifndef GLCD_RW 
.................... #define GLCD_RW      PIN_B4   // Read/Write 
.................... #endif 
....................  
.................... #ifndef GLCD_E 
.................... #define GLCD_E       PIN_B3   // Enable 
.................... #endif 
....................  
.................... #ifndef GLCD_RST 
.................... #define GLCD_RST     PIN_B2   // Reset 
.................... #endif 
....................  
.................... #define GLCD_LEFT    0 
.................... #define GLCD_RIGHT   1 
....................  
.................... #ifndef ON 
.................... #define ON           1 
.................... #endif 
....................  
.................... #ifndef OFF 
.................... #define OFF          0 
.................... #endif 
....................  
.................... ///////////////////////////////////////////////////////////////////////// 
.................... // Function Prototypes 
.................... ///////////////////////////////////////////////////////////////////////// 
.................... void glcd_init(int1 mode); 
.................... void glcd_pixel(int8 x, int8 y, int1 color); 
.................... void glcd_fillScreen(int1 color); 
.................... void glcd_writeByte(int1 side, BYTE data); 
.................... BYTE glcd_readByte(int1 side); 
.................... void glcd_update(); 
.................... ///////////////////////////////////////////////////////////////////////// 
....................  
.................... #ifdef FAST_GLCD 
.................... struct 
.................... { 
....................    int8 left[512]; 
....................    int8 right[512]; 
.................... } displayData; 
.................... #endif 
....................  
....................  
.................... // Purpose:       Initialize the LCD. 
.................... //                Call before using any other LCD function. 
.................... // Inputs:        OFF - Turns the LCD off 
.................... //                ON  - Turns the LCD on 
.................... void glcd_init(int1 mode) 
.................... { 
....................    // Initialze some pins 
....................    output_high(GLCD_RST); 
*
0F26:  BCF    F93.2
0F28:  BSF    F8A.2
....................    output_low(GLCD_E); 
0F2A:  BCF    F93.3
0F2C:  BCF    F8A.3
....................    output_low(GLCD_CS1); 
0F2E:  BCF    F93.0
0F30:  BCF    F8A.0
....................    output_low(GLCD_CS2); 
0F32:  BCF    F93.1
0F34:  BCF    F8A.1
....................  
....................    output_low(GLCD_DI);                 // Set for instruction 
0F36:  BCF    F93.5
0F38:  BCF    F8A.5
....................    glcd_writeByte(GLCD_LEFT,  0xC0);    // Specify first RAM line at the top 
0F3A:  MOVLB  6
0F3C:  CLRF   x4F
0F3E:  MOVLW  C0
0F40:  MOVWF  x50
0F42:  MOVLB  0
0F44:  RCALL  0DD4
....................    glcd_writeByte(GLCD_RIGHT, 0xC0);    //   of the screen 
0F46:  MOVLW  01
0F48:  MOVLB  6
0F4A:  MOVWF  x4F
0F4C:  MOVLW  C0
0F4E:  MOVWF  x50
0F50:  MOVLB  0
0F52:  RCALL  0DD4
....................    glcd_writeByte(GLCD_LEFT,  0x40);    // Set the column address to 0 
0F54:  MOVLB  6
0F56:  CLRF   x4F
0F58:  MOVLW  40
0F5A:  MOVWF  x50
0F5C:  MOVLB  0
0F5E:  RCALL  0DD4
....................    glcd_writeByte(GLCD_RIGHT, 0x40); 
0F60:  MOVLW  01
0F62:  MOVLB  6
0F64:  MOVWF  x4F
0F66:  MOVLW  40
0F68:  MOVWF  x50
0F6A:  MOVLB  0
0F6C:  RCALL  0DD4
....................    glcd_writeByte(GLCD_LEFT,  0xB8);    // Set the page address to 0 
0F6E:  MOVLB  6
0F70:  CLRF   x4F
0F72:  MOVLW  B8
0F74:  MOVWF  x50
0F76:  MOVLB  0
0F78:  RCALL  0DD4
....................    glcd_writeByte(GLCD_RIGHT, 0xB8); 
0F7A:  MOVLW  01
0F7C:  MOVLB  6
0F7E:  MOVWF  x4F
0F80:  MOVLW  B8
0F82:  MOVWF  x50
0F84:  MOVLB  0
0F86:  RCALL  0DD4
....................  
....................    if(mode == ON) 
0F88:  MOVLB  6
0F8A:  DECFSZ x37,W
0F8C:  BRA    0FAA
....................    { 
....................       glcd_writeByte(GLCD_LEFT,  0x3F); // Turn the display on 
0F8E:  CLRF   x4F
0F90:  MOVLW  3F
0F92:  MOVWF  x50
0F94:  MOVLB  0
0F96:  RCALL  0DD4
....................       glcd_writeByte(GLCD_RIGHT, 0x3F); 
0F98:  MOVLW  01
0F9A:  MOVLB  6
0F9C:  MOVWF  x4F
0F9E:  MOVLW  3F
0FA0:  MOVWF  x50
0FA2:  MOVLB  0
0FA4:  RCALL  0DD4
....................    } 
....................    else 
0FA6:  BRA    0FC2
0FA8:  MOVLB  6
....................    { 
....................       glcd_writeByte(GLCD_LEFT,  0x3E); // Turn the display off 
0FAA:  CLRF   x4F
0FAC:  MOVLW  3E
0FAE:  MOVWF  x50
0FB0:  MOVLB  0
0FB2:  RCALL  0DD4
....................       glcd_writeByte(GLCD_RIGHT, 0x3E); 
0FB4:  MOVLW  01
0FB6:  MOVLB  6
0FB8:  MOVWF  x4F
0FBA:  MOVLW  3E
0FBC:  MOVWF  x50
0FBE:  MOVLB  0
0FC0:  RCALL  0DD4
....................    } 
....................  
....................    glcd_fillScreen(OFF);                // Clear the display 
0FC2:  MOVLB  6
0FC4:  CLRF   x38
0FC6:  MOVLB  0
0FC8:  RCALL  0E14
....................  
....................    #ifdef FAST_GLCD 
....................    glcd_update(); 
0FCA:  RCALL  0E6E
....................    #endif 
.................... } 
0FCC:  RETLW  00
....................  
....................  
.................... // Purpose:    Update the LCD with data from the display arrays 
.................... #ifdef FAST_GLCD 
.................... void glcd_update() 
.................... { 
....................    int8 i, j; 
....................    int8 *p1, *p2; 
....................  
....................    p1 = displayData.left; 
*
0E6E:  MOVLB  6
0E70:  CLRF   x4B
0E72:  MOVLW  16
0E74:  MOVWF  x4A
....................    p2 = displayData.right; 
0E76:  MOVLW  02
0E78:  MOVWF  x4D
0E7A:  MOVLW  16
0E7C:  MOVWF  x4C
....................  
....................    // Loop through the vertical pages 
....................    for(i = 0; i < 8; ++i) 
0E7E:  CLRF   x48
0E80:  MOVF   x48,W
0E82:  SUBLW  07
0E84:  BNC   0F22
....................    { 
....................       output_low(GLCD_DI);                      // Set for instruction 
0E86:  BCF    F93.5
0E88:  BCF    F8A.5
....................       glcd_writeByte(GLCD_LEFT, 0x40);          // Set horizontal address to 0 
0E8A:  CLRF   x4F
0E8C:  MOVLW  40
0E8E:  MOVWF  x50
0E90:  MOVLB  0
0E92:  RCALL  0DD4
....................       glcd_writeByte(GLCD_RIGHT, 0x40); 
0E94:  MOVLW  01
0E96:  MOVLB  6
0E98:  MOVWF  x4F
0E9A:  MOVLW  40
0E9C:  MOVWF  x50
0E9E:  MOVLB  0
0EA0:  RCALL  0DD4
....................       glcd_writeByte(GLCD_LEFT, i | 0xB8);      // Set page address 
0EA2:  MOVLB  6
0EA4:  MOVF   x48,W
0EA6:  IORLW  B8
0EA8:  MOVWF  x4E
0EAA:  CLRF   x4F
0EAC:  MOVWF  x50
0EAE:  MOVLB  0
0EB0:  RCALL  0DD4
....................       glcd_writeByte(GLCD_RIGHT, i | 0xB8); 
0EB2:  MOVLB  6
0EB4:  MOVF   x48,W
0EB6:  IORLW  B8
0EB8:  MOVWF  x4E
0EBA:  MOVLW  01
0EBC:  MOVWF  x4F
0EBE:  MOVFF  64E,650
0EC2:  MOVLB  0
0EC4:  RCALL  0DD4
....................       output_high(GLCD_DI);                     // Set for data 
0EC6:  BCF    F93.5
0EC8:  BSF    F8A.5
....................  
....................       // Loop through the horizontal sections 
....................       for(j = 0; j < 64; ++j) 
0ECA:  MOVLB  6
0ECC:  CLRF   x49
0ECE:  MOVF   x49,W
0ED0:  SUBLW  3F
0ED2:  BNC   0F1E
....................       { 
....................          glcd_writeByte(GLCD_LEFT, *p1++);      // Turn pixels on or off 
0ED4:  MOVFF  64B,03
0ED8:  MOVF   x4A,W
0EDA:  INCF   x4A,F
0EDC:  BTFSC  FD8.2
0EDE:  INCF   x4B,F
0EE0:  MOVWF  FE9
0EE2:  MOVFF  03,FEA
0EE6:  MOVFF  FEF,64E
0EEA:  CLRF   x4F
0EEC:  MOVFF  64E,650
0EF0:  MOVLB  0
0EF2:  RCALL  0DD4
....................          glcd_writeByte(GLCD_RIGHT, *p2++);     // Turn pixels on or off 
0EF4:  MOVLB  6
0EF6:  MOVFF  64D,03
0EFA:  MOVF   x4C,W
0EFC:  INCF   x4C,F
0EFE:  BTFSC  FD8.2
0F00:  INCF   x4D,F
0F02:  MOVWF  FE9
0F04:  MOVFF  03,FEA
0F08:  MOVFF  FEF,64E
0F0C:  MOVLW  01
0F0E:  MOVWF  x4F
0F10:  MOVFF  64E,650
0F14:  MOVLB  0
0F16:  RCALL  0DD4
....................       } 
0F18:  MOVLB  6
0F1A:  INCF   x49,F
0F1C:  BRA    0ECE
....................    } 
0F1E:  INCF   x48,F
0F20:  BRA    0E80
.................... } 
0F22:  MOVLB  0
0F24:  RETLW  00
.................... #endif 
....................  
....................  
.................... // Purpose:    Turn a pixel on a graphic LCD on or off 
.................... // Inputs:     1) x - the x coordinate of the pixel 
.................... //             2) y - the y coordinate of the pixel 
.................... //             3) color - ON or OFF 
.................... void glcd_pixel(int8 x, int8 y, int1 color) 
.................... #ifdef FAST_GLCD 
.................... { 
....................    int8* p; 
....................    int16 temp; 
....................    temp =  y/8; 
*
0FCE:  MOVLB  6
0FD0:  CLRF   x6B
0FD2:  RRCF   x66,W
0FD4:  MOVWF  x6A
0FD6:  RRCF   x6A,F
0FD8:  RRCF   x6A,F
0FDA:  MOVLW  1F
0FDC:  ANDWF  x6A,F
....................    temp *= 64; 
0FDE:  RLCF   x6A,F
0FE0:  RLCF   x6B,F
0FE2:  RLCF   x6A,F
0FE4:  RLCF   x6B,F
0FE6:  RLCF   x6A,F
0FE8:  RLCF   x6B,F
0FEA:  RLCF   x6A,F
0FEC:  RLCF   x6B,F
0FEE:  RLCF   x6A,F
0FF0:  RLCF   x6B,F
0FF2:  RLCF   x6A,F
0FF4:  RLCF   x6B,F
0FF6:  MOVLW  C0
0FF8:  ANDWF  x6A,F
....................    temp += x; 
0FFA:  MOVF   x65,W
0FFC:  ADDWF  x6A,F
0FFE:  MOVLW  00
1000:  ADDWFC x6B,F
....................  
....................    if(x > 63) 
1002:  MOVF   x65,W
1004:  SUBLW  3F
1006:  BC    1022
....................    { 
....................       p = displayData.right + temp - 64; 
1008:  MOVLW  16
100A:  ADDWF  x6A,W
100C:  MOVWF  x6C
100E:  MOVLW  02
1010:  ADDWFC x6B,W
1012:  MOVWF  x6D
1014:  MOVLW  40
1016:  SUBWF  x6C,W
1018:  MOVWF  x68
101A:  MOVLW  00
101C:  SUBWFB x6D,W
101E:  MOVWF  x69
....................    } 
....................    else 
1020:  BRA    102E
....................    { 
....................       p = displayData.left + temp; 
1022:  MOVLW  16
1024:  ADDWF  x6A,W
1026:  MOVWF  x68
1028:  MOVLW  00
102A:  ADDWFC x6B,W
102C:  MOVWF  x69
....................    } 
....................  
....................    if(color) 
102E:  MOVF   x67,F
1030:  BZ    105C
....................    { 
....................       bit_set(*p, y%8); 
1032:  MOVFF  669,03
1036:  MOVFF  668,FE9
103A:  MOVFF  669,FEA
103E:  MOVF   x66,W
1040:  ANDLW  07
1042:  MOVWF  x6C
1044:  MOVLW  01
1046:  MOVWF  00
1048:  MOVF   x6C,W
104A:  MOVWF  01
104C:  BZ    1056
104E:  BCF    FD8.0
1050:  RLCF   00,F
1052:  DECFSZ 01,F
1054:  BRA    104E
1056:  MOVF   00,W
1058:  IORWF  FEF,F
....................    } 
....................    else 
105A:  BRA    1086
....................    { 
....................       bit_clear(*p, y%8); 
105C:  MOVFF  669,03
1060:  MOVFF  668,FE9
1064:  MOVFF  669,FEA
1068:  MOVF   x66,W
106A:  ANDLW  07
106C:  MOVWF  x6C
106E:  MOVLW  01
1070:  MOVWF  00
1072:  MOVF   x6C,W
1074:  MOVWF  01
1076:  BZ    1080
1078:  BCF    FD8.0
107A:  RLCF   00,F
107C:  DECFSZ 01,F
107E:  BRA    1078
1080:  MOVF   00,W
1082:  XORLW  FF
1084:  ANDWF  FEF,F
....................    } 
.................... } 
1086:  MOVLB  0
1088:  RETLW  00
.................... #else 
.................... { 
....................    BYTE data; 
....................    int1 side = GLCD_LEFT;  // Stores which chip to use on the LCD 
....................  
....................    if(x > 63)              // Check for first or second display area 
....................    { 
....................       x -= 64; 
....................       side = GLCD_RIGHT; 
....................    } 
....................  
....................    output_low(GLCD_DI);                         // Set for instruction 
....................    bit_clear(x,7);                              // Clear the MSB. Part of an instruction code 
....................    bit_set(x,6);                                // Set bit 6. Also part of an instruction code 
....................    glcd_writeByte(side, x);                     // Set the horizontal address 
....................    glcd_writeByte(side, (y/8 & 0xBF) | 0xB8);   // Set the vertical page address 
....................    output_high(GLCD_DI);                        // Set for data 
....................    glcd_readByte(side);                         // Need two reads to get data 
....................    data = glcd_readByte(side);                  //  at new address 
....................  
....................    if(color == ON) 
....................       bit_set(data, y%8);        // Turn the pixel on 
....................    else                          // or 
....................       bit_clear(data, y%8);      // turn the pixel off 
....................  
....................    output_low(GLCD_DI);          // Set for instruction 
....................    glcd_writeByte(side, x);      // Set the horizontal address 
....................    output_high(GLCD_DI);         // Set for data 
....................    glcd_writeByte(side, data);   // Write the pixel data 
.................... } 
.................... #endif 
....................  
....................  
.................... // Purpose:    Fill the LCD screen with the passed in color 
.................... // Inputs:     ON  - turn all the pixels on 
.................... //             OFF - turn all the pixels off 
.................... void glcd_fillScreen(int1 color) 
.................... #ifdef FAST_GLCD 
.................... { 
....................    int8  data; 
....................    int8  *p1, *p2; 
....................    int16 i; 
....................  
....................    p1 = displayData.left; 
*
0E14:  MOVLB  6
0E16:  CLRF   x3B
0E18:  MOVLW  16
0E1A:  MOVWF  x3A
....................    p2 = displayData.right; 
0E1C:  MOVLW  02
0E1E:  MOVWF  x3D
0E20:  MOVLW  16
0E22:  MOVWF  x3C
....................    data = 0xFF * color; 
0E24:  MOVF   x38,W
0E26:  MULLW  FF
0E28:  MOVFF  FF3,639
....................  
....................    for(i=0; i<512; ++i) 
0E2C:  CLRF   x3F
0E2E:  CLRF   x3E
0E30:  MOVF   x3F,W
0E32:  SUBLW  01
0E34:  BNC   0E6A
....................    { 
....................       *p1++ = data; 
0E36:  MOVFF  63B,03
0E3A:  MOVF   x3A,W
0E3C:  INCF   x3A,F
0E3E:  BTFSC  FD8.2
0E40:  INCF   x3B,F
0E42:  MOVWF  FE9
0E44:  MOVFF  03,FEA
0E48:  MOVFF  639,FEF
....................       *p2++ = data; 
0E4C:  MOVFF  63D,03
0E50:  MOVF   x3C,W
0E52:  INCF   x3C,F
0E54:  BTFSC  FD8.2
0E56:  INCF   x3D,F
0E58:  MOVWF  FE9
0E5A:  MOVFF  03,FEA
0E5E:  MOVFF  639,FEF
....................    } 
0E62:  INCF   x3E,F
0E64:  BTFSC  FD8.2
0E66:  INCF   x3F,F
0E68:  BRA    0E30
.................... } 
0E6A:  MOVLB  0
0E6C:  RETLW  00
.................... #else 
.................... { 
....................    int8 i, j; 
....................  
....................    // Loop through the vertical pages 
....................    for(i = 0; i < 8; ++i) 
....................    { 
....................       output_low(GLCD_DI);                      // Set for instruction 
....................       glcd_writeByte(GLCD_LEFT, 0b01000000);    // Set horizontal address to 0 
....................       glcd_writeByte(GLCD_RIGHT, 0b01000000); 
....................       glcd_writeByte(GLCD_LEFT, i | 0b10111000);// Set page address 
....................       glcd_writeByte(GLCD_RIGHT, i | 0b10111000); 
....................       output_high(GLCD_DI);                     // Set for data 
....................  
....................       // Loop through the horizontal sections 
....................       for(j = 0; j < 64; ++j) 
....................       { 
....................          glcd_writeByte(GLCD_LEFT, 0xFF*color);  // Turn pixels on or off 
....................          glcd_writeByte(GLCD_RIGHT, 0xFF*color); // Turn pixels on or off 
....................       } 
....................    } 
.................... } 
.................... #endif 
....................  
....................  
.................... // Purpose:    Write a byte of data to the specified chip 
.................... // Inputs:     1) chipSelect - which chip to write the data to 
.................... //             2) data - the byte of data to write 
.................... void glcd_writeByte(int1 side, BYTE data) 
.................... { 
....................    if(side)                   // Choose which side to write to 
*
0DD4:  MOVLB  6
0DD6:  MOVF   x4F,F
0DD8:  BZ    0DE0
....................       output_high(GLCD_CS2); 
0DDA:  BCF    F93.1
0DDC:  BSF    F8A.1
....................    else 
0DDE:  BRA    0DE4
....................       output_high(GLCD_CS1); 
0DE0:  BCF    F93.0
0DE2:  BSF    F8A.0
....................  
....................    output_low(GLCD_RW);       // Set for writing 
0DE4:  BCF    F93.4
0DE6:  BCF    F8A.4
....................    output_d(data);            // Put the data on the port 
0DE8:  CLRF   F95
0DEA:  MOVFF  650,F8C
....................    delay_cycles(50); 
0DEE:  MOVLW  10
0DF0:  MOVWF  00
0DF2:  DECFSZ 00,F
0DF4:  BRA    0DF2
0DF6:  NOP   
....................    output_high(GLCD_E);       // Pulse the enable pin 
0DF8:  BCF    F93.3
0DFA:  BSF    F8A.3
....................    delay_cycles(250); 
0DFC:  MOVLW  53
0DFE:  MOVWF  00
0E00:  DECFSZ 00,F
0E02:  BRA    0E00
....................    output_low(GLCD_E); 
0E04:  BCF    F93.3
0E06:  BCF    F8A.3
....................  
....................    output_low(GLCD_CS1);      // Reset the chip select lines 
0E08:  BCF    F93.0
0E0A:  BCF    F8A.0
....................    output_low(GLCD_CS2); 
0E0C:  BCF    F93.1
0E0E:  BCF    F8A.1
.................... } 
0E10:  MOVLB  0
0E12:  RETLW  00
....................  
....................  
.................... // Purpose:    Reads a byte of data from the specified chip 
.................... // Ouputs:     A byte of data read from the chip 
.................... BYTE glcd_readByte(int1 side) 
.................... { 
....................    BYTE data;                 // Stores the data read from the LCD 
....................  
....................    set_tris_d(0xFF);          // Set port d to input 
....................    output_high(GLCD_RW);      // Set for reading 
....................  
....................    if(side)                   // Choose which side to write to 
....................       output_high(GLCD_CS2); 
....................    else 
....................       output_high(GLCD_CS1); 
....................  
....................    delay_cycles(50); 
....................    output_high(GLCD_E);       // Pulse the enable pin 
....................    delay_cycles(200); 
....................    data = input_d();          // Get the data from the display's output register 
....................    output_low(GLCD_E); 
....................  
....................    output_low(GLCD_CS1);      // Reset the chip select lines 
....................    output_low(GLCD_CS2); 
....................    return data;               // Return the read data 
.................... } 
....................  
.................... #endif 
....................  
.................... #include "GRAPHICS.c" 
.................... ///////////////////////////////////////////////////////////////////////// 
.................... ////                          graphics.c                             //// 
.................... ////                                                                 //// 
.................... ////   This file contains functions to draw lines, rectangles, bars, //// 
.................... ////   circles and text to a display. A function which draws a       //// 
.................... ////   single pixel must be defined before calling the functions in  //// 
.................... ////   this file. Call it glcd_pixel(x, y, color) where x is the     //// 
.................... ////   horizontal coordinate, y is the vertical coordinate, and      //// 
.................... ////   color is 1 bit to turn the pixel on or off.                   //// 
.................... ////                                                                 //// 
.................... ////   * Note: (0, 0) is treated as the upper left corner            //// 
.................... ////                                                                 //// 
.................... ///////////////////////////////////////////////////////////////////////// 
.................... ////                                                                 //// 
.................... ////  glcd_line(x1, y1, x2, y2, color)                               //// 
.................... ////     * Draws a line from the first point to the second point     //// 
.................... ////       with the given color                                      //// 
.................... ////       - color can be ON or OFF                                  //// 
.................... ////                                                                 //// 
.................... ////  glcd_rect(x1, y1, x2, y2, fill, color)                         //// 
.................... ////     * Draws a rectangle with one corner at point (x1,y1) and    //// 
.................... ////       the other corner at point (x2,y2)                         //// 
.................... ////       - fill can be YES or NO                                   //// 
.................... ////       - color can be ON or OFF                                  //// 
.................... ////                                                                 //// 
.................... ////  glcd_bar(x1, y1, x2, y2, width, color)                         //// 
.................... ////     * Draws a bar (wide line) from the first point to the       //// 
.................... ////       second point                                              //// 
.................... ////       - width is the number of pixels wide                      //// 
.................... ////       - color is ON or OFF                                      //// 
.................... ////                                                                 //// 
.................... ////  glcd_circle(x, y, radius, fill, color)                         //// 
.................... ////     * Draws a circle with center at (x,y)                       //// 
.................... ////       - fill can be YES or NO                                   //// 
.................... ////       - color can be ON or OFF                                  //// 
.................... ////                                                                 //// 
.................... ////  glcd_text57(x, y, textptr, size, color)                        //// 
.................... ////     * Write the null terminated text pointed to by textptr with //// 
.................... ////       the upper left coordinate of the first character at (x,y) //// 
.................... ////       Characters are 5 pixels wide and 7 pixels tall            //// 
.................... ////       - size is an integer that scales the size of the text     //// 
.................... ////       - color is ON or OFF                                      //// 
.................... ////     * Note - This function wraps characters to the next line    //// 
.................... ////              use #define GLCD_WIDTH to specify a display width  //// 
.................... ////                                                                 //// 
.................... ///////////////////////////////////////////////////////////////////////// 
.................... ////        (C) Copyright 1996, 2004 Custom Computer Services        //// 
.................... //// This source code may only be used by licensed users of the CCS  //// 
.................... //// C compiler.  This source code may only be distributed to other  //// 
.................... //// licensed users of the CCS C compiler.  No other use,            //// 
.................... //// reproduction or distribution is permitted without written       //// 
.................... //// permission.  Derivative programs created using this software    //// 
.................... //// in object code form are not restricted in any way.              //// 
.................... ///////////////////////////////////////////////////////////////////////// 
....................  
....................  
.................... ///////////////////////////////////////////////////////////////////////// 
.................... #ifndef GRAPHICS_DRAWING_FUNCTIONS 
.................... #define GRAPHICS_DRAWING_FUNCTIONS 
.................... ///////////////////////////////////////////////////////////////////////// 
....................  
....................  
.................... ///////////////////////////////////////////////////////////////////////// 
.................... #ifndef ON 
.................... #define ON  1 
.................... #endif 
....................  
.................... #ifndef OFF 
.................... #define OFF 0 
.................... #endif 
....................  
.................... #ifndef YES 
.................... #define YES 1 
.................... #endif 
....................  
.................... #ifndef NO 
.................... #define NO  0 
.................... #endif 
.................... ///////////////////////////////////////////////////////////////////////// 
....................  
....................  
.................... ///////////////////////////////////////////////////////////////////////// 
.................... //// Defines a 5x7 font 
.................... ///////////////////////////////////////////////////////////////////////// 
.................... const int8 FONT[51][5] ={0x00, 0x00, 0x00, 0x00, 0x00, // SPACE 
....................                          0x00, 0x00, 0x5F, 0x00, 0x00, // ! 
....................                          0x00, 0x03, 0x00, 0x03, 0x00, // " 
....................                          0x14, 0x3E, 0x14, 0x3E, 0x14, // # 
....................                          0x24, 0x2A, 0x7F, 0x2A, 0x12, // $ 
....................                          0x43, 0x33, 0x08, 0x66, 0x61, // % 
....................                          0x36, 0x49, 0x55, 0x22, 0x50, // & 
....................                          0x00, 0x05, 0x03, 0x00, 0x00, // ' 
....................                          0x00, 0x1C, 0x22, 0x41, 0x00, // ( 
....................                          0x00, 0x41, 0x22, 0x1C, 0x00, // ) 
....................                          0x14, 0x08, 0x3E, 0x08, 0x14, // * 
....................                          0x08, 0x08, 0x3E, 0x08, 0x08, // + 
....................                          0x00, 0x50, 0x30, 0x00, 0x00, // , 
....................                          0x08, 0x08, 0x08, 0x08, 0x08, // - 
....................                          0x00, 0x60, 0x60, 0x00, 0x00, // . 
....................                          0x20, 0x10, 0x08, 0x04, 0x02, // / 
....................                          0x3E, 0x51, 0x49, 0x45, 0x3E, // 0 
....................                          0x00, 0x04, 0x02, 0x7F, 0x00, // 1 
....................                          0x42, 0x61, 0x51, 0x49, 0x46, // 2 
....................                          0x22, 0x41, 0x49, 0x49, 0x36, // 3 
....................                          0x18, 0x14, 0x12, 0x7F, 0x10, // 4 
....................                          0x27, 0x45, 0x45, 0x45, 0x39, // 5 
....................                          0x3E, 0x49, 0x49, 0x49, 0x32, // 6 
....................                          0x01, 0x01, 0x71, 0x09, 0x07, // 7 
....................                          0x36, 0x49, 0x49, 0x49, 0x36, // 8 
....................                          0x26, 0x49, 0x49, 0x49, 0x3E, // 9 
....................                          0x00, 0x36, 0x36, 0x00, 0x00, // : 
....................                          0x00, 0x56, 0x36, 0x00, 0x00, // ; 
....................                          0x08, 0x14, 0x22, 0x41, 0x00, // < 
....................                          0x14, 0x14, 0x14, 0x14, 0x14, // = 
....................                          0x00, 0x41, 0x22, 0x14, 0x08, // > 
....................                          0x02, 0x01, 0x51, 0x09, 0x06, // ? 
....................                          0x3E, 0x41, 0x59, 0x55, 0x5E, // @ 
....................                          0x7E, 0x09, 0x09, 0x09, 0x7E, // A 
....................                          0x7F, 0x49, 0x49, 0x49, 0x36, // B 
....................                          0x3E, 0x41, 0x41, 0x41, 0x22, // C 
....................                          0x7F, 0x41, 0x41, 0x41, 0x3E, // D 
....................                          0x7F, 0x49, 0x49, 0x49, 0x41, // E 
....................                          0x7F, 0x09, 0x09, 0x09, 0x01, // F 
....................                          0x3E, 0x41, 0x41, 0x49, 0x3A, // G 
....................                          0x7F, 0x08, 0x08, 0x08, 0x7F, // H 
....................                          0x00, 0x41, 0x7F, 0x41, 0x00, // I 
....................                          0x30, 0x40, 0x40, 0x40, 0x3F, // J 
....................                          0x7F, 0x08, 0x14, 0x22, 0x41, // K 
....................                          0x7F, 0x40, 0x40, 0x40, 0x40, // L 
....................                          0x7F, 0x02, 0x0C, 0x02, 0x7F, // M 
....................                          0x7F, 0x02, 0x04, 0x08, 0x7F, // N 
....................                          0x3E, 0x41, 0x41, 0x41, 0x3E, // O 
....................                          0x7F, 0x09, 0x09, 0x09, 0x06, // P 
....................                          0x1E, 0x21, 0x21, 0x21, 0x5E, // Q 
....................                          0x7F, 0x09, 0x09, 0x09, 0x76};// R 
....................  
.................... const int8 FONT2[44][5]={0x26, 0x49, 0x49, 0x49, 0x32, // S 
....................                          0x01, 0x01, 0x7F, 0x01, 0x01, // T 
....................                          0x3F, 0x40, 0x40, 0x40, 0x3F, // U 
....................                          0x1F, 0x20, 0x40, 0x20, 0x1F, // V 
....................                          0x7F, 0x20, 0x10, 0x20, 0x7F, // W 
....................                          0x41, 0x22, 0x1C, 0x22, 0x41, // X 
....................                          0x07, 0x08, 0x70, 0x08, 0x07, // Y 
....................                          0x61, 0x51, 0x49, 0x45, 0x43, // Z 
....................                          0x00, 0x7F, 0x41, 0x00, 0x00, // [ 
....................                          0x02, 0x04, 0x08, 0x10, 0x20, // \ 
....................                          0x00, 0x00, 0x41, 0x7F, 0x00, // ] 
....................                          0x04, 0x02, 0x01, 0x02, 0x04, // ^ 
....................                          0x40, 0x40, 0x40, 0x40, 0x40, // _ 
....................                          0x00, 0x01, 0x02, 0x04, 0x00, // ` 
....................                          0x20, 0x54, 0x54, 0x54, 0x78, // a 
....................                          0x7F, 0x44, 0x44, 0x44, 0x38, // b 
....................                          0x38, 0x44, 0x44, 0x44, 0x44, // c 
....................                          0x38, 0x44, 0x44, 0x44, 0x7F, // d 
....................                          0x38, 0x54, 0x54, 0x54, 0x18, // e 
....................                          0x04, 0x04, 0x7E, 0x05, 0x05, // f 
....................                          0x08, 0x54, 0x54, 0x54, 0x3C, // g 
....................                          0x7F, 0x08, 0x04, 0x04, 0x78, // h 
....................                          0x00, 0x44, 0x7D, 0x40, 0x00, // i 
....................                          0x20, 0x40, 0x44, 0x3D, 0x00, // j 
....................                          0x7F, 0x10, 0x28, 0x44, 0x00, // k 
....................                          0x00, 0x41, 0x7F, 0x40, 0x00, // l 
....................                          0x7C, 0x04, 0x78, 0x04, 0x78, // m 
....................                          0x7C, 0x08, 0x04, 0x04, 0x78, // n 
....................                          0x38, 0x44, 0x44, 0x44, 0x38, // o 
....................                          0x7C, 0x14, 0x14, 0x14, 0x08, // p 
....................                          0x08, 0x14, 0x14, 0x14, 0x7C, // q 
....................                          0x00, 0x7C, 0x08, 0x04, 0x04, // r 
....................                          0x48, 0x54, 0x54, 0x54, 0x20, // s 
....................                          0x04, 0x04, 0x3F, 0x44, 0x44, // t 
....................                          0x3C, 0x40, 0x40, 0x20, 0x7C, // u 
....................                          0x1C, 0x20, 0x40, 0x20, 0x1C, // v 
....................                          0x3C, 0x40, 0x30, 0x40, 0x3C, // w 
....................                          0x44, 0x28, 0x10, 0x28, 0x44, // x 
....................                          0x0C, 0x50, 0x50, 0x50, 0x3C, // y 
....................                          0x44, 0x64, 0x54, 0x4C, 0x44, // z 
....................                          0x00, 0x08, 0x36, 0x41, 0x41, // { 
....................                          0x00, 0x00, 0x7F, 0x00, 0x00, // | 
....................                          0x41, 0x41, 0x36, 0x08, 0x00, // } 
....................                          0x02, 0x01, 0x02, 0x04, 0x02};// ~ 
.................... ///////////////////////////////////////////////////////////////////////// 
....................  
....................  
.................... ///////////////////////////////////////////////////////////////////////// 
.................... // Purpose:       Draw a line on a graphic LCD using Bresenham's 
.................... //                line drawing algorithm 
.................... // Inputs:        (x1, y1) - the start coordinate 
.................... //                (x2, y2) - the end coordinate 
.................... //                color - ON or OFF 
.................... // Dependencies:  glcd_pixel() 
.................... ///////////////////////////////////////////////////////////////////////// 
.................... #ifdef LARGE_LCD 
.................... void glcd_line(int16 x1, int16 y1, int16 x2, int16 y2, int1 color) 
.................... #else 
.................... void glcd_line(int8 x1, int8 y1, int8 x2, int8 y2, int1 color) 
.................... #endif 
.................... { 
*
1242:  MOVLW  01
1244:  MOVLB  6
1246:  MOVWF  x5E
1248:  MOVWF  x5F
124A:  CLRF   x64
....................    int16        dy, dx; 
....................    signed int8  addx=1, addy=1; 
....................    signed int16 P, diff; 
....................  
....................    #ifdef LARGE_LCD 
....................    int16 i=0; 
....................    dx = abs((signed int16)(x2 - x1)); 
....................    dy = abs((signed int16)(y2 - y1)); 
....................    #else 
....................    int8 i=0; 
....................    dx = abs((signed int8)(x2 - x1)); 
124C:  MOVF   x55,W
124E:  SUBWF  x57,W
1250:  MOVWF  x65
1252:  MOVF   x65,W
1254:  BTFSS  x65.7
1256:  BRA    125E
1258:  MOVLW  00
125A:  BSF    FD8.0
125C:  SUBFWB x65,W
125E:  CLRF   03
1260:  MOVWF  x5C
1262:  MOVFF  03,65D
....................    dy = abs((signed int8)(y2 - y1)); 
1266:  MOVF   x56,W
1268:  SUBWF  x58,W
126A:  MOVWF  x65
126C:  MOVF   x65,W
126E:  BTFSS  x65.7
1270:  BRA    1278
1272:  MOVLW  00
1274:  BSF    FD8.0
1276:  SUBFWB x65,W
1278:  CLRF   03
127A:  MOVWF  x5A
127C:  MOVFF  03,65B
....................    #endif 
....................  
....................    if(x1 > x2) 
1280:  MOVF   x55,W
1282:  SUBWF  x57,W
1284:  BC    128A
....................       addx = -1; 
1286:  MOVLW  FF
1288:  MOVWF  x5E
....................    if(y1 > y2) 
128A:  MOVF   x56,W
128C:  SUBWF  x58,W
128E:  BC    1294
....................       addy = -1; 
1290:  MOVLW  FF
1292:  MOVWF  x5F
....................  
....................    if(dx >= dy) 
1294:  MOVF   x5B,W
1296:  SUBWF  x5D,W
1298:  BNC   1310
129A:  BNZ   12A2
129C:  MOVF   x5A,W
129E:  SUBWF  x5C,W
12A0:  BNC   1310
....................    { 
....................       dy *= 2; 
12A2:  BCF    FD8.0
12A4:  RLCF   x5A,F
12A6:  RLCF   x5B,F
....................       P = dy - dx; 
12A8:  MOVF   x5C,W
12AA:  SUBWF  x5A,W
12AC:  MOVWF  00
12AE:  MOVF   x5D,W
12B0:  SUBWFB x5B,W
12B2:  MOVFF  00,660
12B6:  MOVWF  x61
....................       diff = P - dx; 
12B8:  MOVF   x5C,W
12BA:  SUBWF  x60,W
12BC:  MOVWF  x62
12BE:  MOVF   x5D,W
12C0:  SUBWFB x61,W
12C2:  MOVWF  x63
....................  
....................       for(; i<=dx; ++i) 
12C4:  MOVF   x5D,F
12C6:  BNZ   12CE
12C8:  MOVF   x64,W
12CA:  SUBWF  x5C,W
12CC:  BNC   130E
....................       { 
....................          glcd_pixel(x1, y1, color); 
12CE:  MOVFF  655,665
12D2:  MOVFF  656,666
12D6:  MOVFF  659,667
12DA:  MOVLB  0
12DC:  RCALL  0FCE
....................  
....................          if(P < 0) 
12DE:  MOVLB  6
12E0:  BTFSC  x61.7
12E2:  BRA    12E6
12E4:  BRA    12F6
....................          { 
....................             P  += dy; 
12E6:  MOVF   x5A,W
12E8:  ADDWF  x60,F
12EA:  MOVF   x5B,W
12EC:  ADDWFC x61,F
....................             x1 += addx; 
12EE:  MOVF   x5E,W
12F0:  ADDWF  x55,W
12F2:  MOVWF  x55
....................          } 
....................          else 
12F4:  BRA    130A
....................          { 
....................             P  += diff; 
12F6:  MOVF   x62,W
12F8:  ADDWF  x60,F
12FA:  MOVF   x63,W
12FC:  ADDWFC x61,F
....................             x1 += addx; 
12FE:  MOVF   x5E,W
1300:  ADDWF  x55,W
1302:  MOVWF  x55
....................             y1 += addy; 
1304:  MOVF   x5F,W
1306:  ADDWF  x56,W
1308:  MOVWF  x56
....................          } 
....................       } 
130A:  INCF   x64,F
130C:  BRA    12C4
....................    } 
....................    else 
130E:  BRA    137C
....................    { 
....................       dx *= 2; 
1310:  BCF    FD8.0
1312:  RLCF   x5C,F
1314:  RLCF   x5D,F
....................       P = dx - dy; 
1316:  MOVF   x5A,W
1318:  SUBWF  x5C,W
131A:  MOVWF  00
131C:  MOVF   x5B,W
131E:  SUBWFB x5D,W
1320:  MOVFF  00,660
1324:  MOVWF  x61
....................       diff = P - dy; 
1326:  MOVF   x5A,W
1328:  SUBWF  x60,W
132A:  MOVWF  x62
132C:  MOVF   x5B,W
132E:  SUBWFB x61,W
1330:  MOVWF  x63
....................  
....................       for(; i<=dy; ++i) 
1332:  MOVF   x5B,F
1334:  BNZ   133C
1336:  MOVF   x64,W
1338:  SUBWF  x5A,W
133A:  BNC   137C
....................       { 
....................          glcd_pixel(x1, y1, color); 
133C:  MOVFF  655,665
1340:  MOVFF  656,666
1344:  MOVFF  659,667
1348:  MOVLB  0
134A:  RCALL  0FCE
....................  
....................          if(P < 0) 
134C:  MOVLB  6
134E:  BTFSC  x61.7
1350:  BRA    1354
1352:  BRA    1364
....................          { 
....................             P  += dx; 
1354:  MOVF   x5C,W
1356:  ADDWF  x60,F
1358:  MOVF   x5D,W
135A:  ADDWFC x61,F
....................             y1 += addy; 
135C:  MOVF   x5F,W
135E:  ADDWF  x56,W
1360:  MOVWF  x56
....................          } 
....................          else 
1362:  BRA    1378
....................          { 
....................             P  += diff; 
1364:  MOVF   x62,W
1366:  ADDWF  x60,F
1368:  MOVF   x63,W
136A:  ADDWFC x61,F
....................             x1 += addx; 
136C:  MOVF   x5E,W
136E:  ADDWF  x55,W
1370:  MOVWF  x55
....................             y1 += addy; 
1372:  MOVF   x5F,W
1374:  ADDWF  x56,W
1376:  MOVWF  x56
....................          } 
....................       } 
1378:  INCF   x64,F
137A:  BRA    1332
....................    } 
.................... } 
137C:  MOVLB  0
137E:  RETLW  00
....................  
....................  
.................... ///////////////////////////////////////////////////////////////////////// 
.................... // Purpose:       Draw a rectangle on a graphic LCD 
.................... // Inputs:        (x1, y1) - the start coordinate 
.................... //                (x2, y2) - the end coordinate 
.................... //                fill  - YES or NO 
.................... //                color - ON or OFF 
.................... // Dependencies:  glcd_pixel(), glcd_line() 
.................... ///////////////////////////////////////////////////////////////////////// 
.................... #ifdef LARGE_LCD 
.................... void glcd_rect(int16 x1, int16 y1, int16 x2, int16 y2, int1 fill, int1 color) 
.................... #else 
.................... void glcd_rect(int8 x1, int8 y1, int8 x2, int8 y2, int1 fill, int1 color) 
.................... #endif 
.................... { 
....................    if(fill) 
1380:  MOVLB  6
1382:  MOVF   x4E,F
1384:  BZ    13E2
....................    { 
....................       #ifdef LARGE_LCD 
....................       int16 i, xmin, xmax, ymin, ymax; 
....................       #else 
....................       int8  i, xmin, xmax, ymin, ymax; 
....................       #endif 
....................  
....................       if(x1 < x2)                            //  Find x min and max 
1386:  MOVF   x4C,W
1388:  SUBWF  x4A,W
138A:  BC    1396
....................       { 
....................          xmin = x1; 
138C:  MOVFF  64A,651
....................          xmax = x2; 
1390:  MOVFF  64C,652
....................       } 
....................       else 
1394:  BRA    139E
....................       { 
....................          xmin = x2; 
1396:  MOVFF  64C,651
....................          xmax = x1; 
139A:  MOVFF  64A,652
....................       } 
....................  
....................       if(y1 < y2)                            // Find the y min and max 
139E:  MOVF   x4D,W
13A0:  SUBWF  x4B,W
13A2:  BC    13AE
....................       { 
....................          ymin = y1; 
13A4:  MOVFF  64B,653
....................          ymax = y2; 
13A8:  MOVFF  64D,654
....................       } 
....................       else 
13AC:  BRA    13B6
....................       { 
....................          ymin = y2; 
13AE:  MOVFF  64D,653
....................          ymax = y1; 
13B2:  MOVFF  64B,654
....................       } 
....................  
....................       for(; xmin <= xmax; ++xmin) 
13B6:  MOVF   x51,W
13B8:  SUBWF  x52,W
13BA:  BNC   13E0
....................       { 
....................          for(i=ymin; i<=ymax; ++i) 
13BC:  MOVFF  653,650
13C0:  MOVF   x50,W
13C2:  SUBWF  x54,W
13C4:  BNC   13DC
....................          { 
....................             glcd_pixel(xmin, i, color); 
13C6:  MOVFF  651,665
13CA:  MOVFF  650,666
13CE:  MOVFF  64F,667
13D2:  MOVLB  0
13D4:  RCALL  0FCE
....................          } 
13D6:  MOVLB  6
13D8:  INCF   x50,F
13DA:  BRA    13C0
....................       } 
13DC:  INCF   x51,F
13DE:  BRA    13B6
....................    } 
....................    else 
13E0:  BRA    143E
....................    { 
....................       glcd_line(x1, y1, x2, y1, color);      // Draw the 4 sides 
13E2:  MOVFF  64A,655
13E6:  MOVFF  64B,656
13EA:  MOVFF  64C,657
13EE:  MOVFF  64B,658
13F2:  MOVFF  64F,659
13F6:  MOVLB  0
13F8:  RCALL  1242
....................       glcd_line(x1, y2, x2, y2, color); 
13FA:  MOVFF  64A,655
13FE:  MOVFF  64D,656
1402:  MOVFF  64C,657
1406:  MOVFF  64D,658
140A:  MOVFF  64F,659
140E:  RCALL  1242
....................       glcd_line(x1, y1, x1, y2, color); 
1410:  MOVFF  64A,655
1414:  MOVFF  64B,656
1418:  MOVFF  64A,657
141C:  MOVFF  64D,658
1420:  MOVFF  64F,659
1424:  RCALL  1242
....................       glcd_line(x2, y1, x2, y2, color); 
1426:  MOVFF  64C,655
142A:  MOVFF  64B,656
142E:  MOVFF  64C,657
1432:  MOVFF  64D,658
1436:  MOVFF  64F,659
143A:  RCALL  1242
143C:  MOVLB  6
....................    } 
.................... } 
143E:  MOVLB  0
1440:  RETLW  00
....................  
.................... ///////////////////////////////////////////////////////////////////////// 
.................... // Purpose:       Draw a bar (wide line) on a graphic LCD 
.................... // Inputs:        (x1, y1) - the start coordinate 
.................... //                (x2, y2) - the end coordinate 
.................... //                width  - The number of pixels wide 
.................... //                color - ON or OFF 
.................... ///////////////////////////////////////////////////////////////////////// 
.................... #ifdef LARGE_LCD 
.................... void glcd_bar(int16 x1, int16 y1, int16 x2, int16 y2, int8 width, int1 color) 
.................... #else 
.................... void glcd_bar(int8 x1, int8 y1, int8 x2, int8 y2, int8 width, int1 color) 
.................... #endif 
.................... { 
....................    int8         half_width; 
....................    signed int16 dy, dx; 
....................    signed int8  addx=1, addy=1, j; 
....................    signed int16 P, diff, c1, c2; 
....................  
....................    #ifdef LARGE_LCD 
....................    int16 i=0; 
....................    dx = abs((signed int16)(x2 - x1)); 
....................    dy = abs((signed int16)(y2 - y1)); 
....................    #else 
....................    int8 i=0; 
....................    dx = abs((signed int8)(x2 - x1)); 
....................    dy = abs((signed int8)(y2 - y1)); 
....................    #endif 
....................  
....................    half_width = width/2; 
....................    c1 = -(dx*x1 + dy*y1); 
....................    c2 = -(dx*x2 + dy*y2); 
....................  
....................    if(x1 > x2) 
....................    { 
....................       signed int16 temp; 
....................       temp = c1; 
....................       c1 = c2; 
....................       c2 = temp; 
....................       addx = -1; 
....................    } 
....................    if(y1 > y2) 
....................    { 
....................       signed int16 temp; 
....................       temp = c1; 
....................       c1 = c2; 
....................       c2 = temp; 
....................       addy = -1; 
....................    } 
....................  
....................    if(dx >= dy) 
....................    { 
....................       P = 2*dy - dx; 
....................       diff = P - dx; 
....................  
....................       for(i=0; i<=dx; ++i) 
....................       { 
....................          for(j=-half_width; j<half_width+width%2; ++j) 
....................          { 
....................             #ifdef LARGE_LCD 
....................             int16 temp; 
....................             #else 
....................             int8 temp; 
....................             #endif 
....................  
....................             temp = dx*x1+dy*(y1+j);    // Use more RAM to increase speed 
....................             if(temp+c1 >= 0 && temp+c2 <=0) 
....................                glcd_pixel(x1, y1+j, color); 
....................          } 
....................          if(P < 0) 
....................          { 
....................             P  += 2*dy; 
....................             x1 += addx; 
....................          } 
....................          else 
....................          { 
....................             P  += diff; 
....................             x1 += addx; 
....................             y1 += addy; 
....................          } 
....................       } 
....................    } 
....................    else 
....................    { 
....................       P = 2*dx - dy; 
....................       diff = P - dy; 
....................  
....................       for(i=0; i<=dy; ++i) 
....................       { 
....................          if(P < 0) 
....................          { 
....................             P  += 2*dx; 
....................             y1 += addy; 
....................          } 
....................          else 
....................          { 
....................             P  += diff; 
....................             x1 += addx; 
....................             y1 += addy; 
....................          } 
....................          for(j=-half_width; j<half_width+width%2; ++j) 
....................          { 
....................             #ifdef LARGE_LCD 
....................             int16 temp; 
....................             #else 
....................             int8 temp; 
....................             #endif 
....................  
....................             temp = dx*x1+dy*(y1+j);    // Use more RAM to increase speed 
....................             if(temp+c1 >= 0 && temp+c2 <=0) 
....................                glcd_pixel(x1+j, y1, color); 
....................          } 
....................       } 
....................    } 
.................... } 
....................  
....................  
.................... ///////////////////////////////////////////////////////////////////////// 
.................... // Purpose:       Draw a circle on a graphic LCD 
.................... // Inputs:        (x,y) - the center of the circle 
.................... //                radius - the radius of the circle 
.................... //                fill - YES or NO 
.................... //                color - ON or OFF 
.................... ///////////////////////////////////////////////////////////////////////// 
.................... #ifdef LARGE_LCD 
.................... void glcd_circle(int16 x, int16 y, int16 radius, int1 fill, int1 color) 
.................... #else 
.................... void glcd_circle(int8 x, int8 y, int8 radius, int1 fill, int1 color) 
.................... #endif 
.................... { 
....................    #ifdef LARGE_LCD 
....................    signed int16 a, b, P; 
....................    #else 
....................    signed int8  a, b, P; 
....................    #endif 
....................  
....................    a = 0; 
*
205A:  MOVLB  6
205C:  CLRF   x3C
....................    b = radius; 
205E:  MOVFF  639,63D
....................    P = 1 - radius; 
2062:  MOVLW  01
2064:  BSF    FD8.0
2066:  SUBFWB x39,W
2068:  MOVWF  x3E
....................  
....................    do 
....................    { 
....................       if(fill) 
206A:  MOVF   x3A,F
206C:  BZ    2138
....................       { 
....................          glcd_line(x-a, y+b, x+a, y+b, color); 
206E:  MOVF   x3C,W
2070:  SUBWF  x37,W
2072:  MOVWF  x3F
2074:  MOVF   x3D,W
2076:  ADDWF  x38,W
2078:  MOVWF  x40
207A:  MOVF   x3C,W
207C:  ADDWF  x37,W
207E:  MOVWF  x41
2080:  MOVF   x3D,W
2082:  ADDWF  x38,W
2084:  MOVWF  x42
2086:  MOVFF  63F,655
208A:  MOVFF  640,656
208E:  MOVFF  641,657
2092:  MOVWF  x58
2094:  MOVFF  63B,659
2098:  MOVLB  0
209A:  CALL   1242
....................          glcd_line(x-a, y-b, x+a, y-b, color); 
209E:  MOVLB  6
20A0:  MOVF   x3C,W
20A2:  SUBWF  x37,W
20A4:  MOVWF  x3F
20A6:  MOVF   x3D,W
20A8:  SUBWF  x38,W
20AA:  MOVWF  x40
20AC:  MOVF   x3C,W
20AE:  ADDWF  x37,W
20B0:  MOVWF  x41
20B2:  MOVF   x3D,W
20B4:  SUBWF  x38,W
20B6:  MOVWF  x42
20B8:  MOVFF  63F,655
20BC:  MOVFF  640,656
20C0:  MOVFF  641,657
20C4:  MOVWF  x58
20C6:  MOVFF  63B,659
20CA:  MOVLB  0
20CC:  CALL   1242
....................          glcd_line(x-b, y+a, x+b, y+a, color); 
20D0:  MOVLB  6
20D2:  MOVF   x3D,W
20D4:  SUBWF  x37,W
20D6:  MOVWF  x3F
20D8:  MOVF   x3C,W
20DA:  ADDWF  x38,W
20DC:  MOVWF  x40
20DE:  MOVF   x3D,W
20E0:  ADDWF  x37,W
20E2:  MOVWF  x41
20E4:  MOVF   x3C,W
20E6:  ADDWF  x38,W
20E8:  MOVWF  x42
20EA:  MOVFF  63F,655
20EE:  MOVFF  640,656
20F2:  MOVFF  641,657
20F6:  MOVWF  x58
20F8:  MOVFF  63B,659
20FC:  MOVLB  0
20FE:  CALL   1242
....................          glcd_line(x-b, y-a, x+b, y-a, color); 
2102:  MOVLB  6
2104:  MOVF   x3D,W
2106:  SUBWF  x37,W
2108:  MOVWF  x3F
210A:  MOVF   x3C,W
210C:  SUBWF  x38,W
210E:  MOVWF  x40
2110:  MOVF   x3D,W
2112:  ADDWF  x37,W
2114:  MOVWF  x41
2116:  MOVF   x3C,W
2118:  SUBWF  x38,W
211A:  MOVWF  x42
211C:  MOVFF  63F,655
2120:  MOVFF  640,656
2124:  MOVFF  641,657
2128:  MOVWF  x58
212A:  MOVFF  63B,659
212E:  MOVLB  0
2130:  CALL   1242
....................       } 
....................       else 
2134:  BRA    2226
2136:  MOVLB  6
....................       { 
....................          glcd_pixel(a+x, b+y, color); 
2138:  MOVF   x37,W
213A:  ADDWF  x3C,W
213C:  MOVWF  x3F
213E:  MOVF   x38,W
2140:  ADDWF  x3D,W
2142:  MOVWF  x40
2144:  MOVFF  63F,665
2148:  MOVWF  x66
214A:  MOVFF  63B,667
214E:  MOVLB  0
2150:  CALL   0FCE
....................          glcd_pixel(b+x, a+y, color); 
2154:  MOVLB  6
2156:  MOVF   x37,W
2158:  ADDWF  x3D,W
215A:  MOVWF  x3F
215C:  MOVF   x38,W
215E:  ADDWF  x3C,W
2160:  MOVWF  x40
2162:  MOVFF  63F,665
2166:  MOVWF  x66
2168:  MOVFF  63B,667
216C:  MOVLB  0
216E:  CALL   0FCE
....................          glcd_pixel(x-a, b+y, color); 
2172:  MOVLB  6
2174:  MOVF   x3C,W
2176:  SUBWF  x37,W
2178:  MOVWF  x3F
217A:  MOVF   x38,W
217C:  ADDWF  x3D,W
217E:  MOVWF  x40
2180:  MOVFF  63F,665
2184:  MOVWF  x66
2186:  MOVFF  63B,667
218A:  MOVLB  0
218C:  CALL   0FCE
....................          glcd_pixel(x-b, a+y, color); 
2190:  MOVLB  6
2192:  MOVF   x3D,W
2194:  SUBWF  x37,W
2196:  MOVWF  x3F
2198:  MOVF   x38,W
219A:  ADDWF  x3C,W
219C:  MOVWF  x40
219E:  MOVFF  63F,665
21A2:  MOVWF  x66
21A4:  MOVFF  63B,667
21A8:  MOVLB  0
21AA:  CALL   0FCE
....................          glcd_pixel(b+x, y-a, color); 
21AE:  MOVLB  6
21B0:  MOVF   x37,W
21B2:  ADDWF  x3D,W
21B4:  MOVWF  x3F
21B6:  MOVF   x3C,W
21B8:  SUBWF  x38,W
21BA:  MOVWF  x40
21BC:  MOVFF  63F,665
21C0:  MOVWF  x66
21C2:  MOVFF  63B,667
21C6:  MOVLB  0
21C8:  CALL   0FCE
....................          glcd_pixel(a+x, y-b, color); 
21CC:  MOVLB  6
21CE:  MOVF   x37,W
21D0:  ADDWF  x3C,W
21D2:  MOVWF  x3F
21D4:  MOVF   x3D,W
21D6:  SUBWF  x38,W
21D8:  MOVWF  x40
21DA:  MOVFF  63F,665
21DE:  MOVWF  x66
21E0:  MOVFF  63B,667
21E4:  MOVLB  0
21E6:  CALL   0FCE
....................          glcd_pixel(x-a, y-b, color); 
21EA:  MOVLB  6
21EC:  MOVF   x3C,W
21EE:  SUBWF  x37,W
21F0:  MOVWF  x3F
21F2:  MOVF   x3D,W
21F4:  SUBWF  x38,W
21F6:  MOVWF  x40
21F8:  MOVFF  63F,665
21FC:  MOVWF  x66
21FE:  MOVFF  63B,667
2202:  MOVLB  0
2204:  CALL   0FCE
....................          glcd_pixel(x-b, y-a, color); 
2208:  MOVLB  6
220A:  MOVF   x3D,W
220C:  SUBWF  x37,W
220E:  MOVWF  x3F
2210:  MOVF   x3C,W
2212:  SUBWF  x38,W
2214:  MOVWF  x40
2216:  MOVFF  63F,665
221A:  MOVWF  x66
221C:  MOVFF  63B,667
2220:  MOVLB  0
2222:  CALL   0FCE
....................       } 
....................  
....................       if(P < 0) 
2226:  MOVLB  6
2228:  BTFSC  x3E.7
222A:  BRA    222E
222C:  BRA    224A
....................          P += 3 + 2 * a++; 
222E:  MOVF   x3C,W
2230:  INCF   x3C,F
2232:  MOVWF  x3F
2234:  MOVLW  02
2236:  MOVWF  x40
2238:  MOVFF  63F,641
223C:  MOVLB  0
223E:  RCALL  200C
2240:  MOVF   01,W
2242:  ADDLW  03
2244:  MOVLB  6
2246:  ADDWF  x3E,F
....................       else 
2248:  BRA    226C
....................          P += 5 + 2 * (a++ - b--); 
224A:  MOVF   x3C,W
224C:  INCF   x3C,F
224E:  MOVWF  x3F
2250:  MOVF   x3D,W
2252:  DECF   x3D,F
2254:  SUBWF  x3F,W
2256:  MOVWF  x3F
2258:  MOVLW  02
225A:  MOVWF  x40
225C:  MOVFF  63F,641
2260:  MOVLB  0
2262:  RCALL  200C
2264:  MOVF   01,W
2266:  ADDLW  05
2268:  MOVLB  6
226A:  ADDWF  x3E,F
....................     } while(a <= b); 
226C:  MOVF   x3C,W
226E:  XORLW  80
2270:  MOVWF  00
2272:  MOVF   x3D,W
2274:  XORLW  80
2276:  SUBWF  00,W
2278:  BTFSC  FD8.2
227A:  BRA    206A
227C:  BTFSS  FD8.0
227E:  BRA    206A
.................... } 
2280:  MOVLB  0
2282:  RETLW  00
....................  
....................  
.................... ///////////////////////////////////////////////////////////////////////// 
.................... // Purpose:       Write text on a graphic LCD 
.................... // Inputs:        (x,y) - The upper left coordinate of the first letter 
.................... //                textptr - A pointer to an array of text to display 
.................... //                size - The size of the text: 1 = 5x7, 2 = 10x14, ... 
.................... //                color - ON or OFF 
.................... ///////////////////////////////////////////////////////////////////////// 
.................... #ifdef LARGE_LCD 
.................... void glcd_text57(int16 x, int16 y, char* textptr, int8 size, int1 color) 
.................... #else 
.................... void glcd_text57(int8 x, int8 y, char* textptr, int8 size, int1 color) 
.................... #endif 
.................... { 
....................    int8 j, k, l, m;                       // Loop counters 
....................    int8 pixelData[5];                     // Stores character data 
....................  
....................    for(; *textptr != '\0'; ++textptr, ++x)// Loop through the passed string 
*
108A:  MOVFF  64D,03
108E:  MOVLB  6
1090:  MOVFF  64C,FE9
1094:  MOVFF  64D,FEA
1098:  MOVF   FEF,F
109A:  BTFSC  FD8.2
109C:  BRA    123E
....................    { 
....................       if(*textptr < 'S') // Checks if the letter is in the first font array 
109E:  MOVFF  64D,03
10A2:  MOVFF  64C,FE9
10A6:  MOVFF  64D,FEA
10AA:  MOVF   FEF,W
10AC:  SUBLW  52
10AE:  BNC   10FE
....................          memcpy(pixelData, FONT[*textptr - ' '], 5); 
10B0:  MOVFF  64D,03
10B4:  MOVFF  64C,FE9
10B8:  MOVFF  64D,FEA
10BC:  MOVLW  20
10BE:  SUBWF  FEF,W
10C0:  MULLW  05
10C2:  MOVF   FF3,W
10C4:  CLRF   03
10C6:  MOVWF  x59
10C8:  MOVLW  06
10CA:  MOVWF  FEA
10CC:  MOVLW  54
10CE:  MOVWF  FE9
10D0:  CLRF   x5D
10D2:  MOVFF  659,65C
10D6:  MOVFF  FF2,65A
10DA:  BCF    FF2.7
10DC:  MOVLW  05
10DE:  MOVWF  01
10E0:  CLRF   FF7
10E2:  MOVF   x59,W
10E4:  MOVLB  0
10E6:  CALL   0096
10EA:  TBLRD*-
10EC:  TBLRD*+
10EE:  MOVFF  FF5,FEE
10F2:  DECFSZ 01,F
10F4:  BRA    10EC
10F6:  MOVLB  6
10F8:  BTFSC  x5A.7
10FA:  BSF    FF2.7
....................       else if(*textptr <= '~') // Check if the letter is in the second font array 
10FC:  BRA    1168
10FE:  MOVFF  64D,03
1102:  MOVFF  64C,FE9
1106:  MOVFF  64D,FEA
110A:  MOVF   FEF,W
110C:  SUBLW  7E
110E:  BNC   115E
....................          memcpy(pixelData, FONT2[*textptr - 'S'], 5); 
1110:  MOVFF  64D,03
1114:  MOVFF  64C,FE9
1118:  MOVFF  64D,FEA
111C:  MOVLW  53
111E:  SUBWF  FEF,W
1120:  MULLW  05
1122:  MOVF   FF3,W
1124:  CLRF   03
1126:  MOVWF  x59
1128:  MOVLW  06
112A:  MOVWF  FEA
112C:  MOVLW  54
112E:  MOVWF  FE9
1130:  CLRF   x5D
1132:  MOVFF  659,65C
1136:  MOVFF  FF2,65A
113A:  BCF    FF2.7
113C:  MOVLW  05
113E:  MOVWF  01
1140:  CLRF   FF7
1142:  MOVF   x59,W
1144:  MOVLB  0
1146:  CALL   01B0
114A:  TBLRD*-
114C:  TBLRD*+
114E:  MOVFF  FF5,FEE
1152:  DECFSZ 01,F
1154:  BRA    114C
1156:  MOVLB  6
1158:  BTFSC  x5A.7
115A:  BSF    FF2.7
....................       else 
115C:  BRA    1168
....................          memcpy(pixelData, FONT[0], 5);   // Default to space 
115E:  CLRF   x54
1160:  CLRF   x55
1162:  CLRF   x56
1164:  CLRF   x57
1166:  CLRF   x58
....................  
....................       // Handles newline and carriage returns 
....................       switch(*textptr) 
....................       { 
1168:  MOVFF  64D,03
116C:  MOVF   x4C,W
116E:  MOVWF  FE9
1170:  MOVFF  03,FEA
1174:  MOVF   FEF,W
1176:  XORLW  0A
1178:  MOVLB  0
117A:  BZ    1182
117C:  XORLW  07
117E:  BZ    1192
1180:  BRA    1198
....................          case '\n': 
....................             y += 7*size + 1; 
1182:  MOVLB  6
1184:  MOVF   x4E,W
1186:  MULLW  07
1188:  MOVF   FF3,W
118A:  ADDLW  01
118C:  ADDWF  x4B,F
....................             continue; 
118E:  BRA    1230
1190:  MOVLB  0
....................          case '\r': 
....................             x = 0; 
1192:  MOVLB  6
1194:  CLRF   x4A
....................             continue; 
1196:  BRA    1230
....................       } 
....................  
....................       if(x+5*size >= GLCD_WIDTH)          // Performs character wrapping 
1198:  MOVLB  6
119A:  MOVF   x4E,W
119C:  MULLW  05
119E:  MOVF   FF3,W
11A0:  ADDWF  x4A,W
11A2:  SUBLW  7F
11A4:  BC    11B2
....................       { 
....................          x = 0;                           // Set x at far left position 
11A6:  CLRF   x4A
....................          y += 7*size + 1;                 // Set y at next position down 
11A8:  MOVF   x4E,W
11AA:  MULLW  07
11AC:  MOVF   FF3,W
11AE:  ADDLW  01
11B0:  ADDWF  x4B,F
....................       } 
....................       for(j=0; j<5; ++j, x+=size)         // Loop through character byte data 
11B2:  CLRF   x50
11B4:  MOVF   x50,W
11B6:  SUBLW  04
11B8:  BNC   1230
....................       { 
....................          for(k=0; k < 7; ++k)             // Loop through the vertical pixels 
11BA:  CLRF   x51
11BC:  MOVF   x51,W
11BE:  SUBLW  06
11C0:  BNC   1228
....................          { 
....................             if(bit_test(pixelData[j], k)) // Check if the pixel should be set 
11C2:  CLRF   03
11C4:  MOVF   x50,W
11C6:  ADDLW  54
11C8:  MOVWF  FE9
11CA:  MOVLW  06
11CC:  ADDWFC 03,W
11CE:  MOVWF  FEA
11D0:  MOVFF  FEF,659
11D4:  MOVFF  659,00
11D8:  MOVF   x51,W
11DA:  MOVWF  01
11DC:  BZ    11E6
11DE:  BCF    FD8.0
11E0:  RRCF   00,F
11E2:  DECFSZ 01,F
11E4:  BRA    11DE
11E6:  BTFSS  00.0
11E8:  BRA    1224
....................             { 
....................                for(l=0; l < size; ++l)    // These two loops change the 
11EA:  CLRF   x52
11EC:  MOVF   x4E,W
11EE:  SUBWF  x52,W
11F0:  BC    1224
....................                {                          // character's size 
....................                   for(m=0; m < size; ++m) 
11F2:  CLRF   x53
11F4:  MOVF   x4E,W
11F6:  SUBWF  x53,W
11F8:  BC    1220
....................                   { 
....................                      glcd_pixel(x+m, y+k*size+l, color); // Draws the pixel 
11FA:  MOVF   x53,W
11FC:  ADDWF  x4A,W
11FE:  MOVWF  x59
1200:  MOVF   x51,W
1202:  MULWF  x4E
1204:  MOVF   FF3,W
1206:  ADDWF  x4B,W
1208:  ADDWF  x52,W
120A:  MOVWF  x5A
120C:  MOVFF  659,665
1210:  MOVWF  x66
1212:  MOVFF  64F,667
1216:  MOVLB  0
1218:  RCALL  0FCE
....................                   } 
121A:  MOVLB  6
121C:  INCF   x53,F
121E:  BRA    11F4
....................                } 
1220:  INCF   x52,F
1222:  BRA    11EC
....................             } 
....................          } 
1224:  INCF   x51,F
1226:  BRA    11BC
....................       } 
1228:  INCF   x50,F
122A:  MOVF   x4E,W
122C:  ADDWF  x4A,F
122E:  BRA    11B4
....................    } 
1230:  INCF   x4C,F
1232:  BTFSC  FD8.2
1234:  INCF   x4D,F
1236:  INCF   x4A,F
1238:  MOVLB  0
123A:  BRA    108A
123C:  MOVLB  6
.................... } 
123E:  MOVLB  0
1240:  RETLW  00
....................  
.................... #endif 
....................  
.................... #include "imagen.h" 
.................... const int8 Horno [64][16] = { 
.................... 0x00, 0x00, 0x00, 0x00, 0x00, 0x00, 0x00, 0x00, 0x00, 0x00, 0x00, 0x1F, 0xFF, 0xFF, 0xFF, 0xFE, 
.................... 0x00, 0x00, 0x00, 0x00, 0x00, 0x00, 0x00, 0x00, 0x00, 0x00, 0x00, 0x1F, 0xFF, 0xFF, 0xFF, 0xFE, 
.................... 0x01, 0xC0, 0x00, 0x00, 0x00, 0x00, 0x00, 0x00, 0x00, 0x00, 0x00, 0x1C, 0x00, 0x00, 0x00, 0x0E, 
.................... 0x07, 0xF0, 0x00, 0x00, 0x00, 0x00, 0x00, 0x00, 0x00, 0x00, 0x00, 0x1C, 0x00, 0x00, 0x00, 0x0E, 
.................... 0x1C, 0x9C, 0x00, 0x00, 0x00, 0x00, 0x00, 0x00, 0x00, 0x00, 0x00, 0x1C, 0x7F, 0x00, 0x00, 0x0E, 
.................... 0x18, 0x0C, 0x00, 0x00, 0x00, 0x00, 0x00, 0x00, 0x00, 0x00, 0x00, 0x1C, 0x41, 0x00, 0x00, 0x0E, 
.................... 0x30, 0x86, 0x00, 0x00, 0x00, 0x00, 0x00, 0x00, 0x00, 0x00, 0x00, 0x1C, 0x41, 0x00, 0x00, 0x0E, 
.................... 0x20, 0x82, 0x00, 0x00, 0x00, 0x00, 0x00, 0x00, 0x00, 0x00, 0x00, 0x1C, 0x41, 0x02, 0x00, 0x0E, 
.................... 0x60, 0x83, 0x00, 0x00, 0x00, 0x00, 0x00, 0x00, 0x00, 0x00, 0x00, 0x1C, 0x7F, 0x05, 0x00, 0x0E, 
.................... 0x70, 0x87, 0x00, 0x00, 0x00, 0x00, 0x00, 0x00, 0x00, 0x00, 0x00, 0x1C, 0x00, 0x02, 0x00, 0x0E, 
.................... 0x60, 0xC3, 0x00, 0x00, 0x00, 0x00, 0x00, 0x00, 0x00, 0x00, 0x00, 0x1C, 0x00, 0x00, 0x00, 0x0E, 
.................... 0x20, 0x62, 0x00, 0x00, 0x00, 0x00, 0x00, 0x00, 0x00, 0x00, 0x00, 0x1C, 0x00, 0x00, 0x00, 0x0E, 
.................... 0x30, 0x26, 0x00, 0x00, 0x00, 0x00, 0x00, 0x00, 0x00, 0x00, 0x00, 0x1F, 0xFF, 0xFF, 0xFF, 0xFE, 
.................... 0x18, 0x0C, 0x00, 0x00, 0x00, 0x00, 0x00, 0x00, 0x00, 0x00, 0x00, 0x1C, 0x00, 0x00, 0x00, 0x0E, 
.................... 0x1C, 0x9C, 0x00, 0x00, 0x00, 0x00, 0x00, 0x00, 0x00, 0x00, 0x00, 0x1C, 0x00, 0x00, 0x00, 0x0E, 
.................... 0x07, 0xF0, 0x00, 0x00, 0x00, 0x00, 0x00, 0x00, 0x00, 0x00, 0x00, 0x1C, 0x00, 0x00, 0x00, 0x0E, 
.................... 0x01, 0xC0, 0x00, 0x00, 0x00, 0x00, 0x00, 0x00, 0x00, 0x00, 0x00, 0x1C, 0x00, 0x00, 0x00, 0x0E, 
.................... 0x00, 0x00, 0x00, 0x00, 0x00, 0x00, 0x00, 0x00, 0x00, 0x00, 0x00, 0x1C, 0x00, 0x00, 0x00, 0x0E, 
.................... 0x00, 0x00, 0x00, 0x00, 0x00, 0x00, 0x00, 0x00, 0x00, 0x00, 0x00, 0x1C, 0x00, 0x00, 0x00, 0x0E, 
.................... 0x00, 0x00, 0x00, 0x00, 0x00, 0x00, 0x00, 0x00, 0x00, 0x00, 0x00, 0x1C, 0x00, 0x00, 0x00, 0x0E, 
.................... 0x00, 0x00, 0x00, 0x00, 0x00, 0x00, 0x00, 0x00, 0x00, 0x00, 0x00, 0x1C, 0x00, 0x00, 0x00, 0x0E, 
.................... 0x00, 0x00, 0x00, 0x00, 0x00, 0x00, 0x00, 0x00, 0x00, 0x00, 0x00, 0x1C, 0x00, 0x1E, 0x00, 0x0E, 
.................... 0x00, 0x00, 0x00, 0x00, 0x00, 0x00, 0x00, 0x00, 0x00, 0x00, 0x00, 0x1C, 0x00, 0xE1, 0xC0, 0x0E, 
.................... 0x00, 0x00, 0x00, 0x00, 0x00, 0x00, 0x00, 0x00, 0x00, 0x00, 0x00, 0x1C, 0x01, 0x80, 0x60, 0x0E, 
.................... 0x00, 0x00, 0x00, 0x00, 0x00, 0x00, 0x00, 0x00, 0x00, 0x00, 0x00, 0x1C, 0x02, 0x78, 0x10, 0x0E, 
.................... 0x00, 0x00, 0x00, 0x00, 0x00, 0x00, 0x00, 0x00, 0x00, 0x00, 0x00, 0x1C, 0x06, 0x7C, 0x18, 0x0E, 
.................... 0x00, 0x00, 0x00, 0x00, 0x00, 0x00, 0x00, 0x00, 0x00, 0x00, 0x00, 0x1C, 0x04, 0x7C, 0x08, 0x0E, 
.................... 0x00, 0x00, 0x00, 0x00, 0x00, 0x00, 0x00, 0x00, 0x00, 0x00, 0x00, 0x1C, 0x08, 0x3C, 0x04, 0x0E, 
.................... 0x00, 0x00, 0x00, 0x00, 0x00, 0x00, 0x00, 0x00, 0x00, 0x00, 0x00, 0x1C, 0x08, 0x10, 0x04, 0x0E, 
.................... 0x01, 0x80, 0x00, 0x00, 0x00, 0x00, 0x00, 0x00, 0x00, 0x00, 0x00, 0x1C, 0x08, 0x0C, 0xE4, 0x0E, 
.................... 0x02, 0x40, 0x00, 0x00, 0x00, 0x00, 0x00, 0x00, 0x00, 0x00, 0x00, 0x1C, 0x08, 0x2D, 0xF4, 0x0E, 
.................... 0x02, 0x70, 0x00, 0x00, 0x00, 0x00, 0x00, 0x00, 0x00, 0x00, 0x00, 0x1C, 0x08, 0x63, 0xF4, 0x0E, 
.................... 0x02, 0x40, 0x00, 0x00, 0x00, 0x00, 0x00, 0x00, 0x00, 0x00, 0x00, 0x1C, 0x08, 0xF1, 0xE4, 0x0E, 
.................... 0x03, 0xC0, 0x00, 0x00, 0x00, 0x00, 0x00, 0x00, 0x00, 0x00, 0x00, 0x1C, 0x04, 0xF0, 0x08, 0x0E, 
.................... 0x03, 0xF0, 0x00, 0x00, 0x00, 0x00, 0x00, 0x00, 0x00, 0x00, 0x00, 0x1C, 0x04, 0xF0, 0x08, 0x0E, 
.................... 0x03, 0xC0, 0x00, 0x00, 0x00, 0x00, 0x00, 0x00, 0x00, 0x00, 0x00, 0x1C, 0x02, 0x70, 0x10, 0x0E, 
.................... 0x03, 0xC0, 0x00, 0x00, 0x00, 0x00, 0x00, 0x00, 0x00, 0x00, 0x00, 0x1C, 0x03, 0x00, 0x30, 0x0E, 
.................... 0x07, 0xE0, 0x00, 0x00, 0x00, 0x00, 0x00, 0x00, 0x00, 0x00, 0x00, 0x1C, 0x00, 0xC0, 0xC0, 0x0E, 
.................... 0x0F, 0xF0, 0x00, 0x00, 0x00, 0x00, 0x00, 0x00, 0x00, 0x00, 0x00, 0x1C, 0x00, 0x7F, 0x80, 0x0E, 
.................... 0x0B, 0xF0, 0x00, 0x00, 0x00, 0x00, 0x00, 0x00, 0x00, 0x00, 0x00, 0x1C, 0x00, 0x00, 0x00, 0x0E, 
.................... 0x0B, 0xF0, 0x00, 0x00, 0x00, 0x00, 0x00, 0x00, 0x00, 0x00, 0x00, 0x1C, 0x00, 0x00, 0x00, 0x0E, 
.................... 0x0F, 0xF0, 0x00, 0x00, 0x00, 0x00, 0x00, 0x00, 0x00, 0x00, 0x00, 0x1C, 0x00, 0x00, 0x00, 0x0E, 
.................... 0x0F, 0xF0, 0x00, 0x00, 0x00, 0x00, 0x00, 0x00, 0x00, 0x00, 0x00, 0x1C, 0x00, 0x00, 0x00, 0x0E, 
.................... 0x07, 0xE0, 0x00, 0x00, 0x00, 0x00, 0x00, 0x00, 0x00, 0x00, 0x00, 0x1C, 0x00, 0x00, 0x00, 0x0E, 
.................... 0x03, 0xC0, 0x00, 0x00, 0x00, 0x00, 0x00, 0x00, 0x00, 0x00, 0x00, 0x1C, 0x00, 0x00, 0x00, 0x0E, 
.................... 0x00, 0x00, 0x00, 0x00, 0x00, 0x00, 0x00, 0x00, 0x00, 0x00, 0x00, 0x1C, 0x00, 0x00, 0x00, 0x0E, 
.................... 0x00, 0x00, 0x00, 0x00, 0x00, 0x00, 0x00, 0x00, 0x00, 0x00, 0x00, 0x1C, 0x00, 0x00, 0x00, 0x0E, 
.................... 0x00, 0x00, 0x00, 0x00, 0x00, 0x00, 0x00, 0x00, 0x00, 0x00, 0x00, 0x1C, 0x00, 0x00, 0x00, 0x0E, 
.................... 0x00, 0x00, 0x00, 0x00, 0x00, 0x00, 0x00, 0x00, 0x00, 0x00, 0x00, 0x1C, 0x00, 0x00, 0x00, 0x0E, 
.................... 0x00, 0x00, 0x00, 0x00, 0x00, 0x00, 0x00, 0x00, 0x00, 0x00, 0x00, 0x1C, 0x00, 0x00, 0x00, 0x0E, 
.................... 0x00, 0x00, 0x00, 0x00, 0x00, 0x00, 0x00, 0x00, 0x00, 0x00, 0x00, 0x1C, 0x00, 0x00, 0x00, 0x0E, 
.................... 0x00, 0x00, 0x00, 0x00, 0x00, 0x00, 0x00, 0x00, 0x00, 0x00, 0x00, 0x1C, 0x00, 0x00, 0x00, 0x0E, 
.................... 0x00, 0x00, 0x00, 0x00, 0x00, 0x00, 0x00, 0x00, 0x00, 0x00, 0x00, 0x1F, 0xFF, 0xFF, 0xFF, 0xFE, 
.................... 0x00, 0x00, 0x00, 0x00, 0x00, 0x00, 0x00, 0x00, 0x00, 0x00, 0x00, 0x1F, 0xFF, 0xFF, 0xFF, 0xFE, 
.................... 0x00, 0x00, 0x00, 0x00, 0x00, 0x00, 0x00, 0x00, 0x00, 0x00, 0x00, 0x1F, 0xFF, 0xFF, 0xFF, 0xFE, 
.................... 0x00, 0x00, 0x00, 0x00, 0x00, 0x00, 0x00, 0x00, 0x00, 0x00, 0x00, 0x00, 0x00, 0x00, 0x00, 0x00, 
.................... 0x00, 0x00, 0x00, 0x00, 0x00, 0x00, 0x00, 0x00, 0x00, 0x00, 0x00, 0x00, 0x00, 0x00, 0x00, 0x00, 
.................... 0x00, 0x00, 0x00, 0x00, 0x00, 0x00, 0x00, 0x00, 0x00, 0x00, 0x00, 0x00, 0x00, 0x00, 0x00, 0x00, 
.................... 0x00, 0x00, 0x00, 0x00, 0x00, 0x00, 0x00, 0x00, 0x00, 0x00, 0x00, 0x00, 0x00, 0x00, 0x00, 0x00, 
.................... 0x00, 0x00, 0x00, 0x00, 0x00, 0x00, 0x00, 0x00, 0x00, 0x00, 0x00, 0x00, 0x00, 0x00, 0x00, 0x00, 
.................... 0x00, 0x00, 0x00, 0x00, 0x00, 0x00, 0x00, 0x00, 0x00, 0x00, 0x00, 0x00, 0x00, 0x00, 0x00, 0x00, 
.................... 0x00, 0x00, 0x00, 0x00, 0x00, 0x00, 0x00, 0x00, 0x00, 0x00, 0x00, 0x00, 0x00, 0x00, 0x00, 0x00, 
.................... 0x00, 0x00, 0x00, 0x00, 0x00, 0x00, 0x00, 0x00, 0x00, 0x00, 0x00, 0x00, 0x00, 0x00, 0x00, 0x00, 
.................... 0x00, 0x00, 0x00, 0x00, 0x00, 0x00, 0x00, 0x00, 0x00, 0x00, 0x00, 0x00, 0x00, 0x00, 0x00, 0x00 
.................... }; 
....................  
....................  
....................  
.................... // Definicin de teclado - NO 
.................... #define   UP            input(PIN_A5) 
.................... #define   DOWN          input(PIN_E0) 
.................... #define   RIGHT         input(PIN_E1) 
.................... #define   LEFT          input(PIN_E2) 
....................  
.................... #define   DOOR          input(PIN_A4) 
.................... #define   TERM          input(PIN_A3) 
....................  
.................... // Definicin de Salidas 
.................... #define   Resistencia_on     output_bit(PIN_C0,1) 
.................... #define   Resistencia_off    output_bit(PIN_C0,0) 
.................... #define   Peltierp_on        output_bit(PIN_C1,1) 
.................... #define   Peltierp_off       output_bit(PIN_C1,0) 
.................... #define   Peltiern_on        output_bit(PIN_C2,1) 
.................... #define   Peltiern_off       output_bit(PIN_C2,0) 
.................... #define   Buzzer_on          output_bit(PIN_C6,1) 
.................... #define   Buzzer_off         output_bit(PIN_C6,0) 
.................... #define   Vent_on            output_bit(PIN_C7,1) 
.................... #define   Vent_off           output_bit(PIN_C7,0) 
....................  
....................  
.................... float promedio[90]={0.0,0.0,0.0,0.0,0.0,0.0,0.0,0.0,0.0,0.0,0.0,0.0,0.0,0.0,0.0,0.0,0.0,0.0,0.0,0.0,0.0,0.0,0.0,0.0,0.0,0.0,0.0,0.0,0.0,0.0,0.0,0.0,0.0,0.0,0.0,0.0,0.0,0.0,0.0,0.0,0.0,0.0,0.0,0.0,0.0,0.0,0.0,0.0,0.0,0.0,0.0,0.0,0.0,0.0,0.0,0.0,0.0,0.0,0.0,0.0,0.0,0.0,0.0,0.0,0.0,0.0,0.0,0.0,0.0,0.0,0.0,0.0,0.0,0.0}; 
.................... float X[2]={0.0,0.0}; 
.................... int8 h=0,l=0,Ajuste=0,Ajusten=0,MediaMovil=10,tiemporecta=0,flag_ganancia=0,saturado=0,Sentido=0; 
.................... short Flanco=0,Flanco1=0,Flanco2=0,visual=1,Lectura=0,LecturaTemperatura=0; 
.................... short flag_clear=0,flag_clear2=0,flag_clear3=0,flag_clear4=0,flag_tiempocalentamiento=0,flag_display=0,flag_setpoint=0,flag_control=0; 
.................... int8 y=0,tiemporeset=0,Enfria=0; 
.................... int8 Menu=0, unidad=1,i=0,Pausa=0,Pausa_ant=0,TiempoControl=0; 
.................... int8 Opcion=1,tiempo_esterilizacion=0,tiempo_secado=0; 
.................... int16 tiempos=0,tiempos3=0,tiempoctrl=0,tinicio=0,tiempocalentamiento=0,tiemposetpoint=0,Setpoint=0; 
.................... float Potencia=0.0,Tpulsomin=0.0,Gananciamax=0.0; 
.................... signed int  Testerilizacion[4]={0,0,0,0};   // Tiempo transcurrido 
.................... signed int  Testerilizacionp[4]={0,0,0,0};   // Tiempo transcurrido 
.................... signed int  Contrasena[4]={0,0,0,0};      // Contrasena de 4 digitos 
.................... signed int  Password[4]={0,0,0,0};        // Contrasena Almacenada de 4 digitos 
.................... float V0=0.0,R1=6210.0,Pt,Tciclo=10.0,Tpulso=0.0,error=0.0,Prom=0.0,Temperature=0.0,tmp=0.0,Ganancia=25.0,Ganancia2=20.0,desvio=0.5,Coeficiente=150.0; 
.................... float Aumento=0.0,Temperatura=0.0,Saturacion=10.0,Tpulsomax=0.0; 
.................... float a=0.0011,b=2.3302,c=-244.0723; 
....................  
.................... typedef struct{ 
....................    char Letra[30]; 
.................... }MENUU; 
....................  
.................... MENUU Menus; 
....................  
.................... void ActualizaRecta(){ 
....................    X[y]=Temperatura; 
*
27F8:  MOVLB  5
27FA:  MOVF   x91,W
27FC:  MULLW  04
27FE:  MOVF   FF3,W
2800:  CLRF   03
2802:  ADDLW  7E
2804:  MOVWF  FE9
2806:  MOVLW  05
2808:  ADDWFC 03,W
280A:  MOVWF  FEA
280C:  MOVFF  5FF,FEF
2810:  MOVFF  600,FEC
2814:  MOVFF  601,FEC
2818:  MOVFF  602,FEC
....................    y++; 
281C:  INCF   x91,F
....................    if(y>=2) 
281E:  MOVF   x91,W
2820:  SUBLW  01
2822:  BC    2860
....................    { 
....................       y=0; 
2824:  CLRF   x91
....................       Aumento=X[1]-X[0]; 
2826:  BSF    FD8.1
2828:  MOVFF  585,63F
282C:  MOVFF  584,63E
2830:  MOVFF  583,63D
2834:  MOVFF  582,63C
2838:  MOVFF  581,643
283C:  MOVFF  580,642
2840:  MOVFF  57F,641
2844:  MOVFF  57E,640
2848:  MOVLB  0
284A:  CALL   18D6
284E:  MOVFF  03,5FE
2852:  MOVFF  02,5FD
2856:  MOVFF  01,5FC
285A:  MOVFF  00,5FB
285E:  MOVLB  5
....................    } 
.................... } 
2860:  MOVLB  0
2862:  GOTO   28AE (RETURN)
....................  
.................... // Funcion para conversor analogo-digital 
.................... float sensores(int x){ 
.................... float y;set_adc_channel(x);delay_ms(1);y=read_adc();return (y); 
*
171E:  MOVLB  6
1720:  RLCF   x38,W
1722:  MOVWF  00
1724:  RLCF   00,F
1726:  MOVLW  FC
1728:  ANDWF  00,F
172A:  MOVFF  00,01
172E:  MOVF   FC2,W
1730:  ANDLW  C3
1732:  IORWF  00,W
1734:  MOVWF  FC2
1736:  MOVLW  01
1738:  MOVWF  x3D
173A:  MOVLB  0
173C:  CALL   0CFA
1740:  BSF    FC2.1
1742:  BTFSC  FC2.1
1744:  BRA    1742
1746:  MOVFF  FC4,63E
174A:  MOVFF  FC3,63D
174E:  MOVLB  0
1750:  CALL   0D24
1754:  MOVFF  03,63C
1758:  MOVFF  02,63B
175C:  MOVFF  01,63A
1760:  MOVFF  00,639
1764:  MOVFF  639,00
1768:  MOVFF  63A,01
176C:  MOVFF  63B,02
1770:  MOVFF  63C,03
.................... } 
1774:  GOTO   1C78 (RETURN)
.................... float Leer_Sensor(int media) 
.................... { 
....................    Prom=0.0; 
*
1C66:  MOVLB  5
1C68:  CLRF   xE2
1C6A:  CLRF   xE1
1C6C:  CLRF   xE0
1C6E:  CLRF   xDF
....................    V0 = sensores(0);   //Lectura de Divisor de Voltaje de PT100 con resistencia de 6.18k (+-2%) 
1C70:  MOVLB  6
1C72:  CLRF   x38
1C74:  MOVLB  0
1C76:  BRA    171E
1C78:  MOVFF  03,5CA
1C7C:  MOVFF  02,5C9
1C80:  MOVFF  01,5C8
1C84:  MOVFF  00,5C7
....................    V0 = V0/41.62; // Se elimina la ganancia 
1C88:  MOVFF  5CA,63B
1C8C:  MOVFF  5C9,63A
1C90:  MOVFF  5C8,639
1C94:  MOVFF  5C7,638
1C98:  MOVLW  E1
1C9A:  MOVLB  6
1C9C:  MOVWF  x3F
1C9E:  MOVLW  7A
1CA0:  MOVWF  x3E
1CA2:  MOVLW  26
1CA4:  MOVWF  x3D
1CA6:  MOVLW  84
1CA8:  MOVWF  x3C
1CAA:  MOVLB  0
1CAC:  RCALL  1778
1CAE:  MOVFF  03,5CA
1CB2:  MOVFF  02,5C9
1CB6:  MOVFF  01,5C8
1CBA:  MOVFF  00,5C7
....................    Pt=(R1)/((1023.0/V0)-1.0); // Se calcula el valor de la PT100 
1CBE:  MOVLB  6
1CC0:  CLRF   x3B
1CC2:  MOVLW  C0
1CC4:  MOVWF  x3A
1CC6:  MOVLW  7F
1CC8:  MOVWF  x39
1CCA:  MOVLW  88
1CCC:  MOVWF  x38
1CCE:  MOVFF  5CA,63F
1CD2:  MOVFF  5C9,63E
1CD6:  MOVFF  5C8,63D
1CDA:  MOVFF  5C7,63C
1CDE:  MOVLB  0
1CE0:  RCALL  1778
1CE2:  MOVFF  00,638
1CE6:  MOVFF  01,639
1CEA:  MOVFF  02,63A
1CEE:  MOVFF  03,63B
1CF2:  BSF    FD8.1
1CF4:  MOVFF  03,63F
1CF8:  MOVFF  02,63E
1CFC:  MOVFF  01,63D
1D00:  MOVFF  00,63C
1D04:  MOVLB  6
1D06:  CLRF   x43
1D08:  CLRF   x42
1D0A:  CLRF   x41
1D0C:  MOVLW  7F
1D0E:  MOVWF  x40
1D10:  MOVLB  0
1D12:  RCALL  18D6
1D14:  MOVFF  5CE,63B
1D18:  MOVFF  5CD,63A
1D1C:  MOVFF  5CC,639
1D20:  MOVFF  5CB,638
1D24:  MOVFF  03,63F
1D28:  MOVFF  02,63E
1D2C:  MOVFF  01,63D
1D30:  MOVFF  00,63C
1D34:  RCALL  1778
1D36:  MOVFF  03,5D2
1D3A:  MOVFF  02,5D1
1D3E:  MOVFF  01,5D0
1D42:  MOVFF  00,5CF
....................    //Pt=R1/((1023.0/V0)-1.0); // Se calcula el valor de la PT100 
....................    Pt=Pt-0.4; 
1D46:  BSF    FD8.1
1D48:  MOVFF  5D2,63F
1D4C:  MOVFF  5D1,63E
1D50:  MOVFF  5D0,63D
1D54:  MOVFF  5CF,63C
1D58:  MOVLW  CD
1D5A:  MOVLB  6
1D5C:  MOVWF  x43
1D5E:  MOVLW  CC
1D60:  MOVWF  x42
1D62:  MOVLW  4C
1D64:  MOVWF  x41
1D66:  MOVLW  7D
1D68:  MOVWF  x40
1D6A:  MOVLB  0
1D6C:  RCALL  18D6
1D6E:  MOVFF  03,5D2
1D72:  MOVFF  02,5D1
1D76:  MOVFF  01,5D0
1D7A:  MOVFF  00,5CF
....................     
....................              
....................    if(l>(media-1)) 
1D7E:  MOVLW  01
1D80:  MOVLB  6
1D82:  SUBWF  x37,W
1D84:  MOVLB  5
1D86:  SUBWF  x87,W
1D88:  BZ    1D8E
1D8A:  BNC   1D8E
....................    {l=0;} 
1D8C:  CLRF   x87
....................    //promedio[l]=Temperature;l++; 
....................    promedio[l]=Pt;l++; 
1D8E:  MOVLB  6
1D90:  CLRF   x3C
1D92:  MOVFF  587,63B
1D96:  CLRF   x3E
1D98:  MOVLW  04
1D9A:  MOVWF  x3D
1D9C:  MOVLB  0
1D9E:  RCALL  1B4E
1DA0:  MOVF   01,W
1DA2:  ADDLW  16
1DA4:  MOVWF  FE9
1DA6:  MOVLW  04
1DA8:  ADDWFC 02,W
1DAA:  MOVWF  FEA
1DAC:  MOVFF  5CF,FEF
1DB0:  MOVFF  5D0,FEC
1DB4:  MOVFF  5D1,FEC
1DB8:  MOVFF  5D2,FEC
1DBC:  MOVLB  5
1DBE:  INCF   x87,F
....................           
....................    for(h=0;h<media;h++) 
1DC0:  CLRF   x86
1DC2:  MOVLB  6
1DC4:  MOVF   x37,W
1DC6:  MOVLB  5
1DC8:  SUBWF  x86,W
1DCA:  BC    1E48
....................    { 
....................       Prom+=promedio[h]; 
1DCC:  MOVLB  6
1DCE:  CLRF   x3C
1DD0:  MOVFF  586,63B
1DD4:  CLRF   x3E
1DD6:  MOVLW  04
1DD8:  MOVWF  x3D
1DDA:  MOVLB  0
1DDC:  RCALL  1B4E
1DDE:  MOVFF  02,03
1DE2:  MOVF   01,W
1DE4:  ADDLW  16
1DE6:  MOVWF  FE9
1DE8:  MOVLW  04
1DEA:  ADDWFC 02,W
1DEC:  MOVWF  FEA
1DEE:  MOVFF  FEF,00
1DF2:  MOVFF  FEC,01
1DF6:  MOVFF  FEC,02
1DFA:  MOVFF  FEC,03
1DFE:  MOVFF  FEA,639
1E02:  MOVFF  FE9,638
1E06:  BCF    FD8.1
1E08:  MOVFF  5E2,63F
1E0C:  MOVFF  5E1,63E
1E10:  MOVFF  5E0,63D
1E14:  MOVFF  5DF,63C
1E18:  MOVFF  03,643
1E1C:  MOVFF  02,642
1E20:  MOVFF  01,641
1E24:  MOVFF  00,640
1E28:  RCALL  18D6
1E2A:  MOVFF  639,FEA
1E2E:  MOVFF  638,FE9
1E32:  MOVFF  03,5E2
1E36:  MOVFF  02,5E1
1E3A:  MOVFF  01,5E0
1E3E:  MOVFF  00,5DF
....................    }  
1E42:  MOVLB  5
1E44:  INCF   x86,F
1E46:  BRA    1DC2
....................    Prom=Prom/media;    
1E48:  MOVLB  6
1E4A:  CLRF   x3E
1E4C:  MOVFF  637,63D
1E50:  MOVLB  0
1E52:  CALL   0D24
1E56:  MOVFF  5E2,63B
1E5A:  MOVFF  5E1,63A
1E5E:  MOVFF  5E0,639
1E62:  MOVFF  5DF,638
1E66:  MOVFF  03,63F
1E6A:  MOVFF  02,63E
1E6E:  MOVFF  01,63D
1E72:  MOVFF  00,63C
1E76:  RCALL  1778
1E78:  MOVFF  03,5E2
1E7C:  MOVFF  02,5E1
1E80:  MOVFF  01,5E0
1E84:  MOVFF  00,5DF
....................    //Temperature=(Prom-100.0)/(0.385);  // Ecuacin determinada por linealizacin en Matlab. Revisar este polinomio.   
....................    Temperature=((Prom*Prom)*a)+(Prom*b)+c;  // Ecuacin determinada por linealizacin en Matlab. Revisar este polinomio. 
1E88:  MOVFF  5E2,657
1E8C:  MOVFF  5E1,656
1E90:  MOVFF  5E0,655
1E94:  MOVFF  5DF,654
1E98:  MOVFF  5E2,65B
1E9C:  MOVFF  5E1,65A
1EA0:  MOVFF  5E0,659
1EA4:  MOVFF  5DF,658
1EA8:  RCALL  1B70
1EAA:  MOVFF  00,638
1EAE:  MOVFF  01,639
1EB2:  MOVFF  02,63A
1EB6:  MOVFF  03,63B
1EBA:  MOVFF  03,657
1EBE:  MOVFF  02,656
1EC2:  MOVFF  01,655
1EC6:  MOVFF  00,654
1ECA:  MOVFF  60E,65B
1ECE:  MOVFF  60D,65A
1ED2:  MOVFF  60C,659
1ED6:  MOVFF  60B,658
1EDA:  RCALL  1B70
1EDC:  MOVFF  00,638
1EE0:  MOVFF  01,639
1EE4:  MOVFF  02,63A
1EE8:  MOVFF  03,63B
1EEC:  MOVFF  5E2,657
1EF0:  MOVFF  5E1,656
1EF4:  MOVFF  5E0,655
1EF8:  MOVFF  5DF,654
1EFC:  MOVFF  612,65B
1F00:  MOVFF  611,65A
1F04:  MOVFF  610,659
1F08:  MOVFF  60F,658
1F0C:  RCALL  1B70
1F0E:  BCF    FD8.1
1F10:  MOVFF  63B,63F
1F14:  MOVFF  63A,63E
1F18:  MOVFF  639,63D
1F1C:  MOVFF  638,63C
1F20:  MOVFF  03,643
1F24:  MOVFF  02,642
1F28:  MOVFF  01,641
1F2C:  MOVFF  00,640
1F30:  RCALL  18D6
1F32:  MOVFF  00,638
1F36:  MOVFF  01,639
1F3A:  MOVFF  02,63A
1F3E:  MOVFF  03,63B
1F42:  BCF    FD8.1
1F44:  MOVFF  03,63F
1F48:  MOVFF  02,63E
1F4C:  MOVFF  01,63D
1F50:  MOVFF  00,63C
1F54:  MOVFF  616,643
1F58:  MOVFF  615,642
1F5C:  MOVFF  614,641
1F60:  MOVFF  613,640
1F64:  RCALL  18D6
1F66:  MOVFF  03,5E6
1F6A:  MOVFF  02,5E5
1F6E:  MOVFF  01,5E4
1F72:  MOVFF  00,5E3
....................     
....................    Temperature+=((float)Ajuste-(float)Ajusten); 
1F76:  MOVLB  6
1F78:  CLRF   x3E
1F7A:  MOVFF  588,63D
1F7E:  MOVLB  0
1F80:  CALL   0D24
1F84:  MOVFF  00,638
1F88:  MOVFF  01,639
1F8C:  MOVFF  02,63A
1F90:  MOVFF  03,63B
1F94:  MOVLB  6
1F96:  CLRF   x3E
1F98:  MOVFF  589,63D
1F9C:  MOVLB  0
1F9E:  CALL   0D24
1FA2:  BSF    FD8.1
1FA4:  MOVFF  63B,63F
1FA8:  MOVFF  63A,63E
1FAC:  MOVFF  639,63D
1FB0:  MOVFF  638,63C
1FB4:  MOVFF  03,643
1FB8:  MOVFF  02,642
1FBC:  MOVFF  01,641
1FC0:  MOVFF  00,640
1FC4:  RCALL  18D6
1FC6:  BCF    FD8.1
1FC8:  MOVFF  5E6,63F
1FCC:  MOVFF  5E5,63E
1FD0:  MOVFF  5E4,63D
1FD4:  MOVFF  5E3,63C
1FD8:  MOVFF  03,643
1FDC:  MOVFF  02,642
1FE0:  MOVFF  01,641
1FE4:  MOVFF  00,640
1FE8:  RCALL  18D6
1FEA:  MOVFF  03,5E6
1FEE:  MOVFF  02,5E5
1FF2:  MOVFF  01,5E4
1FF6:  MOVFF  00,5E3
....................     
....................    //return Prom; 
....................    return Temperature; 
1FFA:  MOVFF  5E3,00
1FFE:  MOVFF  5E4,01
2002:  MOVFF  5E5,02
2006:  MOVFF  5E6,03
.................... } 
200A:  RETLW  00
....................  
.................... void Controla(){ 
.................... //-------------------------------Control de Calentamiento------------------------------------------------------------//          
....................    if(tiemporecta>=40) 
*
28A2:  MOVLB  5
28A4:  MOVF   x8B,W
28A6:  SUBLW  27
28A8:  BC    28B2
....................    { 
....................       ActualizaRecta(); 
28AA:  MOVLB  0
28AC:  BRA    27F8
....................       tiemporecta=0; 
28AE:  MOVLB  5
28B0:  CLRF   x8B
....................    }  
....................    
....................    if(Enfria==1) 
28B2:  DECFSZ x93,W
28B4:  BRA    2C8C
....................    { 
....................       error=Setpoint-desvio-Temperatura;      // Clculo del error ****** 
28B6:  MOVFF  5AA,63E
28BA:  MOVFF  5A9,63D
28BE:  MOVLB  0
28C0:  CALL   0D24
28C4:  BSF    FD8.1
28C6:  MOVFF  03,63F
28CA:  MOVFF  02,63E
28CE:  MOVFF  01,63D
28D2:  MOVFF  00,63C
28D6:  MOVFF  5F6,643
28DA:  MOVFF  5F5,642
28DE:  MOVFF  5F4,641
28E2:  MOVFF  5F3,640
28E6:  CALL   18D6
28EA:  MOVFF  00,637
28EE:  MOVFF  01,638
28F2:  MOVFF  02,639
28F6:  MOVFF  03,63A
28FA:  BSF    FD8.1
28FC:  MOVFF  03,63F
2900:  MOVFF  02,63E
2904:  MOVFF  01,63D
2908:  MOVFF  00,63C
290C:  MOVFF  602,643
2910:  MOVFF  601,642
2914:  MOVFF  600,641
2918:  MOVFF  5FF,640
291C:  CALL   18D6
2920:  MOVFF  03,5DE
2924:  MOVFF  02,5DD
2928:  MOVFF  01,5DC
292C:  MOVFF  00,5DB
....................        
....................       if(error>-1.0 && Aumento>-0.2) 
2930:  MOVLB  6
2932:  CLRF   x3A
2934:  CLRF   x39
2936:  MOVLW  80
2938:  MOVWF  x38
293A:  MOVLW  7F
293C:  MOVWF  x37
293E:  MOVFF  5DE,63E
2942:  MOVFF  5DD,63D
2946:  MOVFF  5DC,63C
294A:  MOVFF  5DB,63B
294E:  MOVLB  0
2950:  CALL   0D5A
2954:  BNC   29E2
2956:  MOVLW  CD
2958:  MOVLB  6
295A:  MOVWF  x3A
295C:  MOVLW  CC
295E:  MOVWF  x39
2960:  MOVWF  x38
2962:  MOVLW  7C
2964:  MOVWF  x37
2966:  MOVFF  5FE,63E
296A:  MOVFF  5FD,63D
296E:  MOVFF  5FC,63C
2972:  MOVFF  5FB,63B
2976:  MOVLB  0
2978:  CALL   0D5A
297C:  BNC   29E2
....................       { 
....................          if(Potencia<90.0) 
297E:  MOVFF  5AE,63A
2982:  MOVFF  5AD,639
2986:  MOVFF  5AC,638
298A:  MOVFF  5AB,637
298E:  MOVLB  6
2990:  CLRF   x3E
2992:  CLRF   x3D
2994:  MOVLW  34
2996:  MOVWF  x3C
2998:  MOVLW  85
299A:  MOVWF  x3B
299C:  MOVLB  0
299E:  CALL   0D5A
29A2:  BNC   29E2
....................          { 
....................             if(TiempoControl>=80) 
29A4:  MOVLB  5
29A6:  MOVF   x99,W
29A8:  SUBLW  4F
29AA:  BC    29E4
....................             { 
....................                TiempoControl=0; 
29AC:  CLRF   x99
....................                Ganancia+=0.5; 
29AE:  BCF    FD8.1
29B0:  MOVFF  5EE,63F
29B4:  MOVFF  5ED,63E
29B8:  MOVFF  5EC,63D
29BC:  MOVFF  5EB,63C
29C0:  MOVLB  6
29C2:  CLRF   x43
29C4:  CLRF   x42
29C6:  CLRF   x41
29C8:  MOVLW  7E
29CA:  MOVWF  x40
29CC:  MOVLB  0
29CE:  CALL   18D6
29D2:  MOVFF  03,5EE
29D6:  MOVFF  02,5ED
29DA:  MOVFF  01,5EC
29DE:  MOVFF  00,5EB
29E2:  MOVLB  5
....................             } 
....................          } 
....................       } 
....................     
....................       if(error>0.0)     // Anti Wind_DOWN 
29E4:  MOVLB  6
29E6:  CLRF   x3A
29E8:  CLRF   x39
29EA:  CLRF   x38
29EC:  CLRF   x37
29EE:  MOVFF  5DE,63E
29F2:  MOVFF  5DD,63D
29F6:  MOVFF  5DC,63C
29FA:  MOVFF  5DB,63B
29FE:  MOVLB  0
2A00:  CALL   0D5A
2A04:  BNC   2A10
....................       { 
....................          error=0.0; 
2A06:  MOVLB  5
2A08:  CLRF   xDE
2A0A:  CLRF   xDD
2A0C:  CLRF   xDC
2A0E:  CLRF   xDB
....................       } 
....................       error=error*-1.0; 
2A10:  MOVFF  5DE,657
2A14:  MOVFF  5DD,656
2A18:  MOVFF  5DC,655
2A1C:  MOVFF  5DB,654
2A20:  MOVLB  6
2A22:  CLRF   x5B
2A24:  CLRF   x5A
2A26:  MOVLW  80
2A28:  MOVWF  x59
2A2A:  MOVLW  7F
2A2C:  MOVWF  x58
2A2E:  MOVLB  0
2A30:  CALL   1B70
2A34:  MOVFF  03,5DE
2A38:  MOVFF  02,5DD
2A3C:  MOVFF  01,5DC
2A40:  MOVFF  00,5DB
....................        
....................       if(Ganancia<0.5) 
2A44:  MOVFF  5EE,63A
2A48:  MOVFF  5ED,639
2A4C:  MOVFF  5EC,638
2A50:  MOVFF  5EB,637
2A54:  MOVLB  6
2A56:  CLRF   x3E
2A58:  CLRF   x3D
2A5A:  CLRF   x3C
2A5C:  MOVLW  7E
2A5E:  MOVWF  x3B
2A60:  MOVLB  0
2A62:  CALL   0D5A
2A66:  BNC   2A76
....................       { 
....................          Ganancia=0.5; 
2A68:  MOVLB  5
2A6A:  CLRF   xEE
2A6C:  CLRF   xED
2A6E:  CLRF   xEC
2A70:  MOVLW  7E
2A72:  MOVWF  xEB
2A74:  MOVLB  0
....................       } 
....................       if(Ganancia>Gananciamax) 
2A76:  MOVFF  5B6,63A
2A7A:  MOVFF  5B5,639
2A7E:  MOVFF  5B4,638
2A82:  MOVFF  5B3,637
2A86:  MOVFF  5EE,63E
2A8A:  MOVFF  5ED,63D
2A8E:  MOVFF  5EC,63C
2A92:  MOVFF  5EB,63B
2A96:  CALL   0D5A
2A9A:  BNC   2AAC
....................       { 
....................          Ganancia=Gananciamax; 
2A9C:  MOVFF  5B6,5EE
2AA0:  MOVFF  5B5,5ED
2AA4:  MOVFF  5B4,5EC
2AA8:  MOVFF  5B3,5EB
....................       } 
....................     
....................       tmp=error*Ganancia;  // Control Proporcional. 
2AAC:  MOVFF  5DE,657
2AB0:  MOVFF  5DD,656
2AB4:  MOVFF  5DC,655
2AB8:  MOVFF  5DB,654
2ABC:  MOVFF  5EE,65B
2AC0:  MOVFF  5ED,65A
2AC4:  MOVFF  5EC,659
2AC8:  MOVFF  5EB,658
2ACC:  CALL   1B70
2AD0:  MOVFF  03,5EA
2AD4:  MOVFF  02,5E9
2AD8:  MOVFF  01,5E8
2ADC:  MOVFF  00,5E7
....................              
....................       if(tmp>Setpoint)   // Anti Wind-UP       
2AE0:  MOVFF  5AA,63E
2AE4:  MOVFF  5A9,63D
2AE8:  CALL   0D24
2AEC:  MOVFF  03,63A
2AF0:  MOVFF  02,639
2AF4:  MOVFF  01,638
2AF8:  MOVFF  00,637
2AFC:  MOVFF  5EA,63E
2B00:  MOVFF  5E9,63D
2B04:  MOVFF  5E8,63C
2B08:  MOVFF  5E7,63B
2B0C:  CALL   0D5A
2B10:  BNC   2B2E
....................       { 
....................          tmp=Setpoint; 
2B12:  MOVFF  5AA,63E
2B16:  MOVFF  5A9,63D
2B1A:  CALL   0D24
2B1E:  MOVFF  03,5EA
2B22:  MOVFF  02,5E9
2B26:  MOVFF  01,5E8
2B2A:  MOVFF  00,5E7
....................       } 
....................                    
....................       if(tmp<0.0)     // Anti Wind_DOWN     
2B2E:  MOVFF  5EA,63A
2B32:  MOVFF  5E9,639
2B36:  MOVFF  5E8,638
2B3A:  MOVFF  5E7,637
2B3E:  MOVLB  6
2B40:  CLRF   x3E
2B42:  CLRF   x3D
2B44:  CLRF   x3C
2B46:  CLRF   x3B
2B48:  MOVLB  0
2B4A:  CALL   0D5A
2B4E:  BNC   2B5C
....................       { 
....................          tmp=0.0; 
2B50:  MOVLB  5
2B52:  CLRF   xEA
2B54:  CLRF   xE9
2B56:  CLRF   xE8
2B58:  CLRF   xE7
2B5A:  MOVLB  0
....................       } 
....................        
....................       // Tpulso(t)= Tciclo*(y(t)-ymin)/(ymax - ymin); calculo de ciclo util para control de resistencia.ymax=140.ymin=0; 
....................       // Tpulso es float, hay que pasar ese ciclo a una salida de un puerto usando el TMR1. 
....................       Tpulso=(tmp/Setpoint)*Tciclo;   
2B5C:  MOVFF  5AA,63E
2B60:  MOVFF  5A9,63D
2B64:  CALL   0D24
2B68:  MOVFF  5EA,63B
2B6C:  MOVFF  5E9,63A
2B70:  MOVFF  5E8,639
2B74:  MOVFF  5E7,638
2B78:  MOVFF  03,63F
2B7C:  MOVFF  02,63E
2B80:  MOVFF  01,63D
2B84:  MOVFF  00,63C
2B88:  CALL   1778
2B8C:  MOVFF  00,637
2B90:  MOVFF  01,638
2B94:  MOVFF  02,639
2B98:  MOVFF  03,63A
2B9C:  MOVFF  03,657
2BA0:  MOVFF  02,656
2BA4:  MOVFF  01,655
2BA8:  MOVFF  00,654
2BAC:  MOVFF  5D6,65B
2BB0:  MOVFF  5D5,65A
2BB4:  MOVFF  5D4,659
2BB8:  MOVFF  5D3,658
2BBC:  CALL   1B70
2BC0:  MOVFF  03,5DA
2BC4:  MOVFF  02,5D9
2BC8:  MOVFF  01,5D8
2BCC:  MOVFF  00,5D7
....................        
....................       if(tiempoctrl>=(int16)(Tciclo/0.005)) // Si el tiempo de control es mayor al tiempo de ciclo se reinicia tiempo de control 
2BD0:  MOVFF  5D6,63B
2BD4:  MOVFF  5D5,63A
2BD8:  MOVFF  5D4,639
2BDC:  MOVFF  5D3,638
2BE0:  MOVLW  0A
2BE2:  MOVLB  6
2BE4:  MOVWF  x3F
2BE6:  MOVLW  D7
2BE8:  MOVWF  x3E
2BEA:  MOVLW  23
2BEC:  MOVWF  x3D
2BEE:  MOVLW  77
2BF0:  MOVWF  x3C
2BF2:  MOVLB  0
2BF4:  CALL   1778
2BF8:  MOVFF  03,63A
2BFC:  MOVFF  02,639
2C00:  MOVFF  01,638
2C04:  MOVFF  00,637
2C08:  RCALL  2866
2C0A:  MOVF   02,W
2C0C:  MOVWF  03
2C0E:  MOVLB  5
2C10:  SUBWF  xA2,W
2C12:  BNC   2C20
2C14:  BNZ   2C1C
2C16:  MOVF   01,W
2C18:  SUBWF  xA1,W
2C1A:  BNC   2C20
....................       { 
....................          tiempoctrl=0; 
2C1C:  CLRF   xA2
2C1E:  CLRF   xA1
....................       } // tiempoctrl incrementa una unidad cada 5ms, por eso se dividen los tiempos por 0.005. 
....................        
....................       if(tiempoctrl<=(int16)(Tpulso/0.005)) // Si el tiempo es menor o igual al tiempo de control se enciende la resistencia de lo contrario se apaga. 
2C20:  MOVFF  5DA,63B
2C24:  MOVFF  5D9,63A
2C28:  MOVFF  5D8,639
2C2C:  MOVFF  5D7,638
2C30:  MOVLW  0A
2C32:  MOVLB  6
2C34:  MOVWF  x3F
2C36:  MOVLW  D7
2C38:  MOVWF  x3E
2C3A:  MOVLW  23
2C3C:  MOVWF  x3D
2C3E:  MOVLW  77
2C40:  MOVWF  x3C
2C42:  MOVLB  0
2C44:  CALL   1778
2C48:  MOVFF  03,63A
2C4C:  MOVFF  02,639
2C50:  MOVFF  01,638
2C54:  MOVFF  00,637
2C58:  RCALL  2866
2C5A:  MOVFF  02,03
2C5E:  MOVF   01,W
2C60:  MOVLB  5
2C62:  MOVF   xA2,W
2C64:  SUBWF  02,W
2C66:  BNC   2C7E
2C68:  BNZ   2C70
2C6A:  MOVF   xA1,W
2C6C:  SUBWF  01,W
2C6E:  BNC   2C7E
....................       { 
....................          Resistencia_on; 
2C70:  BSF    F8B.0
2C72:  BCF    F94.0
....................          Peltiern_off; 
2C74:  BCF    F8B.2
2C76:  BCF    F94.2
....................          Peltierp_on; 
2C78:  BSF    F8B.1
2C7A:  BCF    F94.1
....................       } 
....................       else          
2C7C:  BRA    2C8A
....................       { 
....................          Resistencia_off; 
2C7E:  BCF    F8B.0
2C80:  BCF    F94.0
....................          Peltiern_off; 
2C82:  BCF    F8B.2
2C84:  BCF    F94.2
....................          Peltierp_off; 
2C86:  BCF    F8B.1
2C88:  BCF    F94.1
....................       } 
....................              
....................    } 
....................    else 
2C8A:  BRA    30F8
....................    { 
....................       error=desvio+Setpoint-Temperatura;      // Clculo del error ****** 
2C8C:  MOVFF  5AA,63E
2C90:  MOVFF  5A9,63D
2C94:  MOVLB  0
2C96:  CALL   0D24
2C9A:  BCF    FD8.1
2C9C:  MOVFF  5F6,63F
2CA0:  MOVFF  5F5,63E
2CA4:  MOVFF  5F4,63D
2CA8:  MOVFF  5F3,63C
2CAC:  MOVFF  03,643
2CB0:  MOVFF  02,642
2CB4:  MOVFF  01,641
2CB8:  MOVFF  00,640
2CBC:  CALL   18D6
2CC0:  MOVFF  00,637
2CC4:  MOVFF  01,638
2CC8:  MOVFF  02,639
2CCC:  MOVFF  03,63A
2CD0:  BSF    FD8.1
2CD2:  MOVFF  03,63F
2CD6:  MOVFF  02,63E
2CDA:  MOVFF  01,63D
2CDE:  MOVFF  00,63C
2CE2:  MOVFF  602,643
2CE6:  MOVFF  601,642
2CEA:  MOVFF  600,641
2CEE:  MOVFF  5FF,640
2CF2:  CALL   18D6
2CF6:  MOVFF  03,5DE
2CFA:  MOVFF  02,5DD
2CFE:  MOVFF  01,5DC
2D02:  MOVFF  00,5DB
....................       if(error>1.2 && Aumento<0.3) 
2D06:  MOVLW  9A
2D08:  MOVLB  6
2D0A:  MOVWF  x3A
2D0C:  MOVLW  99
2D0E:  MOVWF  x39
2D10:  MOVLW  19
2D12:  MOVWF  x38
2D14:  MOVLW  7F
2D16:  MOVWF  x37
2D18:  MOVFF  5DE,63E
2D1C:  MOVFF  5DD,63D
2D20:  MOVFF  5DC,63C
2D24:  MOVFF  5DB,63B
2D28:  MOVLB  0
2D2A:  CALL   0D5A
2D2E:  BTFSS  FD8.0
2D30:  BRA    2E80
2D32:  MOVFF  5FE,63A
2D36:  MOVFF  5FD,639
2D3A:  MOVFF  5FC,638
2D3E:  MOVFF  5FB,637
2D42:  MOVLW  9A
2D44:  MOVLB  6
2D46:  MOVWF  x3E
2D48:  MOVLW  99
2D4A:  MOVWF  x3D
2D4C:  MOVLW  19
2D4E:  MOVWF  x3C
2D50:  MOVLW  7D
2D52:  MOVWF  x3B
2D54:  MOVLB  0
2D56:  CALL   0D5A
2D5A:  BTFSS  FD8.0
2D5C:  BRA    2E80
....................       { 
....................          if(Potencia<90.0) 
2D5E:  MOVFF  5AE,63A
2D62:  MOVFF  5AD,639
2D66:  MOVFF  5AC,638
2D6A:  MOVFF  5AB,637
2D6E:  MOVLB  6
2D70:  CLRF   x3E
2D72:  CLRF   x3D
2D74:  MOVLW  34
2D76:  MOVWF  x3C
2D78:  MOVLW  85
2D7A:  MOVWF  x3B
2D7C:  MOVLB  0
2D7E:  CALL   0D5A
2D82:  BTFSS  FD8.0
2D84:  BRA    2E80
....................          { 
....................             if(TiempoControl>=80) 
2D86:  MOVLB  5
2D88:  MOVF   x99,W
2D8A:  SUBLW  4F
2D8C:  BTFSC  FD8.0
2D8E:  BRA    2E82
....................             { 
....................                TiempoControl=0; 
2D90:  CLRF   x99
....................                if(Aumento<-0.5) 
2D92:  MOVFF  5FE,63A
2D96:  MOVFF  5FD,639
2D9A:  MOVFF  5FC,638
2D9E:  MOVFF  5FB,637
2DA2:  MOVLB  6
2DA4:  CLRF   x3E
2DA6:  CLRF   x3D
2DA8:  MOVLW  80
2DAA:  MOVWF  x3C
2DAC:  MOVLW  7E
2DAE:  MOVWF  x3B
2DB0:  MOVLB  0
2DB2:  CALL   0D5A
2DB6:  BNC   2DEE
....................                { 
....................                   Ganancia+=2; 
2DB8:  BCF    FD8.1
2DBA:  MOVFF  5EE,63F
2DBE:  MOVFF  5ED,63E
2DC2:  MOVFF  5EC,63D
2DC6:  MOVFF  5EB,63C
2DCA:  MOVLB  6
2DCC:  CLRF   x43
2DCE:  CLRF   x42
2DD0:  CLRF   x41
2DD2:  MOVLW  80
2DD4:  MOVWF  x40
2DD6:  MOVLB  0
2DD8:  CALL   18D6
2DDC:  MOVFF  03,5EE
2DE0:  MOVFF  02,5ED
2DE4:  MOVFF  01,5EC
2DE8:  MOVFF  00,5EB
....................                } 
....................                else 
2DEC:  BRA    2E80
....................                { 
....................                   if(Aumento<-0.1) 
2DEE:  MOVFF  5FE,63A
2DF2:  MOVFF  5FD,639
2DF6:  MOVFF  5FC,638
2DFA:  MOVFF  5FB,637
2DFE:  MOVLW  CD
2E00:  MOVLB  6
2E02:  MOVWF  x3E
2E04:  MOVLW  CC
2E06:  MOVWF  x3D
2E08:  MOVWF  x3C
2E0A:  MOVLW  7B
2E0C:  MOVWF  x3B
2E0E:  MOVLB  0
2E10:  CALL   0D5A
2E14:  BNC   2E4C
....................                   { 
....................                      Ganancia+=1; 
2E16:  BCF    FD8.1
2E18:  MOVFF  5EE,63F
2E1C:  MOVFF  5ED,63E
2E20:  MOVFF  5EC,63D
2E24:  MOVFF  5EB,63C
2E28:  MOVLB  6
2E2A:  CLRF   x43
2E2C:  CLRF   x42
2E2E:  CLRF   x41
2E30:  MOVLW  7F
2E32:  MOVWF  x40
2E34:  MOVLB  0
2E36:  CALL   18D6
2E3A:  MOVFF  03,5EE
2E3E:  MOVFF  02,5ED
2E42:  MOVFF  01,5EC
2E46:  MOVFF  00,5EB
....................                   }    
....................                   else 
2E4A:  BRA    2E80
....................                   { 
....................                      Ganancia+=0.5; 
2E4C:  BCF    FD8.1
2E4E:  MOVFF  5EE,63F
2E52:  MOVFF  5ED,63E
2E56:  MOVFF  5EC,63D
2E5A:  MOVFF  5EB,63C
2E5E:  MOVLB  6
2E60:  CLRF   x43
2E62:  CLRF   x42
2E64:  CLRF   x41
2E66:  MOVLW  7E
2E68:  MOVWF  x40
2E6A:  MOVLB  0
2E6C:  CALL   18D6
2E70:  MOVFF  03,5EE
2E74:  MOVFF  02,5ED
2E78:  MOVFF  01,5EC
2E7C:  MOVFF  00,5EB
2E80:  MOVLB  5
....................                   } 
....................                } 
....................             } 
....................          } 
....................       } 
....................        
....................       if(error<0.0)     // Anti Wind_DOWN 
2E82:  MOVFF  5DE,63A
2E86:  MOVFF  5DD,639
2E8A:  MOVFF  5DC,638
2E8E:  MOVFF  5DB,637
2E92:  MOVLB  6
2E94:  CLRF   x3E
2E96:  CLRF   x3D
2E98:  CLRF   x3C
2E9A:  CLRF   x3B
2E9C:  MOVLB  0
2E9E:  CALL   0D5A
2EA2:  BNC   2EAE
....................       { 
....................          error=0.0; 
2EA4:  MOVLB  5
2EA6:  CLRF   xDE
2EA8:  CLRF   xDD
2EAA:  CLRF   xDC
2EAC:  CLRF   xDB
....................       } 
....................        
....................        
....................       if(Ganancia<0.5) 
2EAE:  MOVFF  5EE,63A
2EB2:  MOVFF  5ED,639
2EB6:  MOVFF  5EC,638
2EBA:  MOVFF  5EB,637
2EBE:  MOVLB  6
2EC0:  CLRF   x3E
2EC2:  CLRF   x3D
2EC4:  CLRF   x3C
2EC6:  MOVLW  7E
2EC8:  MOVWF  x3B
2ECA:  MOVLB  0
2ECC:  CALL   0D5A
2ED0:  BNC   2EE0
....................       { 
....................          Ganancia=0.5; 
2ED2:  MOVLB  5
2ED4:  CLRF   xEE
2ED6:  CLRF   xED
2ED8:  CLRF   xEC
2EDA:  MOVLW  7E
2EDC:  MOVWF  xEB
2EDE:  MOVLB  0
....................       } 
....................       if(Ganancia>Gananciamax) 
2EE0:  MOVFF  5B6,63A
2EE4:  MOVFF  5B5,639
2EE8:  MOVFF  5B4,638
2EEC:  MOVFF  5B3,637
2EF0:  MOVFF  5EE,63E
2EF4:  MOVFF  5ED,63D
2EF8:  MOVFF  5EC,63C
2EFC:  MOVFF  5EB,63B
2F00:  CALL   0D5A
2F04:  BNC   2F16
....................       { 
....................          Ganancia=Gananciamax; 
2F06:  MOVFF  5B6,5EE
2F0A:  MOVFF  5B5,5ED
2F0E:  MOVFF  5B4,5EC
2F12:  MOVFF  5B3,5EB
....................       } 
....................     
....................       tmp=error*Ganancia;  // Control Proporcional. 
2F16:  MOVFF  5DE,657
2F1A:  MOVFF  5DD,656
2F1E:  MOVFF  5DC,655
2F22:  MOVFF  5DB,654
2F26:  MOVFF  5EE,65B
2F2A:  MOVFF  5ED,65A
2F2E:  MOVFF  5EC,659
2F32:  MOVFF  5EB,658
2F36:  CALL   1B70
2F3A:  MOVFF  03,5EA
2F3E:  MOVFF  02,5E9
2F42:  MOVFF  01,5E8
2F46:  MOVFF  00,5E7
....................              
....................       if(tmp>Setpoint)   // Anti Wind-UP       
2F4A:  MOVFF  5AA,63E
2F4E:  MOVFF  5A9,63D
2F52:  CALL   0D24
2F56:  MOVFF  03,63A
2F5A:  MOVFF  02,639
2F5E:  MOVFF  01,638
2F62:  MOVFF  00,637
2F66:  MOVFF  5EA,63E
2F6A:  MOVFF  5E9,63D
2F6E:  MOVFF  5E8,63C
2F72:  MOVFF  5E7,63B
2F76:  CALL   0D5A
2F7A:  BNC   2F98
....................       { 
....................          tmp=Setpoint; 
2F7C:  MOVFF  5AA,63E
2F80:  MOVFF  5A9,63D
2F84:  CALL   0D24
2F88:  MOVFF  03,5EA
2F8C:  MOVFF  02,5E9
2F90:  MOVFF  01,5E8
2F94:  MOVFF  00,5E7
....................       } 
....................                    
....................       if(tmp<0.0)     // Anti Wind_DOWN     
2F98:  MOVFF  5EA,63A
2F9C:  MOVFF  5E9,639
2FA0:  MOVFF  5E8,638
2FA4:  MOVFF  5E7,637
2FA8:  MOVLB  6
2FAA:  CLRF   x3E
2FAC:  CLRF   x3D
2FAE:  CLRF   x3C
2FB0:  CLRF   x3B
2FB2:  MOVLB  0
2FB4:  CALL   0D5A
2FB8:  BNC   2FC6
....................       { 
....................          tmp=0.0; 
2FBA:  MOVLB  5
2FBC:  CLRF   xEA
2FBE:  CLRF   xE9
2FC0:  CLRF   xE8
2FC2:  CLRF   xE7
2FC4:  MOVLB  0
....................       } 
....................        
....................       // Tpulso(t)= Tciclo*(y(t)-ymin)/(ymax - ymin); calculo de ciclo util para control de resistencia.ymax=140.ymin=0; 
....................       // Tpulso es float, hay que pasar ese ciclo a una salida de un puerto usando el TMR1. 
....................       Tpulso=(tmp/Setpoint)*Tciclo;   
2FC6:  MOVFF  5AA,63E
2FCA:  MOVFF  5A9,63D
2FCE:  CALL   0D24
2FD2:  MOVFF  5EA,63B
2FD6:  MOVFF  5E9,63A
2FDA:  MOVFF  5E8,639
2FDE:  MOVFF  5E7,638
2FE2:  MOVFF  03,63F
2FE6:  MOVFF  02,63E
2FEA:  MOVFF  01,63D
2FEE:  MOVFF  00,63C
2FF2:  CALL   1778
2FF6:  MOVFF  00,637
2FFA:  MOVFF  01,638
2FFE:  MOVFF  02,639
3002:  MOVFF  03,63A
3006:  MOVFF  03,657
300A:  MOVFF  02,656
300E:  MOVFF  01,655
3012:  MOVFF  00,654
3016:  MOVFF  5D6,65B
301A:  MOVFF  5D5,65A
301E:  MOVFF  5D4,659
3022:  MOVFF  5D3,658
3026:  CALL   1B70
302A:  MOVFF  03,5DA
302E:  MOVFF  02,5D9
3032:  MOVFF  01,5D8
3036:  MOVFF  00,5D7
....................        
....................                                           
....................       if(tiempoctrl<=(int16)(Tpulso/0.005)) // Si el tiempo es menor o igual al tiempo de control se enciende la resistencia de lo contrario se apaga. 
303A:  MOVFF  5DA,63B
303E:  MOVFF  5D9,63A
3042:  MOVFF  5D8,639
3046:  MOVFF  5D7,638
304A:  MOVLW  0A
304C:  MOVLB  6
304E:  MOVWF  x3F
3050:  MOVLW  D7
3052:  MOVWF  x3E
3054:  MOVLW  23
3056:  MOVWF  x3D
3058:  MOVLW  77
305A:  MOVWF  x3C
305C:  MOVLB  0
305E:  CALL   1778
3062:  MOVFF  03,63A
3066:  MOVFF  02,639
306A:  MOVFF  01,638
306E:  MOVFF  00,637
3072:  CALL   2866
3076:  MOVFF  02,03
307A:  MOVF   01,W
307C:  MOVLB  5
307E:  MOVF   xA2,W
3080:  SUBWF  02,W
3082:  BNC   309A
3084:  BNZ   308C
3086:  MOVF   xA1,W
3088:  SUBWF  01,W
308A:  BNC   309A
....................       { 
....................          Resistencia_on; 
308C:  BSF    F8B.0
308E:  BCF    F94.0
....................          Peltiern_on; 
3090:  BSF    F8B.2
3092:  BCF    F94.2
....................          Peltierp_off; 
3094:  BCF    F8B.1
3096:  BCF    F94.1
....................       } 
....................       else          
3098:  BRA    30A6
....................       { 
....................          Resistencia_off; 
309A:  BCF    F8B.0
309C:  BCF    F94.0
....................          Peltiern_off; 
309E:  BCF    F8B.2
30A0:  BCF    F94.2
....................          Peltierp_off; 
30A2:  BCF    F8B.1
30A4:  BCF    F94.1
....................       } 
....................              
....................       if(tiempoctrl>=(int16)(Tciclo/0.005)) // Si el tiempo de control es mayor al tiempo de ciclo se reinicia tiempo de control 
30A6:  MOVFF  5D6,63B
30AA:  MOVFF  5D5,63A
30AE:  MOVFF  5D4,639
30B2:  MOVFF  5D3,638
30B6:  MOVLW  0A
30B8:  MOVLB  6
30BA:  MOVWF  x3F
30BC:  MOVLW  D7
30BE:  MOVWF  x3E
30C0:  MOVLW  23
30C2:  MOVWF  x3D
30C4:  MOVLW  77
30C6:  MOVWF  x3C
30C8:  MOVLB  0
30CA:  CALL   1778
30CE:  MOVFF  03,63A
30D2:  MOVFF  02,639
30D6:  MOVFF  01,638
30DA:  MOVFF  00,637
30DE:  CALL   2866
30E2:  MOVF   02,W
30E4:  MOVWF  03
30E6:  MOVLB  5
30E8:  SUBWF  xA2,W
30EA:  BNC   30F8
30EC:  BNZ   30F4
30EE:  MOVF   01,W
30F0:  SUBWF  xA1,W
30F2:  BNC   30F8
....................       { 
....................          tiempoctrl=0; 
30F4:  CLRF   xA2
30F6:  CLRF   xA1
....................       } // tiempoctrl incrementa una unidad cada 5ms, por eso se dividen los tiempos por 0.005. 
....................    } 
....................     
.................... //--------------------------------------------------------------------------------------------------------------------//    
....................    
.................... } 
30F8:  MOVLB  0
30FA:  RETLW  00
....................  
.................... void displayMenu(char palabra[30], int x, int y, int sombreado, int tamano) 
.................... { 
....................    strcpy(Menus.Letra,palabra); 
*
1442:  MOVLB  6
1444:  MOVFF  637,01
1448:  MOVFF  638,03
144C:  MOVFF  637,63D
1450:  MOVFF  638,63E
1454:  MOVLW  06
1456:  MOVWF  FEA
1458:  MOVLW  17
145A:  MOVWF  FE9
145C:  MOVFF  638,FE2
1460:  MOVFF  637,FE1
1464:  MOVF   FE7,F
1466:  MOVFF  FE6,FEE
146A:  BNZ   1464
....................    if(sombreado==2) 
146C:  MOVF   x3B,W
146E:  SUBLW  02
1470:  BNZ   149A
....................       {glcd_text57(x+1, y+1, Menus.Letra, tamano, ON);} 
1472:  MOVLW  01
1474:  ADDWF  x39,W
1476:  MOVWF  x3D
1478:  MOVLW  01
147A:  ADDWF  x3A,W
147C:  MOVWF  x3E
147E:  MOVFF  63D,64A
1482:  MOVWF  x4B
1484:  MOVLW  06
1486:  MOVWF  x4D
1488:  MOVLW  17
148A:  MOVWF  x4C
148C:  MOVFF  63C,64E
1490:  MOVLW  01
1492:  MOVWF  x4F
1494:  MOVLB  0
1496:  RCALL  108A
1498:  MOVLB  6
....................    if(sombreado==1) 
149A:  DECFSZ x3B,W
149C:  BRA    14E8
....................       {glcd_rect(0, y, 127, y+(tamano*8), YES, ON);glcd_text57(x+1, y+1, Menus.Letra, tamano, OFF);} 
149E:  MOVF   x3C,W
14A0:  MULLW  08
14A2:  MOVF   FF3,W
14A4:  ADDWF  x3A,W
14A6:  MOVWF  x3D
14A8:  CLRF   x4A
14AA:  MOVFF  63A,64B
14AE:  MOVLW  7F
14B0:  MOVWF  x4C
14B2:  MOVFF  63D,64D
14B6:  MOVLW  01
14B8:  MOVWF  x4E
14BA:  MOVWF  x4F
14BC:  MOVLB  0
14BE:  RCALL  1380
14C0:  MOVLW  01
14C2:  MOVLB  6
14C4:  ADDWF  x39,W
14C6:  MOVWF  x3D
14C8:  MOVLW  01
14CA:  ADDWF  x3A,W
14CC:  MOVWF  x3E
14CE:  MOVFF  63D,64A
14D2:  MOVWF  x4B
14D4:  MOVLW  06
14D6:  MOVWF  x4D
14D8:  MOVLW  17
14DA:  MOVWF  x4C
14DC:  MOVFF  63C,64E
14E0:  CLRF   x4F
14E2:  MOVLB  0
14E4:  RCALL  108A
14E6:  MOVLB  6
....................    if(sombreado==0) 
14E8:  MOVF   x3B,F
14EA:  BNZ   1536
....................       {glcd_rect(0, y, 127, y+(tamano*8), YES, OFF);glcd_text57(x+1, y+1, Menus.Letra, tamano, ON);} 
14EC:  MOVF   x3C,W
14EE:  MULLW  08
14F0:  MOVF   FF3,W
14F2:  ADDWF  x3A,W
14F4:  MOVWF  x3D
14F6:  CLRF   x4A
14F8:  MOVFF  63A,64B
14FC:  MOVLW  7F
14FE:  MOVWF  x4C
1500:  MOVFF  63D,64D
1504:  MOVLW  01
1506:  MOVWF  x4E
1508:  CLRF   x4F
150A:  MOVLB  0
150C:  RCALL  1380
150E:  MOVLW  01
1510:  MOVLB  6
1512:  ADDWF  x39,W
1514:  MOVWF  x3D
1516:  MOVLW  01
1518:  ADDWF  x3A,W
151A:  MOVWF  x3E
151C:  MOVFF  63D,64A
1520:  MOVWF  x4B
1522:  MOVLW  06
1524:  MOVWF  x4D
1526:  MOVLW  17
1528:  MOVWF  x4C
152A:  MOVFF  63C,64E
152E:  MOVLW  01
1530:  MOVWF  x4F
1532:  MOVLB  0
1534:  RCALL  108A
....................    glcd_update(); 
1536:  MOVLB  0
1538:  RCALL  0E6E
.................... } 
153A:  RETLW  00
....................  
.................... void displayTiempo(int digito, int x, int y, int sombreado, int tamano) 
.................... { 
....................    char voltage[9]; 
....................     
....................    if(sombreado==2) 
*
2580:  MOVLB  6
2582:  MOVF   x3B,W
2584:  SUBLW  02
2586:  BNZ   25F8
....................    { 
....................       sprintf(voltage, "%03u", digito); 
2588:  MOVLW  06
258A:  MOVWF  x36
258C:  MOVLW  3D
258E:  MOVWF  x35
2590:  MOVFF  638,646
2594:  MOVLW  03
2596:  MOVWF  x47
2598:  MOVLB  0
259A:  RCALL  24FA
....................       glcd_rect(x, y, x+(tamano*18), y+(tamano*8), YES, ON); 
259C:  MOVLB  6
259E:  MOVF   x3C,W
25A0:  MULLW  12
25A2:  MOVF   FF3,W
25A4:  ADDWF  x39,W
25A6:  MOVWF  x46
25A8:  MOVF   x3C,W
25AA:  MULLW  08
25AC:  MOVF   FF3,W
25AE:  ADDWF  x3A,W
25B0:  MOVWF  x47
25B2:  MOVFF  639,64A
25B6:  MOVFF  63A,64B
25BA:  MOVFF  646,64C
25BE:  MOVWF  x4D
25C0:  MOVLW  01
25C2:  MOVWF  x4E
25C4:  MOVWF  x4F
25C6:  MOVLB  0
25C8:  CALL   1380
....................       glcd_text57(x+1, y+1, voltage, tamano, OFF); 
25CC:  MOVLW  01
25CE:  MOVLB  6
25D0:  ADDWF  x39,W
25D2:  MOVWF  x46
25D4:  MOVLW  01
25D6:  ADDWF  x3A,W
25D8:  MOVWF  x47
25DA:  MOVFF  646,64A
25DE:  MOVWF  x4B
25E0:  MOVLW  06
25E2:  MOVWF  x4D
25E4:  MOVLW  3D
25E6:  MOVWF  x4C
25E8:  MOVFF  63C,64E
25EC:  CLRF   x4F
25EE:  MOVLB  0
25F0:  CALL   108A
....................    } 
....................    else 
25F4:  BRA    273C
25F6:  MOVLB  6
....................    { 
....................       if(sombreado==3) 
25F8:  MOVF   x3B,W
25FA:  SUBLW  03
25FC:  BNZ   266E
....................       { 
....................          sprintf(voltage, "%03u", digito); 
25FE:  MOVLW  06
2600:  MOVWF  x36
2602:  MOVLW  3D
2604:  MOVWF  x35
2606:  MOVFF  638,646
260A:  MOVLW  03
260C:  MOVWF  x47
260E:  MOVLB  0
2610:  RCALL  24FA
....................          glcd_rect(x, y, x+(tamano*18), y+(tamano*8), YES, OFF); 
2612:  MOVLB  6
2614:  MOVF   x3C,W
2616:  MULLW  12
2618:  MOVF   FF3,W
261A:  ADDWF  x39,W
261C:  MOVWF  x46
261E:  MOVF   x3C,W
2620:  MULLW  08
2622:  MOVF   FF3,W
2624:  ADDWF  x3A,W
2626:  MOVWF  x47
2628:  MOVFF  639,64A
262C:  MOVFF  63A,64B
2630:  MOVFF  646,64C
2634:  MOVWF  x4D
2636:  MOVLW  01
2638:  MOVWF  x4E
263A:  CLRF   x4F
263C:  MOVLB  0
263E:  CALL   1380
....................          glcd_text57(x+1, y+1, voltage, tamano, ON); 
2642:  MOVLW  01
2644:  MOVLB  6
2646:  ADDWF  x39,W
2648:  MOVWF  x46
264A:  MOVLW  01
264C:  ADDWF  x3A,W
264E:  MOVWF  x47
2650:  MOVFF  646,64A
2654:  MOVWF  x4B
2656:  MOVLW  06
2658:  MOVWF  x4D
265A:  MOVLW  3D
265C:  MOVWF  x4C
265E:  MOVFF  63C,64E
2662:  MOVLW  01
2664:  MOVWF  x4F
2666:  MOVLB  0
2668:  CALL   108A
266C:  MOVLB  6
....................       } 
....................       sprintf(voltage, "%u", digito); 
266E:  MOVLW  06
2670:  MOVWF  x36
2672:  MOVLW  3D
2674:  MOVWF  x35
2676:  MOVFF  638,646
267A:  MOVLW  1B
267C:  MOVWF  x47
267E:  MOVLB  0
2680:  RCALL  24FA
....................       if(sombreado==1) 
2682:  MOVLB  6
2684:  DECFSZ x3B,W
2686:  BRA    26E0
....................          {glcd_rect(x, y, x+(tamano*5), y+(tamano*8), YES, ON);glcd_text57(x+1, y+1, voltage, tamano, OFF);} 
2688:  MOVF   x3C,W
268A:  MULLW  05
268C:  MOVF   FF3,W
268E:  ADDWF  x39,W
2690:  MOVWF  x46
2692:  MOVF   x3C,W
2694:  MULLW  08
2696:  MOVF   FF3,W
2698:  ADDWF  x3A,W
269A:  MOVWF  x47
269C:  MOVFF  639,64A
26A0:  MOVFF  63A,64B
26A4:  MOVFF  646,64C
26A8:  MOVWF  x4D
26AA:  MOVLW  01
26AC:  MOVWF  x4E
26AE:  MOVWF  x4F
26B0:  MOVLB  0
26B2:  CALL   1380
26B6:  MOVLW  01
26B8:  MOVLB  6
26BA:  ADDWF  x39,W
26BC:  MOVWF  x46
26BE:  MOVLW  01
26C0:  ADDWF  x3A,W
26C2:  MOVWF  x47
26C4:  MOVFF  646,64A
26C8:  MOVWF  x4B
26CA:  MOVLW  06
26CC:  MOVWF  x4D
26CE:  MOVLW  3D
26D0:  MOVWF  x4C
26D2:  MOVFF  63C,64E
26D6:  CLRF   x4F
26D8:  MOVLB  0
26DA:  CALL   108A
26DE:  MOVLB  6
....................       if(sombreado==0) 
26E0:  MOVF   x3B,F
26E2:  BNZ   273E
....................          {glcd_rect(x, y, x+(tamano*5), y+(tamano*8), YES, OFF);glcd_text57(x+1, y+1, voltage, tamano, ON);} 
26E4:  MOVF   x3C,W
26E6:  MULLW  05
26E8:  MOVF   FF3,W
26EA:  ADDWF  x39,W
26EC:  MOVWF  x46
26EE:  MOVF   x3C,W
26F0:  MULLW  08
26F2:  MOVF   FF3,W
26F4:  ADDWF  x3A,W
26F6:  MOVWF  x47
26F8:  MOVFF  639,64A
26FC:  MOVFF  63A,64B
2700:  MOVFF  646,64C
2704:  MOVWF  x4D
2706:  MOVLW  01
2708:  MOVWF  x4E
270A:  CLRF   x4F
270C:  MOVLB  0
270E:  CALL   1380
2712:  MOVLW  01
2714:  MOVLB  6
2716:  ADDWF  x39,W
2718:  MOVWF  x46
271A:  MOVLW  01
271C:  ADDWF  x3A,W
271E:  MOVWF  x47
2720:  MOVFF  646,64A
2724:  MOVWF  x4B
2726:  MOVLW  06
2728:  MOVWF  x4D
272A:  MOVLW  3D
272C:  MOVWF  x4C
272E:  MOVFF  63C,64E
2732:  MOVLW  01
2734:  MOVWF  x4F
2736:  MOVLB  0
2738:  CALL   108A
273C:  MOVLB  6
....................    } 
....................    glcd_update(); 
273E:  MOVLB  0
2740:  CALL   0E6E
.................... } 
2744:  RETLW  00
....................  
.................... void displayTemperatura(int16 digito, int x, int y, int sombreado, int tamano) 
.................... { 
....................    char voltage[9]; 
....................     
....................    if(sombreado==2) 
*
2342:  MOVLB  6
2344:  MOVF   x3D,W
2346:  SUBLW  02
2348:  BNZ   23BE
....................    { 
....................       sprintf(voltage, "%03Lu", digito); 
234A:  MOVLW  06
234C:  MOVWF  x36
234E:  MOVLW  3F
2350:  MOVWF  x35
2352:  MOVLW  0A
2354:  MOVWF  FE9
2356:  MOVFF  63A,649
235A:  MOVFF  639,648
235E:  MOVLB  0
2360:  RCALL  2284
....................       glcd_rect(x, y, x+(tamano*18), y+(tamano*8), YES, ON); 
2362:  MOVLB  6
2364:  MOVF   x3E,W
2366:  MULLW  12
2368:  MOVF   FF3,W
236A:  ADDWF  x3B,W
236C:  MOVWF  x48
236E:  MOVF   x3E,W
2370:  MULLW  08
2372:  MOVF   FF3,W
2374:  ADDWF  x3C,W
2376:  MOVWF  x49
2378:  MOVFF  63B,64A
237C:  MOVFF  63C,64B
2380:  MOVFF  648,64C
2384:  MOVWF  x4D
2386:  MOVLW  01
2388:  MOVWF  x4E
238A:  MOVWF  x4F
238C:  MOVLB  0
238E:  CALL   1380
....................       glcd_text57(x+1, y+1, voltage, tamano, OFF); 
2392:  MOVLW  01
2394:  MOVLB  6
2396:  ADDWF  x3B,W
2398:  MOVWF  x48
239A:  MOVLW  01
239C:  ADDWF  x3C,W
239E:  MOVWF  x49
23A0:  MOVFF  648,64A
23A4:  MOVWF  x4B
23A6:  MOVLW  06
23A8:  MOVWF  x4D
23AA:  MOVLW  3F
23AC:  MOVWF  x4C
23AE:  MOVFF  63E,64E
23B2:  CLRF   x4F
23B4:  MOVLB  0
23B6:  CALL   108A
....................    } 
....................    else 
23BA:  BRA    24F0
23BC:  MOVLB  6
....................    { 
....................       sprintf(voltage, "%03Lu", digito); 
23BE:  MOVLW  06
23C0:  MOVWF  x36
23C2:  MOVLW  3F
23C4:  MOVWF  x35
23C6:  MOVLW  0A
23C8:  MOVWF  FE9
23CA:  MOVFF  63A,649
23CE:  MOVFF  639,648
23D2:  MOVLB  0
23D4:  RCALL  2284
....................     
....................       if(sombreado==4) 
23D6:  MOVLB  6
23D8:  MOVF   x3D,W
23DA:  SUBLW  04
23DC:  BNZ   2438
....................       { 
....................          glcd_rect(x, y, x+(tamano*16), y+(tamano*8), YES, OFF); 
23DE:  MOVF   x3E,W
23E0:  MULLW  10
23E2:  MOVF   FF3,W
23E4:  ADDWF  x3B,W
23E6:  MOVWF  x48
23E8:  MOVF   x3E,W
23EA:  MULLW  08
23EC:  MOVF   FF3,W
23EE:  ADDWF  x3C,W
23F0:  MOVWF  x49
23F2:  MOVFF  63B,64A
23F6:  MOVFF  63C,64B
23FA:  MOVFF  648,64C
23FE:  MOVWF  x4D
2400:  MOVLW  01
2402:  MOVWF  x4E
2404:  CLRF   x4F
2406:  MOVLB  0
2408:  CALL   1380
....................          glcd_text57(x+1, y+1, voltage, tamano, ON); 
240C:  MOVLW  01
240E:  MOVLB  6
2410:  ADDWF  x3B,W
2412:  MOVWF  x48
2414:  MOVLW  01
2416:  ADDWF  x3C,W
2418:  MOVWF  x49
241A:  MOVFF  648,64A
241E:  MOVWF  x4B
2420:  MOVLW  06
2422:  MOVWF  x4D
2424:  MOVLW  3F
2426:  MOVWF  x4C
2428:  MOVFF  63E,64E
242C:  MOVLW  01
242E:  MOVWF  x4F
2430:  MOVLB  0
2432:  CALL   108A
2436:  MOVLB  6
....................       } 
....................       if(sombreado==1) 
2438:  DECFSZ x3D,W
243A:  BRA    2494
....................          {glcd_rect(x, y, x+(tamano*5), y+(tamano*8), YES, ON);glcd_text57(x+1, y+1, voltage, tamano, OFF);} 
243C:  MOVF   x3E,W
243E:  MULLW  05
2440:  MOVF   FF3,W
2442:  ADDWF  x3B,W
2444:  MOVWF  x48
2446:  MOVF   x3E,W
2448:  MULLW  08
244A:  MOVF   FF3,W
244C:  ADDWF  x3C,W
244E:  MOVWF  x49
2450:  MOVFF  63B,64A
2454:  MOVFF  63C,64B
2458:  MOVFF  648,64C
245C:  MOVWF  x4D
245E:  MOVLW  01
2460:  MOVWF  x4E
2462:  MOVWF  x4F
2464:  MOVLB  0
2466:  CALL   1380
246A:  MOVLW  01
246C:  MOVLB  6
246E:  ADDWF  x3B,W
2470:  MOVWF  x48
2472:  MOVLW  01
2474:  ADDWF  x3C,W
2476:  MOVWF  x49
2478:  MOVFF  648,64A
247C:  MOVWF  x4B
247E:  MOVLW  06
2480:  MOVWF  x4D
2482:  MOVLW  3F
2484:  MOVWF  x4C
2486:  MOVFF  63E,64E
248A:  CLRF   x4F
248C:  MOVLB  0
248E:  CALL   108A
2492:  MOVLB  6
....................       if(sombreado==0) 
2494:  MOVF   x3D,F
2496:  BNZ   24F2
....................          {glcd_rect(x, y, x+(tamano*5), y+(tamano*8), YES, OFF);glcd_text57(x+1, y+1, voltage, tamano, ON);} 
2498:  MOVF   x3E,W
249A:  MULLW  05
249C:  MOVF   FF3,W
249E:  ADDWF  x3B,W
24A0:  MOVWF  x48
24A2:  MOVF   x3E,W
24A4:  MULLW  08
24A6:  MOVF   FF3,W
24A8:  ADDWF  x3C,W
24AA:  MOVWF  x49
24AC:  MOVFF  63B,64A
24B0:  MOVFF  63C,64B
24B4:  MOVFF  648,64C
24B8:  MOVWF  x4D
24BA:  MOVLW  01
24BC:  MOVWF  x4E
24BE:  CLRF   x4F
24C0:  MOVLB  0
24C2:  CALL   1380
24C6:  MOVLW  01
24C8:  MOVLB  6
24CA:  ADDWF  x3B,W
24CC:  MOVWF  x48
24CE:  MOVLW  01
24D0:  ADDWF  x3C,W
24D2:  MOVWF  x49
24D4:  MOVFF  648,64A
24D8:  MOVWF  x4B
24DA:  MOVLW  06
24DC:  MOVWF  x4D
24DE:  MOVLW  3F
24E0:  MOVWF  x4C
24E2:  MOVFF  63E,64E
24E6:  MOVLW  01
24E8:  MOVWF  x4F
24EA:  MOVLB  0
24EC:  CALL   108A
24F0:  MOVLB  6
....................    } 
....................    glcd_update(); 
24F2:  MOVLB  0
24F4:  CALL   0E6E
.................... } 
24F8:  RETLW  00
....................  
.................... void glcd_imagen(int8 x) 
.................... { 
....................    char i,j; 
....................    signed char k;  
....................     
....................    if(x==5){ 
*
2746:  MOVLB  6
2748:  MOVF   x37,W
274A:  SUBLW  05
274C:  BNZ   27F2
....................    for( i = 0 ; i < 64 ; i ++ ) 
274E:  CLRF   x38
2750:  MOVF   x38,W
2752:  SUBLW  3F
2754:  BNC   27F2
....................    {   
....................       for( j = 0 ; j < 16 ; j ++) 
2756:  CLRF   x39
2758:  MOVF   x39,W
275A:  SUBLW  0F
275C:  BNC   27EE
....................       {     
....................          for(k=7;k>-1;k--) 
275E:  MOVLW  07
2760:  MOVWF  x3A
2762:  MOVF   x3A,W
2764:  XORLW  80
2766:  SUBLW  7F
2768:  BC    27EA
....................          {       
....................             if( bit_test(Horno[i][j] ,7-k ))  
276A:  CLRF   x3C
276C:  MOVFF  638,63B
2770:  CLRF   x3E
2772:  MOVLW  10
2774:  MOVWF  x3D
2776:  MOVLB  0
2778:  CALL   1B4E
277C:  MOVFF  02,63C
2780:  MOVFF  01,63B
2784:  MOVLB  6
2786:  MOVF   x39,W
2788:  ADDWF  01,W
278A:  MOVWF  01
278C:  MOVLW  00
278E:  ADDWFC 02,W
2790:  MOVWF  03
2792:  MOVF   01,W
2794:  MOVFF  FF2,63B
2798:  BCF    FF2.7
279A:  MOVFF  03,FF7
279E:  MOVLB  0
27A0:  CALL   02A6
27A4:  MOVLB  6
27A6:  BTFSC  x3B.7
27A8:  BSF    FF2.7
27AA:  MOVWF  x3B
27AC:  MOVLW  07
27AE:  BSF    FD8.0
27B0:  SUBFWB x3A,W
27B2:  MOVWF  x3C
27B4:  MOVFF  63B,00
27B8:  MOVF   x3C,W
27BA:  MOVWF  01
27BC:  BZ    27C6
27BE:  BCF    FD8.0
27C0:  RRCF   00,F
27C2:  DECFSZ 01,F
27C4:  BRA    27BE
27C6:  BTFSS  00.0
27C8:  BRA    27E6
....................                glcd_pixel( j*8+k,i, ON ); 
27CA:  MOVF   x39,W
27CC:  MULLW  08
27CE:  MOVF   FF3,W
27D0:  ADDWF  x3A,W
27D2:  MOVWF  x3B
27D4:  MOVWF  x65
27D6:  MOVFF  638,666
27DA:  MOVLW  01
27DC:  MOVWF  x67
27DE:  MOVLB  0
27E0:  CALL   0FCE
27E4:  MOVLB  6
....................          }   
27E6:  DECF   x3A,F
27E8:  BRA    2762
....................       } 
27EA:  INCF   x39,F
27EC:  BRA    2758
....................    } 
27EE:  INCF   x38,F
27F0:  BRA    2750
....................    } 
....................     
.................... } 
27F2:  MOVLB  0
27F4:  GOTO   57A0 (RETURN)
....................  
.................... #int_TIMER1 
.................... void temp1s(void){ 
....................    //set_timer1(45612);  // 5 ms 5536 , Posiblemente cargar con 22144 debido a F=12MHz 
....................    set_timer1(5536); 
*
0CA0:  MOVLW  15
0CA2:  MOVWF  FCF
0CA4:  MOVLW  A0
0CA6:  MOVWF  FCE
....................    tiempos++; 
0CA8:  MOVLB  5
0CAA:  INCF   x9D,F
0CAC:  BTFSC  FD8.2
0CAE:  INCF   x9E,F
....................    tiempos3++; 
0CB0:  INCF   x9F,F
0CB2:  BTFSC  FD8.2
0CB4:  INCF   xA0,F
....................    tiempoctrl++; 
0CB6:  INCF   xA1,F
0CB8:  BTFSC  FD8.2
0CBA:  INCF   xA2,F
....................      
....................    if(tiempos>=200)  // 12000 para que incremente cada minuto, 200para que incremente cada segundo. 
0CBC:  MOVF   x9E,F
0CBE:  BNZ   0CC6
0CC0:  MOVF   x9D,W
0CC2:  SUBLW  C7
0CC4:  BC    0CF2
....................    {tiempos=0;Lectura=1;tiemporeset++;TiempoControl++;tiemporecta++;LecturaTemperatura=1; 
0CC6:  CLRF   x9E
0CC8:  CLRF   x9D
0CCA:  BSF    x8F.4
0CCC:  INCF   x92,F
0CCE:  INCF   x99,F
0CD0:  INCF   x8B,F
0CD2:  BSF    x8F.5
....................     
....................       if(flag_setpoint==1) 
0CD4:  BTFSS  x90.4
0CD6:  BRA    0CDE
....................          tiemposetpoint++; 
0CD8:  INCF   xA7,F
0CDA:  BTFSC  FD8.2
0CDC:  INCF   xA8,F
....................           
....................       if(tiempo_esterilizacion==1) 
0CDE:  DECFSZ x9B,W
0CE0:  BRA    0CE8
....................       {                
....................          tinicio++; 
0CE2:  INCF   xA3,F
0CE4:  BTFSC  FD8.2
0CE6:  INCF   xA4,F
....................       } 
....................        
....................       if(flag_tiempocalentamiento==1) 
0CE8:  BTFSS  x90.2
0CEA:  BRA    0CF2
....................       { 
....................          tiempocalentamiento++; 
0CEC:  INCF   xA5,F
0CEE:  BTFSC  FD8.2
0CF0:  INCF   xA6,F
....................       } 
....................    }         
.................... } 
....................     
0CF2:  BCF    F9E.0
0CF4:  MOVLB  0
0CF6:  GOTO   0054
.................... void Limpia(int x1,int x2,int y){ 
....................    glcd_rect(x1, y, x2, y+7, YES, OFF); 
.................... } 
....................  
.................... void displayT(float adc,int x,int y,int w) { 
....................    char voltage[9];     
....................    sprintf(voltage, "%03.1f",adc); // Converts adc to text 
*
3376:  MOVLW  06
3378:  MOVLB  6
337A:  MOVWF  x36
337C:  MOVLW  3E
337E:  MOVWF  x35
3380:  MOVLW  42
3382:  MOVWF  FE9
3384:  MOVFF  63A,64A
3388:  MOVFF  639,649
338C:  MOVFF  638,648
3390:  MOVFF  637,647
3394:  MOVLW  01
3396:  MOVWF  x4B
3398:  MOVLB  0
339A:  BRA    31C0
....................    glcd_rect(x, y, x+(w*27), y+(w*8), YES, OFF); 
339C:  MOVLB  6
339E:  MOVF   x3D,W
33A0:  MULLW  1B
33A2:  MOVF   FF3,W
33A4:  ADDWF  x3B,W
33A6:  MOVWF  x47
33A8:  MOVF   x3D,W
33AA:  MULLW  08
33AC:  MOVF   FF3,W
33AE:  ADDWF  x3C,W
33B0:  MOVWF  x48
33B2:  MOVFF  63B,64A
33B6:  MOVFF  63C,64B
33BA:  MOVFF  647,64C
33BE:  MOVWF  x4D
33C0:  MOVLW  01
33C2:  MOVWF  x4E
33C4:  CLRF   x4F
33C6:  MOVLB  0
33C8:  CALL   1380
....................    glcd_text57(x, y, voltage, w, ON); 
33CC:  MOVFF  63B,64A
33D0:  MOVFF  63C,64B
33D4:  MOVLW  06
33D6:  MOVLB  6
33D8:  MOVWF  x4D
33DA:  MOVLW  3E
33DC:  MOVWF  x4C
33DE:  MOVFF  63D,64E
33E2:  MOVLW  01
33E4:  MOVWF  x4F
33E6:  MOVLB  0
33E8:  CALL   108A
.................... } 
33EC:  RETLW  00
....................  
.................... void displayContrasena(int digito, int x, int y, int sombreado) 
.................... { 
....................    char voltage[9]; 
....................    sprintf(voltage, "%i", digito); 
*
1668:  MOVLW  06
166A:  MOVLB  6
166C:  MOVWF  x36
166E:  MOVLW  3D
1670:  MOVWF  x35
1672:  MOVFF  639,646
1676:  MOVLW  1F
1678:  MOVWF  x47
167A:  MOVLB  0
167C:  BRA    1588
....................     
....................    if(sombreado==1) 
167E:  MOVLB  6
1680:  DECFSZ x3C,W
1682:  BRA    16D2
....................       {glcd_rect(x, y, x+18, y+24, YES, ON);glcd_text57(x+2, y+1, voltage, 2, OFF);} 
1684:  MOVLW  12
1686:  ADDWF  x3A,W
1688:  MOVWF  x46
168A:  MOVLW  18
168C:  ADDWF  x3B,W
168E:  MOVWF  x47
1690:  MOVFF  63A,64A
1694:  MOVFF  63B,64B
1698:  MOVFF  646,64C
169C:  MOVWF  x4D
169E:  MOVLW  01
16A0:  MOVWF  x4E
16A2:  MOVWF  x4F
16A4:  MOVLB  0
16A6:  RCALL  1380
16A8:  MOVLW  02
16AA:  MOVLB  6
16AC:  ADDWF  x3A,W
16AE:  MOVWF  x46
16B0:  MOVLW  01
16B2:  ADDWF  x3B,W
16B4:  MOVWF  x47
16B6:  MOVFF  646,64A
16BA:  MOVWF  x4B
16BC:  MOVLW  06
16BE:  MOVWF  x4D
16C0:  MOVLW  3D
16C2:  MOVWF  x4C
16C4:  MOVLW  02
16C6:  MOVWF  x4E
16C8:  CLRF   x4F
16CA:  MOVLB  0
16CC:  RCALL  108A
....................    else    
16CE:  BRA    171C
16D0:  MOVLB  6
....................       {glcd_rect(x, y, x+18, y+24, NO, OFF);glcd_text57(x+2, y+1, voltage, 2, ON);} 
16D2:  MOVLW  12
16D4:  ADDWF  x3A,W
16D6:  MOVWF  x46
16D8:  MOVLW  18
16DA:  ADDWF  x3B,W
16DC:  MOVWF  x47
16DE:  MOVFF  63A,64A
16E2:  MOVFF  63B,64B
16E6:  MOVFF  646,64C
16EA:  MOVWF  x4D
16EC:  CLRF   x4E
16EE:  CLRF   x4F
16F0:  MOVLB  0
16F2:  RCALL  1380
16F4:  MOVLW  02
16F6:  MOVLB  6
16F8:  ADDWF  x3A,W
16FA:  MOVWF  x46
16FC:  MOVLW  01
16FE:  ADDWF  x3B,W
1700:  MOVWF  x47
1702:  MOVFF  646,64A
1706:  MOVWF  x4B
1708:  MOVLW  06
170A:  MOVWF  x4D
170C:  MOVLW  3D
170E:  MOVWF  x4C
1710:  MOVLW  02
1712:  MOVWF  x4E
1714:  MOVLW  01
1716:  MOVWF  x4F
1718:  MOVLB  0
171A:  RCALL  108A
....................  
.................... } 
171C:  RETLW  00
....................  
....................  
.................... void main() 
.................... { 
*
33EE:  CLRF   FF8
33F0:  BCF    FD0.7
33F2:  BSF    07.7
33F4:  CLRF   FEA
33F6:  CLRF   FE9
33F8:  MOVLB  5
33FA:  CLRF   x86
33FC:  CLRF   x87
33FE:  CLRF   x88
3400:  CLRF   x89
3402:  MOVLW  0A
3404:  MOVWF  x8A
3406:  CLRF   x8B
3408:  CLRF   x8C
340A:  CLRF   x8D
340C:  CLRF   x8E
340E:  BCF    x8F.0
3410:  BCF    x8F.1
3412:  BCF    x8F.2
3414:  BSF    x8F.3
3416:  BCF    x8F.4
3418:  BCF    x8F.5
341A:  BCF    x8F.6
341C:  BCF    x8F.7
341E:  BCF    x90.0
3420:  BCF    x90.1
3422:  BCF    x90.2
3424:  BCF    x90.3
3426:  BCF    x90.4
3428:  BCF    x90.5
342A:  CLRF   x91
342C:  CLRF   x92
342E:  CLRF   x93
3430:  CLRF   x94
3432:  MOVLW  01
3434:  MOVWF  x95
3436:  CLRF   x96
3438:  CLRF   x97
343A:  CLRF   x98
343C:  CLRF   x99
343E:  MOVWF  x9A
3440:  CLRF   x9B
3442:  CLRF   x9C
3444:  CLRF   x9E
3446:  CLRF   x9D
3448:  CLRF   xA0
344A:  CLRF   x9F
344C:  CLRF   xA2
344E:  CLRF   xA1
3450:  CLRF   xA4
3452:  CLRF   xA3
3454:  CLRF   xA6
3456:  CLRF   xA5
3458:  CLRF   xA8
345A:  CLRF   xA7
345C:  CLRF   xAA
345E:  CLRF   xA9
3460:  CLRF   xAE
3462:  CLRF   xAD
3464:  CLRF   xAC
3466:  CLRF   xAB
3468:  CLRF   xB2
346A:  CLRF   xB1
346C:  CLRF   xB0
346E:  CLRF   xAF
3470:  CLRF   xB6
3472:  CLRF   xB5
3474:  CLRF   xB4
3476:  CLRF   xB3
3478:  CLRF   xCA
347A:  CLRF   xC9
347C:  CLRF   xC8
347E:  CLRF   xC7
3480:  CLRF   xCE
3482:  MOVLW  10
3484:  MOVWF  xCD
3486:  MOVLW  42
3488:  MOVWF  xCC
348A:  MOVLW  8B
348C:  MOVWF  xCB
348E:  CLRF   xD6
3490:  CLRF   xD5
3492:  MOVLW  20
3494:  MOVWF  xD4
3496:  MOVLW  82
3498:  MOVWF  xD3
349A:  CLRF   xDA
349C:  CLRF   xD9
349E:  CLRF   xD8
34A0:  CLRF   xD7
34A2:  CLRF   xDE
34A4:  CLRF   xDD
34A6:  CLRF   xDC
34A8:  CLRF   xDB
34AA:  CLRF   xE2
34AC:  CLRF   xE1
34AE:  CLRF   xE0
34B0:  CLRF   xDF
34B2:  CLRF   xE6
34B4:  CLRF   xE5
34B6:  CLRF   xE4
34B8:  CLRF   xE3
34BA:  CLRF   xEA
34BC:  CLRF   xE9
34BE:  CLRF   xE8
34C0:  CLRF   xE7
34C2:  CLRF   xEE
34C4:  CLRF   xED
34C6:  MOVLW  48
34C8:  MOVWF  xEC
34CA:  MOVLW  83
34CC:  MOVWF  xEB
34CE:  CLRF   xF2
34D0:  CLRF   xF1
34D2:  MOVLW  20
34D4:  MOVWF  xF0
34D6:  MOVLW  83
34D8:  MOVWF  xEF
34DA:  CLRF   xF6
34DC:  CLRF   xF5
34DE:  CLRF   xF4
34E0:  MOVLW  7E
34E2:  MOVWF  xF3
34E4:  CLRF   xFA
34E6:  CLRF   xF9
34E8:  MOVLW  16
34EA:  MOVWF  xF8
34EC:  MOVLW  86
34EE:  MOVWF  xF7
34F0:  CLRF   xFE
34F2:  CLRF   xFD
34F4:  CLRF   xFC
34F6:  CLRF   xFB
34F8:  MOVLB  6
34FA:  CLRF   x02
34FC:  CLRF   x01
34FE:  CLRF   x00
3500:  MOVLB  5
3502:  CLRF   xFF
3504:  MOVLB  6
3506:  CLRF   x06
3508:  CLRF   x05
350A:  MOVLW  20
350C:  MOVWF  x04
350E:  MOVLW  82
3510:  MOVWF  x03
3512:  CLRF   x0A
3514:  CLRF   x09
3516:  CLRF   x08
3518:  CLRF   x07
351A:  MOVLW  E0
351C:  MOVWF  x0E
351E:  MOVLW  2D
3520:  MOVWF  x0D
3522:  MOVLW  10
3524:  MOVWF  x0C
3526:  MOVLW  75
3528:  MOVWF  x0B
352A:  MOVLW  FF
352C:  MOVWF  x12
352E:  MOVLW  21
3530:  MOVWF  x11
3532:  MOVLW  15
3534:  MOVWF  x10
3536:  MOVLW  80
3538:  MOVWF  x0F
353A:  MOVLW  82
353C:  MOVWF  x16
353E:  MOVLW  12
3540:  MOVWF  x15
3542:  MOVLW  F4
3544:  MOVWF  x14
3546:  MOVLW  86
3548:  MOVWF  x13
354A:  MOVF   FC1,W
354C:  ANDLW  C0
354E:  IORLW  0F
3550:  MOVWF  FC1
3552:  MOVLW  07
3554:  MOVWF  FB4
3556:  MOVLB  4
3558:  CLRF   x16
355A:  CLRF   x17
355C:  CLRF   x18
355E:  CLRF   x19
3560:  CLRF   x1A
3562:  CLRF   x1B
3564:  CLRF   x1C
3566:  CLRF   x1D
3568:  CLRF   x1E
356A:  CLRF   x1F
356C:  CLRF   x20
356E:  CLRF   x21
3570:  CLRF   x22
3572:  CLRF   x23
3574:  CLRF   x24
3576:  CLRF   x25
3578:  CLRF   x26
357A:  CLRF   x27
357C:  CLRF   x28
357E:  CLRF   x29
3580:  CLRF   x2A
3582:  CLRF   x2B
3584:  CLRF   x2C
3586:  CLRF   x2D
3588:  CLRF   x2E
358A:  CLRF   x2F
358C:  CLRF   x30
358E:  CLRF   x31
3590:  CLRF   x32
3592:  CLRF   x33
3594:  CLRF   x34
3596:  CLRF   x35
3598:  CLRF   x36
359A:  CLRF   x37
359C:  CLRF   x38
359E:  CLRF   x39
35A0:  CLRF   x3A
35A2:  CLRF   x3B
35A4:  CLRF   x3C
35A6:  CLRF   x3D
35A8:  CLRF   x3E
35AA:  CLRF   x3F
35AC:  CLRF   x40
35AE:  CLRF   x41
35B0:  CLRF   x42
35B2:  CLRF   x43
35B4:  CLRF   x44
35B6:  CLRF   x45
35B8:  CLRF   x46
35BA:  CLRF   x47
35BC:  CLRF   x48
35BE:  CLRF   x49
35C0:  CLRF   x4A
35C2:  CLRF   x4B
35C4:  CLRF   x4C
35C6:  CLRF   x4D
35C8:  CLRF   x4E
35CA:  CLRF   x4F
35CC:  CLRF   x50
35CE:  CLRF   x51
35D0:  CLRF   x52
35D2:  CLRF   x53
35D4:  CLRF   x54
35D6:  CLRF   x55
35D8:  CLRF   x56
35DA:  CLRF   x57
35DC:  CLRF   x58
35DE:  CLRF   x59
35E0:  CLRF   x5A
35E2:  CLRF   x5B
35E4:  CLRF   x5C
35E6:  CLRF   x5D
35E8:  CLRF   x5E
35EA:  CLRF   x5F
35EC:  CLRF   x60
35EE:  CLRF   x61
35F0:  CLRF   x62
35F2:  CLRF   x63
35F4:  CLRF   x64
35F6:  CLRF   x65
35F8:  CLRF   x66
35FA:  CLRF   x67
35FC:  CLRF   x68
35FE:  CLRF   x69
3600:  CLRF   x6A
3602:  CLRF   x6B
3604:  CLRF   x6C
3606:  CLRF   x6D
3608:  CLRF   x6E
360A:  CLRF   x6F
360C:  CLRF   x70
360E:  CLRF   x71
3610:  CLRF   x72
3612:  CLRF   x73
3614:  CLRF   x74
3616:  CLRF   x75
3618:  CLRF   x76
361A:  CLRF   x77
361C:  CLRF   x78
361E:  CLRF   x79
3620:  CLRF   x7A
3622:  CLRF   x7B
3624:  CLRF   x7C
3626:  CLRF   x7D
3628:  CLRF   x7E
362A:  CLRF   x7F
362C:  CLRF   x80
362E:  CLRF   x81
3630:  CLRF   x82
3632:  CLRF   x83
3634:  CLRF   x84
3636:  CLRF   x85
3638:  CLRF   x86
363A:  CLRF   x87
363C:  CLRF   x88
363E:  CLRF   x89
3640:  CLRF   x8A
3642:  CLRF   x8B
3644:  CLRF   x8C
3646:  CLRF   x8D
3648:  CLRF   x8E
364A:  CLRF   x8F
364C:  CLRF   x90
364E:  CLRF   x91
3650:  CLRF   x92
3652:  CLRF   x93
3654:  CLRF   x94
3656:  CLRF   x95
3658:  CLRF   x96
365A:  CLRF   x97
365C:  CLRF   x98
365E:  CLRF   x99
3660:  CLRF   x9A
3662:  CLRF   x9B
3664:  CLRF   x9C
3666:  CLRF   x9D
3668:  CLRF   x9E
366A:  CLRF   x9F
366C:  CLRF   xA0
366E:  CLRF   xA1
3670:  CLRF   xA2
3672:  CLRF   xA3
3674:  CLRF   xA4
3676:  CLRF   xA5
3678:  CLRF   xA6
367A:  CLRF   xA7
367C:  CLRF   xA8
367E:  CLRF   xA9
3680:  CLRF   xAA
3682:  CLRF   xAB
3684:  CLRF   xAC
3686:  CLRF   xAD
3688:  CLRF   xAE
368A:  CLRF   xAF
368C:  CLRF   xB0
368E:  CLRF   xB1
3690:  CLRF   xB2
3692:  CLRF   xB3
3694:  CLRF   xB4
3696:  CLRF   xB5
3698:  CLRF   xB6
369A:  CLRF   xB7
369C:  CLRF   xB8
369E:  CLRF   xB9
36A0:  CLRF   xBA
36A2:  CLRF   xBB
36A4:  CLRF   xBC
36A6:  CLRF   xBD
36A8:  CLRF   xBE
36AA:  CLRF   xBF
36AC:  CLRF   xC0
36AE:  CLRF   xC1
36B0:  CLRF   xC2
36B2:  CLRF   xC3
36B4:  CLRF   xC4
36B6:  CLRF   xC5
36B8:  CLRF   xC6
36BA:  CLRF   xC7
36BC:  CLRF   xC8
36BE:  CLRF   xC9
36C0:  CLRF   xCA
36C2:  CLRF   xCB
36C4:  CLRF   xCC
36C6:  CLRF   xCD
36C8:  CLRF   xCE
36CA:  CLRF   xCF
36CC:  CLRF   xD0
36CE:  CLRF   xD1
36D0:  CLRF   xD2
36D2:  CLRF   xD3
36D4:  CLRF   xD4
36D6:  CLRF   xD5
36D8:  CLRF   xD6
36DA:  CLRF   xD7
36DC:  CLRF   xD8
36DE:  CLRF   xD9
36E0:  CLRF   xDA
36E2:  CLRF   xDB
36E4:  CLRF   xDC
36E6:  CLRF   xDD
36E8:  CLRF   xDE
36EA:  CLRF   xDF
36EC:  CLRF   xE0
36EE:  CLRF   xE1
36F0:  CLRF   xE2
36F2:  CLRF   xE3
36F4:  CLRF   xE4
36F6:  CLRF   xE5
36F8:  CLRF   xE6
36FA:  CLRF   xE7
36FC:  CLRF   xE8
36FE:  CLRF   xE9
3700:  CLRF   xEA
3702:  CLRF   xEB
3704:  CLRF   xEC
3706:  CLRF   xED
3708:  CLRF   xEE
370A:  CLRF   xEF
370C:  CLRF   xF0
370E:  CLRF   xF1
3710:  CLRF   xF2
3712:  CLRF   xF3
3714:  CLRF   xF4
3716:  CLRF   xF5
3718:  CLRF   xF6
371A:  CLRF   xF7
371C:  CLRF   xF8
371E:  CLRF   xF9
3720:  CLRF   xFA
3722:  CLRF   xFB
3724:  CLRF   xFC
3726:  CLRF   xFD
3728:  CLRF   xFE
372A:  CLRF   xFF
372C:  MOVLB  5
372E:  CLRF   x00
3730:  CLRF   x01
3732:  CLRF   x02
3734:  CLRF   x03
3736:  CLRF   x04
3738:  CLRF   x05
373A:  CLRF   x06
373C:  CLRF   x07
373E:  CLRF   x08
3740:  CLRF   x09
3742:  CLRF   x0A
3744:  CLRF   x0B
3746:  CLRF   x0C
3748:  CLRF   x0D
374A:  CLRF   x0E
374C:  CLRF   x0F
374E:  CLRF   x10
3750:  CLRF   x11
3752:  CLRF   x12
3754:  CLRF   x13
3756:  CLRF   x14
3758:  CLRF   x15
375A:  CLRF   x16
375C:  CLRF   x17
375E:  CLRF   x18
3760:  CLRF   x19
3762:  CLRF   x1A
3764:  CLRF   x1B
3766:  CLRF   x1C
3768:  CLRF   x1D
376A:  CLRF   x1E
376C:  CLRF   x1F
376E:  CLRF   x20
3770:  CLRF   x21
3772:  CLRF   x22
3774:  CLRF   x23
3776:  CLRF   x24
3778:  CLRF   x25
377A:  CLRF   x26
377C:  CLRF   x27
377E:  CLRF   x28
3780:  CLRF   x29
3782:  CLRF   x2A
3784:  CLRF   x2B
3786:  CLRF   x2C
3788:  CLRF   x2D
378A:  CLRF   x2E
378C:  CLRF   x2F
378E:  CLRF   x30
3790:  CLRF   x31
3792:  CLRF   x32
3794:  CLRF   x33
3796:  CLRF   x34
3798:  CLRF   x35
379A:  CLRF   x36
379C:  CLRF   x37
379E:  CLRF   x38
37A0:  CLRF   x39
37A2:  CLRF   x3A
37A4:  CLRF   x3B
37A6:  CLRF   x3C
37A8:  CLRF   x3D
37AA:  CLRF   x3E
37AC:  CLRF   x3F
37AE:  CLRF   x40
37B0:  CLRF   x41
37B2:  CLRF   x42
37B4:  CLRF   x43
37B6:  CLRF   x44
37B8:  CLRF   x45
37BA:  CLRF   x46
37BC:  CLRF   x47
37BE:  CLRF   x48
37C0:  CLRF   x49
37C2:  CLRF   x4A
37C4:  CLRF   x4B
37C6:  CLRF   x4C
37C8:  CLRF   x4D
37CA:  CLRF   x4E
37CC:  CLRF   x4F
37CE:  CLRF   x50
37D0:  CLRF   x51
37D2:  CLRF   x52
37D4:  CLRF   x53
37D6:  CLRF   x54
37D8:  CLRF   x55
37DA:  CLRF   x56
37DC:  CLRF   x57
37DE:  CLRF   x58
37E0:  CLRF   x59
37E2:  CLRF   x5A
37E4:  CLRF   x5B
37E6:  CLRF   x5C
37E8:  CLRF   x5D
37EA:  CLRF   x5E
37EC:  CLRF   x5F
37EE:  CLRF   x60
37F0:  CLRF   x61
37F2:  CLRF   x62
37F4:  CLRF   x63
37F6:  CLRF   x64
37F8:  CLRF   x65
37FA:  CLRF   x66
37FC:  CLRF   x67
37FE:  CLRF   x68
3800:  CLRF   x69
3802:  CLRF   x6A
3804:  CLRF   x6B
3806:  CLRF   x6C
3808:  CLRF   x6D
380A:  CLRF   x6E
380C:  CLRF   x6F
380E:  CLRF   x70
3810:  CLRF   x71
3812:  CLRF   x72
3814:  CLRF   x73
3816:  CLRF   x74
3818:  CLRF   x75
381A:  CLRF   x76
381C:  CLRF   x77
381E:  CLRF   x78
3820:  CLRF   x79
3822:  CLRF   x7A
3824:  CLRF   x7B
3826:  CLRF   x7C
3828:  CLRF   x7D
382A:  CLRF   x7E
382C:  CLRF   x7F
382E:  CLRF   x80
3830:  CLRF   x81
3832:  CLRF   x82
3834:  CLRF   x83
3836:  CLRF   x84
3838:  CLRF   x85
383A:  CLRF   xB7
383C:  CLRF   xB8
383E:  CLRF   xB9
3840:  CLRF   xBA
3842:  CLRF   xBB
3844:  CLRF   xBC
3846:  CLRF   xBD
3848:  CLRF   xBE
384A:  CLRF   xBF
384C:  CLRF   xC0
384E:  CLRF   xC1
3850:  CLRF   xC2
3852:  CLRF   xC3
3854:  CLRF   xC4
3856:  CLRF   xC5
3858:  CLRF   xC6
385A:  MOVLB  6
385C:  CLRF   x35
385E:  CLRF   x36
....................    delay_ms(1000);    
3860:  MOVLW  04
3862:  MOVWF  x37
3864:  MOVLW  FA
3866:  MOVWF  x3D
3868:  MOVLB  0
386A:  CALL   0CFA
386E:  MOVLB  6
3870:  DECFSZ x37,F
3872:  BRA    3864
....................    Resistencia_off;Peltierp_off;Peltiern_off;Buzzer_off; 
3874:  BCF    F8B.0
3876:  BCF    F94.0
3878:  BCF    F8B.1
387A:  BCF    F94.1
387C:  BCF    F8B.2
387E:  BCF    F94.2
3880:  BCF    F8B.6
3882:  BCF    F94.6
....................    setup_timer_1(T1_INTERNAL|T1_DIV_BY_1); 
3884:  MOVLW  85
3886:  MOVWF  FCD
....................    enable_interrupts(INT_TIMER1); 
3888:  BSF    F9D.0
....................    setup_adc_ports(AN0); 
388A:  MOVF   FC1,W
388C:  ANDLW  C0
388E:  IORLW  0E
3890:  MOVWF  FC1
....................    setup_adc(ADC_CLOCK_DIV_64); 
3892:  BCF    FC0.0
3894:  BSF    FC0.1
3896:  BSF    FC0.2
3898:  BSF    FC0.7
389A:  BSF    FC2.0
....................    /*setup_ccp1 (CCP_PWM); 
....................    setup_ccp2 (CCP_PWM); 
....................    setup_timer_2(T2_DIV_BY_4, 255, 1);    
....................    set_pwm1_duty(0); 
....................    set_pwm2_duty(0);*/ 
....................    enable_interrupts(global); 
389C:  MOVLW  C0
389E:  IORWF  FF2,F
....................    Testerilizacionp[0]=read_eeprom(0); 
38A0:  MOVFF  FF2,637
38A4:  BCF    FF2.7
38A6:  CLRF   FA9
38A8:  BCF    FA6.6
38AA:  BCF    FA6.7
38AC:  BSF    FA6.0
38AE:  MOVF   FA8,W
38B0:  BTFSC  x37.7
38B2:  BSF    FF2.7
38B4:  MOVLB  5
38B6:  MOVWF  xBB
....................    delay_ms(50);    
38B8:  MOVLW  32
38BA:  MOVLB  6
38BC:  MOVWF  x3D
38BE:  MOVLB  0
38C0:  CALL   0CFA
....................    Testerilizacionp[1]=read_eeprom(1); 
38C4:  MOVFF  FF2,637
38C8:  BCF    FF2.7
38CA:  MOVLW  01
38CC:  MOVWF  FA9
38CE:  BCF    FA6.6
38D0:  BCF    FA6.7
38D2:  BSF    FA6.0
38D4:  MOVF   FA8,W
38D6:  MOVLB  6
38D8:  BTFSC  x37.7
38DA:  BSF    FF2.7
38DC:  MOVLB  5
38DE:  MOVWF  xBC
....................    delay_ms(50);    
38E0:  MOVLW  32
38E2:  MOVLB  6
38E4:  MOVWF  x3D
38E6:  MOVLB  0
38E8:  CALL   0CFA
....................    Testerilizacionp[2]=read_eeprom(2); 
38EC:  MOVFF  FF2,637
38F0:  BCF    FF2.7
38F2:  MOVLW  02
38F4:  MOVWF  FA9
38F6:  BCF    FA6.6
38F8:  BCF    FA6.7
38FA:  BSF    FA6.0
38FC:  MOVF   FA8,W
38FE:  MOVLB  6
3900:  BTFSC  x37.7
3902:  BSF    FF2.7
3904:  MOVLB  5
3906:  MOVWF  xBD
....................    delay_ms(50); 
3908:  MOVLW  32
390A:  MOVLB  6
390C:  MOVWF  x3D
390E:  MOVLB  0
3910:  CALL   0CFA
....................    Testerilizacionp[3]=read_eeprom(3); 
3914:  MOVFF  FF2,637
3918:  BCF    FF2.7
391A:  MOVLW  03
391C:  MOVWF  FA9
391E:  BCF    FA6.6
3920:  BCF    FA6.7
3922:  BSF    FA6.0
3924:  MOVF   FA8,W
3926:  MOVLB  6
3928:  BTFSC  x37.7
392A:  BSF    FF2.7
392C:  MOVLB  5
392E:  MOVWF  xBE
....................    delay_ms(50);    
3930:  MOVLW  32
3932:  MOVLB  6
3934:  MOVWF  x3D
3936:  MOVLB  0
3938:  CALL   0CFA
....................    Setpoint=make16(read_eeprom(81),read_eeprom(80)); 
393C:  MOVFF  FF2,637
3940:  BCF    FF2.7
3942:  MOVLW  51
3944:  MOVWF  FA9
3946:  BCF    FA6.6
3948:  BCF    FA6.7
394A:  BSF    FA6.0
394C:  MOVF   FA8,W
394E:  MOVLB  6
3950:  BTFSC  x37.7
3952:  BSF    FF2.7
3954:  MOVWF  x38
3956:  MOVFF  FF2,639
395A:  BCF    FF2.7
395C:  MOVLW  50
395E:  MOVWF  FA9
3960:  BCF    FA6.6
3962:  BCF    FA6.7
3964:  BSF    FA6.0
3966:  MOVF   FA8,W
3968:  BTFSC  x39.7
396A:  BSF    FF2.7
396C:  MOVWF  x3A
396E:  MOVFF  638,5AA
3972:  MOVFF  63A,5A9
....................    delay_ms(50);    
3976:  MOVLW  32
3978:  MOVWF  x3D
397A:  MOVLB  0
397C:  CALL   0CFA
....................    Password[0]=read_eeprom(10); 
3980:  MOVFF  FF2,637
3984:  BCF    FF2.7
3986:  MOVLW  0A
3988:  MOVWF  FA9
398A:  BCF    FA6.6
398C:  BCF    FA6.7
398E:  BSF    FA6.0
3990:  MOVF   FA8,W
3992:  MOVLB  6
3994:  BTFSC  x37.7
3996:  BSF    FF2.7
3998:  MOVLB  5
399A:  MOVWF  xC3
....................    delay_ms(50);    
399C:  MOVLW  32
399E:  MOVLB  6
39A0:  MOVWF  x3D
39A2:  MOVLB  0
39A4:  CALL   0CFA
....................    Password[1]=read_eeprom(11); 
39A8:  MOVFF  FF2,637
39AC:  BCF    FF2.7
39AE:  MOVLW  0B
39B0:  MOVWF  FA9
39B2:  BCF    FA6.6
39B4:  BCF    FA6.7
39B6:  BSF    FA6.0
39B8:  MOVF   FA8,W
39BA:  MOVLB  6
39BC:  BTFSC  x37.7
39BE:  BSF    FF2.7
39C0:  MOVLB  5
39C2:  MOVWF  xC4
....................    delay_ms(50);    
39C4:  MOVLW  32
39C6:  MOVLB  6
39C8:  MOVWF  x3D
39CA:  MOVLB  0
39CC:  CALL   0CFA
....................    Password[2]=read_eeprom(12); 
39D0:  MOVFF  FF2,637
39D4:  BCF    FF2.7
39D6:  MOVLW  0C
39D8:  MOVWF  FA9
39DA:  BCF    FA6.6
39DC:  BCF    FA6.7
39DE:  BSF    FA6.0
39E0:  MOVF   FA8,W
39E2:  MOVLB  6
39E4:  BTFSC  x37.7
39E6:  BSF    FF2.7
39E8:  MOVLB  5
39EA:  MOVWF  xC5
....................    delay_ms(50);    
39EC:  MOVLW  32
39EE:  MOVLB  6
39F0:  MOVWF  x3D
39F2:  MOVLB  0
39F4:  CALL   0CFA
....................    Password[3]=read_eeprom(13); 
39F8:  MOVFF  FF2,637
39FC:  BCF    FF2.7
39FE:  MOVLW  0D
3A00:  MOVWF  FA9
3A02:  BCF    FA6.6
3A04:  BCF    FA6.7
3A06:  BSF    FA6.0
3A08:  MOVF   FA8,W
3A0A:  MOVLB  6
3A0C:  BTFSC  x37.7
3A0E:  BSF    FF2.7
3A10:  MOVLB  5
3A12:  MOVWF  xC6
....................    delay_ms(50);    
3A14:  MOVLW  32
3A16:  MOVLB  6
3A18:  MOVWF  x3D
3A1A:  MOVLB  0
3A1C:  CALL   0CFA
....................    Ganancia=read_eeprom(90); 
3A20:  MOVFF  FF2,637
3A24:  BCF    FF2.7
3A26:  MOVLW  5A
3A28:  MOVWF  FA9
3A2A:  BCF    FA6.6
3A2C:  BCF    FA6.7
3A2E:  BSF    FA6.0
3A30:  MOVF   FA8,W
3A32:  MOVLB  6
3A34:  BTFSC  x37.7
3A36:  BSF    FF2.7
3A38:  CLRF   x3E
3A3A:  MOVWF  x3D
3A3C:  MOVLB  0
3A3E:  CALL   0D24
3A42:  MOVFF  03,5EE
3A46:  MOVFF  02,5ED
3A4A:  MOVFF  01,5EC
3A4E:  MOVFF  00,5EB
....................    delay_ms(50);    
3A52:  MOVLW  32
3A54:  MOVLB  6
3A56:  MOVWF  x3D
3A58:  MOVLB  0
3A5A:  CALL   0CFA
....................    Tciclo=read_eeprom(30); 
3A5E:  MOVFF  FF2,637
3A62:  BCF    FF2.7
3A64:  MOVLW  1E
3A66:  MOVWF  FA9
3A68:  BCF    FA6.6
3A6A:  BCF    FA6.7
3A6C:  BSF    FA6.0
3A6E:  MOVF   FA8,W
3A70:  MOVLB  6
3A72:  BTFSC  x37.7
3A74:  BSF    FF2.7
3A76:  CLRF   x3E
3A78:  MOVWF  x3D
3A7A:  MOVLB  0
3A7C:  CALL   0D24
3A80:  MOVFF  03,5D6
3A84:  MOVFF  02,5D5
3A88:  MOVFF  01,5D4
3A8C:  MOVFF  00,5D3
....................    delay_ms(50);    
3A90:  MOVLW  32
3A92:  MOVLB  6
3A94:  MOVWF  x3D
3A96:  MOVLB  0
3A98:  CALL   0CFA
....................    Ajuste=read_eeprom(40); 
3A9C:  MOVFF  FF2,637
3AA0:  BCF    FF2.7
3AA2:  MOVLW  28
3AA4:  MOVWF  FA9
3AA6:  BCF    FA6.6
3AA8:  BCF    FA6.7
3AAA:  BSF    FA6.0
3AAC:  MOVF   FA8,W
3AAE:  MOVLB  6
3AB0:  BTFSC  x37.7
3AB2:  BSF    FF2.7
3AB4:  MOVLB  5
3AB6:  MOVWF  x88
....................    delay_ms(50);    
3AB8:  MOVLW  32
3ABA:  MOVLB  6
3ABC:  MOVWF  x3D
3ABE:  MOVLB  0
3AC0:  CALL   0CFA
....................    Ajusten=read_eeprom(50); 
3AC4:  MOVFF  FF2,637
3AC8:  BCF    FF2.7
3ACA:  MOVLW  32
3ACC:  MOVWF  FA9
3ACE:  BCF    FA6.6
3AD0:  BCF    FA6.7
3AD2:  BSF    FA6.0
3AD4:  MOVF   FA8,W
3AD6:  MOVLB  6
3AD8:  BTFSC  x37.7
3ADA:  BSF    FF2.7
3ADC:  MOVLB  5
3ADE:  MOVWF  x89
....................    delay_ms(50);    
3AE0:  MOVLW  32
3AE2:  MOVLB  6
3AE4:  MOVWF  x3D
3AE6:  MOVLB  0
3AE8:  CALL   0CFA
....................    MediaMovil=read_eeprom(60); 
3AEC:  MOVFF  FF2,637
3AF0:  BCF    FF2.7
3AF2:  MOVLW  3C
3AF4:  MOVWF  FA9
3AF6:  BCF    FA6.6
3AF8:  BCF    FA6.7
3AFA:  BSF    FA6.0
3AFC:  MOVF   FA8,W
3AFE:  MOVLB  6
3B00:  BTFSC  x37.7
3B02:  BSF    FF2.7
3B04:  MOVLB  5
3B06:  MOVWF  x8A
....................    delay_ms(50);    
3B08:  MOVLW  32
3B0A:  MOVLB  6
3B0C:  MOVWF  x3D
3B0E:  MOVLB  0
3B10:  CALL   0CFA
....................    Coeficiente=read_eeprom(70); 
3B14:  MOVFF  FF2,637
3B18:  BCF    FF2.7
3B1A:  MOVLW  46
3B1C:  MOVWF  FA9
3B1E:  BCF    FA6.6
3B20:  BCF    FA6.7
3B22:  BSF    FA6.0
3B24:  MOVF   FA8,W
3B26:  MOVLB  6
3B28:  BTFSC  x37.7
3B2A:  BSF    FF2.7
3B2C:  CLRF   x3E
3B2E:  MOVWF  x3D
3B30:  MOVLB  0
3B32:  CALL   0D24
3B36:  MOVFF  03,5FA
3B3A:  MOVFF  02,5F9
3B3E:  MOVFF  01,5F8
3B42:  MOVFF  00,5F7
....................    delay_ms(50);    
3B46:  MOVLW  32
3B48:  MOVLB  6
3B4A:  MOVWF  x3D
3B4C:  MOVLB  0
3B4E:  CALL   0CFA
....................    Saturacion=read_eeprom(100); 
3B52:  MOVFF  FF2,637
3B56:  BCF    FF2.7
3B58:  MOVLW  64
3B5A:  MOVWF  FA9
3B5C:  BCF    FA6.6
3B5E:  BCF    FA6.7
3B60:  BSF    FA6.0
3B62:  MOVF   FA8,W
3B64:  MOVLB  6
3B66:  BTFSC  x37.7
3B68:  BSF    FF2.7
3B6A:  CLRF   x3E
3B6C:  MOVWF  x3D
3B6E:  MOVLB  0
3B70:  CALL   0D24
3B74:  MOVFF  03,606
3B78:  MOVFF  02,605
3B7C:  MOVFF  01,604
3B80:  MOVFF  00,603
....................     
....................    if(Ganancia>20.0) 
3B84:  MOVLB  6
3B86:  CLRF   x3A
3B88:  CLRF   x39
3B8A:  MOVLW  20
3B8C:  MOVWF  x38
3B8E:  MOVLW  83
3B90:  MOVWF  x37
3B92:  MOVFF  5EE,63E
3B96:  MOVFF  5ED,63D
3B9A:  MOVFF  5EC,63C
3B9E:  MOVFF  5EB,63B
3BA2:  MOVLB  0
3BA4:  CALL   0D5A
3BA8:  BNC   3BB8
....................    { 
....................       Ganancia=10.0; 
3BAA:  MOVLB  5
3BAC:  CLRF   xEE
3BAE:  CLRF   xED
3BB0:  MOVLW  20
3BB2:  MOVWF  xEC
3BB4:  MOVLW  82
3BB6:  MOVWF  xEB
....................    } 
....................     
....................    glcd_init(ON);             //Inicializa la glcd 
3BB8:  MOVLW  01
3BBA:  MOVLB  6
3BBC:  MOVWF  x37
3BBE:  MOVLB  0
3BC0:  CALL   0F26
....................    glcd_fillScreen(OFF);      //Limpia la pantalla 
3BC4:  MOVLB  6
3BC6:  CLRF   x38
3BC8:  MOVLB  0
3BCA:  CALL   0E14
....................    strcpy(Menus.Letra,"JP Inglobal"); 
3BCE:  MOVLW  06
3BD0:  MOVWF  FEA
3BD2:  MOVLW  17
3BD4:  MOVWF  FE9
3BD6:  MOVFF  FF2,637
3BDA:  BCF    FF2.7
3BDC:  MOVLW  00
3BDE:  CALL   06BE
3BE2:  TBLRD*-
3BE4:  TBLRD*+
3BE6:  MOVF   FF5,W
3BE8:  MOVWF  FEE
3BEA:  IORLW  00
3BEC:  BNZ   3BE4
3BEE:  MOVLB  6
3BF0:  BTFSC  x37.7
3BF2:  BSF    FF2.7
....................    displayMenu(Menus.Letra,0,0,0,2);      
3BF4:  MOVLW  06
3BF6:  MOVWF  x38
3BF8:  MOVLW  17
3BFA:  MOVWF  x37
3BFC:  CLRF   x39
3BFE:  CLRF   x3A
3C00:  CLRF   x3B
3C02:  MOVLW  02
3C04:  MOVWF  x3C
3C06:  MOVLB  0
3C08:  CALL   1442
....................    strcpy(Menus.Letra,"    Incubadora"); 
3C0C:  MOVLW  06
3C0E:  MOVWF  FEA
3C10:  MOVLW  17
3C12:  MOVWF  FE9
3C14:  MOVFF  FF2,637
3C18:  BCF    FF2.7
3C1A:  MOVLW  00
3C1C:  CALL   06E4
3C20:  TBLRD*-
3C22:  TBLRD*+
3C24:  MOVF   FF5,W
3C26:  MOVWF  FEE
3C28:  IORLW  00
3C2A:  BNZ   3C22
3C2C:  MOVLB  6
3C2E:  BTFSC  x37.7
3C30:  BSF    FF2.7
....................    displayMenu(Menus.Letra,0,20,0,1);        
3C32:  MOVLW  06
3C34:  MOVWF  x38
3C36:  MOVLW  17
3C38:  MOVWF  x37
3C3A:  CLRF   x39
3C3C:  MOVLW  14
3C3E:  MOVWF  x3A
3C40:  CLRF   x3B
3C42:  MOVLW  01
3C44:  MOVWF  x3C
3C46:  MOVLB  0
3C48:  CALL   1442
....................    strcpy(Menus.Letra,"    Refrigerada"); 
3C4C:  MOVLW  06
3C4E:  MOVWF  FEA
3C50:  MOVLW  17
3C52:  MOVWF  FE9
3C54:  MOVFF  FF2,637
3C58:  BCF    FF2.7
3C5A:  MOVLW  00
3C5C:  CALL   070E
3C60:  TBLRD*-
3C62:  TBLRD*+
3C64:  MOVF   FF5,W
3C66:  MOVWF  FEE
3C68:  IORLW  00
3C6A:  BNZ   3C62
3C6C:  MOVLB  6
3C6E:  BTFSC  x37.7
3C70:  BSF    FF2.7
....................    displayMenu(Menus.Letra,0,30,0,1); 
3C72:  MOVLW  06
3C74:  MOVWF  x38
3C76:  MOVLW  17
3C78:  MOVWF  x37
3C7A:  CLRF   x39
3C7C:  MOVLW  1E
3C7E:  MOVWF  x3A
3C80:  CLRF   x3B
3C82:  MOVLW  01
3C84:  MOVWF  x3C
3C86:  MOVLB  0
3C88:  CALL   1442
....................    strcpy(Menus.Letra,"   22 Lts"); 
3C8C:  MOVLW  06
3C8E:  MOVWF  FEA
3C90:  MOVLW  17
3C92:  MOVWF  FE9
3C94:  MOVFF  FF2,637
3C98:  BCF    FF2.7
3C9A:  MOVLW  00
3C9C:  CALL   0738
3CA0:  TBLRD*-
3CA2:  TBLRD*+
3CA4:  MOVF   FF5,W
3CA6:  MOVWF  FEE
3CA8:  IORLW  00
3CAA:  BNZ   3CA2
3CAC:  MOVLB  6
3CAE:  BTFSC  x37.7
3CB0:  BSF    FF2.7
....................    displayMenu(Menus.Letra,0,45,0,2); 
3CB2:  MOVLW  06
3CB4:  MOVWF  x38
3CB6:  MOVLW  17
3CB8:  MOVWF  x37
3CBA:  CLRF   x39
3CBC:  MOVLW  2D
3CBE:  MOVWF  x3A
3CC0:  CLRF   x3B
3CC2:  MOVLW  02
3CC4:  MOVWF  x3C
3CC6:  MOVLB  0
3CC8:  CALL   1442
....................    delay_ms(1000); 
3CCC:  MOVLW  04
3CCE:  MOVLB  6
3CD0:  MOVWF  x37
3CD2:  MOVLW  FA
3CD4:  MOVWF  x3D
3CD6:  MOVLB  0
3CD8:  CALL   0CFA
3CDC:  MOVLB  6
3CDE:  DECFSZ x37,F
3CE0:  BRA    3CD2
....................     
....................    glcd_fillScreen(OFF);      //Limpia la pantalla 
3CE2:  CLRF   x38
3CE4:  MOVLB  0
3CE6:  CALL   0E14
....................    displayContrasena(Contrasena[0],20,30,1); 
3CEA:  MOVFF  5BF,639
3CEE:  MOVLW  14
3CF0:  MOVLB  6
3CF2:  MOVWF  x3A
3CF4:  MOVLW  1E
3CF6:  MOVWF  x3B
3CF8:  MOVLW  01
3CFA:  MOVWF  x3C
3CFC:  MOVLB  0
3CFE:  CALL   1668
....................    displayContrasena(Contrasena[1],40,30,0); 
3D02:  MOVFF  5C0,639
3D06:  MOVLW  28
3D08:  MOVLB  6
3D0A:  MOVWF  x3A
3D0C:  MOVLW  1E
3D0E:  MOVWF  x3B
3D10:  CLRF   x3C
3D12:  MOVLB  0
3D14:  CALL   1668
....................    displayContrasena(Contrasena[2],60,30,0); 
3D18:  MOVFF  5C1,639
3D1C:  MOVLW  3C
3D1E:  MOVLB  6
3D20:  MOVWF  x3A
3D22:  MOVLW  1E
3D24:  MOVWF  x3B
3D26:  CLRF   x3C
3D28:  MOVLB  0
3D2A:  CALL   1668
....................    displayContrasena(Contrasena[3],80,30,0); 
3D2E:  MOVFF  5C2,639
3D32:  MOVLW  50
3D34:  MOVLB  6
3D36:  MOVWF  x3A
3D38:  MOVLW  1E
3D3A:  MOVWF  x3B
3D3C:  CLRF   x3C
3D3E:  MOVLB  0
3D40:  CALL   1668
....................     
....................    for(i=0;i<80;i++) 
3D44:  MOVLB  5
3D46:  CLRF   x96
3D48:  MOVF   x96,W
3D4A:  SUBLW  4F
3D4C:  BNC   3D6E
....................    { 
....................       Temperatura=Leer_Sensor(MediaMovil); 
3D4E:  MOVFF  58A,637
3D52:  MOVLB  0
3D54:  CALL   1C66
3D58:  MOVFF  03,602
3D5C:  MOVFF  02,601
3D60:  MOVFF  01,600
3D64:  MOVFF  00,5FF
....................    } 
3D68:  MOVLB  5
3D6A:  INCF   x96,F
3D6C:  BRA    3D48
....................     
....................    while(true) 
....................    { 
....................     
....................       if(UP && DOWN && RIGHT && LEFT) 
3D6E:  BSF    F92.5
3D70:  BTFSS  F80.5
3D72:  BRA    3E04
3D74:  BSF    F96.0
3D76:  BTFSS  F84.0
3D78:  BRA    3E04
3D7A:  BSF    F96.1
3D7C:  BTFSS  F84.1
3D7E:  BRA    3E04
3D80:  BSF    F96.2
3D82:  BTFSS  F84.2
3D84:  BRA    3E04
....................       { 
....................          delay_ms(500); 
3D86:  MOVLW  02
3D88:  MOVLB  6
3D8A:  MOVWF  x37
3D8C:  MOVLW  FA
3D8E:  MOVWF  x3D
3D90:  MOVLB  0
3D92:  CALL   0CFA
3D96:  MOVLB  6
3D98:  DECFSZ x37,F
3D9A:  BRA    3D8C
....................          strcpy(Menus.Letra,"Cargando.."); 
3D9C:  MOVLW  06
3D9E:  MOVWF  FEA
3DA0:  MOVLW  17
3DA2:  MOVWF  FE9
3DA4:  MOVFF  FF2,637
3DA8:  BCF    FF2.7
3DAA:  MOVLW  00
3DAC:  MOVLB  0
3DAE:  CALL   075C
3DB2:  TBLRD*-
3DB4:  TBLRD*+
3DB6:  MOVF   FF5,W
3DB8:  MOVWF  FEE
3DBA:  IORLW  00
3DBC:  BNZ   3DB4
3DBE:  MOVLB  6
3DC0:  BTFSC  x37.7
3DC2:  BSF    FF2.7
....................          displayMenu(Menus.Letra,0,30,1,1); 
3DC4:  MOVLW  06
3DC6:  MOVWF  x38
3DC8:  MOVLW  17
3DCA:  MOVWF  x37
3DCC:  CLRF   x39
3DCE:  MOVLW  1E
3DD0:  MOVWF  x3A
3DD2:  MOVLW  01
3DD4:  MOVWF  x3B
3DD6:  MOVWF  x3C
3DD8:  MOVLB  0
3DDA:  CALL   1442
....................          delay_ms(2000); 
3DDE:  MOVLW  08
3DE0:  MOVLB  6
3DE2:  MOVWF  x37
3DE4:  MOVLW  FA
3DE6:  MOVWF  x3D
3DE8:  MOVLB  0
3DEA:  CALL   0CFA
3DEE:  MOVLB  6
3DF0:  DECFSZ x37,F
3DF2:  BRA    3DE4
....................          Menu=100; 
3DF4:  MOVLW  64
3DF6:  MOVLB  5
3DF8:  MOVWF  x94
....................          glcd_fillScreen(OFF); 
3DFA:  MOVLB  6
3DFC:  CLRF   x38
3DFE:  MOVLB  0
3E00:  CALL   0E14
....................       } 
....................     
....................       glcd_update();             
3E04:  MOVLB  0
3E06:  CALL   0E6E
.................... //_-------------------------------------------------------------------------------------------------------------------------------------------------------- 
....................       if(Menu==0){ //Menu de Contrasea. 
3E0A:  MOVLB  5
3E0C:  MOVF   x94,F
3E0E:  BTFSS  FD8.2
3E10:  BRA    43A6
....................        
....................       strcpy(Menus.Letra,"Clave"); 
3E12:  MOVLW  06
3E14:  MOVWF  FEA
3E16:  MOVLW  17
3E18:  MOVWF  FE9
3E1A:  MOVFF  FF2,637
3E1E:  BCF    FF2.7
3E20:  MOVLW  00
3E22:  MOVLB  0
3E24:  CALL   0782
3E28:  TBLRD*-
3E2A:  TBLRD*+
3E2C:  MOVF   FF5,W
3E2E:  MOVWF  FEE
3E30:  IORLW  00
3E32:  BNZ   3E2A
3E34:  MOVLB  6
3E36:  BTFSC  x37.7
3E38:  BSF    FF2.7
....................       displayMenu(Menus.Letra,30,0,1,2);      
3E3A:  MOVLW  06
3E3C:  MOVWF  x38
3E3E:  MOVLW  17
3E40:  MOVWF  x37
3E42:  MOVLW  1E
3E44:  MOVWF  x39
3E46:  CLRF   x3A
3E48:  MOVLW  01
3E4A:  MOVWF  x3B
3E4C:  MOVLW  02
3E4E:  MOVWF  x3C
3E50:  MOVLB  0
3E52:  CALL   1442
....................        
....................        
....................        
....................       if(UP)//Si oprime hacia arriba 
3E56:  BSF    F92.5
3E58:  BTFSS  F80.5
3E5A:  BRA    3F32
....................       { 
....................          if(Flanco == 0) 
3E5C:  MOVLB  5
3E5E:  BTFSC  x8F.0
3E60:  BRA    3F30
....................          { 
....................             Flanco = 1;delay_ms(30); 
3E62:  BSF    x8F.0
3E64:  MOVLW  1E
3E66:  MOVLB  6
3E68:  MOVWF  x3D
3E6A:  MOVLB  0
3E6C:  CALL   0CFA
....................             for(i=1;i<=4;i++) 
3E70:  MOVLW  01
3E72:  MOVLB  5
3E74:  MOVWF  x96
3E76:  MOVF   x96,W
3E78:  SUBLW  04
3E7A:  BNC   3F30
....................             { 
....................                if(unidad==i) 
3E7C:  MOVF   x96,W
3E7E:  SUBWF  x95,W
3E80:  BNZ   3EF8
....................                { 
....................                   Contrasena[i-1]++; 
3E82:  MOVLW  01
3E84:  SUBWF  x96,W
3E86:  CLRF   03
3E88:  ADDLW  BF
3E8A:  MOVWF  FE9
3E8C:  MOVLW  05
3E8E:  ADDWFC 03,W
3E90:  MOVWF  FEA
3E92:  INCF   FEF,F
....................                   if(Contrasena[i-1]>9)    
3E94:  MOVLW  01
3E96:  SUBWF  x96,W
3E98:  CLRF   03
3E9A:  ADDLW  BF
3E9C:  MOVWF  FE9
3E9E:  MOVLW  05
3EA0:  ADDWFC 03,W
3EA2:  MOVWF  FEA
3EA4:  BTFSC  FEF.7
3EA6:  BRA    3EC0
3EA8:  MOVF   FEF,W
3EAA:  SUBLW  09
3EAC:  BC    3EC0
....................                   { 
....................                      Contrasena[i-1]=0; 
3EAE:  MOVLW  01
3EB0:  SUBWF  x96,W
3EB2:  CLRF   03
3EB4:  ADDLW  BF
3EB6:  MOVWF  FE9
3EB8:  MOVLW  05
3EBA:  ADDWFC 03,W
3EBC:  MOVWF  FEA
3EBE:  CLRF   FEF
....................                   } 
....................                   displayContrasena(Contrasena[i-1],i*20,30,1); 
3EC0:  MOVLW  01
3EC2:  SUBWF  x96,W
3EC4:  CLRF   03
3EC6:  ADDLW  BF
3EC8:  MOVWF  FE9
3ECA:  MOVLW  05
3ECC:  ADDWFC 03,W
3ECE:  MOVWF  FEA
3ED0:  MOVFF  FEF,637
3ED4:  MOVF   x96,W
3ED6:  MULLW  14
3ED8:  MOVFF  FF3,638
3EDC:  MOVLB  6
3EDE:  MOVFF  637,639
3EE2:  MOVFF  638,63A
3EE6:  MOVLW  1E
3EE8:  MOVWF  x3B
3EEA:  MOVLW  01
3EEC:  MOVWF  x3C
3EEE:  MOVLB  0
3EF0:  CALL   1668
....................                } 
....................                else 
3EF4:  BRA    3F2A
3EF6:  MOVLB  5
....................                { 
....................                   displayContrasena(Contrasena[i-1],i*20,30,0); 
3EF8:  MOVLW  01
3EFA:  SUBWF  x96,W
3EFC:  CLRF   03
3EFE:  ADDLW  BF
3F00:  MOVWF  FE9
3F02:  MOVLW  05
3F04:  ADDWFC 03,W
3F06:  MOVWF  FEA
3F08:  MOVFF  FEF,637
3F0C:  MOVF   x96,W
3F0E:  MULLW  14
3F10:  MOVFF  FF3,638
3F14:  MOVLB  6
3F16:  MOVFF  637,639
3F1A:  MOVFF  638,63A
3F1E:  MOVLW  1E
3F20:  MOVWF  x3B
3F22:  CLRF   x3C
3F24:  MOVLB  0
3F26:  CALL   1668
....................                } 
....................             } 
3F2A:  MOVLB  5
3F2C:  INCF   x96,F
3F2E:  BRA    3E76
....................          } 
....................       } 
....................          else 
3F30:  BRA    3F36
....................             {Flanco = 0;} 
3F32:  MOVLB  5
3F34:  BCF    x8F.0
....................              
....................       if(DOWN)//Si oprime hacia abajo 
3F36:  BSF    F96.0
3F38:  BTFSS  F84.0
3F3A:  BRA    400E
....................       { 
....................          if(Flanco2 == 0) 
3F3C:  BTFSC  x8F.2
3F3E:  BRA    400C
....................             {Flanco2 = 1;delay_ms(30); 
3F40:  BSF    x8F.2
3F42:  MOVLW  1E
3F44:  MOVLB  6
3F46:  MOVWF  x3D
3F48:  MOVLB  0
3F4A:  CALL   0CFA
....................                for(i=1;i<=4;i++) 
3F4E:  MOVLW  01
3F50:  MOVLB  5
3F52:  MOVWF  x96
3F54:  MOVF   x96,W
3F56:  SUBLW  04
3F58:  BNC   400C
....................                { 
....................                   if(unidad==i) 
3F5A:  MOVF   x96,W
3F5C:  SUBWF  x95,W
3F5E:  BNZ   3FD4
....................                   {Contrasena[i-1]--;  
3F60:  MOVLW  01
3F62:  SUBWF  x96,W
3F64:  CLRF   03
3F66:  ADDLW  BF
3F68:  MOVWF  FE9
3F6A:  MOVLW  05
3F6C:  ADDWFC 03,W
3F6E:  MOVWF  FEA
3F70:  DECF   FEF,F
....................                      if(Contrasena[i-1]<0) 
3F72:  MOVLW  01
3F74:  SUBWF  x96,W
3F76:  CLRF   03
3F78:  ADDLW  BF
3F7A:  MOVWF  FE9
3F7C:  MOVLW  05
3F7E:  ADDWFC 03,W
3F80:  MOVWF  FEA
3F82:  BTFSC  FEF.7
3F84:  BRA    3F88
3F86:  BRA    3F9C
....................                         {Contrasena[i-1]=9;} 
3F88:  MOVLW  01
3F8A:  SUBWF  x96,W
3F8C:  CLRF   03
3F8E:  ADDLW  BF
3F90:  MOVWF  FE9
3F92:  MOVLW  05
3F94:  ADDWFC 03,W
3F96:  MOVWF  FEA
3F98:  MOVLW  09
3F9A:  MOVWF  FEF
....................                    displayContrasena(Contrasena[i-1],i*20,30,1);} 
3F9C:  MOVLW  01
3F9E:  SUBWF  x96,W
3FA0:  CLRF   03
3FA2:  ADDLW  BF
3FA4:  MOVWF  FE9
3FA6:  MOVLW  05
3FA8:  ADDWFC 03,W
3FAA:  MOVWF  FEA
3FAC:  MOVFF  FEF,637
3FB0:  MOVF   x96,W
3FB2:  MULLW  14
3FB4:  MOVFF  FF3,638
3FB8:  MOVLB  6
3FBA:  MOVFF  637,639
3FBE:  MOVFF  638,63A
3FC2:  MOVLW  1E
3FC4:  MOVWF  x3B
3FC6:  MOVLW  01
3FC8:  MOVWF  x3C
3FCA:  MOVLB  0
3FCC:  CALL   1668
....................                   else 
3FD0:  BRA    4006
3FD2:  MOVLB  5
....................                   {displayContrasena(Contrasena[i-1],i*20,30,0);} 
3FD4:  MOVLW  01
3FD6:  SUBWF  x96,W
3FD8:  CLRF   03
3FDA:  ADDLW  BF
3FDC:  MOVWF  FE9
3FDE:  MOVLW  05
3FE0:  ADDWFC 03,W
3FE2:  MOVWF  FEA
3FE4:  MOVFF  FEF,637
3FE8:  MOVF   x96,W
3FEA:  MULLW  14
3FEC:  MOVFF  FF3,638
3FF0:  MOVLB  6
3FF2:  MOVFF  637,639
3FF6:  MOVFF  638,63A
3FFA:  MOVLW  1E
3FFC:  MOVWF  x3B
3FFE:  CLRF   x3C
4000:  MOVLB  0
4002:  CALL   1668
....................                }       
4006:  MOVLB  5
4008:  INCF   x96,F
400A:  BRA    3F54
....................             }      
....................       } 
....................          else 
400C:  BRA    4010
....................             {Flanco2 = 0;}   
400E:  BCF    x8F.2
....................              
....................       if(RIGHT)//Si oprime RIGHT 
4010:  BSF    F96.1
4012:  BTFSS  F84.1
4014:  BRA    40AE
....................       { 
....................          if(Flanco1 == 0) 
4016:  BTFSC  x8F.1
4018:  BRA    40AC
....................             {Flanco1 = 1;delay_ms(30);unidad++; 
401A:  BSF    x8F.1
401C:  MOVLW  1E
401E:  MOVLB  6
4020:  MOVWF  x3D
4022:  MOVLB  0
4024:  CALL   0CFA
4028:  MOVLB  5
402A:  INCF   x95,F
....................                for(i=1;i<=4;i++) 
402C:  MOVLW  01
402E:  MOVWF  x96
4030:  MOVF   x96,W
4032:  SUBLW  04
4034:  BNC   40AC
....................                { 
....................                   if(unidad==i) 
4036:  MOVF   x96,W
4038:  SUBWF  x95,W
403A:  BNZ   4074
....................                   {displayContrasena(Contrasena[i-1],i*20,30,1);} 
403C:  MOVLW  01
403E:  SUBWF  x96,W
4040:  CLRF   03
4042:  ADDLW  BF
4044:  MOVWF  FE9
4046:  MOVLW  05
4048:  ADDWFC 03,W
404A:  MOVWF  FEA
404C:  MOVFF  FEF,637
4050:  MOVF   x96,W
4052:  MULLW  14
4054:  MOVFF  FF3,638
4058:  MOVLB  6
405A:  MOVFF  637,639
405E:  MOVFF  638,63A
4062:  MOVLW  1E
4064:  MOVWF  x3B
4066:  MOVLW  01
4068:  MOVWF  x3C
406A:  MOVLB  0
406C:  CALL   1668
....................                   else 
4070:  BRA    40A6
4072:  MOVLB  5
....................                   {displayContrasena(Contrasena[i-1],i*20,30,0);} 
4074:  MOVLW  01
4076:  SUBWF  x96,W
4078:  CLRF   03
407A:  ADDLW  BF
407C:  MOVWF  FE9
407E:  MOVLW  05
4080:  ADDWFC 03,W
4082:  MOVWF  FEA
4084:  MOVFF  FEF,637
4088:  MOVF   x96,W
408A:  MULLW  14
408C:  MOVFF  FF3,638
4090:  MOVLB  6
4092:  MOVFF  637,639
4096:  MOVFF  638,63A
409A:  MOVLW  1E
409C:  MOVWF  x3B
409E:  CLRF   x3C
40A0:  MOVLB  0
40A2:  CALL   1668
....................                } 
40A6:  MOVLB  5
40A8:  INCF   x96,F
40AA:  BRA    4030
....................             } 
....................       } 
....................          else 
40AC:  BRA    40B0
....................             {Flanco1 = 0;}   
40AE:  BCF    x8F.1
....................      
....................       if(unidad>4) 
40B0:  MOVF   x95,W
40B2:  SUBLW  04
40B4:  BTFSC  FD8.0
40B6:  BRA    43A6
....................       {glcd_fillScreen(OFF);unidad=4; 
40B8:  MOVLB  6
40BA:  CLRF   x38
40BC:  MOVLB  0
40BE:  CALL   0E14
40C2:  MOVLW  04
40C4:  MOVLB  5
40C6:  MOVWF  x95
....................          if(Contrasena[0]==3&&Contrasena[1]==8&&Contrasena[2]==9&&Contrasena[3]==2) // Si Ingresa clave para reset general del sistema. 
40C8:  MOVF   xBF,W
40CA:  SUBLW  03
40CC:  BNZ   41B4
40CE:  MOVF   xC0,W
40D0:  SUBLW  08
40D2:  BNZ   41B4
40D4:  MOVF   xC1,W
40D6:  SUBLW  09
40D8:  BNZ   41B4
40DA:  MOVF   xC2,W
40DC:  SUBLW  02
40DE:  BNZ   41B4
....................             {write_eeprom(10,0);delay_ms(20);write_eeprom(11,0);delay_ms(20);// Reestablece a contrasea de Fabrica y reinicia Programa. 
40E0:  MOVLW  0A
40E2:  MOVWF  FA9
40E4:  CLRF   FA8
40E6:  BCF    FA6.6
40E8:  BCF    FA6.7
40EA:  BSF    FA6.2
40EC:  MOVF   FF2,W
40EE:  MOVWF  00
40F0:  BCF    FF2.7
40F2:  MOVLB  F
40F4:  MOVLW  55
40F6:  MOVWF  FA7
40F8:  MOVLW  AA
40FA:  MOVWF  FA7
40FC:  BSF    FA6.1
40FE:  BTFSC  FA6.1
4100:  BRA    40FE
4102:  BCF    FA6.2
4104:  MOVF   00,W
4106:  IORWF  FF2,F
4108:  MOVLW  14
410A:  MOVLB  6
410C:  MOVWF  x3D
410E:  MOVLB  0
4110:  CALL   0CFA
4114:  MOVLW  0B
4116:  MOVWF  FA9
4118:  CLRF   FA8
411A:  BCF    FA6.6
411C:  BCF    FA6.7
411E:  BSF    FA6.2
4120:  MOVF   FF2,W
4122:  MOVWF  00
4124:  BCF    FF2.7
4126:  MOVLB  F
4128:  MOVLW  55
412A:  MOVWF  FA7
412C:  MOVLW  AA
412E:  MOVWF  FA7
4130:  BSF    FA6.1
4132:  BTFSC  FA6.1
4134:  BRA    4132
4136:  BCF    FA6.2
4138:  MOVF   00,W
413A:  IORWF  FF2,F
413C:  MOVLW  14
413E:  MOVLB  6
4140:  MOVWF  x3D
4142:  MOVLB  0
4144:  CALL   0CFA
....................              write_eeprom(12,0);delay_ms(20);write_eeprom(13,0);delay_ms(20); 
4148:  MOVLW  0C
414A:  MOVWF  FA9
414C:  CLRF   FA8
414E:  BCF    FA6.6
4150:  BCF    FA6.7
4152:  BSF    FA6.2
4154:  MOVF   FF2,W
4156:  MOVWF  00
4158:  BCF    FF2.7
415A:  MOVLB  F
415C:  MOVLW  55
415E:  MOVWF  FA7
4160:  MOVLW  AA
4162:  MOVWF  FA7
4164:  BSF    FA6.1
4166:  BTFSC  FA6.1
4168:  BRA    4166
416A:  BCF    FA6.2
416C:  MOVF   00,W
416E:  IORWF  FF2,F
4170:  MOVLW  14
4172:  MOVLB  6
4174:  MOVWF  x3D
4176:  MOVLB  0
4178:  CALL   0CFA
417C:  MOVLW  0D
417E:  MOVWF  FA9
4180:  CLRF   FA8
4182:  BCF    FA6.6
4184:  BCF    FA6.7
4186:  BSF    FA6.2
4188:  MOVF   FF2,W
418A:  MOVWF  00
418C:  BCF    FF2.7
418E:  MOVLB  F
4190:  MOVLW  55
4192:  MOVWF  FA7
4194:  MOVLW  AA
4196:  MOVWF  FA7
4198:  BSF    FA6.1
419A:  BTFSC  FA6.1
419C:  BRA    419A
419E:  BCF    FA6.2
41A0:  MOVF   00,W
41A2:  IORWF  FF2,F
41A4:  MOVLW  14
41A6:  MOVLB  6
41A8:  MOVWF  x3D
41AA:  MOVLB  0
41AC:  CALL   0CFA
....................              reset_cpu();}         
41B0:  RESET
41B2:  MOVLB  5
....................           
....................          if((Contrasena[0]==Password[0])&&(Contrasena[1]==Password[1])&&(Contrasena[2]==Password[2])&&(Contrasena[3]==Password[3])) 
41B4:  MOVF   xC3,W
41B6:  SUBWF  xBF,W
41B8:  BNZ   428A
41BA:  MOVF   xC4,W
41BC:  SUBWF  xC0,W
41BE:  BNZ   428A
41C0:  MOVF   xC5,W
41C2:  SUBWF  xC1,W
41C4:  BNZ   428A
41C6:  MOVF   xC6,W
41C8:  SUBWF  xC2,W
41CA:  BNZ   428A
....................          { 
....................             glcd_fillScreen(OFF); 
41CC:  MOVLB  6
41CE:  CLRF   x38
41D0:  MOVLB  0
41D2:  CALL   0E14
....................             strcpy(Menus.Letra,"Clave"); 
41D6:  MOVLW  06
41D8:  MOVWF  FEA
41DA:  MOVLW  17
41DC:  MOVWF  FE9
41DE:  MOVFF  FF2,637
41E2:  BCF    FF2.7
41E4:  MOVLW  00
41E6:  CALL   0782
41EA:  TBLRD*-
41EC:  TBLRD*+
41EE:  MOVF   FF5,W
41F0:  MOVWF  FEE
41F2:  IORLW  00
41F4:  BNZ   41EC
41F6:  MOVLB  6
41F8:  BTFSC  x37.7
41FA:  BSF    FF2.7
....................             displayMenu(Menus.Letra,30,0,0,2); 
41FC:  MOVLW  06
41FE:  MOVWF  x38
4200:  MOVLW  17
4202:  MOVWF  x37
4204:  MOVLW  1E
4206:  MOVWF  x39
4208:  CLRF   x3A
420A:  CLRF   x3B
420C:  MOVLW  02
420E:  MOVWF  x3C
4210:  MOVLB  0
4212:  CALL   1442
....................             strcpy(Menus.Letra,"Correcta"); 
4216:  MOVLW  06
4218:  MOVWF  FEA
421A:  MOVLW  17
421C:  MOVWF  FE9
421E:  MOVFF  FF2,637
4222:  BCF    FF2.7
4224:  MOVLW  00
4226:  CALL   07A2
422A:  TBLRD*-
422C:  TBLRD*+
422E:  MOVF   FF5,W
4230:  MOVWF  FEE
4232:  IORLW  00
4234:  BNZ   422C
4236:  MOVLB  6
4238:  BTFSC  x37.7
423A:  BSF    FF2.7
....................             displayMenu(Menus.Letra,15,30,0,2); 
423C:  MOVLW  06
423E:  MOVWF  x38
4240:  MOVLW  17
4242:  MOVWF  x37
4244:  MOVLW  0F
4246:  MOVWF  x39
4248:  MOVLW  1E
424A:  MOVWF  x3A
424C:  CLRF   x3B
424E:  MOVLW  02
4250:  MOVWF  x3C
4252:  MOVLB  0
4254:  CALL   1442
....................             Menu=1;glcd_update();delay_ms(1000); 
4258:  MOVLW  01
425A:  MOVLB  5
425C:  MOVWF  x94
425E:  MOVLB  0
4260:  CALL   0E6E
4264:  MOVLW  04
4266:  MOVLB  6
4268:  MOVWF  x37
426A:  MOVLW  FA
426C:  MOVWF  x3D
426E:  MOVLB  0
4270:  CALL   0CFA
4274:  MOVLB  6
4276:  DECFSZ x37,F
4278:  BRA    426A
....................             glcd_fillScreen(OFF);unidad=1; 
427A:  CLRF   x38
427C:  MOVLB  0
427E:  CALL   0E14
4282:  MOVLW  01
4284:  MOVLB  5
4286:  MOVWF  x95
....................          }// Esta parte se puede agregar en el Menu 1 dependiendo de la ubicacin del vidrio. 
....................          else 
4288:  BRA    43A6
....................          { 
....................             glcd_fillScreen(OFF); 
428A:  MOVLB  6
428C:  CLRF   x38
428E:  MOVLB  0
4290:  CALL   0E14
....................             strcpy(Menus.Letra,"Clave"); 
4294:  MOVLW  06
4296:  MOVWF  FEA
4298:  MOVLW  17
429A:  MOVWF  FE9
429C:  MOVFF  FF2,637
42A0:  BCF    FF2.7
42A2:  MOVLW  00
42A4:  CALL   0782
42A8:  TBLRD*-
42AA:  TBLRD*+
42AC:  MOVF   FF5,W
42AE:  MOVWF  FEE
42B0:  IORLW  00
42B2:  BNZ   42AA
42B4:  MOVLB  6
42B6:  BTFSC  x37.7
42B8:  BSF    FF2.7
....................             displayMenu(Menus.Letra,30,0,0,2); 
42BA:  MOVLW  06
42BC:  MOVWF  x38
42BE:  MOVLW  17
42C0:  MOVWF  x37
42C2:  MOVLW  1E
42C4:  MOVWF  x39
42C6:  CLRF   x3A
42C8:  CLRF   x3B
42CA:  MOVLW  02
42CC:  MOVWF  x3C
42CE:  MOVLB  0
42D0:  CALL   1442
....................             strcpy(Menus.Letra,"Incorrecta"); 
42D4:  MOVLW  06
42D6:  MOVWF  FEA
42D8:  MOVLW  17
42DA:  MOVWF  FE9
42DC:  MOVFF  FF2,637
42E0:  BCF    FF2.7
42E2:  MOVLW  00
42E4:  CALL   07C6
42E8:  TBLRD*-
42EA:  TBLRD*+
42EC:  MOVF   FF5,W
42EE:  MOVWF  FEE
42F0:  IORLW  00
42F2:  BNZ   42EA
42F4:  MOVLB  6
42F6:  BTFSC  x37.7
42F8:  BSF    FF2.7
....................             displayMenu(Menus.Letra,0,30,0,2); 
42FA:  MOVLW  06
42FC:  MOVWF  x38
42FE:  MOVLW  17
4300:  MOVWF  x37
4302:  CLRF   x39
4304:  MOVLW  1E
4306:  MOVWF  x3A
4308:  CLRF   x3B
430A:  MOVLW  02
430C:  MOVWF  x3C
430E:  MOVLB  0
4310:  CALL   1442
....................             Menu=0;glcd_update();delay_ms(1000); 
4314:  MOVLB  5
4316:  CLRF   x94
4318:  MOVLB  0
431A:  CALL   0E6E
431E:  MOVLW  04
4320:  MOVLB  6
4322:  MOVWF  x37
4324:  MOVLW  FA
4326:  MOVWF  x3D
4328:  MOVLB  0
432A:  CALL   0CFA
432E:  MOVLB  6
4330:  DECFSZ x37,F
4332:  BRA    4324
....................             glcd_fillScreen(OFF);unidad=1; 
4334:  CLRF   x38
4336:  MOVLB  0
4338:  CALL   0E14
433C:  MOVLW  01
433E:  MOVLB  5
4340:  MOVWF  x95
....................             Contrasena[0]=0;Contrasena[1]=0;Contrasena[2]=0;Contrasena[3]=0; 
4342:  CLRF   xBF
4344:  CLRF   xC0
4346:  CLRF   xC1
4348:  CLRF   xC2
....................             displayContrasena(Contrasena[0],20,30,1); 
434A:  MOVFF  5BF,639
434E:  MOVLW  14
4350:  MOVLB  6
4352:  MOVWF  x3A
4354:  MOVLW  1E
4356:  MOVWF  x3B
4358:  MOVLW  01
435A:  MOVWF  x3C
435C:  MOVLB  0
435E:  CALL   1668
....................             displayContrasena(Contrasena[1],40,30,0); 
4362:  MOVFF  5C0,639
4366:  MOVLW  28
4368:  MOVLB  6
436A:  MOVWF  x3A
436C:  MOVLW  1E
436E:  MOVWF  x3B
4370:  CLRF   x3C
4372:  MOVLB  0
4374:  CALL   1668
....................             displayContrasena(Contrasena[2],60,30,0); 
4378:  MOVFF  5C1,639
437C:  MOVLW  3C
437E:  MOVLB  6
4380:  MOVWF  x3A
4382:  MOVLW  1E
4384:  MOVWF  x3B
4386:  CLRF   x3C
4388:  MOVLB  0
438A:  CALL   1668
....................             displayContrasena(Contrasena[3],80,30,0); 
438E:  MOVFF  5C2,639
4392:  MOVLW  50
4394:  MOVLB  6
4396:  MOVWF  x3A
4398:  MOVLW  1E
439A:  MOVWF  x3B
439C:  CLRF   x3C
439E:  MOVLB  0
43A0:  CALL   1668
43A4:  MOVLB  5
....................          } 
....................       } 
....................     } 
.................... //_--------------------------------------------------------------------------------------------------------------------------------------------------------        
....................  
....................  
.................... //_-------------------------------------------------------------------------------------------------------------------------------------------------------- 
....................       if(Menu==1){ //Menu Principal.       
43A6:  DECFSZ x94,W
43A8:  BRA    46C6
....................        
....................          if(Opcion>4) 
43AA:  MOVF   x9A,W
43AC:  SUBLW  04
43AE:  BC    43B4
....................          {Opcion=1;} 
43B0:  MOVLW  01
43B2:  MOVWF  x9A
....................          if(Opcion<1) 
43B4:  MOVF   x9A,F
43B6:  BNZ   43BC
....................          {Opcion=4;} 
43B8:  MOVLW  04
43BA:  MOVWF  x9A
....................           
....................          strcpy(Menus.Letra,"Menu"); 
43BC:  MOVLW  06
43BE:  MOVWF  FEA
43C0:  MOVLW  17
43C2:  MOVWF  FE9
43C4:  MOVFF  FF2,637
43C8:  BCF    FF2.7
43CA:  MOVLW  00
43CC:  MOVLB  0
43CE:  CALL   07EC
43D2:  TBLRD*-
43D4:  TBLRD*+
43D6:  MOVF   FF5,W
43D8:  MOVWF  FEE
43DA:  IORLW  00
43DC:  BNZ   43D4
43DE:  MOVLB  6
43E0:  BTFSC  x37.7
43E2:  BSF    FF2.7
....................          displayMenu(Menus.Letra,30,0,1,2); 
43E4:  MOVLW  06
43E6:  MOVWF  x38
43E8:  MOVLW  17
43EA:  MOVWF  x37
43EC:  MOVLW  1E
43EE:  MOVWF  x39
43F0:  CLRF   x3A
43F2:  MOVLW  01
43F4:  MOVWF  x3B
43F6:  MOVLW  02
43F8:  MOVWF  x3C
43FA:  MOVLB  0
43FC:  CALL   1442
....................        
....................          if(Opcion==1)    
4400:  MOVLB  5
4402:  DECFSZ x9A,W
4404:  BRA    444C
....................             {strcpy(Menus.Letra,"Iniciar Proceso"); 
4406:  MOVLW  06
4408:  MOVWF  FEA
440A:  MOVLW  17
440C:  MOVWF  FE9
440E:  MOVFF  FF2,637
4412:  BCF    FF2.7
4414:  MOVLW  00
4416:  MOVLB  0
4418:  CALL   080C
441C:  TBLRD*-
441E:  TBLRD*+
4420:  MOVF   FF5,W
4422:  MOVWF  FEE
4424:  IORLW  00
4426:  BNZ   441E
4428:  MOVLB  6
442A:  BTFSC  x37.7
442C:  BSF    FF2.7
....................             displayMenu(Menus.Letra,0,20,1,1);} 
442E:  MOVLW  06
4430:  MOVWF  x38
4432:  MOVLW  17
4434:  MOVWF  x37
4436:  CLRF   x39
4438:  MOVLW  14
443A:  MOVWF  x3A
443C:  MOVLW  01
443E:  MOVWF  x3B
4440:  MOVWF  x3C
4442:  MOVLB  0
4444:  CALL   1442
....................          else 
4448:  BRA    448E
444A:  MOVLB  5
....................             {strcpy(Menus.Letra,"Iniciar Proceso"); 
444C:  MOVLW  06
444E:  MOVWF  FEA
4450:  MOVLW  17
4452:  MOVWF  FE9
4454:  MOVFF  FF2,637
4458:  BCF    FF2.7
445A:  MOVLW  00
445C:  MOVLB  0
445E:  CALL   080C
4462:  TBLRD*-
4464:  TBLRD*+
4466:  MOVF   FF5,W
4468:  MOVWF  FEE
446A:  IORLW  00
446C:  BNZ   4464
446E:  MOVLB  6
4470:  BTFSC  x37.7
4472:  BSF    FF2.7
....................             displayMenu(Menus.Letra,0,20,0,1);} 
4474:  MOVLW  06
4476:  MOVWF  x38
4478:  MOVLW  17
447A:  MOVWF  x37
447C:  CLRF   x39
447E:  MOVLW  14
4480:  MOVWF  x3A
4482:  CLRF   x3B
4484:  MOVLW  01
4486:  MOVWF  x3C
4488:  MOVLB  0
448A:  CALL   1442
....................           
....................          if(Opcion==2)    
448E:  MOVLB  5
4490:  MOVF   x9A,W
4492:  SUBLW  02
4494:  BNZ   44DC
....................             {strcpy(Menus.Letra,"Temperatura"); 
4496:  MOVLW  06
4498:  MOVWF  FEA
449A:  MOVLW  17
449C:  MOVWF  FE9
449E:  MOVFF  FF2,637
44A2:  BCF    FF2.7
44A4:  MOVLW  00
44A6:  MOVLB  0
44A8:  CALL   0836
44AC:  TBLRD*-
44AE:  TBLRD*+
44B0:  MOVF   FF5,W
44B2:  MOVWF  FEE
44B4:  IORLW  00
44B6:  BNZ   44AE
44B8:  MOVLB  6
44BA:  BTFSC  x37.7
44BC:  BSF    FF2.7
....................             displayMenu(Menus.Letra,0,30,1,1);} 
44BE:  MOVLW  06
44C0:  MOVWF  x38
44C2:  MOVLW  17
44C4:  MOVWF  x37
44C6:  CLRF   x39
44C8:  MOVLW  1E
44CA:  MOVWF  x3A
44CC:  MOVLW  01
44CE:  MOVWF  x3B
44D0:  MOVWF  x3C
44D2:  MOVLB  0
44D4:  CALL   1442
....................          else 
44D8:  BRA    451E
44DA:  MOVLB  5
....................             {strcpy(Menus.Letra,"Temperatura"); 
44DC:  MOVLW  06
44DE:  MOVWF  FEA
44E0:  MOVLW  17
44E2:  MOVWF  FE9
44E4:  MOVFF  FF2,637
44E8:  BCF    FF2.7
44EA:  MOVLW  00
44EC:  MOVLB  0
44EE:  CALL   0836
44F2:  TBLRD*-
44F4:  TBLRD*+
44F6:  MOVF   FF5,W
44F8:  MOVWF  FEE
44FA:  IORLW  00
44FC:  BNZ   44F4
44FE:  MOVLB  6
4500:  BTFSC  x37.7
4502:  BSF    FF2.7
....................             displayMenu(Menus.Letra,0,30,0,1);} 
4504:  MOVLW  06
4506:  MOVWF  x38
4508:  MOVLW  17
450A:  MOVWF  x37
450C:  CLRF   x39
450E:  MOVLW  1E
4510:  MOVWF  x3A
4512:  CLRF   x3B
4514:  MOVLW  01
4516:  MOVWF  x3C
4518:  MOVLB  0
451A:  CALL   1442
....................              
....................          if(Opcion==3)    
451E:  MOVLB  5
4520:  MOVF   x9A,W
4522:  SUBLW  03
4524:  BNZ   456C
....................             {strcpy(Menus.Letra,"Temporizador"); 
4526:  MOVLW  06
4528:  MOVWF  FEA
452A:  MOVLW  17
452C:  MOVWF  FE9
452E:  MOVFF  FF2,637
4532:  BCF    FF2.7
4534:  MOVLW  00
4536:  MOVLB  0
4538:  CALL   085C
453C:  TBLRD*-
453E:  TBLRD*+
4540:  MOVF   FF5,W
4542:  MOVWF  FEE
4544:  IORLW  00
4546:  BNZ   453E
4548:  MOVLB  6
454A:  BTFSC  x37.7
454C:  BSF    FF2.7
....................             displayMenu(Menus.Letra,0,40,1,1);} 
454E:  MOVLW  06
4550:  MOVWF  x38
4552:  MOVLW  17
4554:  MOVWF  x37
4556:  CLRF   x39
4558:  MOVLW  28
455A:  MOVWF  x3A
455C:  MOVLW  01
455E:  MOVWF  x3B
4560:  MOVWF  x3C
4562:  MOVLB  0
4564:  CALL   1442
....................          else 
4568:  BRA    45AE
456A:  MOVLB  5
....................             {strcpy(Menus.Letra,"Temporizador"); 
456C:  MOVLW  06
456E:  MOVWF  FEA
4570:  MOVLW  17
4572:  MOVWF  FE9
4574:  MOVFF  FF2,637
4578:  BCF    FF2.7
457A:  MOVLW  00
457C:  MOVLB  0
457E:  CALL   085C
4582:  TBLRD*-
4584:  TBLRD*+
4586:  MOVF   FF5,W
4588:  MOVWF  FEE
458A:  IORLW  00
458C:  BNZ   4584
458E:  MOVLB  6
4590:  BTFSC  x37.7
4592:  BSF    FF2.7
....................             displayMenu(Menus.Letra,0,40,0,1);}    
4594:  MOVLW  06
4596:  MOVWF  x38
4598:  MOVLW  17
459A:  MOVWF  x37
459C:  CLRF   x39
459E:  MOVLW  28
45A0:  MOVWF  x3A
45A2:  CLRF   x3B
45A4:  MOVLW  01
45A6:  MOVWF  x3C
45A8:  MOVLB  0
45AA:  CALL   1442
....................                          
....................          if(Opcion==4)    
45AE:  MOVLB  5
45B0:  MOVF   x9A,W
45B2:  SUBLW  04
45B4:  BNZ   45FC
....................             {strcpy(Menus.Letra,"Cambio Clave"); 
45B6:  MOVLW  06
45B8:  MOVWF  FEA
45BA:  MOVLW  17
45BC:  MOVWF  FE9
45BE:  MOVFF  FF2,637
45C2:  BCF    FF2.7
45C4:  MOVLW  00
45C6:  MOVLB  0
45C8:  CALL   0884
45CC:  TBLRD*-
45CE:  TBLRD*+
45D0:  MOVF   FF5,W
45D2:  MOVWF  FEE
45D4:  IORLW  00
45D6:  BNZ   45CE
45D8:  MOVLB  6
45DA:  BTFSC  x37.7
45DC:  BSF    FF2.7
....................             displayMenu(Menus.Letra,0,50,1,1);} 
45DE:  MOVLW  06
45E0:  MOVWF  x38
45E2:  MOVLW  17
45E4:  MOVWF  x37
45E6:  CLRF   x39
45E8:  MOVLW  32
45EA:  MOVWF  x3A
45EC:  MOVLW  01
45EE:  MOVWF  x3B
45F0:  MOVWF  x3C
45F2:  MOVLB  0
45F4:  CALL   1442
....................          else 
45F8:  BRA    463E
45FA:  MOVLB  5
....................             {strcpy(Menus.Letra,"Cambio Clave"); 
45FC:  MOVLW  06
45FE:  MOVWF  FEA
4600:  MOVLW  17
4602:  MOVWF  FE9
4604:  MOVFF  FF2,637
4608:  BCF    FF2.7
460A:  MOVLW  00
460C:  MOVLB  0
460E:  CALL   0884
4612:  TBLRD*-
4614:  TBLRD*+
4616:  MOVF   FF5,W
4618:  MOVWF  FEE
461A:  IORLW  00
461C:  BNZ   4614
461E:  MOVLB  6
4620:  BTFSC  x37.7
4622:  BSF    FF2.7
....................             displayMenu(Menus.Letra,0,50,0,1);}      
4624:  MOVLW  06
4626:  MOVWF  x38
4628:  MOVLW  17
462A:  MOVWF  x37
462C:  CLRF   x39
462E:  MOVLW  32
4630:  MOVWF  x3A
4632:  CLRF   x3B
4634:  MOVLW  01
4636:  MOVWF  x3C
4638:  MOVLB  0
463A:  CALL   1442
....................              
....................       if(UP)//Si oprime hacia arriba 
463E:  BSF    F92.5
4640:  BTFSS  F80.5
4642:  BRA    4660
....................          {  if(Flanco == 0)  
4644:  MOVLB  5
4646:  BTFSC  x8F.0
4648:  BRA    465E
....................                {Flanco = 1;delay_ms(30);Opcion--;visual=1; 
464A:  BSF    x8F.0
464C:  MOVLW  1E
464E:  MOVLB  6
4650:  MOVWF  x3D
4652:  MOVLB  0
4654:  CALL   0CFA
4658:  MOVLB  5
465A:  DECF   x9A,F
465C:  BSF    x8F.3
....................                } 
....................          } 
....................             else 
465E:  BRA    4664
....................                {Flanco = 0;} 
4660:  MOVLB  5
4662:  BCF    x8F.0
....................                    
....................          if(DOWN)//Si oprime hacia abajo 
4664:  BSF    F96.0
4666:  BTFSS  F84.0
4668:  BRA    4684
....................          {  if(Flanco2 == 0)  
466A:  BTFSC  x8F.2
466C:  BRA    4682
....................                {Flanco2 = 1;delay_ms(30);Opcion++;visual=1; 
466E:  BSF    x8F.2
4670:  MOVLW  1E
4672:  MOVLB  6
4674:  MOVWF  x3D
4676:  MOVLB  0
4678:  CALL   0CFA
467C:  MOVLB  5
467E:  INCF   x9A,F
4680:  BSF    x8F.3
....................                }      
....................          } 
....................             else 
4682:  BRA    4686
....................                {Flanco2 = 0;}   
4684:  BCF    x8F.2
....................                 
....................        if(RIGHT)//Si oprime SET 
4686:  BSF    F96.1
4688:  BTFSS  F84.1
468A:  BRA    46C4
....................          {  if(Flanco1 == 0)  
468C:  BTFSC  x8F.1
468E:  BRA    46C2
....................                {Flanco1 = 1;delay_ms(500);Menu=Opcion+3;Opcion=1;glcd_fillscreen(OFF);visual=1; 
4690:  BSF    x8F.1
4692:  MOVLW  02
4694:  MOVLB  6
4696:  MOVWF  x37
4698:  MOVLW  FA
469A:  MOVWF  x3D
469C:  MOVLB  0
469E:  CALL   0CFA
46A2:  MOVLB  6
46A4:  DECFSZ x37,F
46A6:  BRA    4698
46A8:  MOVLW  03
46AA:  MOVLB  5
46AC:  ADDWF  x9A,W
46AE:  MOVWF  x94
46B0:  MOVLW  01
46B2:  MOVWF  x9A
46B4:  MOVLB  6
46B6:  CLRF   x38
46B8:  MOVLB  0
46BA:  CALL   0E14
46BE:  MOVLB  5
46C0:  BSF    x8F.3
....................                } 
....................          } 
....................             else 
46C2:  BRA    46C6
....................                {Flanco1 = 0;}   
46C4:  BCF    x8F.1
....................  
....................    } 
.................... //_--------------------------------------------------------------------------------------------------------------------------------------------------------        
.................... //-Sub-Menus de seleccin de proceso. 
....................  
.................... //_-------------------------------------------------------------------------------------------------------------------------------------------------------- 
....................       if(Menu==4){ //Menu de Continuar 
46C6:  MOVF   x94,W
46C8:  SUBLW  04
46CA:  BTFSS  FD8.2
46CC:  BRA    4966
....................        
....................       if(Opcion>2) 
46CE:  MOVF   x9A,W
46D0:  SUBLW  02
46D2:  BC    46D8
....................          Opcion=1; 
46D4:  MOVLW  01
46D6:  MOVWF  x9A
....................           
....................       if(Opcion<1) 
46D8:  MOVF   x9A,F
46DA:  BNZ   46E0
....................          Opcion=2; 
46DC:  MOVLW  02
46DE:  MOVWF  x9A
....................        
....................          strcpy(Menus.Letra,"Continuar"); 
46E0:  MOVLW  06
46E2:  MOVWF  FEA
46E4:  MOVLW  17
46E6:  MOVWF  FE9
46E8:  MOVFF  FF2,637
46EC:  BCF    FF2.7
46EE:  MOVLW  00
46F0:  MOVLB  0
46F2:  CALL   08AC
46F6:  TBLRD*-
46F8:  TBLRD*+
46FA:  MOVF   FF5,W
46FC:  MOVWF  FEE
46FE:  IORLW  00
4700:  BNZ   46F8
4702:  MOVLB  6
4704:  BTFSC  x37.7
4706:  BSF    FF2.7
....................          displayMenu(Menus.Letra,0,0,1,2); 
4708:  MOVLW  06
470A:  MOVWF  x38
470C:  MOVLW  17
470E:  MOVWF  x37
4710:  CLRF   x39
4712:  CLRF   x3A
4714:  MOVLW  01
4716:  MOVWF  x3B
4718:  MOVLW  02
471A:  MOVWF  x3C
471C:  MOVLB  0
471E:  CALL   1442
....................           
....................          if(Opcion==2) 
4722:  MOVLB  5
4724:  MOVF   x9A,W
4726:  SUBLW  02
4728:  BNZ   47B4
....................          {strcpy(Menus.Letra,"SI"); 
472A:  MOVLW  06
472C:  MOVWF  FEA
472E:  MOVLW  17
4730:  MOVWF  FE9
4732:  MOVFF  FF2,637
4736:  BCF    FF2.7
4738:  MOVLW  00
473A:  MOVLB  0
473C:  CALL   08D0
4740:  TBLRD*-
4742:  TBLRD*+
4744:  MOVF   FF5,W
4746:  MOVWF  FEE
4748:  IORLW  00
474A:  BNZ   4742
474C:  MOVLB  6
474E:  BTFSC  x37.7
4750:  BSF    FF2.7
....................          displayMenu(Menus.Letra,50,25,1,2); 
4752:  MOVLW  06
4754:  MOVWF  x38
4756:  MOVLW  17
4758:  MOVWF  x37
475A:  MOVLW  32
475C:  MOVWF  x39
475E:  MOVLW  19
4760:  MOVWF  x3A
4762:  MOVLW  01
4764:  MOVWF  x3B
4766:  MOVLW  02
4768:  MOVWF  x3C
476A:  MOVLB  0
476C:  CALL   1442
....................          strcpy(Menus.Letra,"NO"); 
4770:  MOVLW  06
4772:  MOVWF  FEA
4774:  MOVLW  17
4776:  MOVWF  FE9
4778:  MOVFF  FF2,637
477C:  BCF    FF2.7
477E:  MOVLW  00
4780:  CALL   08EE
4784:  TBLRD*-
4786:  TBLRD*+
4788:  MOVF   FF5,W
478A:  MOVWF  FEE
478C:  IORLW  00
478E:  BNZ   4786
4790:  MOVLB  6
4792:  BTFSC  x37.7
4794:  BSF    FF2.7
....................          displayMenu(Menus.Letra,50,45,0,2); 
4796:  MOVLW  06
4798:  MOVWF  x38
479A:  MOVLW  17
479C:  MOVWF  x37
479E:  MOVLW  32
47A0:  MOVWF  x39
47A2:  MOVLW  2D
47A4:  MOVWF  x3A
47A6:  CLRF   x3B
47A8:  MOVLW  02
47AA:  MOVWF  x3C
47AC:  MOVLB  0
47AE:  CALL   1442
47B2:  MOVLB  5
....................          } 
....................          if(Opcion==1) 
47B4:  DECFSZ x9A,W
47B6:  BRA    4842
....................          {strcpy(Menus.Letra,"SI"); 
47B8:  MOVLW  06
47BA:  MOVWF  FEA
47BC:  MOVLW  17
47BE:  MOVWF  FE9
47C0:  MOVFF  FF2,637
47C4:  BCF    FF2.7
47C6:  MOVLW  00
47C8:  MOVLB  0
47CA:  CALL   08D0
47CE:  TBLRD*-
47D0:  TBLRD*+
47D2:  MOVF   FF5,W
47D4:  MOVWF  FEE
47D6:  IORLW  00
47D8:  BNZ   47D0
47DA:  MOVLB  6
47DC:  BTFSC  x37.7
47DE:  BSF    FF2.7
....................          displayMenu(Menus.Letra,50,25,0,2); 
47E0:  MOVLW  06
47E2:  MOVWF  x38
47E4:  MOVLW  17
47E6:  MOVWF  x37
47E8:  MOVLW  32
47EA:  MOVWF  x39
47EC:  MOVLW  19
47EE:  MOVWF  x3A
47F0:  CLRF   x3B
47F2:  MOVLW  02
47F4:  MOVWF  x3C
47F6:  MOVLB  0
47F8:  CALL   1442
....................          strcpy(Menus.Letra,"NO"); 
47FC:  MOVLW  06
47FE:  MOVWF  FEA
4800:  MOVLW  17
4802:  MOVWF  FE9
4804:  MOVFF  FF2,637
4808:  BCF    FF2.7
480A:  MOVLW  00
480C:  CALL   08EE
4810:  TBLRD*-
4812:  TBLRD*+
4814:  MOVF   FF5,W
4816:  MOVWF  FEE
4818:  IORLW  00
481A:  BNZ   4812
481C:  MOVLB  6
481E:  BTFSC  x37.7
4820:  BSF    FF2.7
....................          displayMenu(Menus.Letra,50,45,1,2); 
4822:  MOVLW  06
4824:  MOVWF  x38
4826:  MOVLW  17
4828:  MOVWF  x37
482A:  MOVLW  32
482C:  MOVWF  x39
482E:  MOVLW  2D
4830:  MOVWF  x3A
4832:  MOVLW  01
4834:  MOVWF  x3B
4836:  MOVLW  02
4838:  MOVWF  x3C
483A:  MOVLB  0
483C:  CALL   1442
4840:  MOVLB  5
....................          } 
....................         
....................        
....................          
....................       if(UP)//Si oprime hacia arriba 
4842:  BSF    F92.5
4844:  BTFSS  F80.5
4846:  BRA    4850
....................       { 
....................          if(Opcion<2) 
4848:  MOVF   x9A,W
484A:  SUBLW  01
484C:  BNC   4850
....................          { 
....................             Opcion++; 
484E:  INCF   x9A,F
....................          } 
....................       } 
....................              
....................       if(DOWN)//Si oprime hacia abajo 
4850:  BSF    F96.0
4852:  BTFSS  F84.0
4854:  BRA    485E
....................       {   
....................          if(Opcion>1) 
4856:  MOVF   x9A,W
4858:  SUBLW  01
485A:  BC    485E
....................          { 
....................             Opcion--; 
485C:  DECF   x9A,F
....................          }   
....................       } 
....................              
....................       if(RIGHT)//Si oprime SET 
485E:  BSF    F96.1
4860:  BTFSS  F84.1
4862:  BRA    4930
....................       {   
....................          if(Opcion==2) 
4864:  MOVF   x9A,W
4866:  SUBLW  02
4868:  BNZ   4902
....................          { 
....................             if(Setpoint<Temperatura) 
486A:  MOVFF  5AA,63E
486E:  MOVFF  5A9,63D
4872:  MOVLB  0
4874:  CALL   0D24
4878:  MOVFF  03,63A
487C:  MOVFF  02,639
4880:  MOVFF  01,638
4884:  MOVFF  00,637
4888:  MOVFF  602,63E
488C:  MOVFF  601,63D
4890:  MOVFF  600,63C
4894:  MOVFF  5FF,63B
4898:  CALL   0D5A
489C:  BNC   48A8
....................             { 
....................                Enfria=1; 
489E:  MOVLW  01
48A0:  MOVLB  5
48A2:  MOVWF  x93
....................             } 
....................             else 
48A4:  BRA    48AC
48A6:  MOVLB  0
....................             { 
....................                Enfria=0; 
48A8:  MOVLB  5
48AA:  CLRF   x93
....................             } 
....................             Menu=20;glcd_rect(15, 18, 30, 53, NO, ON);tiempo_secado=0;glcd_fillScreen(OFF);pausa=0; 
48AC:  MOVLW  14
48AE:  MOVWF  x94
48B0:  MOVLW  0F
48B2:  MOVLB  6
48B4:  MOVWF  x4A
48B6:  MOVLW  12
48B8:  MOVWF  x4B
48BA:  MOVLW  1E
48BC:  MOVWF  x4C
48BE:  MOVLW  35
48C0:  MOVWF  x4D
48C2:  CLRF   x4E
48C4:  MOVLW  01
48C6:  MOVWF  x4F
48C8:  MOVLB  0
48CA:  CALL   1380
48CE:  MOVLB  5
48D0:  CLRF   x9C
48D2:  MOVLB  6
48D4:  CLRF   x38
48D6:  MOVLB  0
48D8:  CALL   0E14
48DC:  MOVLB  5
48DE:  CLRF   x97
....................             /*Ganancia=Setpoint*(Ganancia/Coeficiente); 
....................             Tpulsomin=(Setpoint/150.0);*/ 
....................             Gananciamax=Setpoint; 
48E0:  MOVFF  5AA,63E
48E4:  MOVFF  5A9,63D
48E8:  MOVLB  0
48EA:  CALL   0D24
48EE:  MOVFF  03,5B6
48F2:  MOVFF  02,5B5
48F6:  MOVFF  01,5B4
48FA:  MOVFF  00,5B3
....................             //Gananciamax=(0.27)*Setpoint; 
....................          } 
....................          else 
48FE:  BRA    4932
4900:  MOVLB  5
....................          { 
....................             delay_ms(700);Menu=1;glcd_fillscreen(OFF);Opcion=1;visual=1; 
4902:  MOVLW  04
4904:  MOVLB  6
4906:  MOVWF  x37
4908:  MOVLW  AF
490A:  MOVWF  x3D
490C:  MOVLB  0
490E:  CALL   0CFA
4912:  MOVLB  6
4914:  DECFSZ x37,F
4916:  BRA    4908
4918:  MOVLW  01
491A:  MOVLB  5
491C:  MOVWF  x94
491E:  MOVLB  6
4920:  CLRF   x38
4922:  MOVLB  0
4924:  CALL   0E14
4928:  MOVLW  01
492A:  MOVLB  5
492C:  MOVWF  x9A
492E:  BSF    x8F.3
4930:  MOVLB  0
....................          } 
....................       }  
....................                    
....................       if(LEFT)//Si oprime boton de Toma. 
4932:  BSF    F96.2
4934:  BTFSS  F84.2
4936:  BRA    4968
....................       { 
....................          delay_ms(700);Menu=1;glcd_fillscreen(OFF);Opcion=1;visual=1; 
4938:  MOVLW  04
493A:  MOVLB  6
493C:  MOVWF  x37
493E:  MOVLW  AF
4940:  MOVWF  x3D
4942:  MOVLB  0
4944:  CALL   0CFA
4948:  MOVLB  6
494A:  DECFSZ x37,F
494C:  BRA    493E
494E:  MOVLW  01
4950:  MOVLB  5
4952:  MOVWF  x94
4954:  MOVLB  6
4956:  CLRF   x38
4958:  MOVLB  0
495A:  CALL   0E14
495E:  MOVLW  01
4960:  MOVLB  5
4962:  MOVWF  x9A
4964:  BSF    x8F.3
4966:  MOVLB  0
....................       } 
....................      
....................      
....................     } 
.................... //_--------------------------------------------------------------------------------------------------------------------------------------------------------        
....................  
.................... //_--------------------------------------------------------------------------------------------------------------------------------------------------------       
....................       if(Menu==5){ // Menu de Temperatura 
4968:  MOVLB  5
496A:  MOVF   x94,W
496C:  SUBLW  05
496E:  BTFSS  FD8.2
4970:  BRA    4B82
....................       if(Setpoint>70) 
4972:  MOVF   xAA,F
4974:  BNZ   497C
4976:  MOVF   xA9,W
4978:  SUBLW  46
497A:  BC    4982
....................          Setpoint=70; 
497C:  CLRF   xAA
497E:  MOVLW  46
4980:  MOVWF  xA9
....................           
....................       if(Setpoint<1) 
4982:  MOVF   xA9,F
4984:  BNZ   4990
4986:  MOVF   xAA,F
4988:  BNZ   4990
....................          Setpoint=1;   
498A:  CLRF   xAA
498C:  MOVLW  01
498E:  MOVWF  xA9
....................        
....................       glcd_circle(85,30,3,NO,ON); 
4990:  MOVLW  55
4992:  MOVLB  6
4994:  MOVWF  x37
4996:  MOVLW  1E
4998:  MOVWF  x38
499A:  MOVLW  03
499C:  MOVWF  x39
499E:  CLRF   x3A
49A0:  MOVLW  01
49A2:  MOVWF  x3B
49A4:  MOVLB  0
49A6:  CALL   205A
....................       strcpy(Menus.Letra,"C");displayMenu(Menus.Letra,92,30,2,3); 
49AA:  MOVLW  06
49AC:  MOVWF  FEA
49AE:  MOVLW  17
49B0:  MOVWF  FE9
49B2:  MOVFF  FF2,637
49B6:  BCF    FF2.7
49B8:  MOVLW  00
49BA:  CALL   090C
49BE:  TBLRD*-
49C0:  TBLRD*+
49C2:  MOVF   FF5,W
49C4:  MOVWF  FEE
49C6:  IORLW  00
49C8:  BNZ   49C0
49CA:  MOVLB  6
49CC:  BTFSC  x37.7
49CE:  BSF    FF2.7
49D0:  MOVLW  06
49D2:  MOVWF  x38
49D4:  MOVLW  17
49D6:  MOVWF  x37
49D8:  MOVLW  5C
49DA:  MOVWF  x39
49DC:  MOVLW  1E
49DE:  MOVWF  x3A
49E0:  MOVLW  02
49E2:  MOVWF  x3B
49E4:  MOVLW  03
49E6:  MOVWF  x3C
49E8:  MOVLB  0
49EA:  CALL   1442
....................        
....................          //glcd_fillScreen(OFF); 
....................          strcpy(Menus.Letra,"Temperatura"); 
49EE:  MOVLW  06
49F0:  MOVWF  FEA
49F2:  MOVLW  17
49F4:  MOVWF  FE9
49F6:  MOVFF  FF2,637
49FA:  BCF    FF2.7
49FC:  MOVLW  00
49FE:  CALL   0836
4A02:  TBLRD*-
4A04:  TBLRD*+
4A06:  MOVF   FF5,W
4A08:  MOVWF  FEE
4A0A:  IORLW  00
4A0C:  BNZ   4A04
4A0E:  MOVLB  6
4A10:  BTFSC  x37.7
4A12:  BSF    FF2.7
....................          displayMenu(Menus.Letra,0,0,1,2); 
4A14:  MOVLW  06
4A16:  MOVWF  x38
4A18:  MOVLW  17
4A1A:  MOVWF  x37
4A1C:  CLRF   x39
4A1E:  CLRF   x3A
4A20:  MOVLW  01
4A22:  MOVWF  x3B
4A24:  MOVLW  02
4A26:  MOVWF  x3C
4A28:  MOVLB  0
4A2A:  CALL   1442
....................           
....................          displayTemperatura(Setpoint,30,30,0,3); 
4A2E:  MOVFF  5AA,63A
4A32:  MOVFF  5A9,639
4A36:  MOVLW  1E
4A38:  MOVLB  6
4A3A:  MOVWF  x3B
4A3C:  MOVWF  x3C
4A3E:  CLRF   x3D
4A40:  MOVLW  03
4A42:  MOVWF  x3E
4A44:  MOVLB  0
4A46:  CALL   2342
....................        
....................          if(UP)//Si oprime hacia arriba 
4A4A:  BSF    F92.5
4A4C:  BTFSS  F80.5
4A4E:  BRA    4A84
....................          {   
....................             //glcd_fillScreen(OFF); 
....................             glcd_rect(30, 30, 80, 55, YES, OFF); 
4A50:  MOVLW  1E
4A52:  MOVLB  6
4A54:  MOVWF  x4A
4A56:  MOVWF  x4B
4A58:  MOVLW  50
4A5A:  MOVWF  x4C
4A5C:  MOVLW  37
4A5E:  MOVWF  x4D
4A60:  MOVLW  01
4A62:  MOVWF  x4E
4A64:  CLRF   x4F
4A66:  MOVLB  0
4A68:  CALL   1380
....................             delay_ms(30);Setpoint++;visual=1; 
4A6C:  MOVLW  1E
4A6E:  MOVLB  6
4A70:  MOVWF  x3D
4A72:  MOVLB  0
4A74:  CALL   0CFA
4A78:  MOVLB  5
4A7A:  INCF   xA9,F
4A7C:  BTFSC  FD8.2
4A7E:  INCF   xAA,F
4A80:  BSF    x8F.3
4A82:  MOVLB  0
....................              
....................          } 
....................                 
....................          if(DOWN)//Si oprime hacia abajo 
4A84:  BSF    F96.0
4A86:  BTFSS  F84.0
4A88:  BRA    4AC0
....................          {   
....................             //glcd_fillScreen(OFF); 
....................             glcd_rect(30, 30, 80, 55, YES, OFF); 
4A8A:  MOVLW  1E
4A8C:  MOVLB  6
4A8E:  MOVWF  x4A
4A90:  MOVWF  x4B
4A92:  MOVLW  50
4A94:  MOVWF  x4C
4A96:  MOVLW  37
4A98:  MOVWF  x4D
4A9A:  MOVLW  01
4A9C:  MOVWF  x4E
4A9E:  CLRF   x4F
4AA0:  MOVLB  0
4AA2:  CALL   1380
....................             delay_ms(30);Setpoint--;visual=1;      
4AA6:  MOVLW  1E
4AA8:  MOVLB  6
4AAA:  MOVWF  x3D
4AAC:  MOVLB  0
4AAE:  CALL   0CFA
4AB2:  MOVLB  5
4AB4:  MOVF   xA9,W
4AB6:  BTFSC  FD8.2
4AB8:  DECF   xAA,F
4ABA:  DECF   xA9,F
4ABC:  BSF    x8F.3
4ABE:  MOVLB  0
....................          } 
....................                 
....................          if(RIGHT)//Si oprime SET 
4AC0:  BSF    F96.1
4AC2:  BTFSS  F84.1
4AC4:  BRA    4AD8
....................          {   
....................             delay_ms(30);visual=1; 
4AC6:  MOVLW  1E
4AC8:  MOVLB  6
4ACA:  MOVWF  x3D
4ACC:  MOVLB  0
4ACE:  CALL   0CFA
4AD2:  MOVLB  5
4AD4:  BSF    x8F.3
4AD6:  MOVLB  0
....................          }  
....................                    
....................          if(LEFT)//Si oprime boton de Toma. 
4AD8:  BSF    F96.2
4ADA:  BTFSS  F84.2
4ADC:  BRA    4B80
....................          { 
....................             delay_ms(700);Menu=1;glcd_fillscreen(OFF);Opcion=1;visual=1; 
4ADE:  MOVLW  04
4AE0:  MOVLB  6
4AE2:  MOVWF  x37
4AE4:  MOVLW  AF
4AE6:  MOVWF  x3D
4AE8:  MOVLB  0
4AEA:  CALL   0CFA
4AEE:  MOVLB  6
4AF0:  DECFSZ x37,F
4AF2:  BRA    4AE4
4AF4:  MOVLW  01
4AF6:  MOVLB  5
4AF8:  MOVWF  x94
4AFA:  MOVLB  6
4AFC:  CLRF   x38
4AFE:  MOVLB  0
4B00:  CALL   0E14
4B04:  MOVLW  01
4B06:  MOVLB  5
4B08:  MOVWF  x9A
4B0A:  BSF    x8F.3
....................             write_eeprom(80,make8(Setpoint,0)); 
4B0C:  MOVFF  5A9,637
4B10:  MOVLW  50
4B12:  MOVWF  FA9
4B14:  MOVFF  637,FA8
4B18:  BCF    FA6.6
4B1A:  BCF    FA6.7
4B1C:  BSF    FA6.2
4B1E:  MOVF   FF2,W
4B20:  MOVWF  00
4B22:  BCF    FF2.7
4B24:  MOVLB  F
4B26:  MOVLW  55
4B28:  MOVWF  FA7
4B2A:  MOVLW  AA
4B2C:  MOVWF  FA7
4B2E:  BSF    FA6.1
4B30:  BTFSC  FA6.1
4B32:  BRA    4B30
4B34:  BCF    FA6.2
4B36:  MOVF   00,W
4B38:  IORWF  FF2,F
....................             delay_ms(50);    
4B3A:  MOVLW  32
4B3C:  MOVLB  6
4B3E:  MOVWF  x3D
4B40:  MOVLB  0
4B42:  CALL   0CFA
....................             write_eeprom(81,make8(Setpoint,1));//Guardar valor de Setpoint en eeprom 
4B46:  MOVFF  5AA,637
4B4A:  MOVLW  51
4B4C:  MOVWF  FA9
4B4E:  MOVFF  637,FA8
4B52:  BCF    FA6.6
4B54:  BCF    FA6.7
4B56:  BSF    FA6.2
4B58:  MOVF   FF2,W
4B5A:  MOVWF  00
4B5C:  BCF    FF2.7
4B5E:  MOVLB  F
4B60:  MOVLW  55
4B62:  MOVWF  FA7
4B64:  MOVLW  AA
4B66:  MOVWF  FA7
4B68:  BSF    FA6.1
4B6A:  BTFSC  FA6.1
4B6C:  BRA    4B6A
4B6E:  BCF    FA6.2
4B70:  MOVF   00,W
4B72:  IORWF  FF2,F
....................             delay_ms(50);    
4B74:  MOVLW  32
4B76:  MOVLB  6
4B78:  MOVWF  x3D
4B7A:  MOVLB  0
4B7C:  CALL   0CFA
4B80:  MOVLB  5
....................          } 
....................      } 
.................... //_--------------------------------------------------------------------------------------------------------------------------------------------------------     
....................  
....................  
.................... //_--------------------------------------------------------------------------------------------------------------------------------------------------------       
....................       if(Menu==6){ // Menu de Temporizador 
4B82:  MOVF   x94,W
4B84:  SUBLW  06
4B86:  BTFSS  FD8.2
4B88:  BRA    4EC2
....................       
....................        
....................          if(unidad<1) 
4B8A:  MOVF   x95,F
4B8C:  BNZ   4B92
....................          {unidad=4;} 
4B8E:  MOVLW  04
4B90:  MOVWF  x95
....................           
....................          strcpy(Menus.Letra,"Temporiza"); 
4B92:  MOVLW  06
4B94:  MOVWF  FEA
4B96:  MOVLW  17
4B98:  MOVWF  FE9
4B9A:  MOVFF  FF2,637
4B9E:  BCF    FF2.7
4BA0:  MOVLW  00
4BA2:  MOVLB  0
4BA4:  CALL   0928
4BA8:  TBLRD*-
4BAA:  TBLRD*+
4BAC:  MOVF   FF5,W
4BAE:  MOVWF  FEE
4BB0:  IORLW  00
4BB2:  BNZ   4BAA
4BB4:  MOVLB  6
4BB6:  BTFSC  x37.7
4BB8:  BSF    FF2.7
....................          displayMenu(Menus.Letra,0,0,1,2); 
4BBA:  MOVLW  06
4BBC:  MOVWF  x38
4BBE:  MOVLW  17
4BC0:  MOVWF  x37
4BC2:  CLRF   x39
4BC4:  CLRF   x3A
4BC6:  MOVLW  01
4BC8:  MOVWF  x3B
4BCA:  MOVLW  02
4BCC:  MOVWF  x3C
4BCE:  MOVLB  0
4BD0:  CALL   1442
....................           
....................          if(unidad==4) 
4BD4:  MOVLB  5
4BD6:  MOVF   x95,W
4BD8:  SUBLW  04
4BDA:  BNZ   4BFA
....................          {displayTiempo(Testerilizacionp[3],20,40,1,2);} 
4BDC:  MOVFF  5BE,638
4BE0:  MOVLW  14
4BE2:  MOVLB  6
4BE4:  MOVWF  x39
4BE6:  MOVLW  28
4BE8:  MOVWF  x3A
4BEA:  MOVLW  01
4BEC:  MOVWF  x3B
4BEE:  MOVLW  02
4BF0:  MOVWF  x3C
4BF2:  MOVLB  0
4BF4:  CALL   2580
....................          else 
4BF8:  BRA    4C14
....................          {displayTiempo(Testerilizacionp[3],20,40,0,2);} 
4BFA:  MOVFF  5BE,638
4BFE:  MOVLW  14
4C00:  MOVLB  6
4C02:  MOVWF  x39
4C04:  MOVLW  28
4C06:  MOVWF  x3A
4C08:  CLRF   x3B
4C0A:  MOVLW  02
4C0C:  MOVWF  x3C
4C0E:  MOVLB  0
4C10:  CALL   2580
....................           
....................          if(unidad==3) 
4C14:  MOVLB  5
4C16:  MOVF   x95,W
4C18:  SUBLW  03
4C1A:  BNZ   4C38
....................          {displayTiempo(Testerilizacionp[2],40,40,1,2);} 
4C1C:  MOVFF  5BD,638
4C20:  MOVLW  28
4C22:  MOVLB  6
4C24:  MOVWF  x39
4C26:  MOVWF  x3A
4C28:  MOVLW  01
4C2A:  MOVWF  x3B
4C2C:  MOVLW  02
4C2E:  MOVWF  x3C
4C30:  MOVLB  0
4C32:  CALL   2580
....................          else 
4C36:  BRA    4C50
....................          {displayTiempo(Testerilizacionp[2],40,40,0,2);} 
4C38:  MOVFF  5BD,638
4C3C:  MOVLW  28
4C3E:  MOVLB  6
4C40:  MOVWF  x39
4C42:  MOVWF  x3A
4C44:  CLRF   x3B
4C46:  MOVLW  02
4C48:  MOVWF  x3C
4C4A:  MOVLB  0
4C4C:  CALL   2580
....................           
....................          if(unidad==2) 
4C50:  MOVLB  5
4C52:  MOVF   x95,W
4C54:  SUBLW  02
4C56:  BNZ   4C76
....................          {displayTiempo(Testerilizacionp[1],70,40,1,2);} 
4C58:  MOVFF  5BC,638
4C5C:  MOVLW  46
4C5E:  MOVLB  6
4C60:  MOVWF  x39
4C62:  MOVLW  28
4C64:  MOVWF  x3A
4C66:  MOVLW  01
4C68:  MOVWF  x3B
4C6A:  MOVLW  02
4C6C:  MOVWF  x3C
4C6E:  MOVLB  0
4C70:  CALL   2580
....................          else 
4C74:  BRA    4C90
....................          {displayTiempo(Testerilizacionp[1],70,40,0,2);} 
4C76:  MOVFF  5BC,638
4C7A:  MOVLW  46
4C7C:  MOVLB  6
4C7E:  MOVWF  x39
4C80:  MOVLW  28
4C82:  MOVWF  x3A
4C84:  CLRF   x3B
4C86:  MOVLW  02
4C88:  MOVWF  x3C
4C8A:  MOVLB  0
4C8C:  CALL   2580
....................           
....................          if(unidad==1) 
4C90:  MOVLB  5
4C92:  DECFSZ x95,W
4C94:  BRA    4CB4
....................          {displayTiempo(Testerilizacionp[0],90,40,1,2);} 
4C96:  MOVFF  5BB,638
4C9A:  MOVLW  5A
4C9C:  MOVLB  6
4C9E:  MOVWF  x39
4CA0:  MOVLW  28
4CA2:  MOVWF  x3A
4CA4:  MOVLW  01
4CA6:  MOVWF  x3B
4CA8:  MOVLW  02
4CAA:  MOVWF  x3C
4CAC:  MOVLB  0
4CAE:  CALL   2580
....................          else 
4CB2:  BRA    4CCE
....................          {displayTiempo(Testerilizacionp[0],90,40,0,2);} 
4CB4:  MOVFF  5BB,638
4CB8:  MOVLW  5A
4CBA:  MOVLB  6
4CBC:  MOVWF  x39
4CBE:  MOVLW  28
4CC0:  MOVWF  x3A
4CC2:  CLRF   x3B
4CC4:  MOVLW  02
4CC6:  MOVWF  x3C
4CC8:  MOVLB  0
4CCA:  CALL   2580
....................           
....................          strcpy(Menus.Letra,":"); 
4CCE:  MOVLW  06
4CD0:  MOVWF  FEA
4CD2:  MOVLW  17
4CD4:  MOVWF  FE9
4CD6:  MOVFF  FF2,637
4CDA:  BCF    FF2.7
4CDC:  MOVLW  00
4CDE:  CALL   094C
4CE2:  TBLRD*-
4CE4:  TBLRD*+
4CE6:  MOVF   FF5,W
4CE8:  MOVWF  FEE
4CEA:  IORLW  00
4CEC:  BNZ   4CE4
4CEE:  MOVLB  6
4CF0:  BTFSC  x37.7
4CF2:  BSF    FF2.7
....................          displayMenu(Menus.Letra,60,42,2,2);            
4CF4:  MOVLW  06
4CF6:  MOVWF  x38
4CF8:  MOVLW  17
4CFA:  MOVWF  x37
4CFC:  MOVLW  3C
4CFE:  MOVWF  x39
4D00:  MOVLW  2A
4D02:  MOVWF  x3A
4D04:  MOVLW  02
4D06:  MOVWF  x3B
4D08:  MOVWF  x3C
4D0A:  MOVLB  0
4D0C:  CALL   1442
....................        
....................          if(UP)//Si oprime hacia arriba 
4D10:  BSF    F92.5
4D12:  BTFSS  F80.5
4D14:  BRA    4D56
....................          {   
....................             if(Testerilizacionp[unidad-1]<9) 
4D16:  MOVLW  01
4D18:  MOVLB  5
4D1A:  SUBWF  x95,W
4D1C:  CLRF   03
4D1E:  ADDLW  BB
4D20:  MOVWF  FE9
4D22:  MOVLW  05
4D24:  ADDWFC 03,W
4D26:  MOVWF  FEA
4D28:  BTFSC  FEF.7
4D2A:  BRA    4D32
4D2C:  MOVF   FEF,W
4D2E:  SUBLW  08
4D30:  BNC   4D54
....................             { 
....................                delay_ms(30);Testerilizacionp[unidad-1]++;visual=1; 
4D32:  MOVLW  1E
4D34:  MOVLB  6
4D36:  MOVWF  x3D
4D38:  MOVLB  0
4D3A:  CALL   0CFA
4D3E:  MOVLW  01
4D40:  MOVLB  5
4D42:  SUBWF  x95,W
4D44:  CLRF   03
4D46:  ADDLW  BB
4D48:  MOVWF  FE9
4D4A:  MOVLW  05
4D4C:  ADDWFC 03,W
4D4E:  MOVWF  FEA
4D50:  INCF   FEF,F
4D52:  BSF    x8F.3
4D54:  MOVLB  0
....................             } 
....................          } 
....................                 
....................          if(DOWN)//Si oprime hacia abajo 
4D56:  BSF    F96.0
4D58:  BTFSS  F84.0
4D5A:  BRA    4D9C
....................          {   
....................             if(Testerilizacionp[unidad-1]>0) 
4D5C:  MOVLW  01
4D5E:  MOVLB  5
4D60:  SUBWF  x95,W
4D62:  CLRF   03
4D64:  ADDLW  BB
4D66:  MOVWF  FE9
4D68:  MOVLW  05
4D6A:  ADDWFC 03,W
4D6C:  MOVWF  FEA
4D6E:  BTFSC  FEF.7
4D70:  BRA    4D9A
4D72:  MOVF   FEF,W
4D74:  SUBLW  00
4D76:  BC    4D9A
....................             { 
....................                delay_ms(30);Testerilizacionp[unidad-1]--;visual=1;      
4D78:  MOVLW  1E
4D7A:  MOVLB  6
4D7C:  MOVWF  x3D
4D7E:  MOVLB  0
4D80:  CALL   0CFA
4D84:  MOVLW  01
4D86:  MOVLB  5
4D88:  SUBWF  x95,W
4D8A:  CLRF   03
4D8C:  ADDLW  BB
4D8E:  MOVWF  FE9
4D90:  MOVLW  05
4D92:  ADDWFC 03,W
4D94:  MOVWF  FEA
4D96:  DECF   FEF,F
4D98:  BSF    x8F.3
4D9A:  MOVLB  0
....................             } 
....................          } 
....................                 
....................          if(RIGHT)//Si oprime SET 
4D9C:  BSF    F96.1
4D9E:  BTFSS  F84.1
4DA0:  BRA    4DB6
....................          {   
....................             delay_ms(30);unidad--;visual=1; 
4DA2:  MOVLW  1E
4DA4:  MOVLB  6
4DA6:  MOVWF  x3D
4DA8:  MOVLB  0
4DAA:  CALL   0CFA
4DAE:  MOVLB  5
4DB0:  DECF   x95,F
4DB2:  BSF    x8F.3
4DB4:  MOVLB  0
....................          }  
....................                    
....................          if(LEFT)//Si oprime boton de Toma. 
4DB6:  BSF    F96.2
4DB8:  BTFSS  F84.2
4DBA:  BRA    4EC0
....................          { 
....................             delay_ms(700);Menu=1;glcd_fillscreen(OFF);Opcion=1;visual=1; 
4DBC:  MOVLW  04
4DBE:  MOVLB  6
4DC0:  MOVWF  x37
4DC2:  MOVLW  AF
4DC4:  MOVWF  x3D
4DC6:  MOVLB  0
4DC8:  CALL   0CFA
4DCC:  MOVLB  6
4DCE:  DECFSZ x37,F
4DD0:  BRA    4DC2
4DD2:  MOVLW  01
4DD4:  MOVLB  5
4DD6:  MOVWF  x94
4DD8:  MOVLB  6
4DDA:  CLRF   x38
4DDC:  MOVLB  0
4DDE:  CALL   0E14
4DE2:  MOVLW  01
4DE4:  MOVLB  5
4DE6:  MOVWF  x9A
4DE8:  BSF    x8F.3
....................             write_eeprom(0,Testerilizacionp[0]); 
4DEA:  CLRF   FA9
4DEC:  MOVFF  5BB,FA8
4DF0:  BCF    FA6.6
4DF2:  BCF    FA6.7
4DF4:  BSF    FA6.2
4DF6:  MOVF   FF2,W
4DF8:  MOVWF  00
4DFA:  BCF    FF2.7
4DFC:  MOVLB  F
4DFE:  MOVLW  55
4E00:  MOVWF  FA7
4E02:  MOVLW  AA
4E04:  MOVWF  FA7
4E06:  BSF    FA6.1
4E08:  BTFSC  FA6.1
4E0A:  BRA    4E08
4E0C:  BCF    FA6.2
4E0E:  MOVF   00,W
4E10:  IORWF  FF2,F
....................             delay_ms(50);    
4E12:  MOVLW  32
4E14:  MOVLB  6
4E16:  MOVWF  x3D
4E18:  MOVLB  0
4E1A:  CALL   0CFA
....................             write_eeprom(1,Testerilizacionp[1]); 
4E1E:  MOVLW  01
4E20:  MOVWF  FA9
4E22:  MOVFF  5BC,FA8
4E26:  BCF    FA6.6
4E28:  BCF    FA6.7
4E2A:  BSF    FA6.2
4E2C:  MOVF   FF2,W
4E2E:  MOVWF  00
4E30:  BCF    FF2.7
4E32:  MOVLB  F
4E34:  MOVLW  55
4E36:  MOVWF  FA7
4E38:  MOVLW  AA
4E3A:  MOVWF  FA7
4E3C:  BSF    FA6.1
4E3E:  BTFSC  FA6.1
4E40:  BRA    4E3E
4E42:  BCF    FA6.2
4E44:  MOVF   00,W
4E46:  IORWF  FF2,F
....................             delay_ms(50);    
4E48:  MOVLW  32
4E4A:  MOVLB  6
4E4C:  MOVWF  x3D
4E4E:  MOVLB  0
4E50:  CALL   0CFA
....................             write_eeprom(2,Testerilizacionp[2]); 
4E54:  MOVLW  02
4E56:  MOVWF  FA9
4E58:  MOVFF  5BD,FA8
4E5C:  BCF    FA6.6
4E5E:  BCF    FA6.7
4E60:  BSF    FA6.2
4E62:  MOVF   FF2,W
4E64:  MOVWF  00
4E66:  BCF    FF2.7
4E68:  MOVLB  F
4E6A:  MOVLW  55
4E6C:  MOVWF  FA7
4E6E:  MOVLW  AA
4E70:  MOVWF  FA7
4E72:  BSF    FA6.1
4E74:  BTFSC  FA6.1
4E76:  BRA    4E74
4E78:  BCF    FA6.2
4E7A:  MOVF   00,W
4E7C:  IORWF  FF2,F
....................             delay_ms(50);    
4E7E:  MOVLW  32
4E80:  MOVLB  6
4E82:  MOVWF  x3D
4E84:  MOVLB  0
4E86:  CALL   0CFA
....................             write_eeprom(3,Testerilizacionp[3]); 
4E8A:  MOVLW  03
4E8C:  MOVWF  FA9
4E8E:  MOVFF  5BE,FA8
4E92:  BCF    FA6.6
4E94:  BCF    FA6.7
4E96:  BSF    FA6.2
4E98:  MOVF   FF2,W
4E9A:  MOVWF  00
4E9C:  BCF    FF2.7
4E9E:  MOVLB  F
4EA0:  MOVLW  55
4EA2:  MOVWF  FA7
4EA4:  MOVLW  AA
4EA6:  MOVWF  FA7
4EA8:  BSF    FA6.1
4EAA:  BTFSC  FA6.1
4EAC:  BRA    4EAA
4EAE:  BCF    FA6.2
4EB0:  MOVF   00,W
4EB2:  IORWF  FF2,F
....................             delay_ms(50);    
4EB4:  MOVLW  32
4EB6:  MOVLB  6
4EB8:  MOVWF  x3D
4EBA:  MOVLB  0
4EBC:  CALL   0CFA
4EC0:  MOVLB  5
....................          } 
....................      } 
.................... //_--------------------------------------------------------------------------------------------------------------------------------------------------------     
....................  
....................  
.................... //_--------------------------------------------------------------------------------------------------------------------------------------------------------       
....................       if(Menu==7){ // Menu de Cambio de Contrasea 
4EC2:  MOVF   x94,W
4EC4:  SUBLW  07
4EC6:  BTFSS  FD8.2
4EC8:  BRA    537E
....................          
....................       strcpy(Menus.Letra,"Clave"); 
4ECA:  MOVLW  06
4ECC:  MOVWF  FEA
4ECE:  MOVLW  17
4ED0:  MOVWF  FE9
4ED2:  MOVFF  FF2,637
4ED6:  BCF    FF2.7
4ED8:  MOVLW  00
4EDA:  MOVLB  0
4EDC:  CALL   0782
4EE0:  TBLRD*-
4EE2:  TBLRD*+
4EE4:  MOVF   FF5,W
4EE6:  MOVWF  FEE
4EE8:  IORLW  00
4EEA:  BNZ   4EE2
4EEC:  MOVLB  6
4EEE:  BTFSC  x37.7
4EF0:  BSF    FF2.7
....................       displayMenu(Menus.Letra,30,0,1,2);      
4EF2:  MOVLW  06
4EF4:  MOVWF  x38
4EF6:  MOVLW  17
4EF8:  MOVWF  x37
4EFA:  MOVLW  1E
4EFC:  MOVWF  x39
4EFE:  CLRF   x3A
4F00:  MOVLW  01
4F02:  MOVWF  x3B
4F04:  MOVLW  02
4F06:  MOVWF  x3C
4F08:  MOVLB  0
4F0A:  CALL   1442
....................        
....................       if(unidad==1) 
4F0E:  MOVLB  5
4F10:  DECFSZ x95,W
4F12:  BRA    4F72
....................       { 
....................          displayContrasena(Contrasena[0],20,30,1); 
4F14:  MOVFF  5BF,639
4F18:  MOVLW  14
4F1A:  MOVLB  6
4F1C:  MOVWF  x3A
4F1E:  MOVLW  1E
4F20:  MOVWF  x3B
4F22:  MOVLW  01
4F24:  MOVWF  x3C
4F26:  MOVLB  0
4F28:  CALL   1668
....................          displayContrasena(Contrasena[1],40,30,0); 
4F2C:  MOVFF  5C0,639
4F30:  MOVLW  28
4F32:  MOVLB  6
4F34:  MOVWF  x3A
4F36:  MOVLW  1E
4F38:  MOVWF  x3B
4F3A:  CLRF   x3C
4F3C:  MOVLB  0
4F3E:  CALL   1668
....................          displayContrasena(Contrasena[2],60,30,0); 
4F42:  MOVFF  5C1,639
4F46:  MOVLW  3C
4F48:  MOVLB  6
4F4A:  MOVWF  x3A
4F4C:  MOVLW  1E
4F4E:  MOVWF  x3B
4F50:  CLRF   x3C
4F52:  MOVLB  0
4F54:  CALL   1668
....................          displayContrasena(Contrasena[3],80,30,0); 
4F58:  MOVFF  5C2,639
4F5C:  MOVLW  50
4F5E:  MOVLB  6
4F60:  MOVWF  x3A
4F62:  MOVLW  1E
4F64:  MOVWF  x3B
4F66:  CLRF   x3C
4F68:  MOVLB  0
4F6A:  CALL   1668
....................       } 
....................       else 
4F6E:  BRA    509A
4F70:  MOVLB  5
....................       { 
....................          if(unidad==2) 
4F72:  MOVF   x95,W
4F74:  SUBLW  02
4F76:  BNZ   4FD6
....................          { 
....................             displayContrasena(Contrasena[0],20,30,0); 
4F78:  MOVFF  5BF,639
4F7C:  MOVLW  14
4F7E:  MOVLB  6
4F80:  MOVWF  x3A
4F82:  MOVLW  1E
4F84:  MOVWF  x3B
4F86:  CLRF   x3C
4F88:  MOVLB  0
4F8A:  CALL   1668
....................             displayContrasena(Contrasena[1],40,30,1); 
4F8E:  MOVFF  5C0,639
4F92:  MOVLW  28
4F94:  MOVLB  6
4F96:  MOVWF  x3A
4F98:  MOVLW  1E
4F9A:  MOVWF  x3B
4F9C:  MOVLW  01
4F9E:  MOVWF  x3C
4FA0:  MOVLB  0
4FA2:  CALL   1668
....................             displayContrasena(Contrasena[2],60,30,0); 
4FA6:  MOVFF  5C1,639
4FAA:  MOVLW  3C
4FAC:  MOVLB  6
4FAE:  MOVWF  x3A
4FB0:  MOVLW  1E
4FB2:  MOVWF  x3B
4FB4:  CLRF   x3C
4FB6:  MOVLB  0
4FB8:  CALL   1668
....................             displayContrasena(Contrasena[3],80,30,0); 
4FBC:  MOVFF  5C2,639
4FC0:  MOVLW  50
4FC2:  MOVLB  6
4FC4:  MOVWF  x3A
4FC6:  MOVLW  1E
4FC8:  MOVWF  x3B
4FCA:  CLRF   x3C
4FCC:  MOVLB  0
4FCE:  CALL   1668
....................          } 
....................          else 
4FD2:  BRA    509A
4FD4:  MOVLB  5
....................          { 
....................             if(unidad==3) 
4FD6:  MOVF   x95,W
4FD8:  SUBLW  03
4FDA:  BNZ   503A
....................             { 
....................                displayContrasena(Contrasena[0],20,30,0); 
4FDC:  MOVFF  5BF,639
4FE0:  MOVLW  14
4FE2:  MOVLB  6
4FE4:  MOVWF  x3A
4FE6:  MOVLW  1E
4FE8:  MOVWF  x3B
4FEA:  CLRF   x3C
4FEC:  MOVLB  0
4FEE:  CALL   1668
....................                displayContrasena(Contrasena[1],40,30,0); 
4FF2:  MOVFF  5C0,639
4FF6:  MOVLW  28
4FF8:  MOVLB  6
4FFA:  MOVWF  x3A
4FFC:  MOVLW  1E
4FFE:  MOVWF  x3B
5000:  CLRF   x3C
5002:  MOVLB  0
5004:  CALL   1668
....................                displayContrasena(Contrasena[2],60,30,1); 
5008:  MOVFF  5C1,639
500C:  MOVLW  3C
500E:  MOVLB  6
5010:  MOVWF  x3A
5012:  MOVLW  1E
5014:  MOVWF  x3B
5016:  MOVLW  01
5018:  MOVWF  x3C
501A:  MOVLB  0
501C:  CALL   1668
....................                displayContrasena(Contrasena[3],80,30,0); 
5020:  MOVFF  5C2,639
5024:  MOVLW  50
5026:  MOVLB  6
5028:  MOVWF  x3A
502A:  MOVLW  1E
502C:  MOVWF  x3B
502E:  CLRF   x3C
5030:  MOVLB  0
5032:  CALL   1668
....................             } 
....................             else 
5036:  BRA    509A
5038:  MOVLB  5
....................             { 
....................                if(unidad==4) 
503A:  MOVF   x95,W
503C:  SUBLW  04
503E:  BNZ   509C
....................                { 
....................                   displayContrasena(Contrasena[0],20,30,0); 
5040:  MOVFF  5BF,639
5044:  MOVLW  14
5046:  MOVLB  6
5048:  MOVWF  x3A
504A:  MOVLW  1E
504C:  MOVWF  x3B
504E:  CLRF   x3C
5050:  MOVLB  0
5052:  CALL   1668
....................                   displayContrasena(Contrasena[1],40,30,0); 
5056:  MOVFF  5C0,639
505A:  MOVLW  28
505C:  MOVLB  6
505E:  MOVWF  x3A
5060:  MOVLW  1E
5062:  MOVWF  x3B
5064:  CLRF   x3C
5066:  MOVLB  0
5068:  CALL   1668
....................                   displayContrasena(Contrasena[2],60,30,0); 
506C:  MOVFF  5C1,639
5070:  MOVLW  3C
5072:  MOVLB  6
5074:  MOVWF  x3A
5076:  MOVLW  1E
5078:  MOVWF  x3B
507A:  CLRF   x3C
507C:  MOVLB  0
507E:  CALL   1668
....................                   displayContrasena(Contrasena[3],80,30,1); 
5082:  MOVFF  5C2,639
5086:  MOVLW  50
5088:  MOVLB  6
508A:  MOVWF  x3A
508C:  MOVLW  1E
508E:  MOVWF  x3B
5090:  MOVLW  01
5092:  MOVWF  x3C
5094:  MOVLB  0
5096:  CALL   1668
509A:  MOVLB  5
....................                } 
....................             } 
....................          } 
....................       } 
....................        
....................       if(UP)//Si oprime hacia arriba 
509C:  BSF    F92.5
509E:  BTFSS  F80.5
50A0:  BRA    510A
....................       { 
....................          if(Flanco == 0) 
50A2:  BTFSC  x8F.0
50A4:  BRA    5108
....................          { 
....................             Flanco = 1;delay_ms(30); 
50A6:  BSF    x8F.0
50A8:  MOVLW  1E
50AA:  MOVLB  6
50AC:  MOVWF  x3D
50AE:  MOVLB  0
50B0:  CALL   0CFA
....................             for(i=1;i<=4;i++) 
50B4:  MOVLW  01
50B6:  MOVLB  5
50B8:  MOVWF  x96
50BA:  MOVF   x96,W
50BC:  SUBLW  04
50BE:  BNC   5108
....................             { 
....................                if(unidad==i) 
50C0:  MOVF   x96,W
50C2:  SUBWF  x95,W
50C4:  BNZ   5104
....................                { 
....................                   Contrasena[i-1]++; 
50C6:  MOVLW  01
50C8:  SUBWF  x96,W
50CA:  CLRF   03
50CC:  ADDLW  BF
50CE:  MOVWF  FE9
50D0:  MOVLW  05
50D2:  ADDWFC 03,W
50D4:  MOVWF  FEA
50D6:  INCF   FEF,F
....................                   if(Contrasena[i-1]>9)    
50D8:  MOVLW  01
50DA:  SUBWF  x96,W
50DC:  CLRF   03
50DE:  ADDLW  BF
50E0:  MOVWF  FE9
50E2:  MOVLW  05
50E4:  ADDWFC 03,W
50E6:  MOVWF  FEA
50E8:  BTFSC  FEF.7
50EA:  BRA    5104
50EC:  MOVF   FEF,W
50EE:  SUBLW  09
50F0:  BC    5104
....................                   { 
....................                      Contrasena[i-1]=0; 
50F2:  MOVLW  01
50F4:  SUBWF  x96,W
50F6:  CLRF   03
50F8:  ADDLW  BF
50FA:  MOVWF  FE9
50FC:  MOVLW  05
50FE:  ADDWFC 03,W
5100:  MOVWF  FEA
5102:  CLRF   FEF
....................                   } 
....................                } 
....................             } 
5104:  INCF   x96,F
5106:  BRA    50BA
....................          } 
....................       } 
....................       else 
5108:  BRA    510C
....................       { 
....................          Flanco = 0; 
510A:  BCF    x8F.0
....................       } 
....................              
....................       if(DOWN)//Si oprime hacia abajo 
510C:  BSF    F96.0
510E:  BTFSS  F84.0
5110:  BRA    5178
....................       { 
....................          if(Flanco2 == 0) 
5112:  BTFSC  x8F.2
5114:  BRA    5176
....................             {Flanco2 = 1;delay_ms(30); 
5116:  BSF    x8F.2
5118:  MOVLW  1E
511A:  MOVLB  6
511C:  MOVWF  x3D
511E:  MOVLB  0
5120:  CALL   0CFA
....................                for(i=1;i<=4;i++) 
5124:  MOVLW  01
5126:  MOVLB  5
5128:  MOVWF  x96
512A:  MOVF   x96,W
512C:  SUBLW  04
512E:  BNC   5176
....................                { 
....................                   if(unidad==i) 
5130:  MOVF   x96,W
5132:  SUBWF  x95,W
5134:  BNZ   5172
....................                   {Contrasena[i-1]--;  
5136:  MOVLW  01
5138:  SUBWF  x96,W
513A:  CLRF   03
513C:  ADDLW  BF
513E:  MOVWF  FE9
5140:  MOVLW  05
5142:  ADDWFC 03,W
5144:  MOVWF  FEA
5146:  DECF   FEF,F
....................                      if(Contrasena[i-1]<0) 
5148:  MOVLW  01
514A:  SUBWF  x96,W
514C:  CLRF   03
514E:  ADDLW  BF
5150:  MOVWF  FE9
5152:  MOVLW  05
5154:  ADDWFC 03,W
5156:  MOVWF  FEA
5158:  BTFSC  FEF.7
515A:  BRA    515E
515C:  BRA    5172
....................                         {Contrasena[i-1]=9;} 
515E:  MOVLW  01
5160:  SUBWF  x96,W
5162:  CLRF   03
5164:  ADDLW  BF
5166:  MOVWF  FE9
5168:  MOVLW  05
516A:  ADDWFC 03,W
516C:  MOVWF  FEA
516E:  MOVLW  09
5170:  MOVWF  FEF
....................                   } 
....................                }       
5172:  INCF   x96,F
5174:  BRA    512A
....................             }      
....................       } 
....................       else 
5176:  BRA    517A
....................       { 
....................          Flanco2 = 0; 
5178:  BCF    x8F.2
....................       } 
....................              
....................       if(RIGHT)//Si oprime RIGHT 
517A:  BSF    F96.1
517C:  BTFSS  F84.1
517E:  BRA    51A2
....................       { 
....................          if(Flanco1 == 0) 
5180:  BTFSC  x8F.1
5182:  BRA    51A0
....................             {Flanco1 = 1;delay_ms(300);unidad++;} 
5184:  BSF    x8F.1
5186:  MOVLW  02
5188:  MOVLB  6
518A:  MOVWF  x37
518C:  MOVLW  96
518E:  MOVWF  x3D
5190:  MOVLB  0
5192:  CALL   0CFA
5196:  MOVLB  6
5198:  DECFSZ x37,F
519A:  BRA    518C
519C:  MOVLB  5
519E:  INCF   x95,F
....................       } 
....................       else 
51A0:  BRA    51A4
....................       { 
....................          Flanco1 = 0; 
51A2:  BCF    x8F.1
....................       } 
....................        
....................       if(LEFT)//Si oprime Izquierda 
51A4:  BSF    F96.2
51A6:  BTFSS  F84.2
51A8:  BRA    51D2
....................       { 
....................          delay_ms(700);Menu=1;glcd_fillscreen(OFF); 
51AA:  MOVLW  04
51AC:  MOVLB  6
51AE:  MOVWF  x37
51B0:  MOVLW  AF
51B2:  MOVWF  x3D
51B4:  MOVLB  0
51B6:  CALL   0CFA
51BA:  MOVLB  6
51BC:  DECFSZ x37,F
51BE:  BRA    51B0
51C0:  MOVLW  01
51C2:  MOVLB  5
51C4:  MOVWF  x94
51C6:  MOVLB  6
51C8:  CLRF   x38
51CA:  MOVLB  0
51CC:  CALL   0E14
51D0:  MOVLB  5
....................       } 
....................        
....................       if(unidad>4) 
51D2:  MOVF   x95,W
51D4:  SUBLW  04
51D6:  BTFSC  FD8.0
51D8:  BRA    537E
....................       {glcd_fillScreen(OFF); 
51DA:  MOVLB  6
51DC:  CLRF   x38
51DE:  MOVLB  0
51E0:  CALL   0E14
....................           
....................          if((Contrasena[0]==Password[0])&&(Contrasena[1]==Password[1])&&(Contrasena[2]==Password[2])&&(Contrasena[3]==Password[3])) 
51E4:  MOVLB  5
51E6:  MOVF   xC3,W
51E8:  SUBWF  xBF,W
51EA:  BNZ   52BC
51EC:  MOVF   xC4,W
51EE:  SUBWF  xC0,W
51F0:  BNZ   52BC
51F2:  MOVF   xC5,W
51F4:  SUBWF  xC1,W
51F6:  BNZ   52BC
51F8:  MOVF   xC6,W
51FA:  SUBWF  xC2,W
51FC:  BNZ   52BC
....................          { 
....................             glcd_fillScreen(OFF); 
51FE:  MOVLB  6
5200:  CLRF   x38
5202:  MOVLB  0
5204:  CALL   0E14
....................             strcpy(Menus.Letra,"Clave"); 
5208:  MOVLW  06
520A:  MOVWF  FEA
520C:  MOVLW  17
520E:  MOVWF  FE9
5210:  MOVFF  FF2,637
5214:  BCF    FF2.7
5216:  MOVLW  00
5218:  CALL   0782
521C:  TBLRD*-
521E:  TBLRD*+
5220:  MOVF   FF5,W
5222:  MOVWF  FEE
5224:  IORLW  00
5226:  BNZ   521E
5228:  MOVLB  6
522A:  BTFSC  x37.7
522C:  BSF    FF2.7
....................             displayMenu(Menus.Letra,30,0,0,2); 
522E:  MOVLW  06
5230:  MOVWF  x38
5232:  MOVLW  17
5234:  MOVWF  x37
5236:  MOVLW  1E
5238:  MOVWF  x39
523A:  CLRF   x3A
523C:  CLRF   x3B
523E:  MOVLW  02
5240:  MOVWF  x3C
5242:  MOVLB  0
5244:  CALL   1442
....................             strcpy(Menus.Letra,"Correcta"); 
5248:  MOVLW  06
524A:  MOVWF  FEA
524C:  MOVLW  17
524E:  MOVWF  FE9
5250:  MOVFF  FF2,637
5254:  BCF    FF2.7
5256:  MOVLW  00
5258:  CALL   07A2
525C:  TBLRD*-
525E:  TBLRD*+
5260:  MOVF   FF5,W
5262:  MOVWF  FEE
5264:  IORLW  00
5266:  BNZ   525E
5268:  MOVLB  6
526A:  BTFSC  x37.7
526C:  BSF    FF2.7
....................             displayMenu(Menus.Letra,15,30,0,2); 
526E:  MOVLW  06
5270:  MOVWF  x38
5272:  MOVLW  17
5274:  MOVWF  x37
5276:  MOVLW  0F
5278:  MOVWF  x39
527A:  MOVLW  1E
527C:  MOVWF  x3A
527E:  CLRF   x3B
5280:  MOVLW  02
5282:  MOVWF  x3C
5284:  MOVLB  0
5286:  CALL   1442
....................             Menu=91;glcd_update();delay_ms(1000); 
528A:  MOVLW  5B
528C:  MOVLB  5
528E:  MOVWF  x94
5290:  MOVLB  0
5292:  CALL   0E6E
5296:  MOVLW  04
5298:  MOVLB  6
529A:  MOVWF  x37
529C:  MOVLW  FA
529E:  MOVWF  x3D
52A0:  MOVLB  0
52A2:  CALL   0CFA
52A6:  MOVLB  6
52A8:  DECFSZ x37,F
52AA:  BRA    529C
....................             glcd_fillScreen(OFF);unidad=1; 
52AC:  CLRF   x38
52AE:  MOVLB  0
52B0:  CALL   0E14
52B4:  MOVLW  01
52B6:  MOVLB  5
52B8:  MOVWF  x95
....................          }// Esta parte se puede agregar en el Menu 1 dependiendo de la ubicacin del vidrio. 
....................          else 
52BA:  BRA    537E
....................          { 
....................             glcd_fillScreen(OFF); 
52BC:  MOVLB  6
52BE:  CLRF   x38
52C0:  MOVLB  0
52C2:  CALL   0E14
....................             strcpy(Menus.Letra,"Clave"); 
52C6:  MOVLW  06
52C8:  MOVWF  FEA
52CA:  MOVLW  17
52CC:  MOVWF  FE9
52CE:  MOVFF  FF2,637
52D2:  BCF    FF2.7
52D4:  MOVLW  00
52D6:  CALL   0782
52DA:  TBLRD*-
52DC:  TBLRD*+
52DE:  MOVF   FF5,W
52E0:  MOVWF  FEE
52E2:  IORLW  00
52E4:  BNZ   52DC
52E6:  MOVLB  6
52E8:  BTFSC  x37.7
52EA:  BSF    FF2.7
....................             displayMenu(Menus.Letra,30,0,0,2); 
52EC:  MOVLW  06
52EE:  MOVWF  x38
52F0:  MOVLW  17
52F2:  MOVWF  x37
52F4:  MOVLW  1E
52F6:  MOVWF  x39
52F8:  CLRF   x3A
52FA:  CLRF   x3B
52FC:  MOVLW  02
52FE:  MOVWF  x3C
5300:  MOVLB  0
5302:  CALL   1442
....................             strcpy(Menus.Letra,"Incorrecta"); 
5306:  MOVLW  06
5308:  MOVWF  FEA
530A:  MOVLW  17
530C:  MOVWF  FE9
530E:  MOVFF  FF2,637
5312:  BCF    FF2.7
5314:  MOVLW  00
5316:  CALL   07C6
531A:  TBLRD*-
531C:  TBLRD*+
531E:  MOVF   FF5,W
5320:  MOVWF  FEE
5322:  IORLW  00
5324:  BNZ   531C
5326:  MOVLB  6
5328:  BTFSC  x37.7
532A:  BSF    FF2.7
....................             displayMenu(Menus.Letra,0,30,0,2); 
532C:  MOVLW  06
532E:  MOVWF  x38
5330:  MOVLW  17
5332:  MOVWF  x37
5334:  CLRF   x39
5336:  MOVLW  1E
5338:  MOVWF  x3A
533A:  CLRF   x3B
533C:  MOVLW  02
533E:  MOVWF  x3C
5340:  MOVLB  0
5342:  CALL   1442
....................             Menu=1;glcd_update();delay_ms(1000); 
5346:  MOVLW  01
5348:  MOVLB  5
534A:  MOVWF  x94
534C:  MOVLB  0
534E:  CALL   0E6E
5352:  MOVLW  04
5354:  MOVLB  6
5356:  MOVWF  x37
5358:  MOVLW  FA
535A:  MOVWF  x3D
535C:  MOVLB  0
535E:  CALL   0CFA
5362:  MOVLB  6
5364:  DECFSZ x37,F
5366:  BRA    5358
....................             glcd_fillScreen(OFF);unidad=1; 
5368:  CLRF   x38
536A:  MOVLB  0
536C:  CALL   0E14
5370:  MOVLW  01
5372:  MOVLB  5
5374:  MOVWF  x95
....................             Contrasena[0]=0;Contrasena[1]=0;Contrasena[2]=0;Contrasena[3]=0; 
5376:  CLRF   xBF
5378:  CLRF   xC0
537A:  CLRF   xC1
537C:  CLRF   xC2
....................          } 
....................       } 
....................     }     
.................... //_--------------------------------------------------------------------------------------------------------------------------------------------------------     
....................  
.................... //_--------------------------------------------------------------------------------------------------------------------------------------------------------       
....................       if(Menu==91){ // Menu de Cambio de Contrasea 
537E:  MOVF   x94,W
5380:  SUBLW  5B
5382:  BTFSS  FD8.2
5384:  BRA    578A
....................          
....................       strcpy(Menus.Letra,"Clave Nueva"); 
5386:  MOVLW  06
5388:  MOVWF  FEA
538A:  MOVLW  17
538C:  MOVWF  FE9
538E:  MOVFF  FF2,637
5392:  BCF    FF2.7
5394:  MOVLW  00
5396:  MOVLB  0
5398:  CALL   0968
539C:  TBLRD*-
539E:  TBLRD*+
53A0:  MOVF   FF5,W
53A2:  MOVWF  FEE
53A4:  IORLW  00
53A6:  BNZ   539E
53A8:  MOVLB  6
53AA:  BTFSC  x37.7
53AC:  BSF    FF2.7
....................       displayMenu(Menus.Letra,0,0,1,2);      
53AE:  MOVLW  06
53B0:  MOVWF  x38
53B2:  MOVLW  17
53B4:  MOVWF  x37
53B6:  CLRF   x39
53B8:  CLRF   x3A
53BA:  MOVLW  01
53BC:  MOVWF  x3B
53BE:  MOVLW  02
53C0:  MOVWF  x3C
53C2:  MOVLB  0
53C4:  CALL   1442
....................        
....................       if(unidad==1) 
53C8:  MOVLB  5
53CA:  DECFSZ x95,W
53CC:  BRA    542C
....................       { 
....................          displayContrasena(Password[0],20,30,1); 
53CE:  MOVFF  5C3,639
53D2:  MOVLW  14
53D4:  MOVLB  6
53D6:  MOVWF  x3A
53D8:  MOVLW  1E
53DA:  MOVWF  x3B
53DC:  MOVLW  01
53DE:  MOVWF  x3C
53E0:  MOVLB  0
53E2:  CALL   1668
....................          displayContrasena(Password[1],40,30,0); 
53E6:  MOVFF  5C4,639
53EA:  MOVLW  28
53EC:  MOVLB  6
53EE:  MOVWF  x3A
53F0:  MOVLW  1E
53F2:  MOVWF  x3B
53F4:  CLRF   x3C
53F6:  MOVLB  0
53F8:  CALL   1668
....................          displayContrasena(Password[2],60,30,0); 
53FC:  MOVFF  5C5,639
5400:  MOVLW  3C
5402:  MOVLB  6
5404:  MOVWF  x3A
5406:  MOVLW  1E
5408:  MOVWF  x3B
540A:  CLRF   x3C
540C:  MOVLB  0
540E:  CALL   1668
....................          displayContrasena(Password[3],80,30,0); 
5412:  MOVFF  5C6,639
5416:  MOVLW  50
5418:  MOVLB  6
541A:  MOVWF  x3A
541C:  MOVLW  1E
541E:  MOVWF  x3B
5420:  CLRF   x3C
5422:  MOVLB  0
5424:  CALL   1668
....................       } 
....................       else 
5428:  BRA    5554
542A:  MOVLB  5
....................       { 
....................          if(unidad==2) 
542C:  MOVF   x95,W
542E:  SUBLW  02
5430:  BNZ   5490
....................          { 
....................             displayContrasena(Password[0],20,30,0); 
5432:  MOVFF  5C3,639
5436:  MOVLW  14
5438:  MOVLB  6
543A:  MOVWF  x3A
543C:  MOVLW  1E
543E:  MOVWF  x3B
5440:  CLRF   x3C
5442:  MOVLB  0
5444:  CALL   1668
....................             displayContrasena(Password[1],40,30,1); 
5448:  MOVFF  5C4,639
544C:  MOVLW  28
544E:  MOVLB  6
5450:  MOVWF  x3A
5452:  MOVLW  1E
5454:  MOVWF  x3B
5456:  MOVLW  01
5458:  MOVWF  x3C
545A:  MOVLB  0
545C:  CALL   1668
....................             displayContrasena(Password[2],60,30,0); 
5460:  MOVFF  5C5,639
5464:  MOVLW  3C
5466:  MOVLB  6
5468:  MOVWF  x3A
546A:  MOVLW  1E
546C:  MOVWF  x3B
546E:  CLRF   x3C
5470:  MOVLB  0
5472:  CALL   1668
....................             displayContrasena(Password[3],80,30,0); 
5476:  MOVFF  5C6,639
547A:  MOVLW  50
547C:  MOVLB  6
547E:  MOVWF  x3A
5480:  MOVLW  1E
5482:  MOVWF  x3B
5484:  CLRF   x3C
5486:  MOVLB  0
5488:  CALL   1668
....................          } 
....................          else 
548C:  BRA    5554
548E:  MOVLB  5
....................          { 
....................             if(unidad==3) 
5490:  MOVF   x95,W
5492:  SUBLW  03
5494:  BNZ   54F4
....................             { 
....................                displayContrasena(Password[0],20,30,0); 
5496:  MOVFF  5C3,639
549A:  MOVLW  14
549C:  MOVLB  6
549E:  MOVWF  x3A
54A0:  MOVLW  1E
54A2:  MOVWF  x3B
54A4:  CLRF   x3C
54A6:  MOVLB  0
54A8:  CALL   1668
....................                displayContrasena(Password[1],40,30,0); 
54AC:  MOVFF  5C4,639
54B0:  MOVLW  28
54B2:  MOVLB  6
54B4:  MOVWF  x3A
54B6:  MOVLW  1E
54B8:  MOVWF  x3B
54BA:  CLRF   x3C
54BC:  MOVLB  0
54BE:  CALL   1668
....................                displayContrasena(Password[2],60,30,1); 
54C2:  MOVFF  5C5,639
54C6:  MOVLW  3C
54C8:  MOVLB  6
54CA:  MOVWF  x3A
54CC:  MOVLW  1E
54CE:  MOVWF  x3B
54D0:  MOVLW  01
54D2:  MOVWF  x3C
54D4:  MOVLB  0
54D6:  CALL   1668
....................                displayContrasena(Password[3],80,30,0); 
54DA:  MOVFF  5C6,639
54DE:  MOVLW  50
54E0:  MOVLB  6
54E2:  MOVWF  x3A
54E4:  MOVLW  1E
54E6:  MOVWF  x3B
54E8:  CLRF   x3C
54EA:  MOVLB  0
54EC:  CALL   1668
....................             } 
....................             else 
54F0:  BRA    5554
54F2:  MOVLB  5
....................             { 
....................                if(unidad==4) 
54F4:  MOVF   x95,W
54F6:  SUBLW  04
54F8:  BNZ   5556
....................                { 
....................                   displayContrasena(Password[0],20,30,0); 
54FA:  MOVFF  5C3,639
54FE:  MOVLW  14
5500:  MOVLB  6
5502:  MOVWF  x3A
5504:  MOVLW  1E
5506:  MOVWF  x3B
5508:  CLRF   x3C
550A:  MOVLB  0
550C:  CALL   1668
....................                   displayContrasena(Password[1],40,30,0); 
5510:  MOVFF  5C4,639
5514:  MOVLW  28
5516:  MOVLB  6
5518:  MOVWF  x3A
551A:  MOVLW  1E
551C:  MOVWF  x3B
551E:  CLRF   x3C
5520:  MOVLB  0
5522:  CALL   1668
....................                   displayContrasena(Password[2],60,30,0); 
5526:  MOVFF  5C5,639
552A:  MOVLW  3C
552C:  MOVLB  6
552E:  MOVWF  x3A
5530:  MOVLW  1E
5532:  MOVWF  x3B
5534:  CLRF   x3C
5536:  MOVLB  0
5538:  CALL   1668
....................                   displayContrasena(Password[3],80,30,1); 
553C:  MOVFF  5C6,639
5540:  MOVLW  50
5542:  MOVLB  6
5544:  MOVWF  x3A
5546:  MOVLW  1E
5548:  MOVWF  x3B
554A:  MOVLW  01
554C:  MOVWF  x3C
554E:  MOVLB  0
5550:  CALL   1668
5554:  MOVLB  5
....................                } 
....................             } 
....................          } 
....................       } 
....................        
....................       if(UP)//Si oprime hacia arriba 
5556:  BSF    F92.5
5558:  BTFSS  F80.5
555A:  BRA    55C4
....................       { 
....................          if(Flanco == 0) 
555C:  BTFSC  x8F.0
555E:  BRA    55C2
....................          { 
....................             Flanco = 1;delay_ms(30); 
5560:  BSF    x8F.0
5562:  MOVLW  1E
5564:  MOVLB  6
5566:  MOVWF  x3D
5568:  MOVLB  0
556A:  CALL   0CFA
....................             for(i=1;i<=4;i++) 
556E:  MOVLW  01
5570:  MOVLB  5
5572:  MOVWF  x96
5574:  MOVF   x96,W
5576:  SUBLW  04
5578:  BNC   55C2
....................             { 
....................                if(unidad==i) 
557A:  MOVF   x96,W
557C:  SUBWF  x95,W
557E:  BNZ   55BE
....................                { 
....................                   Password[i-1]++; 
5580:  MOVLW  01
5582:  SUBWF  x96,W
5584:  CLRF   03
5586:  ADDLW  C3
5588:  MOVWF  FE9
558A:  MOVLW  05
558C:  ADDWFC 03,W
558E:  MOVWF  FEA
5590:  INCF   FEF,F
....................                   if(Password[i-1]>9)    
5592:  MOVLW  01
5594:  SUBWF  x96,W
5596:  CLRF   03
5598:  ADDLW  C3
559A:  MOVWF  FE9
559C:  MOVLW  05
559E:  ADDWFC 03,W
55A0:  MOVWF  FEA
55A2:  BTFSC  FEF.7
55A4:  BRA    55BE
55A6:  MOVF   FEF,W
55A8:  SUBLW  09
55AA:  BC    55BE
....................                   { 
....................                      Password[i-1]=0; 
55AC:  MOVLW  01
55AE:  SUBWF  x96,W
55B0:  CLRF   03
55B2:  ADDLW  C3
55B4:  MOVWF  FE9
55B6:  MOVLW  05
55B8:  ADDWFC 03,W
55BA:  MOVWF  FEA
55BC:  CLRF   FEF
....................                   } 
....................                } 
....................             } 
55BE:  INCF   x96,F
55C0:  BRA    5574
....................          } 
....................       } 
....................       else 
55C2:  BRA    55C6
....................       { 
....................          Flanco = 0; 
55C4:  BCF    x8F.0
....................       } 
....................              
....................       if(DOWN)//Si oprime hacia abajo 
55C6:  BSF    F96.0
55C8:  BTFSS  F84.0
55CA:  BRA    5632
....................       { 
....................          if(Flanco2 == 0) 
55CC:  BTFSC  x8F.2
55CE:  BRA    5630
....................             {Flanco2 = 1;delay_ms(30); 
55D0:  BSF    x8F.2
55D2:  MOVLW  1E
55D4:  MOVLB  6
55D6:  MOVWF  x3D
55D8:  MOVLB  0
55DA:  CALL   0CFA
....................                for(i=1;i<=4;i++) 
55DE:  MOVLW  01
55E0:  MOVLB  5
55E2:  MOVWF  x96
55E4:  MOVF   x96,W
55E6:  SUBLW  04
55E8:  BNC   5630
....................                { 
....................                   if(unidad==i) 
55EA:  MOVF   x96,W
55EC:  SUBWF  x95,W
55EE:  BNZ   562C
....................                   { 
....................                      Password[i-1]--; 
55F0:  MOVLW  01
55F2:  SUBWF  x96,W
55F4:  CLRF   03
55F6:  ADDLW  C3
55F8:  MOVWF  FE9
55FA:  MOVLW  05
55FC:  ADDWFC 03,W
55FE:  MOVWF  FEA
5600:  DECF   FEF,F
....................                      if(Password[i-1]<0) 
5602:  MOVLW  01
5604:  SUBWF  x96,W
5606:  CLRF   03
5608:  ADDLW  C3
560A:  MOVWF  FE9
560C:  MOVLW  05
560E:  ADDWFC 03,W
5610:  MOVWF  FEA
5612:  BTFSC  FEF.7
5614:  BRA    5618
5616:  BRA    562C
....................                      { 
....................                         Password[i-1]=9; 
5618:  MOVLW  01
561A:  SUBWF  x96,W
561C:  CLRF   03
561E:  ADDLW  C3
5620:  MOVWF  FE9
5622:  MOVLW  05
5624:  ADDWFC 03,W
5626:  MOVWF  FEA
5628:  MOVLW  09
562A:  MOVWF  FEF
....................                      } 
....................                   } 
....................                }       
562C:  INCF   x96,F
562E:  BRA    55E4
....................             }      
....................       } 
....................       else 
5630:  BRA    5634
....................       { 
....................          Flanco2 = 0; 
5632:  BCF    x8F.2
....................       } 
....................              
....................       if(RIGHT)//Si oprime RIGHT 
5634:  BSF    F96.1
5636:  BTFSS  F84.1
5638:  BRA    565C
....................       { 
....................          if(Flanco1 == 0) 
563A:  BTFSC  x8F.1
563C:  BRA    565A
....................             {Flanco1 = 1;delay_ms(300);unidad++;} 
563E:  BSF    x8F.1
5640:  MOVLW  02
5642:  MOVLB  6
5644:  MOVWF  x37
5646:  MOVLW  96
5648:  MOVWF  x3D
564A:  MOVLB  0
564C:  CALL   0CFA
5650:  MOVLB  6
5652:  DECFSZ x37,F
5654:  BRA    5646
5656:  MOVLB  5
5658:  INCF   x95,F
....................       } 
....................       else 
565A:  BRA    565E
....................       { 
....................          Flanco1 = 0; 
565C:  BCF    x8F.1
....................       } 
....................        
....................       if(LEFT)//Si oprime Izquierda 
565E:  BSF    F96.2
5660:  BTFSS  F84.2
5662:  BRA    568C
....................       { 
....................          delay_ms(700);Menu=1;glcd_fillscreen(OFF); 
5664:  MOVLW  04
5666:  MOVLB  6
5668:  MOVWF  x37
566A:  MOVLW  AF
566C:  MOVWF  x3D
566E:  MOVLB  0
5670:  CALL   0CFA
5674:  MOVLB  6
5676:  DECFSZ x37,F
5678:  BRA    566A
567A:  MOVLW  01
567C:  MOVLB  5
567E:  MOVWF  x94
5680:  MOVLB  6
5682:  CLRF   x38
5684:  MOVLB  0
5686:  CALL   0E14
568A:  MOVLB  5
....................       } 
....................        
....................       if(unidad>4) 
568C:  MOVF   x95,W
568E:  SUBLW  04
5690:  BTFSC  FD8.0
5692:  BRA    578A
....................       { 
....................          Opcion=1;unidad=1; 
5694:  MOVLW  01
5696:  MOVWF  x9A
5698:  MOVWF  x95
....................          write_eeprom(10,Password[0]); 
569A:  MOVLW  0A
569C:  MOVWF  FA9
569E:  MOVFF  5C3,FA8
56A2:  BCF    FA6.6
56A4:  BCF    FA6.7
56A6:  BSF    FA6.2
56A8:  MOVF   FF2,W
56AA:  MOVWF  00
56AC:  BCF    FF2.7
56AE:  MOVLB  F
56B0:  MOVLW  55
56B2:  MOVWF  FA7
56B4:  MOVLW  AA
56B6:  MOVWF  FA7
56B8:  BSF    FA6.1
56BA:  BTFSC  FA6.1
56BC:  BRA    56BA
56BE:  BCF    FA6.2
56C0:  MOVF   00,W
56C2:  IORWF  FF2,F
....................          delay_ms(50);    
56C4:  MOVLW  32
56C6:  MOVLB  6
56C8:  MOVWF  x3D
56CA:  MOVLB  0
56CC:  CALL   0CFA
....................          write_eeprom(11,Password[1]); 
56D0:  MOVLW  0B
56D2:  MOVWF  FA9
56D4:  MOVFF  5C4,FA8
56D8:  BCF    FA6.6
56DA:  BCF    FA6.7
56DC:  BSF    FA6.2
56DE:  MOVF   FF2,W
56E0:  MOVWF  00
56E2:  BCF    FF2.7
56E4:  MOVLB  F
56E6:  MOVLW  55
56E8:  MOVWF  FA7
56EA:  MOVLW  AA
56EC:  MOVWF  FA7
56EE:  BSF    FA6.1
56F0:  BTFSC  FA6.1
56F2:  BRA    56F0
56F4:  BCF    FA6.2
56F6:  MOVF   00,W
56F8:  IORWF  FF2,F
....................          delay_ms(50);    
56FA:  MOVLW  32
56FC:  MOVLB  6
56FE:  MOVWF  x3D
5700:  MOVLB  0
5702:  CALL   0CFA
....................          write_eeprom(12,Password[2]); 
5706:  MOVLW  0C
5708:  MOVWF  FA9
570A:  MOVFF  5C5,FA8
570E:  BCF    FA6.6
5710:  BCF    FA6.7
5712:  BSF    FA6.2
5714:  MOVF   FF2,W
5716:  MOVWF  00
5718:  BCF    FF2.7
571A:  MOVLB  F
571C:  MOVLW  55
571E:  MOVWF  FA7
5720:  MOVLW  AA
5722:  MOVWF  FA7
5724:  BSF    FA6.1
5726:  BTFSC  FA6.1
5728:  BRA    5726
572A:  BCF    FA6.2
572C:  MOVF   00,W
572E:  IORWF  FF2,F
....................          delay_ms(50);    
5730:  MOVLW  32
5732:  MOVLB  6
5734:  MOVWF  x3D
5736:  MOVLB  0
5738:  CALL   0CFA
....................          write_eeprom(13,Password[3]); 
573C:  MOVLW  0D
573E:  MOVWF  FA9
5740:  MOVFF  5C6,FA8
5744:  BCF    FA6.6
5746:  BCF    FA6.7
5748:  BSF    FA6.2
574A:  MOVF   FF2,W
574C:  MOVWF  00
574E:  BCF    FF2.7
5750:  MOVLB  F
5752:  MOVLW  55
5754:  MOVWF  FA7
5756:  MOVLW  AA
5758:  MOVWF  FA7
575A:  BSF    FA6.1
575C:  BTFSC  FA6.1
575E:  BRA    575C
5760:  BCF    FA6.2
5762:  MOVF   00,W
5764:  IORWF  FF2,F
....................          delay_ms(1000);glcd_fillScreen(OFF);Menu=1; 
5766:  MOVLW  04
5768:  MOVLB  6
576A:  MOVWF  x37
576C:  MOVLW  FA
576E:  MOVWF  x3D
5770:  MOVLB  0
5772:  CALL   0CFA
5776:  MOVLB  6
5778:  DECFSZ x37,F
577A:  BRA    576C
577C:  CLRF   x38
577E:  MOVLB  0
5780:  CALL   0E14
5784:  MOVLW  01
5786:  MOVLB  5
5788:  MOVWF  x94
....................       } 
....................     }     
.................... //_--------------------------------------------------------------------------------------------------------------------------------------------------------     
....................  
....................  
....................  
.................... //_-------------------------------------------------------------------------------------------------------------------------------------------------------- 
....................       if(Menu==20){ //Menu de Funcionamiento 
578A:  MOVF   x94,W
578C:  SUBLW  14
578E:  BTFSS  FD8.2
5790:  GOTO   629C
....................        
....................       // Muestra imagen de fondo en Display GLCD 
....................       glcd_imagen(5); 
5794:  MOVLW  05
5796:  MOVLB  6
5798:  MOVWF  x37
579A:  MOVLB  0
579C:  GOTO   2746
....................        
....................        
....................       if(Pausa==0 && !TERM) 
57A0:  MOVLB  5
57A2:  MOVF   x97,F
57A4:  BTFSS  FD8.2
57A6:  BRA    5A2C
57A8:  BSF    F92.3
57AA:  BTFSC  F80.3
57AC:  BRA    5A2C
....................       { 
....................          Vent_on; 
57AE:  BSF    F8B.7
57B0:  BCF    F94.7
....................          if(Enfria==1) 
57B2:  DECFSZ x93,W
57B4:  BRA    58F2
....................          { 
....................             if(Temperatura<=Setpoint+1.0) 
57B6:  MOVFF  5AA,63E
57BA:  MOVFF  5A9,63D
57BE:  MOVLB  0
57C0:  CALL   0D24
57C4:  BCF    FD8.1
57C6:  MOVFF  03,63F
57CA:  MOVFF  02,63E
57CE:  MOVFF  01,63D
57D2:  MOVFF  00,63C
57D6:  MOVLB  6
57D8:  CLRF   x43
57DA:  CLRF   x42
57DC:  CLRF   x41
57DE:  MOVLW  7F
57E0:  MOVWF  x40
57E2:  MOVLB  0
57E4:  CALL   18D6
57E8:  MOVFF  602,63A
57EC:  MOVFF  601,639
57F0:  MOVFF  600,638
57F4:  MOVFF  5FF,637
57F8:  MOVFF  03,63E
57FC:  MOVFF  02,63D
5800:  MOVFF  01,63C
5804:  MOVFF  00,63B
5808:  CALL   0D5A
580C:  BC    5810
580E:  BNZ   5882
....................             { 
....................                glcd_rect(0, 55, 127, 63, YES, OFF); 
5810:  MOVLB  6
5812:  CLRF   x4A
5814:  MOVLW  37
5816:  MOVWF  x4B
5818:  MOVLW  7F
581A:  MOVWF  x4C
581C:  MOVLW  3F
581E:  MOVWF  x4D
5820:  MOVLW  01
5822:  MOVWF  x4E
5824:  CLRF   x4F
5826:  MOVLB  0
5828:  CALL   1380
....................                strcpy(Menus.Letra,"Status:Controlando"); 
582C:  MOVLW  06
582E:  MOVWF  FEA
5830:  MOVLW  17
5832:  MOVWF  FE9
5834:  MOVFF  FF2,637
5838:  BCF    FF2.7
583A:  MOVLW  00
583C:  CALL   098E
5840:  TBLRD*-
5842:  TBLRD*+
5844:  MOVF   FF5,W
5846:  MOVWF  FEE
5848:  IORLW  00
584A:  BNZ   5842
584C:  MOVLB  6
584E:  BTFSC  x37.7
5850:  BSF    FF2.7
....................                displayMenu(Menus.Letra,0,55,2,1); 
5852:  MOVLW  06
5854:  MOVWF  x38
5856:  MOVLW  17
5858:  MOVWF  x37
585A:  CLRF   x39
585C:  MOVLW  37
585E:  MOVWF  x3A
5860:  MOVLW  02
5862:  MOVWF  x3B
5864:  MOVLW  01
5866:  MOVWF  x3C
5868:  MOVLB  0
586A:  CALL   1442
....................                tiempo_esterilizacion=1; 
586E:  MOVLW  01
5870:  MOVLB  5
5872:  MOVWF  x9B
....................                Controla(); 
5874:  MOVLB  0
5876:  CALL   28A2
....................                flag_tiempocalentamiento=0; 
587A:  MOVLB  5
587C:  BCF    x90.2
....................             } 
....................             else 
587E:  BRA    58F0
5880:  MOVLB  0
....................             { 
....................                flag_tiempocalentamiento=0; 
5882:  MOVLB  5
5884:  BCF    x90.2
....................                glcd_rect(0, 55, 127, 63, YES, OFF); 
5886:  MOVLB  6
5888:  CLRF   x4A
588A:  MOVLW  37
588C:  MOVWF  x4B
588E:  MOVLW  7F
5890:  MOVWF  x4C
5892:  MOVLW  3F
5894:  MOVWF  x4D
5896:  MOVLW  01
5898:  MOVWF  x4E
589A:  CLRF   x4F
589C:  MOVLB  0
589E:  CALL   1380
....................                strcpy(Menus.Letra,"Status:Enfriando"); 
58A2:  MOVLW  06
58A4:  MOVWF  FEA
58A6:  MOVLW  17
58A8:  MOVWF  FE9
58AA:  MOVFF  FF2,637
58AE:  BCF    FF2.7
58B0:  MOVLW  00
58B2:  CALL   09BC
58B6:  TBLRD*-
58B8:  TBLRD*+
58BA:  MOVF   FF5,W
58BC:  MOVWF  FEE
58BE:  IORLW  00
58C0:  BNZ   58B8
58C2:  MOVLB  6
58C4:  BTFSC  x37.7
58C6:  BSF    FF2.7
....................                displayMenu(Menus.Letra,0,55,2,1); 
58C8:  MOVLW  06
58CA:  MOVWF  x38
58CC:  MOVLW  17
58CE:  MOVWF  x37
58D0:  CLRF   x39
58D2:  MOVLW  37
58D4:  MOVWF  x3A
58D6:  MOVLW  02
58D8:  MOVWF  x3B
58DA:  MOVLW  01
58DC:  MOVWF  x3C
58DE:  MOVLB  0
58E0:  CALL   1442
....................                tiempo_esterilizacion=0; 
58E4:  MOVLB  5
58E6:  CLRF   x9B
....................                Controla(); 
58E8:  MOVLB  0
58EA:  CALL   28A2
58EE:  MOVLB  5
....................             } 
....................          } 
....................          else 
58F0:  BRA    5A2C
....................          { 
....................             if(Temperatura>=Setpoint-1.0) 
58F2:  MOVFF  5AA,63E
58F6:  MOVFF  5A9,63D
58FA:  MOVLB  0
58FC:  CALL   0D24
5900:  BSF    FD8.1
5902:  MOVFF  03,63F
5906:  MOVFF  02,63E
590A:  MOVFF  01,63D
590E:  MOVFF  00,63C
5912:  MOVLB  6
5914:  CLRF   x43
5916:  CLRF   x42
5918:  CLRF   x41
591A:  MOVLW  7F
591C:  MOVWF  x40
591E:  MOVLB  0
5920:  CALL   18D6
5924:  MOVFF  03,63A
5928:  MOVFF  02,639
592C:  MOVFF  01,638
5930:  MOVFF  00,637
5934:  MOVFF  602,63E
5938:  MOVFF  601,63D
593C:  MOVFF  600,63C
5940:  MOVFF  5FF,63B
5944:  CALL   0D5A
5948:  BC    594C
594A:  BNZ   59BE
....................             { 
....................                glcd_rect(0, 55, 127, 63, YES, OFF); 
594C:  MOVLB  6
594E:  CLRF   x4A
5950:  MOVLW  37
5952:  MOVWF  x4B
5954:  MOVLW  7F
5956:  MOVWF  x4C
5958:  MOVLW  3F
595A:  MOVWF  x4D
595C:  MOVLW  01
595E:  MOVWF  x4E
5960:  CLRF   x4F
5962:  MOVLB  0
5964:  CALL   1380
....................                strcpy(Menus.Letra,"Status:Controlando"); 
5968:  MOVLW  06
596A:  MOVWF  FEA
596C:  MOVLW  17
596E:  MOVWF  FE9
5970:  MOVFF  FF2,637
5974:  BCF    FF2.7
5976:  MOVLW  00
5978:  CALL   098E
597C:  TBLRD*-
597E:  TBLRD*+
5980:  MOVF   FF5,W
5982:  MOVWF  FEE
5984:  IORLW  00
5986:  BNZ   597E
5988:  MOVLB  6
598A:  BTFSC  x37.7
598C:  BSF    FF2.7
....................                displayMenu(Menus.Letra,0,55,2,1); 
598E:  MOVLW  06
5990:  MOVWF  x38
5992:  MOVLW  17
5994:  MOVWF  x37
5996:  CLRF   x39
5998:  MOVLW  37
599A:  MOVWF  x3A
599C:  MOVLW  02
599E:  MOVWF  x3B
59A0:  MOVLW  01
59A2:  MOVWF  x3C
59A4:  MOVLB  0
59A6:  CALL   1442
....................                tiempo_esterilizacion=1; 
59AA:  MOVLW  01
59AC:  MOVLB  5
59AE:  MOVWF  x9B
....................                Controla(); 
59B0:  MOVLB  0
59B2:  CALL   28A2
....................                flag_tiempocalentamiento=0; 
59B6:  MOVLB  5
59B8:  BCF    x90.2
....................             } 
....................             else 
59BA:  BRA    5A2C
59BC:  MOVLB  0
....................             { 
....................                flag_tiempocalentamiento=1; 
59BE:  MOVLB  5
59C0:  BSF    x90.2
....................                glcd_rect(0, 55, 127, 63, YES, OFF); 
59C2:  MOVLB  6
59C4:  CLRF   x4A
59C6:  MOVLW  37
59C8:  MOVWF  x4B
59CA:  MOVLW  7F
59CC:  MOVWF  x4C
59CE:  MOVLW  3F
59D0:  MOVWF  x4D
59D2:  MOVLW  01
59D4:  MOVWF  x4E
59D6:  CLRF   x4F
59D8:  MOVLB  0
59DA:  CALL   1380
....................                strcpy(Menus.Letra,"Status:Calentando"); 
59DE:  MOVLW  06
59E0:  MOVWF  FEA
59E2:  MOVLW  17
59E4:  MOVWF  FE9
59E6:  MOVFF  FF2,637
59EA:  BCF    FF2.7
59EC:  MOVLW  00
59EE:  CALL   09E8
59F2:  TBLRD*-
59F4:  TBLRD*+
59F6:  MOVF   FF5,W
59F8:  MOVWF  FEE
59FA:  IORLW  00
59FC:  BNZ   59F4
59FE:  MOVLB  6
5A00:  BTFSC  x37.7
5A02:  BSF    FF2.7
....................                displayMenu(Menus.Letra,0,55,2,1); 
5A04:  MOVLW  06
5A06:  MOVWF  x38
5A08:  MOVLW  17
5A0A:  MOVWF  x37
5A0C:  CLRF   x39
5A0E:  MOVLW  37
5A10:  MOVWF  x3A
5A12:  MOVLW  02
5A14:  MOVWF  x3B
5A16:  MOVLW  01
5A18:  MOVWF  x3C
5A1A:  MOVLB  0
5A1C:  CALL   1442
....................                tiempo_esterilizacion=0; 
5A20:  MOVLB  5
5A22:  CLRF   x9B
....................                Controla(); 
5A24:  MOVLB  0
5A26:  CALL   28A2
5A2A:  MOVLB  5
....................             } 
....................          } 
....................       } 
....................        
....................       if(Pausa==1 && !TERM) 
5A2C:  DECFSZ x97,W
5A2E:  BRA    5A98
5A30:  BSF    F92.3
5A32:  BTFSC  F80.3
5A34:  BRA    5A98
....................       { 
....................          Vent_off; 
5A36:  BCF    F8B.7
5A38:  BCF    F94.7
....................          flag_tiempocalentamiento=0; 
5A3A:  BCF    x90.2
....................          strcpy(Menus.Letra,"Status:Pausado"); 
5A3C:  MOVLW  06
5A3E:  MOVWF  FEA
5A40:  MOVLW  17
5A42:  MOVWF  FE9
5A44:  MOVFF  FF2,637
5A48:  BCF    FF2.7
5A4A:  MOVLW  00
5A4C:  MOVLB  0
5A4E:  CALL   0A14
5A52:  TBLRD*-
5A54:  TBLRD*+
5A56:  MOVF   FF5,W
5A58:  MOVWF  FEE
5A5A:  IORLW  00
5A5C:  BNZ   5A54
5A5E:  MOVLB  6
5A60:  BTFSC  x37.7
5A62:  BSF    FF2.7
....................          displayMenu(Menus.Letra,0,55,2,1); 
5A64:  MOVLW  06
5A66:  MOVWF  x38
5A68:  MOVLW  17
5A6A:  MOVWF  x37
5A6C:  CLRF   x39
5A6E:  MOVLW  37
5A70:  MOVWF  x3A
5A72:  MOVLW  02
5A74:  MOVWF  x3B
5A76:  MOVLW  01
5A78:  MOVWF  x3C
5A7A:  MOVLB  0
5A7C:  CALL   1442
....................          tiempo_esterilizacion=0; 
5A80:  MOVLB  5
5A82:  CLRF   x9B
....................          Resistencia_off; 
5A84:  BCF    F8B.0
5A86:  BCF    F94.0
....................          Peltierp_off; 
5A88:  BCF    F8B.1
5A8A:  BCF    F94.1
....................          Peltiern_off; 
5A8C:  BCF    F8B.2
5A8E:  BCF    F94.2
....................          Tpulso=0.0; 
5A90:  CLRF   xDA
5A92:  CLRF   xD9
5A94:  CLRF   xD8
5A96:  CLRF   xD7
....................       } 
....................        
....................      /* if(DOOR) 
....................       { 
....................          Vent_off; 
....................          flag_tiempocalentamiento=0; 
....................          if(flag_clear2==0) 
....................          { 
....................             Ganancia=read_eeprom(90); 
....................             Ganancia=Setpoint*(Ganancia/Coeficiente); 
....................             Pausa_ant=Pausa; 
....................             Pausa=0; 
....................             //glcd_fillScreen(OFF); 
....................             glcd_rect(0, 55, 127, 63, YES, OFF); 
....................             tiempo_esterilizacion=0; 
....................             Resistencia_off; 
....................             Peltierp_off; 
....................             Peltiern_off; 
....................             Tpulso=0.0; 
....................             flag_clear2=1; 
....................             flag_ganancia=0; 
....................          } 
....................          strcpy(Menus.Letra,"Status:Puerta Abierta"); 
....................          displayMenu(Menus.Letra,0,55,2,1); 
....................       } 
....................       else 
....................       { 
....................          if(flag_clear2==1) 
....................          { 
....................             Pausa=Pausa_ant; 
....................             //glcd_fillScreen(OFF); 
....................             glcd_rect(0, 55, 127, 63, YES, OFF); 
....................             flag_clear2=0; 
....................          } 
....................       }*/ 
....................        
....................       if(TERM) 
5A98:  BSF    F92.3
5A9A:  BTFSS  F80.3
5A9C:  BRA    5B60
....................       { 
....................          Vent_off; 
5A9E:  BCF    F8B.7
5AA0:  BCF    F94.7
....................          flag_tiempocalentamiento=0; 
5AA2:  BCF    x90.2
....................          if(flag_clear3==0) 
5AA4:  BTFSC  x90.0
5AA6:  BRA    5AE6
....................          { 
....................             Pausa_ant=Pausa; 
5AA8:  MOVFF  597,598
....................             Pausa=0; 
5AAC:  CLRF   x97
....................             //glcd_fillScreen(OFF); 
....................             glcd_rect(0, 55, 127, 63, YES, OFF); 
5AAE:  MOVLB  6
5AB0:  CLRF   x4A
5AB2:  MOVLW  37
5AB4:  MOVWF  x4B
5AB6:  MOVLW  7F
5AB8:  MOVWF  x4C
5ABA:  MOVLW  3F
5ABC:  MOVWF  x4D
5ABE:  MOVLW  01
5AC0:  MOVWF  x4E
5AC2:  CLRF   x4F
5AC4:  MOVLB  0
5AC6:  CALL   1380
....................             tiempo_esterilizacion=0; 
5ACA:  MOVLB  5
5ACC:  CLRF   x9B
....................             Resistencia_off; 
5ACE:  BCF    F8B.0
5AD0:  BCF    F94.0
....................             Peltierp_off; 
5AD2:  BCF    F8B.1
5AD4:  BCF    F94.1
....................             Peltiern_off; 
5AD6:  BCF    F8B.2
5AD8:  BCF    F94.2
....................             Tpulso=0.0; 
5ADA:  CLRF   xDA
5ADC:  CLRF   xD9
5ADE:  CLRF   xD8
5AE0:  CLRF   xD7
....................             flag_clear3=1; 
5AE2:  BSF    x90.0
....................             flag_ganancia=0; 
5AE4:  CLRF   x8C
....................          } 
....................          strcpy(Menus.Letra,"Status:Alarma 01"); 
5AE6:  MOVLW  06
5AE8:  MOVWF  FEA
5AEA:  MOVLW  17
5AEC:  MOVWF  FE9
5AEE:  MOVFF  FF2,637
5AF2:  BCF    FF2.7
5AF4:  MOVLW  00
5AF6:  MOVLB  0
5AF8:  CALL   0A3E
5AFC:  TBLRD*-
5AFE:  TBLRD*+
5B00:  MOVF   FF5,W
5B02:  MOVWF  FEE
5B04:  IORLW  00
5B06:  BNZ   5AFE
5B08:  MOVLB  6
5B0A:  BTFSC  x37.7
5B0C:  BSF    FF2.7
....................          displayMenu(Menus.Letra,0,55,2,1); 
5B0E:  MOVLW  06
5B10:  MOVWF  x38
5B12:  MOVLW  17
5B14:  MOVWF  x37
5B16:  CLRF   x39
5B18:  MOVLW  37
5B1A:  MOVWF  x3A
5B1C:  MOVLW  02
5B1E:  MOVWF  x3B
5B20:  MOVLW  01
5B22:  MOVWF  x3C
5B24:  MOVLB  0
5B26:  CALL   1442
....................           
....................          Buzzer_on; 
5B2A:  BSF    F8B.6
5B2C:  BCF    F94.6
....................          delay_ms(1000); 
5B2E:  MOVLW  04
5B30:  MOVLB  6
5B32:  MOVWF  x37
5B34:  MOVLW  FA
5B36:  MOVWF  x3D
5B38:  MOVLB  0
5B3A:  CALL   0CFA
5B3E:  MOVLB  6
5B40:  DECFSZ x37,F
5B42:  BRA    5B34
....................          Buzzer_off; 
5B44:  BCF    F8B.6
5B46:  BCF    F94.6
....................          delay_ms(1000); 
5B48:  MOVLW  04
5B4A:  MOVWF  x37
5B4C:  MOVLW  FA
5B4E:  MOVWF  x3D
5B50:  MOVLB  0
5B52:  CALL   0CFA
5B56:  MOVLB  6
5B58:  DECFSZ x37,F
5B5A:  BRA    5B4C
....................       } 
....................       else 
5B5C:  BRA    5B8A
5B5E:  MOVLB  5
....................       { 
....................          if(flag_clear3==1) 
5B60:  BTFSS  x90.0
5B62:  BRA    5B88
....................          { 
....................             Pausa=Pausa_ant; 
5B64:  MOVFF  598,597
....................             //glcd_fillScreen(OFF); 
....................             glcd_rect(0, 55, 127, 63, YES, OFF); 
5B68:  MOVLB  6
5B6A:  CLRF   x4A
5B6C:  MOVLW  37
5B6E:  MOVWF  x4B
5B70:  MOVLW  7F
5B72:  MOVWF  x4C
5B74:  MOVLW  3F
5B76:  MOVWF  x4D
5B78:  MOVLW  01
5B7A:  MOVWF  x4E
5B7C:  CLRF   x4F
5B7E:  MOVLB  0
5B80:  CALL   1380
....................             flag_clear3=0; 
5B84:  MOVLB  5
5B86:  BCF    x90.0
5B88:  MOVLB  6
....................          } 
....................       }   
....................        
....................       if(UP)//Si oprime hacia arriba 
5B8A:  BSF    F92.5
5B8C:  BTFSS  F80.5
5B8E:  BRA    5BC8
....................       { 
....................          if(Pausa!=2) 
5B90:  MOVLB  5
5B92:  MOVF   x97,W
5B94:  SUBLW  02
5B96:  BZ    5BC6
....................          { 
....................             delay_ms(200);Pausa=0; 
5B98:  MOVLW  C8
5B9A:  MOVLB  6
5B9C:  MOVWF  x3D
5B9E:  MOVLB  0
5BA0:  CALL   0CFA
5BA4:  MOVLB  5
5BA6:  CLRF   x97
....................             //glcd_fillScreen(OFF); 
....................             glcd_rect(0, 55, 127, 63, YES, OFF); 
5BA8:  MOVLB  6
5BAA:  CLRF   x4A
5BAC:  MOVLW  37
5BAE:  MOVWF  x4B
5BB0:  MOVLW  7F
5BB2:  MOVWF  x4C
5BB4:  MOVLW  3F
5BB6:  MOVWF  x4D
5BB8:  MOVLW  01
5BBA:  MOVWF  x4E
5BBC:  CLRF   x4F
5BBE:  MOVLB  0
5BC0:  CALL   1380
5BC4:  MOVLB  5
5BC6:  MOVLB  6
....................          } 
....................       } 
....................              
....................       if(DOWN)//Si oprime hacia abajo 
5BC8:  BSF    F96.0
5BCA:  BTFSS  F84.0
5BCC:  BRA    5C08
....................       {   
....................          if(Pausa!=2) 
5BCE:  MOVLB  5
5BD0:  MOVF   x97,W
5BD2:  SUBLW  02
5BD4:  BZ    5C06
....................          { 
....................             delay_ms(200);Pausa=1; 
5BD6:  MOVLW  C8
5BD8:  MOVLB  6
5BDA:  MOVWF  x3D
5BDC:  MOVLB  0
5BDE:  CALL   0CFA
5BE2:  MOVLW  01
5BE4:  MOVLB  5
5BE6:  MOVWF  x97
....................             //glcd_fillScreen(OFF); 
....................             glcd_rect(0, 55, 127, 63, YES, OFF); 
5BE8:  MOVLB  6
5BEA:  CLRF   x4A
5BEC:  MOVLW  37
5BEE:  MOVWF  x4B
5BF0:  MOVLW  7F
5BF2:  MOVWF  x4C
5BF4:  MOVLW  3F
5BF6:  MOVWF  x4D
5BF8:  MOVLW  01
5BFA:  MOVWF  x4E
5BFC:  CLRF   x4F
5BFE:  MOVLB  0
5C00:  CALL   1380
5C04:  MOVLB  5
5C06:  MOVLB  6
....................          } 
....................       } 
....................              
....................       if(RIGHT)//Si oprime SET 
5C08:  BSF    F96.1
5C0A:  BTFSS  F84.1
5C0C:  BRA    5C1C
....................       {   
....................          glcd_init(ON);flag_display=!flag_display; 
5C0E:  MOVLW  01
5C10:  MOVWF  x37
5C12:  MOVLB  0
5C14:  CALL   0F26
5C18:  MOVLB  5
5C1A:  BTG    x90.3
....................       }  
....................          
....................       if(Lectura==1)// Utilizado para visualizar la lectura de la temperatura 
5C1C:  MOVLB  5
5C1E:  BTFSS  x8F.4
5C20:  BRA    6094
....................       {                  
....................           
....................          Lectura=0; 
5C22:  BCF    x8F.4
....................          Potencia=(100.0/Tciclo)*Tpulso; 
5C24:  MOVLB  6
5C26:  CLRF   x3B
5C28:  CLRF   x3A
5C2A:  MOVLW  48
5C2C:  MOVWF  x39
5C2E:  MOVLW  85
5C30:  MOVWF  x38
5C32:  MOVFF  5D6,63F
5C36:  MOVFF  5D5,63E
5C3A:  MOVFF  5D4,63D
5C3E:  MOVFF  5D3,63C
5C42:  MOVLB  0
5C44:  CALL   1778
5C48:  MOVFF  00,637
5C4C:  MOVFF  01,638
5C50:  MOVFF  02,639
5C54:  MOVFF  03,63A
5C58:  MOVFF  03,657
5C5C:  MOVFF  02,656
5C60:  MOVFF  01,655
5C64:  MOVFF  00,654
5C68:  MOVFF  5DA,65B
5C6C:  MOVFF  5D9,65A
5C70:  MOVFF  5D8,659
5C74:  MOVFF  5D7,658
5C78:  CALL   1B70
5C7C:  MOVFF  03,5AE
5C80:  MOVFF  02,5AD
5C84:  MOVFF  01,5AC
5C88:  MOVFF  00,5AB
....................          //Temperatura=Leer_Sensor(MediaMovil); 
....................          displayT(Temperatura,15,29,2); 
5C8C:  MOVFF  602,63A
5C90:  MOVFF  601,639
5C94:  MOVFF  600,638
5C98:  MOVFF  5FF,637
5C9C:  MOVLW  0F
5C9E:  MOVLB  6
5CA0:  MOVWF  x3B
5CA2:  MOVLW  1D
5CA4:  MOVWF  x3C
5CA6:  MOVLW  02
5CA8:  MOVWF  x3D
5CAA:  MOVLB  0
5CAC:  CALL   3376
....................          glcd_circle(74,30,2,NO,ON); 
5CB0:  MOVLW  4A
5CB2:  MOVLB  6
5CB4:  MOVWF  x37
5CB6:  MOVLW  1E
5CB8:  MOVWF  x38
5CBA:  MOVLW  02
5CBC:  MOVWF  x39
5CBE:  CLRF   x3A
5CC0:  MOVLW  01
5CC2:  MOVWF  x3B
5CC4:  MOVLB  0
5CC6:  CALL   205A
....................          strcpy(Menus.Letra,"C");displayMenu(Menus.Letra,75,30,2,2); 
5CCA:  MOVLW  06
5CCC:  MOVWF  FEA
5CCE:  MOVLW  17
5CD0:  MOVWF  FE9
5CD2:  MOVFF  FF2,637
5CD6:  BCF    FF2.7
5CD8:  MOVLW  00
5CDA:  CALL   090C
5CDE:  TBLRD*-
5CE0:  TBLRD*+
5CE2:  MOVF   FF5,W
5CE4:  MOVWF  FEE
5CE6:  IORLW  00
5CE8:  BNZ   5CE0
5CEA:  MOVLB  6
5CEC:  BTFSC  x37.7
5CEE:  BSF    FF2.7
5CF0:  MOVLW  06
5CF2:  MOVWF  x38
5CF4:  MOVLW  17
5CF6:  MOVWF  x37
5CF8:  MOVLW  4B
5CFA:  MOVWF  x39
5CFC:  MOVLW  1E
5CFE:  MOVWF  x3A
5D00:  MOVLW  02
5D02:  MOVWF  x3B
5D04:  MOVWF  x3C
5D06:  MOVLB  0
5D08:  CALL   1442
....................           
....................          displayTemperatura(Setpoint,30,45,0,1); 
5D0C:  MOVFF  5AA,63A
5D10:  MOVFF  5A9,639
5D14:  MOVLW  1E
5D16:  MOVLB  6
5D18:  MOVWF  x3B
5D1A:  MOVLW  2D
5D1C:  MOVWF  x3C
5D1E:  CLRF   x3D
5D20:  MOVLW  01
5D22:  MOVWF  x3E
5D24:  MOVLB  0
5D26:  CALL   2342
....................          glcd_circle(50,47,1,NO,ON); 
5D2A:  MOVLW  32
5D2C:  MOVLB  6
5D2E:  MOVWF  x37
5D30:  MOVLW  2F
5D32:  MOVWF  x38
5D34:  MOVLW  01
5D36:  MOVWF  x39
5D38:  CLRF   x3A
5D3A:  MOVWF  x3B
5D3C:  MOVLB  0
5D3E:  CALL   205A
....................          strcpy(Menus.Letra,"C");displayMenu(Menus.Letra,53,45,2,1); 
5D42:  MOVLW  06
5D44:  MOVWF  FEA
5D46:  MOVLW  17
5D48:  MOVWF  FE9
5D4A:  MOVFF  FF2,637
5D4E:  BCF    FF2.7
5D50:  MOVLW  00
5D52:  CALL   090C
5D56:  TBLRD*-
5D58:  TBLRD*+
5D5A:  MOVF   FF5,W
5D5C:  MOVWF  FEE
5D5E:  IORLW  00
5D60:  BNZ   5D58
5D62:  MOVLB  6
5D64:  BTFSC  x37.7
5D66:  BSF    FF2.7
5D68:  MOVLW  06
5D6A:  MOVWF  x38
5D6C:  MOVLW  17
5D6E:  MOVWF  x37
5D70:  MOVLW  35
5D72:  MOVWF  x39
5D74:  MOVLW  2D
5D76:  MOVWF  x3A
5D78:  MOVLW  02
5D7A:  MOVWF  x3B
5D7C:  MOVLW  01
5D7E:  MOVWF  x3C
5D80:  MOVLB  0
5D82:  CALL   1442
....................          strcpy(Menus.Letra,"Temp:");displayMenu(Menus.Letra,0,45,2,1);  
5D86:  MOVLW  06
5D88:  MOVWF  FEA
5D8A:  MOVLW  17
5D8C:  MOVWF  FE9
5D8E:  MOVFF  FF2,637
5D92:  BCF    FF2.7
5D94:  MOVLW  00
5D96:  CALL   0A6A
5D9A:  TBLRD*-
5D9C:  TBLRD*+
5D9E:  MOVF   FF5,W
5DA0:  MOVWF  FEE
5DA2:  IORLW  00
5DA4:  BNZ   5D9C
5DA6:  MOVLB  6
5DA8:  BTFSC  x37.7
5DAA:  BSF    FF2.7
5DAC:  MOVLW  06
5DAE:  MOVWF  x38
5DB0:  MOVLW  17
5DB2:  MOVWF  x37
5DB4:  CLRF   x39
5DB6:  MOVLW  2D
5DB8:  MOVWF  x3A
5DBA:  MOVLW  02
5DBC:  MOVWF  x3B
5DBE:  MOVLW  01
5DC0:  MOVWF  x3C
5DC2:  MOVLB  0
5DC4:  CALL   1442
....................           
....................          displayTiempo(Potencia,97,42,3,1);strcpy(Menus.Letra,"%");displayMenu(Menus.Letra,115,42,2,1); 
5DC8:  MOVFF  5AE,63A
5DCC:  MOVFF  5AD,639
5DD0:  MOVFF  5AC,638
5DD4:  MOVFF  5AB,637
5DD8:  CALL   2866
5DDC:  MOVFF  01,637
5DE0:  MOVFF  01,638
5DE4:  MOVLW  61
5DE6:  MOVLB  6
5DE8:  MOVWF  x39
5DEA:  MOVLW  2A
5DEC:  MOVWF  x3A
5DEE:  MOVLW  03
5DF0:  MOVWF  x3B
5DF2:  MOVLW  01
5DF4:  MOVWF  x3C
5DF6:  MOVLB  0
5DF8:  CALL   2580
5DFC:  MOVLW  06
5DFE:  MOVWF  FEA
5E00:  MOVLW  17
5E02:  MOVWF  FE9
5E04:  MOVFF  FF2,637
5E08:  BCF    FF2.7
5E0A:  MOVLW  00
5E0C:  CALL   0A8A
5E10:  TBLRD*-
5E12:  TBLRD*+
5E14:  MOVF   FF5,W
5E16:  MOVWF  FEE
5E18:  IORLW  00
5E1A:  BNZ   5E12
5E1C:  MOVLB  6
5E1E:  BTFSC  x37.7
5E20:  BSF    FF2.7
5E22:  MOVLW  06
5E24:  MOVWF  x38
5E26:  MOVLW  17
5E28:  MOVWF  x37
5E2A:  MOVLW  73
5E2C:  MOVWF  x39
5E2E:  MOVLW  2A
5E30:  MOVWF  x3A
5E32:  MOVLW  02
5E34:  MOVWF  x3B
5E36:  MOVLW  01
5E38:  MOVWF  x3C
5E3A:  MOVLB  0
5E3C:  CALL   1442
....................          //displayTiempo(Tpulsomin*10,97,42,3,1);strcpy(Menus.Letra,"%");displayMenu(Menus.Letra,115,42,2,1); 
....................           
....................          if(flag_display==1) 
5E40:  MOVLB  5
5E42:  BTFSS  x90.3
5E44:  BRA    5E6C
....................             //displayTiempo(Ganancia,97,13,3,1); 
....................             //displayTemperatura(Prom,97,13,0,1); 
....................             displayT(Prom,97,13,1); 
5E46:  MOVFF  5E2,63A
5E4A:  MOVFF  5E1,639
5E4E:  MOVFF  5E0,638
5E52:  MOVFF  5DF,637
5E56:  MOVLW  61
5E58:  MOVLB  6
5E5A:  MOVWF  x3B
5E5C:  MOVLW  0D
5E5E:  MOVWF  x3C
5E60:  MOVLW  01
5E62:  MOVWF  x3D
5E64:  MOVLB  0
5E66:  CALL   3376
....................          else 
5E6A:  BRA    5E8A
....................             glcd_rect(97, 13, 115, 18, YES, OFF); 
5E6C:  MOVLW  61
5E6E:  MOVLB  6
5E70:  MOVWF  x4A
5E72:  MOVLW  0D
5E74:  MOVWF  x4B
5E76:  MOVLW  73
5E78:  MOVWF  x4C
5E7A:  MOVLW  12
5E7C:  MOVWF  x4D
5E7E:  MOVLW  01
5E80:  MOVWF  x4E
5E82:  CLRF   x4F
5E84:  MOVLB  0
5E86:  CALL   1380
....................           
....................          // Muestra Valor de esterilizacion Programado. 
....................          displayTiempo(Testerilizacion[3],20,2,0,2);displayTiempo(Testerilizacion[2],33,2,0,2); 
5E8A:  MOVFF  5BA,638
5E8E:  MOVLW  14
5E90:  MOVLB  6
5E92:  MOVWF  x39
5E94:  MOVLW  02
5E96:  MOVWF  x3A
5E98:  CLRF   x3B
5E9A:  MOVWF  x3C
5E9C:  MOVLB  0
5E9E:  CALL   2580
5EA2:  MOVFF  5B9,638
5EA6:  MOVLW  21
5EA8:  MOVLB  6
5EAA:  MOVWF  x39
5EAC:  MOVLW  02
5EAE:  MOVWF  x3A
5EB0:  CLRF   x3B
5EB2:  MOVWF  x3C
5EB4:  MOVLB  0
5EB6:  CALL   2580
....................          strcpy(Menus.Letra,":");displayMenu(Menus.Letra,46,2,2,2);  
5EBA:  MOVLW  06
5EBC:  MOVWF  FEA
5EBE:  MOVLW  17
5EC0:  MOVWF  FE9
5EC2:  MOVFF  FF2,637
5EC6:  BCF    FF2.7
5EC8:  MOVLW  00
5ECA:  CALL   094C
5ECE:  TBLRD*-
5ED0:  TBLRD*+
5ED2:  MOVF   FF5,W
5ED4:  MOVWF  FEE
5ED6:  IORLW  00
5ED8:  BNZ   5ED0
5EDA:  MOVLB  6
5EDC:  BTFSC  x37.7
5EDE:  BSF    FF2.7
5EE0:  MOVLW  06
5EE2:  MOVWF  x38
5EE4:  MOVLW  17
5EE6:  MOVWF  x37
5EE8:  MOVLW  2E
5EEA:  MOVWF  x39
5EEC:  MOVLW  02
5EEE:  MOVWF  x3A
5EF0:  MOVWF  x3B
5EF2:  MOVWF  x3C
5EF4:  MOVLB  0
5EF6:  CALL   1442
....................          displayTiempo(Testerilizacion[1],55,2,0,2);displayTiempo(Testerilizacion[0],68,2,0,2); 
5EFA:  MOVFF  5B8,638
5EFE:  MOVLW  37
5F00:  MOVLB  6
5F02:  MOVWF  x39
5F04:  MOVLW  02
5F06:  MOVWF  x3A
5F08:  CLRF   x3B
5F0A:  MOVWF  x3C
5F0C:  MOVLB  0
5F0E:  CALL   2580
5F12:  MOVFF  5B7,638
5F16:  MOVLW  44
5F18:  MOVLB  6
5F1A:  MOVWF  x39
5F1C:  MOVLW  02
5F1E:  MOVWF  x3A
5F20:  CLRF   x3B
5F22:  MOVWF  x3C
5F24:  MOVLB  0
5F26:  CALL   2580
....................           
....................          // Muestra Valor de esterilizacion actual. 
....................          strcpy(Menus.Letra,"Time:");displayMenu(Menus.Letra,0,18,2,1);  
5F2A:  MOVLW  06
5F2C:  MOVWF  FEA
5F2E:  MOVLW  17
5F30:  MOVWF  FE9
5F32:  MOVFF  FF2,637
5F36:  BCF    FF2.7
5F38:  MOVLW  00
5F3A:  CALL   0AA6
5F3E:  TBLRD*-
5F40:  TBLRD*+
5F42:  MOVF   FF5,W
5F44:  MOVWF  FEE
5F46:  IORLW  00
5F48:  BNZ   5F40
5F4A:  MOVLB  6
5F4C:  BTFSC  x37.7
5F4E:  BSF    FF2.7
5F50:  MOVLW  06
5F52:  MOVWF  x38
5F54:  MOVLW  17
5F56:  MOVWF  x37
5F58:  CLRF   x39
5F5A:  MOVLW  12
5F5C:  MOVWF  x3A
5F5E:  MOVLW  02
5F60:  MOVWF  x3B
5F62:  MOVLW  01
5F64:  MOVWF  x3C
5F66:  MOVLB  0
5F68:  CALL   1442
....................          displayTiempo(Testerilizacionp[3],30,18,0,1);displayTiempo(Testerilizacionp[2],36,18,0,1); 
5F6C:  MOVFF  5BE,638
5F70:  MOVLW  1E
5F72:  MOVLB  6
5F74:  MOVWF  x39
5F76:  MOVLW  12
5F78:  MOVWF  x3A
5F7A:  CLRF   x3B
5F7C:  MOVLW  01
5F7E:  MOVWF  x3C
5F80:  MOVLB  0
5F82:  CALL   2580
5F86:  MOVFF  5BD,638
5F8A:  MOVLW  24
5F8C:  MOVLB  6
5F8E:  MOVWF  x39
5F90:  MOVLW  12
5F92:  MOVWF  x3A
5F94:  CLRF   x3B
5F96:  MOVLW  01
5F98:  MOVWF  x3C
5F9A:  MOVLB  0
5F9C:  CALL   2580
....................          strcpy(Menus.Letra,":");displayMenu(Menus.Letra,42,18,2,1);  
5FA0:  MOVLW  06
5FA2:  MOVWF  FEA
5FA4:  MOVLW  17
5FA6:  MOVWF  FE9
5FA8:  MOVFF  FF2,637
5FAC:  BCF    FF2.7
5FAE:  MOVLW  00
5FB0:  CALL   094C
5FB4:  TBLRD*-
5FB6:  TBLRD*+
5FB8:  MOVF   FF5,W
5FBA:  MOVWF  FEE
5FBC:  IORLW  00
5FBE:  BNZ   5FB6
5FC0:  MOVLB  6
5FC2:  BTFSC  x37.7
5FC4:  BSF    FF2.7
5FC6:  MOVLW  06
5FC8:  MOVWF  x38
5FCA:  MOVLW  17
5FCC:  MOVWF  x37
5FCE:  MOVLW  2A
5FD0:  MOVWF  x39
5FD2:  MOVLW  12
5FD4:  MOVWF  x3A
5FD6:  MOVLW  02
5FD8:  MOVWF  x3B
5FDA:  MOVLW  01
5FDC:  MOVWF  x3C
5FDE:  MOVLB  0
5FE0:  CALL   1442
....................          displayTiempo(Testerilizacionp[1],48,18,0,1);displayTiempo(Testerilizacionp[0],54,18,0,1); 
5FE4:  MOVFF  5BC,638
5FE8:  MOVLW  30
5FEA:  MOVLB  6
5FEC:  MOVWF  x39
5FEE:  MOVLW  12
5FF0:  MOVWF  x3A
5FF2:  CLRF   x3B
5FF4:  MOVLW  01
5FF6:  MOVWF  x3C
5FF8:  MOVLB  0
5FFA:  CALL   2580
5FFE:  MOVFF  5BB,638
6002:  MOVLW  36
6004:  MOVLB  6
6006:  MOVWF  x39
6008:  MOVLW  12
600A:  MOVWF  x3A
600C:  CLRF   x3B
600E:  MOVLW  01
6010:  MOVWF  x3C
6012:  MOVLB  0
6014:  CALL   2580
....................          strcpy(Menus.Letra,"(H:M)");displayMenu(Menus.Letra,60,18,2,1);  
6018:  MOVLW  06
601A:  MOVWF  FEA
601C:  MOVLW  17
601E:  MOVWF  FE9
6020:  MOVFF  FF2,637
6024:  BCF    FF2.7
6026:  MOVLW  00
6028:  CALL   0AC6
602C:  TBLRD*-
602E:  TBLRD*+
6030:  MOVF   FF5,W
6032:  MOVWF  FEE
6034:  IORLW  00
6036:  BNZ   602E
6038:  MOVLB  6
603A:  BTFSC  x37.7
603C:  BSF    FF2.7
603E:  MOVLW  06
6040:  MOVWF  x38
6042:  MOVLW  17
6044:  MOVWF  x37
6046:  MOVLW  3C
6048:  MOVWF  x39
604A:  MOVLW  12
604C:  MOVWF  x3A
604E:  MOVLW  02
6050:  MOVWF  x3B
6052:  MOVLW  01
6054:  MOVWF  x3C
6056:  MOVLB  0
6058:  CALL   1442
....................           
....................          glcd_rect(0, 0, 89, 27, NO, ON); 
605C:  MOVLB  6
605E:  CLRF   x4A
6060:  CLRF   x4B
6062:  MOVLW  59
6064:  MOVWF  x4C
6066:  MOVLW  1B
6068:  MOVWF  x4D
606A:  CLRF   x4E
606C:  MOVLW  01
606E:  MOVWF  x4F
6070:  MOVLB  0
6072:  CALL   1380
....................          glcd_rect(0, 27, 89, 54, NO, ON); 
6076:  MOVLB  6
6078:  CLRF   x4A
607A:  MOVLW  1B
607C:  MOVWF  x4B
607E:  MOVLW  59
6080:  MOVWF  x4C
6082:  MOVLW  36
6084:  MOVWF  x4D
6086:  CLRF   x4E
6088:  MOVLW  01
608A:  MOVWF  x4F
608C:  MOVLB  0
608E:  CALL   1380
6092:  MOVLB  5
....................       }  
....................        
....................       // Si cumplio el tiempo de esterilizacin, Muestre ciclo finalizado y detenga control de temperatura. 
....................       if((Testerilizacion[0]>=Testerilizacionp[0])&&(Testerilizacion[1]>=Testerilizacionp[1])&&(Testerilizacion[2]>=Testerilizacionp[2])&&(Testerilizacion[3]>=Testerilizacionp[3]) && tiempo_esterilizacion==1) 
6094:  MOVF   xBB,W
6096:  XORLW  80
6098:  MOVWF  00
609A:  MOVF   xB7,W
609C:  XORLW  80
609E:  SUBWF  00,W
60A0:  BZ    60A4
60A2:  BC    614C
60A4:  MOVF   xBC,W
60A6:  XORLW  80
60A8:  MOVWF  00
60AA:  MOVF   xB8,W
60AC:  XORLW  80
60AE:  SUBWF  00,W
60B0:  BZ    60B4
60B2:  BC    614C
60B4:  MOVF   xBD,W
60B6:  XORLW  80
60B8:  MOVWF  00
60BA:  MOVF   xB9,W
60BC:  XORLW  80
60BE:  SUBWF  00,W
60C0:  BZ    60C4
60C2:  BC    614C
60C4:  MOVF   xBE,W
60C6:  XORLW  80
60C8:  MOVWF  00
60CA:  MOVF   xBA,W
60CC:  XORLW  80
60CE:  SUBWF  00,W
60D0:  BZ    60D4
60D2:  BC    614C
60D4:  DECFSZ x9B,W
60D6:  BRA    614C
....................       { 
....................          if(flag_clear==0) 
60D8:  BTFSC  x8F.6
60DA:  BRA    6106
....................          { 
....................             glcd_fillScreen(OFF); 
60DC:  MOVLB  6
60DE:  CLRF   x38
60E0:  MOVLB  0
60E2:  CALL   0E14
....................             //glcd_rect(0, 55, 127, 63, YES, OFF); 
....................             tiempo_esterilizacion=0; 
60E6:  MOVLB  5
60E8:  CLRF   x9B
....................             Pausa=2; 
60EA:  MOVLW  02
60EC:  MOVWF  x97
....................             flag_clear=1; 
60EE:  BSF    x8F.6
....................             Resistencia_off; 
60F0:  BCF    F8B.0
60F2:  BCF    F94.0
....................             Peltierp_off; 
60F4:  BCF    F8B.1
60F6:  BCF    F94.1
....................             Peltiern_off; 
60F8:  BCF    F8B.2
60FA:  BCF    F94.2
....................             Tpulso=0.0; 
60FC:  CLRF   xDA
60FE:  CLRF   xD9
6100:  CLRF   xD8
6102:  CLRF   xD7
....................             flag_ganancia=0; 
6104:  CLRF   x8C
....................          } 
....................          strcpy(Menus.Letra,"Status:Finalizado"); 
6106:  MOVLW  06
6108:  MOVWF  FEA
610A:  MOVLW  17
610C:  MOVWF  FE9
610E:  MOVFF  FF2,637
6112:  BCF    FF2.7
6114:  MOVLW  00
6116:  MOVLB  0
6118:  CALL   0AE6
611C:  TBLRD*-
611E:  TBLRD*+
6120:  MOVF   FF5,W
6122:  MOVWF  FEE
6124:  IORLW  00
6126:  BNZ   611E
6128:  MOVLB  6
612A:  BTFSC  x37.7
612C:  BSF    FF2.7
....................          displayMenu(Menus.Letra,0,55,2,1); 
612E:  MOVLW  06
6130:  MOVWF  x38
6132:  MOVLW  17
6134:  MOVWF  x37
6136:  CLRF   x39
6138:  MOVLW  37
613A:  MOVWF  x3A
613C:  MOVLW  02
613E:  MOVWF  x3B
6140:  MOVLW  01
6142:  MOVWF  x3C
6144:  MOVLB  0
6146:  CALL   1442
614A:  MOVLB  5
....................       }  
....................        
....................       // Si ha pasado un tiempo x y no ha llegado al setpoint 
....................       if(tiempocalentamiento>7200 && tiempo_esterilizacion==0) 
614C:  MOVF   xA6,W
614E:  SUBLW  1B
6150:  BC    621A
6152:  XORLW  FF
6154:  BNZ   615C
6156:  MOVF   xA5,W
6158:  SUBLW  20
615A:  BC    621A
615C:  MOVF   x9B,F
615E:  BNZ   621A
....................       { 
....................          Buzzer_on; 
6160:  BSF    F8B.6
6162:  BCF    F94.6
....................          delay_ms(1000); 
6164:  MOVLW  04
6166:  MOVLB  6
6168:  MOVWF  x37
616A:  MOVLW  FA
616C:  MOVWF  x3D
616E:  MOVLB  0
6170:  CALL   0CFA
6174:  MOVLB  6
6176:  DECFSZ x37,F
6178:  BRA    616A
....................          Buzzer_off; 
617A:  BCF    F8B.6
617C:  BCF    F94.6
....................          delay_ms(1000); 
617E:  MOVLW  04
6180:  MOVWF  x37
6182:  MOVLW  FA
6184:  MOVWF  x3D
6186:  MOVLB  0
6188:  CALL   0CFA
618C:  MOVLB  6
618E:  DECFSZ x37,F
6190:  BRA    6182
....................          if(flag_clear4==0) 
6192:  MOVLB  5
6194:  BTFSC  x90.1
6196:  BRA    61D4
....................          { 
....................             glcd_rect(0, 55, 127, 63, YES, OFF); 
6198:  MOVLB  6
619A:  CLRF   x4A
619C:  MOVLW  37
619E:  MOVWF  x4B
61A0:  MOVLW  7F
61A2:  MOVWF  x4C
61A4:  MOVLW  3F
61A6:  MOVWF  x4D
61A8:  MOVLW  01
61AA:  MOVWF  x4E
61AC:  CLRF   x4F
61AE:  MOVLB  0
61B0:  CALL   1380
....................             tiempo_esterilizacion=0; 
61B4:  MOVLB  5
61B6:  CLRF   x9B
....................             Pausa=2; 
61B8:  MOVLW  02
61BA:  MOVWF  x97
....................             flag_clear4=1; 
61BC:  BSF    x90.1
....................             Resistencia_off; 
61BE:  BCF    F8B.0
61C0:  BCF    F94.0
....................             Peltierp_off; 
61C2:  BCF    F8B.1
61C4:  BCF    F94.1
....................             Peltiern_off; 
61C6:  BCF    F8B.2
61C8:  BCF    F94.2
....................             Tpulso=0.0; 
61CA:  CLRF   xDA
61CC:  CLRF   xD9
61CE:  CLRF   xD8
61D0:  CLRF   xD7
....................             flag_ganancia=0; 
61D2:  CLRF   x8C
....................          } 
....................          strcpy(Menus.Letra,"Status:Alarma 02"); 
61D4:  MOVLW  06
61D6:  MOVWF  FEA
61D8:  MOVLW  17
61DA:  MOVWF  FE9
61DC:  MOVFF  FF2,637
61E0:  BCF    FF2.7
61E2:  MOVLW  00
61E4:  MOVLB  0
61E6:  CALL   0B12
61EA:  TBLRD*-
61EC:  TBLRD*+
61EE:  MOVF   FF5,W
61F0:  MOVWF  FEE
61F2:  IORLW  00
61F4:  BNZ   61EC
61F6:  MOVLB  6
61F8:  BTFSC  x37.7
61FA:  BSF    FF2.7
....................          displayMenu(Menus.Letra,0,55,2,1); 
61FC:  MOVLW  06
61FE:  MOVWF  x38
6200:  MOVLW  17
6202:  MOVWF  x37
6204:  CLRF   x39
6206:  MOVLW  37
6208:  MOVWF  x3A
620A:  MOVLW  02
620C:  MOVWF  x3B
620E:  MOVLW  01
6210:  MOVWF  x3C
6212:  MOVLB  0
6214:  CALL   1442
6218:  MOVLB  5
....................       } 
....................        
....................       if(tinicio>=60) 
621A:  MOVF   xA4,F
621C:  BNZ   6224
621E:  MOVF   xA3,W
6220:  SUBLW  3B
6222:  BC    6260
....................       { 
....................          tinicio=0; 
6224:  CLRF   xA4
6226:  CLRF   xA3
....................          Testerilizacion[0]++; 
6228:  INCF   xB7,F
....................          if(Testerilizacion[0]>9) 
622A:  BTFSC  xB7.7
622C:  BRA    6238
622E:  MOVF   xB7,W
6230:  SUBLW  09
6232:  BC    6238
....................          { 
....................             Testerilizacion[0]=0; 
6234:  CLRF   xB7
....................             Testerilizacion[1]++; 
6236:  INCF   xB8,F
....................          } 
....................          if(Testerilizacion[1]>5) 
6238:  BTFSC  xB8.7
623A:  BRA    6246
623C:  MOVF   xB8,W
623E:  SUBLW  05
6240:  BC    6246
....................          { 
....................             Testerilizacion[1]=0; 
6242:  CLRF   xB8
....................             Testerilizacion[2]++; 
6244:  INCF   xB9,F
....................          } 
....................          if(Testerilizacion[2]>9) 
6246:  BTFSC  xB9.7
6248:  BRA    6254
624A:  MOVF   xB9,W
624C:  SUBLW  09
624E:  BC    6254
....................          { 
....................             Testerilizacion[2]=0; 
6250:  CLRF   xB9
....................             Testerilizacion[3]++; 
6252:  INCF   xBA,F
....................          } 
....................          if(Testerilizacion[3]>9) 
6254:  BTFSC  xBA.7
6256:  BRA    6260
6258:  MOVF   xBA,W
625A:  SUBLW  09
625C:  BC    6260
....................          { 
....................             Testerilizacion[3]=0; 
625E:  CLRF   xBA
....................          } 
....................       } 
....................        
....................       if(LEFT)//Si oprime boton de Toma. 
6260:  BSF    F96.2
6262:  BTFSS  F84.2
6264:  BRA    629C
....................       { 
....................          if(Pausa!=2) 
6266:  MOVF   x97,W
6268:  SUBLW  02
626A:  BZ    629C
....................          { 
....................             delay_ms(500);Menu=30;glcd_fillscreen(OFF);Opcion=1;visual=1;Pausa=1; 
626C:  MOVLW  02
626E:  MOVLB  6
6270:  MOVWF  x37
6272:  MOVLW  FA
6274:  MOVWF  x3D
6276:  MOVLB  0
6278:  CALL   0CFA
627C:  MOVLB  6
627E:  DECFSZ x37,F
6280:  BRA    6272
6282:  MOVLW  1E
6284:  MOVLB  5
6286:  MOVWF  x94
6288:  MOVLB  6
628A:  CLRF   x38
628C:  MOVLB  0
628E:  CALL   0E14
6292:  MOVLW  01
6294:  MOVLB  5
6296:  MOVWF  x9A
6298:  BSF    x8F.3
629A:  MOVWF  x97
....................          } 
....................       } 
....................          
....................     } 
.................... //_--------------------------------------------------------------------------------------------------------------------------------------------------------        
....................  
.................... //_-------------------------------------------------------------------------------------------------------------------------------------------------------- 
....................       if(Menu==30){ //Menu de Retroceso 
629C:  MOVF   x94,W
629E:  SUBLW  1E
62A0:  BTFSS  FD8.2
62A2:  BRA    64C2
....................        
....................       strcpy(Menus.Letra,"Regresar"); 
62A4:  MOVLW  06
62A6:  MOVWF  FEA
62A8:  MOVLW  17
62AA:  MOVWF  FE9
62AC:  MOVFF  FF2,637
62B0:  BCF    FF2.7
62B2:  MOVLW  00
62B4:  MOVLB  0
62B6:  CALL   0B3E
62BA:  TBLRD*-
62BC:  TBLRD*+
62BE:  MOVF   FF5,W
62C0:  MOVWF  FEE
62C2:  IORLW  00
62C4:  BNZ   62BC
62C6:  MOVLB  6
62C8:  BTFSC  x37.7
62CA:  BSF    FF2.7
....................       displayMenu(Menus.Letra,0,0,1,2); 
62CC:  MOVLW  06
62CE:  MOVWF  x38
62D0:  MOVLW  17
62D2:  MOVWF  x37
62D4:  CLRF   x39
62D6:  CLRF   x3A
62D8:  MOVLW  01
62DA:  MOVWF  x3B
62DC:  MOVLW  02
62DE:  MOVWF  x3C
62E0:  MOVLB  0
62E2:  CALL   1442
....................           
....................       if(Opcion==2) 
62E6:  MOVLB  5
62E8:  MOVF   x9A,W
62EA:  SUBLW  02
62EC:  BNZ   6378
....................       {strcpy(Menus.Letra,"SI"); 
62EE:  MOVLW  06
62F0:  MOVWF  FEA
62F2:  MOVLW  17
62F4:  MOVWF  FE9
62F6:  MOVFF  FF2,637
62FA:  BCF    FF2.7
62FC:  MOVLW  00
62FE:  MOVLB  0
6300:  CALL   08D0
6304:  TBLRD*-
6306:  TBLRD*+
6308:  MOVF   FF5,W
630A:  MOVWF  FEE
630C:  IORLW  00
630E:  BNZ   6306
6310:  MOVLB  6
6312:  BTFSC  x37.7
6314:  BSF    FF2.7
....................       displayMenu(Menus.Letra,50,25,1,2); 
6316:  MOVLW  06
6318:  MOVWF  x38
631A:  MOVLW  17
631C:  MOVWF  x37
631E:  MOVLW  32
6320:  MOVWF  x39
6322:  MOVLW  19
6324:  MOVWF  x3A
6326:  MOVLW  01
6328:  MOVWF  x3B
632A:  MOVLW  02
632C:  MOVWF  x3C
632E:  MOVLB  0
6330:  CALL   1442
....................       strcpy(Menus.Letra,"NO"); 
6334:  MOVLW  06
6336:  MOVWF  FEA
6338:  MOVLW  17
633A:  MOVWF  FE9
633C:  MOVFF  FF2,637
6340:  BCF    FF2.7
6342:  MOVLW  00
6344:  CALL   08EE
6348:  TBLRD*-
634A:  TBLRD*+
634C:  MOVF   FF5,W
634E:  MOVWF  FEE
6350:  IORLW  00
6352:  BNZ   634A
6354:  MOVLB  6
6356:  BTFSC  x37.7
6358:  BSF    FF2.7
....................       displayMenu(Menus.Letra,50,45,0,2); 
635A:  MOVLW  06
635C:  MOVWF  x38
635E:  MOVLW  17
6360:  MOVWF  x37
6362:  MOVLW  32
6364:  MOVWF  x39
6366:  MOVLW  2D
6368:  MOVWF  x3A
636A:  CLRF   x3B
636C:  MOVLW  02
636E:  MOVWF  x3C
6370:  MOVLB  0
6372:  CALL   1442
6376:  MOVLB  5
....................       } 
....................       if(Opcion==1) 
6378:  DECFSZ x9A,W
637A:  BRA    6406
....................       {strcpy(Menus.Letra,"SI"); 
637C:  MOVLW  06
637E:  MOVWF  FEA
6380:  MOVLW  17
6382:  MOVWF  FE9
6384:  MOVFF  FF2,637
6388:  BCF    FF2.7
638A:  MOVLW  00
638C:  MOVLB  0
638E:  CALL   08D0
6392:  TBLRD*-
6394:  TBLRD*+
6396:  MOVF   FF5,W
6398:  MOVWF  FEE
639A:  IORLW  00
639C:  BNZ   6394
639E:  MOVLB  6
63A0:  BTFSC  x37.7
63A2:  BSF    FF2.7
....................       displayMenu(Menus.Letra,50,25,0,2); 
63A4:  MOVLW  06
63A6:  MOVWF  x38
63A8:  MOVLW  17
63AA:  MOVWF  x37
63AC:  MOVLW  32
63AE:  MOVWF  x39
63B0:  MOVLW  19
63B2:  MOVWF  x3A
63B4:  CLRF   x3B
63B6:  MOVLW  02
63B8:  MOVWF  x3C
63BA:  MOVLB  0
63BC:  CALL   1442
....................       strcpy(Menus.Letra,"NO"); 
63C0:  MOVLW  06
63C2:  MOVWF  FEA
63C4:  MOVLW  17
63C6:  MOVWF  FE9
63C8:  MOVFF  FF2,637
63CC:  BCF    FF2.7
63CE:  MOVLW  00
63D0:  CALL   08EE
63D4:  TBLRD*-
63D6:  TBLRD*+
63D8:  MOVF   FF5,W
63DA:  MOVWF  FEE
63DC:  IORLW  00
63DE:  BNZ   63D6
63E0:  MOVLB  6
63E2:  BTFSC  x37.7
63E4:  BSF    FF2.7
....................       displayMenu(Menus.Letra,50,45,1,2); 
63E6:  MOVLW  06
63E8:  MOVWF  x38
63EA:  MOVLW  17
63EC:  MOVWF  x37
63EE:  MOVLW  32
63F0:  MOVWF  x39
63F2:  MOVLW  2D
63F4:  MOVWF  x3A
63F6:  MOVLW  01
63F8:  MOVWF  x3B
63FA:  MOVLW  02
63FC:  MOVWF  x3C
63FE:  MOVLB  0
6400:  CALL   1442
6404:  MOVLB  5
....................       }   
....................          
....................       if(UP)//Si oprime hacia arriba 
6406:  BSF    F92.5
6408:  BTFSS  F80.5
640A:  BRA    6416
....................       { 
....................          if(Opcion<2) 
640C:  MOVF   x9A,W
640E:  SUBLW  01
6410:  BNC   6414
....................          { 
....................             Opcion++; 
6412:  INCF   x9A,F
....................          } 
....................          visual=1; 
6414:  BSF    x8F.3
....................       } 
....................              
....................       if(DOWN)//Si oprime hacia abajo 
6416:  BSF    F96.0
6418:  BTFSS  F84.0
641A:  BRA    6426
....................       {   
....................          if(Opcion>1) 
641C:  MOVF   x9A,W
641E:  SUBLW  01
6420:  BC    6424
....................          { 
....................             Opcion--; 
6422:  DECF   x9A,F
....................          }   
....................          visual=1; 
6424:  BSF    x8F.3
....................       } 
....................        
....................        
....................       if(RIGHT)//Si oprime SET 
6426:  BSF    F96.1
6428:  BTFSS  F84.1
642A:  BRA    648E
....................       {   
....................          if(Opcion==2) 
642C:  MOVF   x9A,W
642E:  SUBLW  02
6430:  BNZ   6460
....................          { 
....................             Menu=1;glcd_fillScreen(OFF);Testerilizacion[0]=0;Testerilizacion[1]=0;Testerilizacion[2]=0;Testerilizacion[3]=0; 
6432:  MOVLW  01
6434:  MOVWF  x94
6436:  MOVLB  6
6438:  CLRF   x38
643A:  MOVLB  0
643C:  CALL   0E14
6440:  MOVLB  5
6442:  CLRF   xB7
6444:  CLRF   xB8
6446:  CLRF   xB9
6448:  CLRF   xBA
....................             Resistencia_off; 
644A:  BCF    F8B.0
644C:  BCF    F94.0
....................             Peltierp_off; 
644E:  BCF    F8B.1
6450:  BCF    F94.1
....................              
....................             Tpulso=0.0; 
6452:  CLRF   xDA
6454:  CLRF   xD9
6456:  CLRF   xD8
6458:  CLRF   xD7
....................             Opcion=1; 
645A:  MOVLW  01
645C:  MOVWF  x9A
....................          } 
....................          else 
645E:  BRA    648E
....................          { 
....................             delay_ms(700);Menu=20;glcd_fillscreen(OFF);Opcion=1;visual=1; 
6460:  MOVLW  04
6462:  MOVLB  6
6464:  MOVWF  x37
6466:  MOVLW  AF
6468:  MOVWF  x3D
646A:  MOVLB  0
646C:  CALL   0CFA
6470:  MOVLB  6
6472:  DECFSZ x37,F
6474:  BRA    6466
6476:  MOVLW  14
6478:  MOVLB  5
647A:  MOVWF  x94
647C:  MOVLB  6
647E:  CLRF   x38
6480:  MOVLB  0
6482:  CALL   0E14
6486:  MOVLW  01
6488:  MOVLB  5
648A:  MOVWF  x9A
648C:  BSF    x8F.3
....................          } 
....................       }  
....................                    
....................       if(LEFT)//Si oprime boton de Toma. 
648E:  BSF    F96.2
6490:  BTFSS  F84.2
6492:  BRA    64C2
....................       { 
....................          delay_ms(700);Menu=20;glcd_fillscreen(OFF);Opcion=1;visual=1; 
6494:  MOVLW  04
6496:  MOVLB  6
6498:  MOVWF  x37
649A:  MOVLW  AF
649C:  MOVWF  x3D
649E:  MOVLB  0
64A0:  CALL   0CFA
64A4:  MOVLB  6
64A6:  DECFSZ x37,F
64A8:  BRA    649A
64AA:  MOVLW  14
64AC:  MOVLB  5
64AE:  MOVWF  x94
64B0:  MOVLB  6
64B2:  CLRF   x38
64B4:  MOVLB  0
64B6:  CALL   0E14
64BA:  MOVLW  01
64BC:  MOVLB  5
64BE:  MOVWF  x9A
64C0:  BSF    x8F.3
....................       } 
....................          
....................     } 
.................... //_--------------------------------------------------------------------------------------------------------------------------------------------------------        
....................  
.................... //_-------------------------------------------------------------------------------------------------------------------------------------------------------- 
....................       if(Menu==100){ //Menu de Configuracin de Parametros de Control 
64C2:  MOVF   x94,W
64C4:  SUBLW  64
64C6:  BTFSS  FD8.2
64C8:  BRA    68B2
....................        
....................       if(Opcion>6) 
64CA:  MOVF   x9A,W
64CC:  SUBLW  06
64CE:  BC    64D4
....................       {Opcion=1;} 
64D0:  MOVLW  01
64D2:  MOVWF  x9A
....................       if(Opcion<1) 
64D4:  MOVF   x9A,F
64D6:  BNZ   64DC
....................       {Opcion=6;} 
64D8:  MOVLW  06
64DA:  MOVWF  x9A
....................        
....................          if(Opcion==1)    
64DC:  DECFSZ x9A,W
64DE:  BRA    6524
....................             {strcpy(Menus.Letra,"Ganancia"); 
64E0:  MOVLW  06
64E2:  MOVWF  FEA
64E4:  MOVLW  17
64E6:  MOVWF  FE9
64E8:  MOVFF  FF2,637
64EC:  BCF    FF2.7
64EE:  MOVLW  00
64F0:  MOVLB  0
64F2:  CALL   0B62
64F6:  TBLRD*-
64F8:  TBLRD*+
64FA:  MOVF   FF5,W
64FC:  MOVWF  FEE
64FE:  IORLW  00
6500:  BNZ   64F8
6502:  MOVLB  6
6504:  BTFSC  x37.7
6506:  BSF    FF2.7
....................             displayMenu(Menus.Letra,0,0,1,1);} 
6508:  MOVLW  06
650A:  MOVWF  x38
650C:  MOVLW  17
650E:  MOVWF  x37
6510:  CLRF   x39
6512:  CLRF   x3A
6514:  MOVLW  01
6516:  MOVWF  x3B
6518:  MOVWF  x3C
651A:  MOVLB  0
651C:  CALL   1442
....................          else 
6520:  BRA    6564
6522:  MOVLB  5
....................             {strcpy(Menus.Letra,"Ganancia"); 
6524:  MOVLW  06
6526:  MOVWF  FEA
6528:  MOVLW  17
652A:  MOVWF  FE9
652C:  MOVFF  FF2,637
6530:  BCF    FF2.7
6532:  MOVLW  00
6534:  MOVLB  0
6536:  CALL   0B62
653A:  TBLRD*-
653C:  TBLRD*+
653E:  MOVF   FF5,W
6540:  MOVWF  FEE
6542:  IORLW  00
6544:  BNZ   653C
6546:  MOVLB  6
6548:  BTFSC  x37.7
654A:  BSF    FF2.7
....................             displayMenu(Menus.Letra,0,0,0,1);} 
654C:  MOVLW  06
654E:  MOVWF  x38
6550:  MOVLW  17
6552:  MOVWF  x37
6554:  CLRF   x39
6556:  CLRF   x3A
6558:  CLRF   x3B
655A:  MOVLW  01
655C:  MOVWF  x3C
655E:  MOVLB  0
6560:  CALL   1442
....................           
....................          if(Opcion==2)    
6564:  MOVLB  5
6566:  MOVF   x9A,W
6568:  SUBLW  02
656A:  BNZ   65B2
....................             {strcpy(Menus.Letra,"Tciclo"); 
656C:  MOVLW  06
656E:  MOVWF  FEA
6570:  MOVLW  17
6572:  MOVWF  FE9
6574:  MOVFF  FF2,637
6578:  BCF    FF2.7
657A:  MOVLW  00
657C:  MOVLB  0
657E:  CALL   0B86
6582:  TBLRD*-
6584:  TBLRD*+
6586:  MOVF   FF5,W
6588:  MOVWF  FEE
658A:  IORLW  00
658C:  BNZ   6584
658E:  MOVLB  6
6590:  BTFSC  x37.7
6592:  BSF    FF2.7
....................             displayMenu(Menus.Letra,0,9,1,1);} 
6594:  MOVLW  06
6596:  MOVWF  x38
6598:  MOVLW  17
659A:  MOVWF  x37
659C:  CLRF   x39
659E:  MOVLW  09
65A0:  MOVWF  x3A
65A2:  MOVLW  01
65A4:  MOVWF  x3B
65A6:  MOVWF  x3C
65A8:  MOVLB  0
65AA:  CALL   1442
....................          else 
65AE:  BRA    65F4
65B0:  MOVLB  5
....................             {strcpy(Menus.Letra,"Tciclo"); 
65B2:  MOVLW  06
65B4:  MOVWF  FEA
65B6:  MOVLW  17
65B8:  MOVWF  FE9
65BA:  MOVFF  FF2,637
65BE:  BCF    FF2.7
65C0:  MOVLW  00
65C2:  MOVLB  0
65C4:  CALL   0B86
65C8:  TBLRD*-
65CA:  TBLRD*+
65CC:  MOVF   FF5,W
65CE:  MOVWF  FEE
65D0:  IORLW  00
65D2:  BNZ   65CA
65D4:  MOVLB  6
65D6:  BTFSC  x37.7
65D8:  BSF    FF2.7
....................             displayMenu(Menus.Letra,0,9,0,1);} 
65DA:  MOVLW  06
65DC:  MOVWF  x38
65DE:  MOVLW  17
65E0:  MOVWF  x37
65E2:  CLRF   x39
65E4:  MOVLW  09
65E6:  MOVWF  x3A
65E8:  CLRF   x3B
65EA:  MOVLW  01
65EC:  MOVWF  x3C
65EE:  MOVLB  0
65F0:  CALL   1442
....................              
....................          if(Opcion==3)    
65F4:  MOVLB  5
65F6:  MOVF   x9A,W
65F8:  SUBLW  03
65FA:  BNZ   6642
....................             {strcpy(Menus.Letra,"Ajuste +"); 
65FC:  MOVLW  06
65FE:  MOVWF  FEA
6600:  MOVLW  17
6602:  MOVWF  FE9
6604:  MOVFF  FF2,637
6608:  BCF    FF2.7
660A:  MOVLW  00
660C:  MOVLB  0
660E:  CALL   0BA8
6612:  TBLRD*-
6614:  TBLRD*+
6616:  MOVF   FF5,W
6618:  MOVWF  FEE
661A:  IORLW  00
661C:  BNZ   6614
661E:  MOVLB  6
6620:  BTFSC  x37.7
6622:  BSF    FF2.7
....................             displayMenu(Menus.Letra,0,18,1,1);} 
6624:  MOVLW  06
6626:  MOVWF  x38
6628:  MOVLW  17
662A:  MOVWF  x37
662C:  CLRF   x39
662E:  MOVLW  12
6630:  MOVWF  x3A
6632:  MOVLW  01
6634:  MOVWF  x3B
6636:  MOVWF  x3C
6638:  MOVLB  0
663A:  CALL   1442
....................          else 
663E:  BRA    6684
6640:  MOVLB  5
....................             {strcpy(Menus.Letra,"Ajuste +"); 
6642:  MOVLW  06
6644:  MOVWF  FEA
6646:  MOVLW  17
6648:  MOVWF  FE9
664A:  MOVFF  FF2,637
664E:  BCF    FF2.7
6650:  MOVLW  00
6652:  MOVLB  0
6654:  CALL   0BA8
6658:  TBLRD*-
665A:  TBLRD*+
665C:  MOVF   FF5,W
665E:  MOVWF  FEE
6660:  IORLW  00
6662:  BNZ   665A
6664:  MOVLB  6
6666:  BTFSC  x37.7
6668:  BSF    FF2.7
....................             displayMenu(Menus.Letra,0,18,0,1);}    
666A:  MOVLW  06
666C:  MOVWF  x38
666E:  MOVLW  17
6670:  MOVWF  x37
6672:  CLRF   x39
6674:  MOVLW  12
6676:  MOVWF  x3A
6678:  CLRF   x3B
667A:  MOVLW  01
667C:  MOVWF  x3C
667E:  MOVLB  0
6680:  CALL   1442
....................                          
....................          if(Opcion==4)    
6684:  MOVLB  5
6686:  MOVF   x9A,W
6688:  SUBLW  04
668A:  BNZ   66D2
....................             {strcpy(Menus.Letra,"Ajuste -"); 
668C:  MOVLW  06
668E:  MOVWF  FEA
6690:  MOVLW  17
6692:  MOVWF  FE9
6694:  MOVFF  FF2,637
6698:  BCF    FF2.7
669A:  MOVLW  00
669C:  MOVLB  0
669E:  CALL   0BCC
66A2:  TBLRD*-
66A4:  TBLRD*+
66A6:  MOVF   FF5,W
66A8:  MOVWF  FEE
66AA:  IORLW  00
66AC:  BNZ   66A4
66AE:  MOVLB  6
66B0:  BTFSC  x37.7
66B2:  BSF    FF2.7
....................             displayMenu(Menus.Letra,0,27,1,1);} 
66B4:  MOVLW  06
66B6:  MOVWF  x38
66B8:  MOVLW  17
66BA:  MOVWF  x37
66BC:  CLRF   x39
66BE:  MOVLW  1B
66C0:  MOVWF  x3A
66C2:  MOVLW  01
66C4:  MOVWF  x3B
66C6:  MOVWF  x3C
66C8:  MOVLB  0
66CA:  CALL   1442
....................          else 
66CE:  BRA    6714
66D0:  MOVLB  5
....................             {strcpy(Menus.Letra,"Ajuste -"); 
66D2:  MOVLW  06
66D4:  MOVWF  FEA
66D6:  MOVLW  17
66D8:  MOVWF  FE9
66DA:  MOVFF  FF2,637
66DE:  BCF    FF2.7
66E0:  MOVLW  00
66E2:  MOVLB  0
66E4:  CALL   0BCC
66E8:  TBLRD*-
66EA:  TBLRD*+
66EC:  MOVF   FF5,W
66EE:  MOVWF  FEE
66F0:  IORLW  00
66F2:  BNZ   66EA
66F4:  MOVLB  6
66F6:  BTFSC  x37.7
66F8:  BSF    FF2.7
....................             displayMenu(Menus.Letra,0,27,0,1);}      
66FA:  MOVLW  06
66FC:  MOVWF  x38
66FE:  MOVLW  17
6700:  MOVWF  x37
6702:  CLRF   x39
6704:  MOVLW  1B
6706:  MOVWF  x3A
6708:  CLRF   x3B
670A:  MOVLW  01
670C:  MOVWF  x3C
670E:  MOVLB  0
6710:  CALL   1442
....................              
....................          if(Opcion==5)    
6714:  MOVLB  5
6716:  MOVF   x9A,W
6718:  SUBLW  05
671A:  BNZ   6762
....................             {strcpy(Menus.Letra,"Media Movil"); 
671C:  MOVLW  06
671E:  MOVWF  FEA
6720:  MOVLW  17
6722:  MOVWF  FE9
6724:  MOVFF  FF2,637
6728:  BCF    FF2.7
672A:  MOVLW  00
672C:  MOVLB  0
672E:  CALL   0BF0
6732:  TBLRD*-
6734:  TBLRD*+
6736:  MOVF   FF5,W
6738:  MOVWF  FEE
673A:  IORLW  00
673C:  BNZ   6734
673E:  MOVLB  6
6740:  BTFSC  x37.7
6742:  BSF    FF2.7
....................             displayMenu(Menus.Letra,0,36,1,1);} 
6744:  MOVLW  06
6746:  MOVWF  x38
6748:  MOVLW  17
674A:  MOVWF  x37
674C:  CLRF   x39
674E:  MOVLW  24
6750:  MOVWF  x3A
6752:  MOVLW  01
6754:  MOVWF  x3B
6756:  MOVWF  x3C
6758:  MOVLB  0
675A:  CALL   1442
....................          else 
675E:  BRA    67A4
6760:  MOVLB  5
....................             {strcpy(Menus.Letra,"Media Movil"); 
6762:  MOVLW  06
6764:  MOVWF  FEA
6766:  MOVLW  17
6768:  MOVWF  FE9
676A:  MOVFF  FF2,637
676E:  BCF    FF2.7
6770:  MOVLW  00
6772:  MOVLB  0
6774:  CALL   0BF0
6778:  TBLRD*-
677A:  TBLRD*+
677C:  MOVF   FF5,W
677E:  MOVWF  FEE
6780:  IORLW  00
6782:  BNZ   677A
6784:  MOVLB  6
6786:  BTFSC  x37.7
6788:  BSF    FF2.7
....................             displayMenu(Menus.Letra,0,36,0,1);}      
678A:  MOVLW  06
678C:  MOVWF  x38
678E:  MOVLW  17
6790:  MOVWF  x37
6792:  CLRF   x39
6794:  MOVLW  24
6796:  MOVWF  x3A
6798:  CLRF   x3B
679A:  MOVLW  01
679C:  MOVWF  x3C
679E:  MOVLB  0
67A0:  CALL   1442
....................              
....................          if(Opcion==6)    
67A4:  MOVLB  5
67A6:  MOVF   x9A,W
67A8:  SUBLW  06
67AA:  BNZ   67F2
....................             {strcpy(Menus.Letra,"Coeficiente"); 
67AC:  MOVLW  06
67AE:  MOVWF  FEA
67B0:  MOVLW  17
67B2:  MOVWF  FE9
67B4:  MOVFF  FF2,637
67B8:  BCF    FF2.7
67BA:  MOVLW  00
67BC:  MOVLB  0
67BE:  CALL   0C16
67C2:  TBLRD*-
67C4:  TBLRD*+
67C6:  MOVF   FF5,W
67C8:  MOVWF  FEE
67CA:  IORLW  00
67CC:  BNZ   67C4
67CE:  MOVLB  6
67D0:  BTFSC  x37.7
67D2:  BSF    FF2.7
....................             displayMenu(Menus.Letra,0,45,1,1);} 
67D4:  MOVLW  06
67D6:  MOVWF  x38
67D8:  MOVLW  17
67DA:  MOVWF  x37
67DC:  CLRF   x39
67DE:  MOVLW  2D
67E0:  MOVWF  x3A
67E2:  MOVLW  01
67E4:  MOVWF  x3B
67E6:  MOVWF  x3C
67E8:  MOVLB  0
67EA:  CALL   1442
....................          else 
67EE:  BRA    6834
67F0:  MOVLB  5
....................             {strcpy(Menus.Letra,"Coeficiente"); 
67F2:  MOVLW  06
67F4:  MOVWF  FEA
67F6:  MOVLW  17
67F8:  MOVWF  FE9
67FA:  MOVFF  FF2,637
67FE:  BCF    FF2.7
6800:  MOVLW  00
6802:  MOVLB  0
6804:  CALL   0C16
6808:  TBLRD*-
680A:  TBLRD*+
680C:  MOVF   FF5,W
680E:  MOVWF  FEE
6810:  IORLW  00
6812:  BNZ   680A
6814:  MOVLB  6
6816:  BTFSC  x37.7
6818:  BSF    FF2.7
....................             displayMenu(Menus.Letra,0,45,0,1);}     
681A:  MOVLW  06
681C:  MOVWF  x38
681E:  MOVLW  17
6820:  MOVWF  x37
6822:  CLRF   x39
6824:  MOVLW  2D
6826:  MOVWF  x3A
6828:  CLRF   x3B
682A:  MOVLW  01
682C:  MOVWF  x3C
682E:  MOVLB  0
6830:  CALL   1442
....................                
....................        
....................       if(UP)//Si oprime hacia arriba 
6834:  BSF    F92.5
6836:  BTFSS  F80.5
6838:  BRA    6856
....................          {  if(Flanco == 0)  
683A:  MOVLB  5
683C:  BTFSC  x8F.0
683E:  BRA    6854
....................                {Flanco = 1;delay_ms(30);Opcion--;visual=1; 
6840:  BSF    x8F.0
6842:  MOVLW  1E
6844:  MOVLB  6
6846:  MOVWF  x3D
6848:  MOVLB  0
684A:  CALL   0CFA
684E:  MOVLB  5
6850:  DECF   x9A,F
6852:  BSF    x8F.3
....................                } 
....................          } 
....................             else 
6854:  BRA    685A
....................                {Flanco = 0;} 
6856:  MOVLB  5
6858:  BCF    x8F.0
....................                    
....................          if(DOWN)//Si oprime hacia abajo 
685A:  BSF    F96.0
685C:  BTFSS  F84.0
685E:  BRA    687A
....................          {  if(Flanco2 == 0)  
6860:  BTFSC  x8F.2
6862:  BRA    6878
....................                {Flanco2 = 1;delay_ms(30);Opcion++;visual=1; 
6864:  BSF    x8F.2
6866:  MOVLW  1E
6868:  MOVLB  6
686A:  MOVWF  x3D
686C:  MOVLB  0
686E:  CALL   0CFA
6872:  MOVLB  5
6874:  INCF   x9A,F
6876:  BSF    x8F.3
....................                }      
....................          } 
....................             else 
6878:  BRA    687C
....................                {Flanco2 = 0;}   
687A:  BCF    x8F.2
....................                 
....................        if(RIGHT)//Si oprime SET 
687C:  BSF    F96.1
687E:  BTFSS  F84.1
6880:  BRA    68B0
....................          {  if(Flanco1 == 0)  
6882:  BTFSC  x8F.1
6884:  BRA    68AE
....................                {Flanco1 = 1;delay_ms(30);Menu=Opcion+100;Opcion=1;glcd_fillscreen(OFF);visual=1; 
6886:  BSF    x8F.1
6888:  MOVLW  1E
688A:  MOVLB  6
688C:  MOVWF  x3D
688E:  MOVLB  0
6890:  CALL   0CFA
6894:  MOVLW  64
6896:  MOVLB  5
6898:  ADDWF  x9A,W
689A:  MOVWF  x94
689C:  MOVLW  01
689E:  MOVWF  x9A
68A0:  MOVLB  6
68A2:  CLRF   x38
68A4:  MOVLB  0
68A6:  CALL   0E14
68AA:  MOVLB  5
68AC:  BSF    x8F.3
....................                } 
....................          } 
....................             else 
68AE:  BRA    68B2
....................                {Flanco1 = 0;}   
68B0:  BCF    x8F.1
....................       /* 
....................       if(LEFT) 
....................       { 
....................          delay_ms(1000); 
....................          if(Sentido==0) 
....................          { 
....................             Sentido=1; 
....................          } 
....................          else 
....................          { 
....................             Sentido=0; 
....................          } 
....................           
....................       } 
....................        
....................       if(Sentido==0) 
....................          { 
....................             Peltierp_on; 
....................             Peltiern_off; 
....................          } 
....................          else 
....................          { 
....................             Peltierp_off; 
....................             Peltiern_on; 
....................          } 
....................       */ 
....................        
....................     } 
.................... //_--------------------------------------------------------------------------------------------------------------------------------------------------------        
....................  
.................... //_--------------------------------------------------------------------------------------------------------------------------------------------------------       
....................       if(Menu==101){ // Menu de Ajuste de Ganancia 
68B2:  MOVF   x94,W
68B4:  SUBLW  65
68B6:  BTFSS  FD8.2
68B8:  BRA    6B0E
....................        
....................       if(Ganancia>40) 
68BA:  MOVLB  6
68BC:  CLRF   x3A
68BE:  CLRF   x39
68C0:  MOVLW  20
68C2:  MOVWF  x38
68C4:  MOVLW  84
68C6:  MOVWF  x37
68C8:  MOVFF  5EE,63E
68CC:  MOVFF  5ED,63D
68D0:  MOVFF  5EC,63C
68D4:  MOVFF  5EB,63B
68D8:  MOVLB  0
68DA:  CALL   0D5A
68DE:  BNC   68EC
....................       { 
....................          Ganancia=2; 
68E0:  MOVLB  5
68E2:  CLRF   xEE
68E4:  CLRF   xED
68E6:  CLRF   xEC
68E8:  MOVLW  80
68EA:  MOVWF  xEB
....................       } 
....................        
....................       if(visual==1) 
68EC:  MOVLB  5
68EE:  BTFSS  x8F.3
68F0:  BRA    6978
....................       { 
....................          glcd_fillScreen(OFF); 
68F2:  MOVLB  6
68F4:  CLRF   x38
68F6:  MOVLB  0
68F8:  CALL   0E14
....................          strcpy(Menus.Letra,"Ganancia"); 
68FC:  MOVLW  06
68FE:  MOVWF  FEA
6900:  MOVLW  17
6902:  MOVWF  FE9
6904:  MOVFF  FF2,637
6908:  BCF    FF2.7
690A:  MOVLW  00
690C:  CALL   0B62
6910:  TBLRD*-
6912:  TBLRD*+
6914:  MOVF   FF5,W
6916:  MOVWF  FEE
6918:  IORLW  00
691A:  BNZ   6912
691C:  MOVLB  6
691E:  BTFSC  x37.7
6920:  BSF    FF2.7
....................          displayMenu(Menus.Letra,0,0,1,2); 
6922:  MOVLW  06
6924:  MOVWF  x38
6926:  MOVLW  17
6928:  MOVWF  x37
692A:  CLRF   x39
692C:  CLRF   x3A
692E:  MOVLW  01
6930:  MOVWF  x3B
6932:  MOVLW  02
6934:  MOVWF  x3C
6936:  MOVLB  0
6938:  CALL   1442
....................           
....................          displayTemperatura(Ganancia,30,30,0,3); 
693C:  MOVFF  5EE,63A
6940:  MOVFF  5ED,639
6944:  MOVFF  5EC,638
6948:  MOVFF  5EB,637
694C:  CALL   2866
6950:  MOVFF  02,638
6954:  MOVFF  01,637
6958:  MOVFF  02,63A
695C:  MOVFF  01,639
6960:  MOVLW  1E
6962:  MOVLB  6
6964:  MOVWF  x3B
6966:  MOVWF  x3C
6968:  CLRF   x3D
696A:  MOVLW  03
696C:  MOVWF  x3E
696E:  MOVLB  0
6970:  CALL   2342
....................           
....................          visual=0; 
6974:  MOVLB  5
6976:  BCF    x8F.3
....................       } 
....................        
....................          if(UP)//Si oprime hacia arriba 
6978:  BSF    F92.5
697A:  BTFSS  F80.5
697C:  BRA    6A0A
....................          {   
....................             if(Ganancia>40) 
697E:  MOVLB  6
6980:  CLRF   x3A
6982:  CLRF   x39
6984:  MOVLW  20
6986:  MOVWF  x38
6988:  MOVLW  84
698A:  MOVWF  x37
698C:  MOVFF  5EE,63E
6990:  MOVFF  5ED,63D
6994:  MOVFF  5EC,63C
6998:  MOVFF  5EB,63B
699C:  MOVLB  0
699E:  CALL   0D5A
69A2:  BNC   69C6
....................             { 
....................                Ganancia=40;delay_ms(100);visual=1; 
69A4:  MOVLB  5
69A6:  CLRF   xEE
69A8:  CLRF   xED
69AA:  MOVLW  20
69AC:  MOVWF  xEC
69AE:  MOVLW  84
69B0:  MOVWF  xEB
69B2:  MOVLW  64
69B4:  MOVLB  6
69B6:  MOVWF  x3D
69B8:  MOVLB  0
69BA:  CALL   0CFA
69BE:  MOVLB  5
69C0:  BSF    x8F.3
....................             } 
....................             else 
69C2:  BRA    6A0A
69C4:  MOVLB  0
....................             { 
....................                delay_ms(30);Ganancia+=1.0;visual=1; 
69C6:  MOVLW  1E
69C8:  MOVLB  6
69CA:  MOVWF  x3D
69CC:  MOVLB  0
69CE:  CALL   0CFA
69D2:  BCF    FD8.1
69D4:  MOVFF  5EE,63F
69D8:  MOVFF  5ED,63E
69DC:  MOVFF  5EC,63D
69E0:  MOVFF  5EB,63C
69E4:  MOVLB  6
69E6:  CLRF   x43
69E8:  CLRF   x42
69EA:  CLRF   x41
69EC:  MOVLW  7F
69EE:  MOVWF  x40
69F0:  MOVLB  0
69F2:  CALL   18D6
69F6:  MOVFF  03,5EE
69FA:  MOVFF  02,5ED
69FE:  MOVFF  01,5EC
6A02:  MOVFF  00,5EB
6A06:  MOVLB  5
6A08:  BSF    x8F.3
....................             } 
....................          } 
....................                 
....................          if(DOWN)//Si oprime hacia abajo 
6A0A:  BSF    F96.0
6A0C:  BTFSS  F84.0
6A0E:  BRA    6A78
....................          {   
....................             if(Ganancia>1) 
6A10:  MOVLB  6
6A12:  CLRF   x3A
6A14:  CLRF   x39
6A16:  CLRF   x38
6A18:  MOVLW  7F
6A1A:  MOVWF  x37
6A1C:  MOVFF  5EE,63E
6A20:  MOVFF  5ED,63D
6A24:  MOVFF  5EC,63C
6A28:  MOVFF  5EB,63B
6A2C:  MOVLB  0
6A2E:  CALL   0D5A
6A32:  BNC   6A7A
....................             { 
....................                delay_ms(30);Ganancia-=1.0;visual=1;      
6A34:  MOVLW  1E
6A36:  MOVLB  6
6A38:  MOVWF  x3D
6A3A:  MOVLB  0
6A3C:  CALL   0CFA
6A40:  BSF    FD8.1
6A42:  MOVFF  5EE,63F
6A46:  MOVFF  5ED,63E
6A4A:  MOVFF  5EC,63D
6A4E:  MOVFF  5EB,63C
6A52:  MOVLB  6
6A54:  CLRF   x43
6A56:  CLRF   x42
6A58:  CLRF   x41
6A5A:  MOVLW  7F
6A5C:  MOVWF  x40
6A5E:  MOVLB  0
6A60:  CALL   18D6
6A64:  MOVFF  03,5EE
6A68:  MOVFF  02,5ED
6A6C:  MOVFF  01,5EC
6A70:  MOVFF  00,5EB
6A74:  MOVLB  5
6A76:  BSF    x8F.3
6A78:  MOVLB  0
....................             } 
....................          } 
....................                 
....................          if(RIGHT)//Si oprime SET 
6A7A:  BSF    F96.1
6A7C:  BTFSS  F84.1
6A7E:  BRA    6A92
....................          {   
....................             delay_ms(30);visual=1; 
6A80:  MOVLW  1E
6A82:  MOVLB  6
6A84:  MOVWF  x3D
6A86:  MOVLB  0
6A88:  CALL   0CFA
6A8C:  MOVLB  5
6A8E:  BSF    x8F.3
6A90:  MOVLB  0
....................          }  
....................                    
....................          if(LEFT)//Si oprime boton de Toma. 
6A92:  BSF    F96.2
6A94:  BTFSS  F84.2
6A96:  BRA    6B0C
....................          { 
....................             delay_ms(700);Menu=100;glcd_fillscreen(OFF);Opcion=1;visual=1; 
6A98:  MOVLW  04
6A9A:  MOVLB  6
6A9C:  MOVWF  x37
6A9E:  MOVLW  AF
6AA0:  MOVWF  x3D
6AA2:  MOVLB  0
6AA4:  CALL   0CFA
6AA8:  MOVLB  6
6AAA:  DECFSZ x37,F
6AAC:  BRA    6A9E
6AAE:  MOVLW  64
6AB0:  MOVLB  5
6AB2:  MOVWF  x94
6AB4:  MOVLB  6
6AB6:  CLRF   x38
6AB8:  MOVLB  0
6ABA:  CALL   0E14
6ABE:  MOVLW  01
6AC0:  MOVLB  5
6AC2:  MOVWF  x9A
6AC4:  BSF    x8F.3
....................             write_eeprom(90,(int8)Ganancia); 
6AC6:  MOVFF  5EE,63A
6ACA:  MOVFF  5ED,639
6ACE:  MOVFF  5EC,638
6AD2:  MOVFF  5EB,637
6AD6:  MOVLB  0
6AD8:  CALL   2866
6ADC:  MOVFF  01,637
6AE0:  MOVLW  5A
6AE2:  MOVWF  FA9
6AE4:  MOVFF  637,FA8
6AE8:  BCF    FA6.6
6AEA:  BCF    FA6.7
6AEC:  BSF    FA6.2
6AEE:  MOVF   FF2,W
6AF0:  MOVWF  00
6AF2:  BCF    FF2.7
6AF4:  MOVLB  F
6AF6:  MOVLW  55
6AF8:  MOVWF  FA7
6AFA:  MOVLW  AA
6AFC:  MOVWF  FA7
6AFE:  BSF    FA6.1
6B00:  BTFSC  FA6.1
6B02:  BRA    6B00
6B04:  BCF    FA6.2
6B06:  MOVF   00,W
6B08:  IORWF  FF2,F
6B0A:  MOVLB  0
6B0C:  MOVLB  5
....................          } 
....................      } 
.................... //_-------------------------------------------------------------------------------------------------------------------------------------------------------- 
....................  
....................  
.................... //_--------------------------------------------------------------------------------------------------------------------------------------------------------       
....................       if(Menu==102){ // Menu de Ajuste de Ganancia2 
6B0E:  MOVF   x94,W
6B10:  SUBLW  66
6B12:  BTFSS  FD8.2
6B14:  BRA    6D6C
....................        
....................       if(Tciclo>40) 
6B16:  MOVLB  6
6B18:  CLRF   x3A
6B1A:  CLRF   x39
6B1C:  MOVLW  20
6B1E:  MOVWF  x38
6B20:  MOVLW  84
6B22:  MOVWF  x37
6B24:  MOVFF  5D6,63E
6B28:  MOVFF  5D5,63D
6B2C:  MOVFF  5D4,63C
6B30:  MOVFF  5D3,63B
6B34:  MOVLB  0
6B36:  CALL   0D5A
6B3A:  BNC   6B4A
....................       { 
....................          Tciclo=40; 
6B3C:  MOVLB  5
6B3E:  CLRF   xD6
6B40:  CLRF   xD5
6B42:  MOVLW  20
6B44:  MOVWF  xD4
6B46:  MOVLW  84
6B48:  MOVWF  xD3
....................       } 
....................        
....................       if(visual==1) 
6B4A:  MOVLB  5
6B4C:  BTFSS  x8F.3
6B4E:  BRA    6BD6
....................       { 
....................          glcd_fillScreen(OFF); 
6B50:  MOVLB  6
6B52:  CLRF   x38
6B54:  MOVLB  0
6B56:  CALL   0E14
....................          strcpy(Menus.Letra,"Tciclo"); 
6B5A:  MOVLW  06
6B5C:  MOVWF  FEA
6B5E:  MOVLW  17
6B60:  MOVWF  FE9
6B62:  MOVFF  FF2,637
6B66:  BCF    FF2.7
6B68:  MOVLW  00
6B6A:  CALL   0B86
6B6E:  TBLRD*-
6B70:  TBLRD*+
6B72:  MOVF   FF5,W
6B74:  MOVWF  FEE
6B76:  IORLW  00
6B78:  BNZ   6B70
6B7A:  MOVLB  6
6B7C:  BTFSC  x37.7
6B7E:  BSF    FF2.7
....................          displayMenu(Menus.Letra,0,0,1,2); 
6B80:  MOVLW  06
6B82:  MOVWF  x38
6B84:  MOVLW  17
6B86:  MOVWF  x37
6B88:  CLRF   x39
6B8A:  CLRF   x3A
6B8C:  MOVLW  01
6B8E:  MOVWF  x3B
6B90:  MOVLW  02
6B92:  MOVWF  x3C
6B94:  MOVLB  0
6B96:  CALL   1442
....................           
....................          displayTemperatura(Tciclo,30,30,0,3); 
6B9A:  MOVFF  5D6,63A
6B9E:  MOVFF  5D5,639
6BA2:  MOVFF  5D4,638
6BA6:  MOVFF  5D3,637
6BAA:  CALL   2866
6BAE:  MOVFF  02,638
6BB2:  MOVFF  01,637
6BB6:  MOVFF  02,63A
6BBA:  MOVFF  01,639
6BBE:  MOVLW  1E
6BC0:  MOVLB  6
6BC2:  MOVWF  x3B
6BC4:  MOVWF  x3C
6BC6:  CLRF   x3D
6BC8:  MOVLW  03
6BCA:  MOVWF  x3E
6BCC:  MOVLB  0
6BCE:  CALL   2342
....................           
....................          visual=0; 
6BD2:  MOVLB  5
6BD4:  BCF    x8F.3
....................       } 
....................        
....................          if(UP)//Si oprime hacia arriba 
6BD6:  BSF    F92.5
6BD8:  BTFSS  F80.5
6BDA:  BRA    6C68
....................          {   
....................             if(Tciclo>40) 
6BDC:  MOVLB  6
6BDE:  CLRF   x3A
6BE0:  CLRF   x39
6BE2:  MOVLW  20
6BE4:  MOVWF  x38
6BE6:  MOVLW  84
6BE8:  MOVWF  x37
6BEA:  MOVFF  5D6,63E
6BEE:  MOVFF  5D5,63D
6BF2:  MOVFF  5D4,63C
6BF6:  MOVFF  5D3,63B
6BFA:  MOVLB  0
6BFC:  CALL   0D5A
6C00:  BNC   6C24
....................             { 
....................                Tciclo=40;delay_ms(100);visual=1; 
6C02:  MOVLB  5
6C04:  CLRF   xD6
6C06:  CLRF   xD5
6C08:  MOVLW  20
6C0A:  MOVWF  xD4
6C0C:  MOVLW  84
6C0E:  MOVWF  xD3
6C10:  MOVLW  64
6C12:  MOVLB  6
6C14:  MOVWF  x3D
6C16:  MOVLB  0
6C18:  CALL   0CFA
6C1C:  MOVLB  5
6C1E:  BSF    x8F.3
....................             } 
....................             else 
6C20:  BRA    6C68
6C22:  MOVLB  0
....................             { 
....................                delay_ms(30);Tciclo+=1.0;visual=1; 
6C24:  MOVLW  1E
6C26:  MOVLB  6
6C28:  MOVWF  x3D
6C2A:  MOVLB  0
6C2C:  CALL   0CFA
6C30:  BCF    FD8.1
6C32:  MOVFF  5D6,63F
6C36:  MOVFF  5D5,63E
6C3A:  MOVFF  5D4,63D
6C3E:  MOVFF  5D3,63C
6C42:  MOVLB  6
6C44:  CLRF   x43
6C46:  CLRF   x42
6C48:  CLRF   x41
6C4A:  MOVLW  7F
6C4C:  MOVWF  x40
6C4E:  MOVLB  0
6C50:  CALL   18D6
6C54:  MOVFF  03,5D6
6C58:  MOVFF  02,5D5
6C5C:  MOVFF  01,5D4
6C60:  MOVFF  00,5D3
6C64:  MOVLB  5
6C66:  BSF    x8F.3
....................             } 
....................          } 
....................                 
....................          if(DOWN)//Si oprime hacia abajo 
6C68:  BSF    F96.0
6C6A:  BTFSS  F84.0
6C6C:  BRA    6CD6
....................          {   
....................             if(Tciclo>1) 
6C6E:  MOVLB  6
6C70:  CLRF   x3A
6C72:  CLRF   x39
6C74:  CLRF   x38
6C76:  MOVLW  7F
6C78:  MOVWF  x37
6C7A:  MOVFF  5D6,63E
6C7E:  MOVFF  5D5,63D
6C82:  MOVFF  5D4,63C
6C86:  MOVFF  5D3,63B
6C8A:  MOVLB  0
6C8C:  CALL   0D5A
6C90:  BNC   6CD8
....................             { 
....................                delay_ms(30);Tciclo-=1.0;visual=1;      
6C92:  MOVLW  1E
6C94:  MOVLB  6
6C96:  MOVWF  x3D
6C98:  MOVLB  0
6C9A:  CALL   0CFA
6C9E:  BSF    FD8.1
6CA0:  MOVFF  5D6,63F
6CA4:  MOVFF  5D5,63E
6CA8:  MOVFF  5D4,63D
6CAC:  MOVFF  5D3,63C
6CB0:  MOVLB  6
6CB2:  CLRF   x43
6CB4:  CLRF   x42
6CB6:  CLRF   x41
6CB8:  MOVLW  7F
6CBA:  MOVWF  x40
6CBC:  MOVLB  0
6CBE:  CALL   18D6
6CC2:  MOVFF  03,5D6
6CC6:  MOVFF  02,5D5
6CCA:  MOVFF  01,5D4
6CCE:  MOVFF  00,5D3
6CD2:  MOVLB  5
6CD4:  BSF    x8F.3
6CD6:  MOVLB  0
....................             } 
....................          } 
....................                 
....................          if(RIGHT)//Si oprime SET 
6CD8:  BSF    F96.1
6CDA:  BTFSS  F84.1
6CDC:  BRA    6CF0
....................          {   
....................             delay_ms(30);visual=1; 
6CDE:  MOVLW  1E
6CE0:  MOVLB  6
6CE2:  MOVWF  x3D
6CE4:  MOVLB  0
6CE6:  CALL   0CFA
6CEA:  MOVLB  5
6CEC:  BSF    x8F.3
6CEE:  MOVLB  0
....................          }  
....................                    
....................          if(LEFT)//Si oprime boton de Toma. 
6CF0:  BSF    F96.2
6CF2:  BTFSS  F84.2
6CF4:  BRA    6D6A
....................          { 
....................             delay_ms(700);Menu=100;glcd_fillscreen(OFF);Opcion=1;visual=1; 
6CF6:  MOVLW  04
6CF8:  MOVLB  6
6CFA:  MOVWF  x37
6CFC:  MOVLW  AF
6CFE:  MOVWF  x3D
6D00:  MOVLB  0
6D02:  CALL   0CFA
6D06:  MOVLB  6
6D08:  DECFSZ x37,F
6D0A:  BRA    6CFC
6D0C:  MOVLW  64
6D0E:  MOVLB  5
6D10:  MOVWF  x94
6D12:  MOVLB  6
6D14:  CLRF   x38
6D16:  MOVLB  0
6D18:  CALL   0E14
6D1C:  MOVLW  01
6D1E:  MOVLB  5
6D20:  MOVWF  x9A
6D22:  BSF    x8F.3
....................             write_eeprom(30,(int8)Tciclo); 
6D24:  MOVFF  5D6,63A
6D28:  MOVFF  5D5,639
6D2C:  MOVFF  5D4,638
6D30:  MOVFF  5D3,637
6D34:  MOVLB  0
6D36:  CALL   2866
6D3A:  MOVFF  01,637
6D3E:  MOVLW  1E
6D40:  MOVWF  FA9
6D42:  MOVFF  637,FA8
6D46:  BCF    FA6.6
6D48:  BCF    FA6.7
6D4A:  BSF    FA6.2
6D4C:  MOVF   FF2,W
6D4E:  MOVWF  00
6D50:  BCF    FF2.7
6D52:  MOVLB  F
6D54:  MOVLW  55
6D56:  MOVWF  FA7
6D58:  MOVLW  AA
6D5A:  MOVWF  FA7
6D5C:  BSF    FA6.1
6D5E:  BTFSC  FA6.1
6D60:  BRA    6D5E
6D62:  BCF    FA6.2
6D64:  MOVF   00,W
6D66:  IORWF  FF2,F
6D68:  MOVLB  0
6D6A:  MOVLB  5
....................          } 
....................      } 
.................... //_-------------------------------------------------------------------------------------------------------------------------------------------------------- 
....................  
.................... //_--------------------------------------------------------------------------------------------------------------------------------------------------------       
....................       if(Menu==103){ // Menu de Ajuste de Ajuste 
6D6C:  MOVF   x94,W
6D6E:  SUBLW  67
6D70:  BTFSS  FD8.2
6D72:  BRA    6F3C
....................        
....................       if(Ajuste>100) 
6D74:  MOVF   x88,W
6D76:  SUBLW  64
6D78:  BC    6D7C
....................       { 
....................          Ajuste=0; 
6D7A:  CLRF   x88
....................       } 
....................        
....................       if(visual==1) 
6D7C:  BTFSS  x8F.3
6D7E:  BRA    6DE8
....................       { 
....................          glcd_fillScreen(OFF); 
6D80:  MOVLB  6
6D82:  CLRF   x38
6D84:  MOVLB  0
6D86:  CALL   0E14
....................          strcpy(Menus.Letra,"Ajuste"); 
6D8A:  MOVLW  06
6D8C:  MOVWF  FEA
6D8E:  MOVLW  17
6D90:  MOVWF  FE9
6D92:  MOVFF  FF2,637
6D96:  BCF    FF2.7
6D98:  MOVLW  00
6D9A:  CALL   0C3C
6D9E:  TBLRD*-
6DA0:  TBLRD*+
6DA2:  MOVF   FF5,W
6DA4:  MOVWF  FEE
6DA6:  IORLW  00
6DA8:  BNZ   6DA0
6DAA:  MOVLB  6
6DAC:  BTFSC  x37.7
6DAE:  BSF    FF2.7
....................          displayMenu(Menus.Letra,0,0,1,2); 
6DB0:  MOVLW  06
6DB2:  MOVWF  x38
6DB4:  MOVLW  17
6DB6:  MOVWF  x37
6DB8:  CLRF   x39
6DBA:  CLRF   x3A
6DBC:  MOVLW  01
6DBE:  MOVWF  x3B
6DC0:  MOVLW  02
6DC2:  MOVWF  x3C
6DC4:  MOVLB  0
6DC6:  CALL   1442
....................           
....................          displayTemperatura(Ajuste,30,30,0,3); 
6DCA:  MOVLB  6
6DCC:  CLRF   x3A
6DCE:  MOVFF  588,639
6DD2:  MOVLW  1E
6DD4:  MOVWF  x3B
6DD6:  MOVWF  x3C
6DD8:  CLRF   x3D
6DDA:  MOVLW  03
6DDC:  MOVWF  x3E
6DDE:  MOVLB  0
6DE0:  CALL   2342
....................           
....................          visual=0; 
6DE4:  MOVLB  5
6DE6:  BCF    x8F.3
....................       } 
....................        
....................          if(UP)//Si oprime hacia arriba 
6DE8:  BSF    F92.5
6DEA:  BTFSS  F80.5
6DEC:  BRA    6E62
....................          {   
....................             if(Ajuste>100) 
6DEE:  MOVF   x88,W
6DF0:  SUBLW  64
6DF2:  BC    6E08
....................             { 
....................                Ajuste=100;delay_ms(100);visual=1; 
6DF4:  MOVLW  64
6DF6:  MOVWF  x88
6DF8:  MOVLB  6
6DFA:  MOVWF  x3D
6DFC:  MOVLB  0
6DFE:  CALL   0CFA
6E02:  MOVLB  5
6E04:  BSF    x8F.3
....................             } 
....................             else 
6E06:  BRA    6E62
....................             { 
....................                delay_ms(30);Ajuste+=1.0;visual=1; 
6E08:  MOVLW  1E
6E0A:  MOVLB  6
6E0C:  MOVWF  x3D
6E0E:  MOVLB  0
6E10:  CALL   0CFA
6E14:  MOVLB  6
6E16:  CLRF   x3E
6E18:  MOVFF  588,63D
6E1C:  MOVLB  0
6E1E:  CALL   0D24
6E22:  BCF    FD8.1
6E24:  MOVFF  03,63F
6E28:  MOVFF  02,63E
6E2C:  MOVFF  01,63D
6E30:  MOVFF  00,63C
6E34:  MOVLB  6
6E36:  CLRF   x43
6E38:  CLRF   x42
6E3A:  CLRF   x41
6E3C:  MOVLW  7F
6E3E:  MOVWF  x40
6E40:  MOVLB  0
6E42:  CALL   18D6
6E46:  MOVFF  03,63A
6E4A:  MOVFF  02,639
6E4E:  MOVFF  01,638
6E52:  MOVFF  00,637
6E56:  CALL   2866
6E5A:  MOVFF  01,588
6E5E:  MOVLB  5
6E60:  BSF    x8F.3
....................             } 
....................          } 
....................                 
....................          if(DOWN)//Si oprime hacia abajo 
6E62:  BSF    F96.0
6E64:  BTFSS  F84.0
6E66:  BRA    6EC6
....................          {   
....................             if(Ajuste>0) 
6E68:  MOVF   x88,F
6E6A:  BZ    6EC6
....................             { 
....................                delay_ms(30);Ajuste-=1.0;visual=1;      
6E6C:  MOVLW  1E
6E6E:  MOVLB  6
6E70:  MOVWF  x3D
6E72:  MOVLB  0
6E74:  CALL   0CFA
6E78:  MOVLB  6
6E7A:  CLRF   x3E
6E7C:  MOVFF  588,63D
6E80:  MOVLB  0
6E82:  CALL   0D24
6E86:  BSF    FD8.1
6E88:  MOVFF  03,63F
6E8C:  MOVFF  02,63E
6E90:  MOVFF  01,63D
6E94:  MOVFF  00,63C
6E98:  MOVLB  6
6E9A:  CLRF   x43
6E9C:  CLRF   x42
6E9E:  CLRF   x41
6EA0:  MOVLW  7F
6EA2:  MOVWF  x40
6EA4:  MOVLB  0
6EA6:  CALL   18D6
6EAA:  MOVFF  03,63A
6EAE:  MOVFF  02,639
6EB2:  MOVFF  01,638
6EB6:  MOVFF  00,637
6EBA:  CALL   2866
6EBE:  MOVFF  01,588
6EC2:  MOVLB  5
6EC4:  BSF    x8F.3
....................             } 
....................          } 
....................                 
....................          if(RIGHT)//Si oprime SET 
6EC6:  BSF    F96.1
6EC8:  BTFSS  F84.1
6ECA:  BRA    6EDC
....................          {   
....................             delay_ms(30);visual=1; 
6ECC:  MOVLW  1E
6ECE:  MOVLB  6
6ED0:  MOVWF  x3D
6ED2:  MOVLB  0
6ED4:  CALL   0CFA
6ED8:  MOVLB  5
6EDA:  BSF    x8F.3
....................          }  
....................                    
....................          if(LEFT)//Si oprime boton de Toma. 
6EDC:  BSF    F96.2
6EDE:  BTFSS  F84.2
6EE0:  BRA    6F3C
....................          { 
....................             delay_ms(700);Menu=100;glcd_fillscreen(OFF);Opcion=1;visual=1; 
6EE2:  MOVLW  04
6EE4:  MOVLB  6
6EE6:  MOVWF  x37
6EE8:  MOVLW  AF
6EEA:  MOVWF  x3D
6EEC:  MOVLB  0
6EEE:  CALL   0CFA
6EF2:  MOVLB  6
6EF4:  DECFSZ x37,F
6EF6:  BRA    6EE8
6EF8:  MOVLW  64
6EFA:  MOVLB  5
6EFC:  MOVWF  x94
6EFE:  MOVLB  6
6F00:  CLRF   x38
6F02:  MOVLB  0
6F04:  CALL   0E14
6F08:  MOVLW  01
6F0A:  MOVLB  5
6F0C:  MOVWF  x9A
6F0E:  BSF    x8F.3
....................             write_eeprom(40,Ajuste); 
6F10:  MOVLW  28
6F12:  MOVWF  FA9
6F14:  MOVFF  588,FA8
6F18:  BCF    FA6.6
6F1A:  BCF    FA6.7
6F1C:  BSF    FA6.2
6F1E:  MOVF   FF2,W
6F20:  MOVWF  00
6F22:  BCF    FF2.7
6F24:  MOVLB  F
6F26:  MOVLW  55
6F28:  MOVWF  FA7
6F2A:  MOVLW  AA
6F2C:  MOVWF  FA7
6F2E:  BSF    FA6.1
6F30:  BTFSC  FA6.1
6F32:  BRA    6F30
6F34:  BCF    FA6.2
6F36:  MOVF   00,W
6F38:  IORWF  FF2,F
6F3A:  MOVLB  5
....................          } 
....................      } 
.................... //_-------------------------------------------------------------------------------------------------------------------------------------------------------- 
....................  
.................... //_--------------------------------------------------------------------------------------------------------------------------------------------------------       
....................       if(Menu==104){ // Menu de Ajuste de Ajusten 
6F3C:  MOVF   x94,W
6F3E:  SUBLW  68
6F40:  BTFSS  FD8.2
6F42:  BRA    710C
....................        
....................       if(Ajusten>100) 
6F44:  MOVF   x89,W
6F46:  SUBLW  64
6F48:  BC    6F4C
....................       { 
....................          Ajusten=0; 
6F4A:  CLRF   x89
....................       } 
....................        
....................       if(visual==1) 
6F4C:  BTFSS  x8F.3
6F4E:  BRA    6FB8
....................       { 
....................          glcd_fillScreen(OFF); 
6F50:  MOVLB  6
6F52:  CLRF   x38
6F54:  MOVLB  0
6F56:  CALL   0E14
....................          strcpy(Menus.Letra,"Ajusten"); 
6F5A:  MOVLW  06
6F5C:  MOVWF  FEA
6F5E:  MOVLW  17
6F60:  MOVWF  FE9
6F62:  MOVFF  FF2,637
6F66:  BCF    FF2.7
6F68:  MOVLW  00
6F6A:  CALL   0C5E
6F6E:  TBLRD*-
6F70:  TBLRD*+
6F72:  MOVF   FF5,W
6F74:  MOVWF  FEE
6F76:  IORLW  00
6F78:  BNZ   6F70
6F7A:  MOVLB  6
6F7C:  BTFSC  x37.7
6F7E:  BSF    FF2.7
....................          displayMenu(Menus.Letra,0,0,1,2); 
6F80:  MOVLW  06
6F82:  MOVWF  x38
6F84:  MOVLW  17
6F86:  MOVWF  x37
6F88:  CLRF   x39
6F8A:  CLRF   x3A
6F8C:  MOVLW  01
6F8E:  MOVWF  x3B
6F90:  MOVLW  02
6F92:  MOVWF  x3C
6F94:  MOVLB  0
6F96:  CALL   1442
....................           
....................          displayTemperatura(Ajusten,30,30,0,3); 
6F9A:  MOVLB  6
6F9C:  CLRF   x3A
6F9E:  MOVFF  589,639
6FA2:  MOVLW  1E
6FA4:  MOVWF  x3B
6FA6:  MOVWF  x3C
6FA8:  CLRF   x3D
6FAA:  MOVLW  03
6FAC:  MOVWF  x3E
6FAE:  MOVLB  0
6FB0:  CALL   2342
....................           
....................          visual=0; 
6FB4:  MOVLB  5
6FB6:  BCF    x8F.3
....................       } 
....................        
....................          if(UP)//Si oprime hacia arriba 
6FB8:  BSF    F92.5
6FBA:  BTFSS  F80.5
6FBC:  BRA    7032
....................          {   
....................             if(Ajusten>100) 
6FBE:  MOVF   x89,W
6FC0:  SUBLW  64
6FC2:  BC    6FD8
....................             { 
....................                Ajusten=100;delay_ms(100);visual=1; 
6FC4:  MOVLW  64
6FC6:  MOVWF  x89
6FC8:  MOVLB  6
6FCA:  MOVWF  x3D
6FCC:  MOVLB  0
6FCE:  CALL   0CFA
6FD2:  MOVLB  5
6FD4:  BSF    x8F.3
....................             } 
....................             else 
6FD6:  BRA    7032
....................             { 
....................                delay_ms(30);Ajusten+=1.0;visual=1; 
6FD8:  MOVLW  1E
6FDA:  MOVLB  6
6FDC:  MOVWF  x3D
6FDE:  MOVLB  0
6FE0:  CALL   0CFA
6FE4:  MOVLB  6
6FE6:  CLRF   x3E
6FE8:  MOVFF  589,63D
6FEC:  MOVLB  0
6FEE:  CALL   0D24
6FF2:  BCF    FD8.1
6FF4:  MOVFF  03,63F
6FF8:  MOVFF  02,63E
6FFC:  MOVFF  01,63D
7000:  MOVFF  00,63C
7004:  MOVLB  6
7006:  CLRF   x43
7008:  CLRF   x42
700A:  CLRF   x41
700C:  MOVLW  7F
700E:  MOVWF  x40
7010:  MOVLB  0
7012:  CALL   18D6
7016:  MOVFF  03,63A
701A:  MOVFF  02,639
701E:  MOVFF  01,638
7022:  MOVFF  00,637
7026:  CALL   2866
702A:  MOVFF  01,589
702E:  MOVLB  5
7030:  BSF    x8F.3
....................             } 
....................          } 
....................                 
....................          if(DOWN)//Si oprime hacia abajo 
7032:  BSF    F96.0
7034:  BTFSS  F84.0
7036:  BRA    7096
....................          {   
....................             if(Ajusten>0) 
7038:  MOVF   x89,F
703A:  BZ    7096
....................             { 
....................                delay_ms(30);Ajusten-=1.0;visual=1;      
703C:  MOVLW  1E
703E:  MOVLB  6
7040:  MOVWF  x3D
7042:  MOVLB  0
7044:  CALL   0CFA
7048:  MOVLB  6
704A:  CLRF   x3E
704C:  MOVFF  589,63D
7050:  MOVLB  0
7052:  CALL   0D24
7056:  BSF    FD8.1
7058:  MOVFF  03,63F
705C:  MOVFF  02,63E
7060:  MOVFF  01,63D
7064:  MOVFF  00,63C
7068:  MOVLB  6
706A:  CLRF   x43
706C:  CLRF   x42
706E:  CLRF   x41
7070:  MOVLW  7F
7072:  MOVWF  x40
7074:  MOVLB  0
7076:  CALL   18D6
707A:  MOVFF  03,63A
707E:  MOVFF  02,639
7082:  MOVFF  01,638
7086:  MOVFF  00,637
708A:  CALL   2866
708E:  MOVFF  01,589
7092:  MOVLB  5
7094:  BSF    x8F.3
....................             } 
....................          } 
....................                 
....................          if(RIGHT)//Si oprime SET 
7096:  BSF    F96.1
7098:  BTFSS  F84.1
709A:  BRA    70AC
....................          {   
....................             delay_ms(30);visual=1; 
709C:  MOVLW  1E
709E:  MOVLB  6
70A0:  MOVWF  x3D
70A2:  MOVLB  0
70A4:  CALL   0CFA
70A8:  MOVLB  5
70AA:  BSF    x8F.3
....................          }  
....................                    
....................          if(LEFT)//Si oprime boton de Toma. 
70AC:  BSF    F96.2
70AE:  BTFSS  F84.2
70B0:  BRA    710C
....................          { 
....................             delay_ms(700);Menu=100;glcd_fillscreen(OFF);Opcion=1;visual=1; 
70B2:  MOVLW  04
70B4:  MOVLB  6
70B6:  MOVWF  x37
70B8:  MOVLW  AF
70BA:  MOVWF  x3D
70BC:  MOVLB  0
70BE:  CALL   0CFA
70C2:  MOVLB  6
70C4:  DECFSZ x37,F
70C6:  BRA    70B8
70C8:  MOVLW  64
70CA:  MOVLB  5
70CC:  MOVWF  x94
70CE:  MOVLB  6
70D0:  CLRF   x38
70D2:  MOVLB  0
70D4:  CALL   0E14
70D8:  MOVLW  01
70DA:  MOVLB  5
70DC:  MOVWF  x9A
70DE:  BSF    x8F.3
....................             write_eeprom(50,Ajusten); 
70E0:  MOVLW  32
70E2:  MOVWF  FA9
70E4:  MOVFF  589,FA8
70E8:  BCF    FA6.6
70EA:  BCF    FA6.7
70EC:  BSF    FA6.2
70EE:  MOVF   FF2,W
70F0:  MOVWF  00
70F2:  BCF    FF2.7
70F4:  MOVLB  F
70F6:  MOVLW  55
70F8:  MOVWF  FA7
70FA:  MOVLW  AA
70FC:  MOVWF  FA7
70FE:  BSF    FA6.1
7100:  BTFSC  FA6.1
7102:  BRA    7100
7104:  BCF    FA6.2
7106:  MOVF   00,W
7108:  IORWF  FF2,F
710A:  MOVLB  5
....................          } 
....................      } 
.................... //_-------------------------------------------------------------------------------------------------------------------------------------------------------- 
....................  
.................... //_--------------------------------------------------------------------------------------------------------------------------------------------------------       
....................       if(Menu==105){ // Menu de Ajuste de Media Movil 
710C:  MOVF   x94,W
710E:  SUBLW  69
7110:  BTFSS  FD8.2
7112:  BRA    72E2
....................        
....................       if(MediaMovil>80) 
7114:  MOVF   x8A,W
7116:  SUBLW  50
7118:  BC    711E
....................       { 
....................          MediaMovil=80; 
711A:  MOVLW  50
711C:  MOVWF  x8A
....................       } 
....................        
....................       if(visual==1) 
711E:  BTFSS  x8F.3
7120:  BRA    718A
....................       { 
....................          glcd_fillScreen(OFF); 
7122:  MOVLB  6
7124:  CLRF   x38
7126:  MOVLB  0
7128:  CALL   0E14
....................          strcpy(Menus.Letra,"Media"); 
712C:  MOVLW  06
712E:  MOVWF  FEA
7130:  MOVLW  17
7132:  MOVWF  FE9
7134:  MOVFF  FF2,637
7138:  BCF    FF2.7
713A:  MOVLW  00
713C:  CALL   0C80
7140:  TBLRD*-
7142:  TBLRD*+
7144:  MOVF   FF5,W
7146:  MOVWF  FEE
7148:  IORLW  00
714A:  BNZ   7142
714C:  MOVLB  6
714E:  BTFSC  x37.7
7150:  BSF    FF2.7
....................          displayMenu(Menus.Letra,0,0,1,2); 
7152:  MOVLW  06
7154:  MOVWF  x38
7156:  MOVLW  17
7158:  MOVWF  x37
715A:  CLRF   x39
715C:  CLRF   x3A
715E:  MOVLW  01
7160:  MOVWF  x3B
7162:  MOVLW  02
7164:  MOVWF  x3C
7166:  MOVLB  0
7168:  CALL   1442
....................           
....................          displayTemperatura(MediaMovil,30,30,0,3); 
716C:  MOVLB  6
716E:  CLRF   x3A
7170:  MOVFF  58A,639
7174:  MOVLW  1E
7176:  MOVWF  x3B
7178:  MOVWF  x3C
717A:  CLRF   x3D
717C:  MOVLW  03
717E:  MOVWF  x3E
7180:  MOVLB  0
7182:  CALL   2342
....................           
....................          visual=0; 
7186:  MOVLB  5
7188:  BCF    x8F.3
....................       } 
....................        
....................          if(UP)//Si oprime hacia arriba 
718A:  BSF    F92.5
718C:  BTFSS  F80.5
718E:  BRA    7206
....................          {   
....................             if(MediaMovil>79) 
7190:  MOVF   x8A,W
7192:  SUBLW  4F
7194:  BC    71AC
....................             { 
....................                MediaMovil=79;delay_ms(100);visual=1; 
7196:  MOVLW  4F
7198:  MOVWF  x8A
719A:  MOVLW  64
719C:  MOVLB  6
719E:  MOVWF  x3D
71A0:  MOVLB  0
71A2:  CALL   0CFA
71A6:  MOVLB  5
71A8:  BSF    x8F.3
....................             } 
....................             else 
71AA:  BRA    7206
....................             { 
....................                delay_ms(30);MediaMovil+=1.0;visual=1; 
71AC:  MOVLW  1E
71AE:  MOVLB  6
71B0:  MOVWF  x3D
71B2:  MOVLB  0
71B4:  CALL   0CFA
71B8:  MOVLB  6
71BA:  CLRF   x3E
71BC:  MOVFF  58A,63D
71C0:  MOVLB  0
71C2:  CALL   0D24
71C6:  BCF    FD8.1
71C8:  MOVFF  03,63F
71CC:  MOVFF  02,63E
71D0:  MOVFF  01,63D
71D4:  MOVFF  00,63C
71D8:  MOVLB  6
71DA:  CLRF   x43
71DC:  CLRF   x42
71DE:  CLRF   x41
71E0:  MOVLW  7F
71E2:  MOVWF  x40
71E4:  MOVLB  0
71E6:  CALL   18D6
71EA:  MOVFF  03,63A
71EE:  MOVFF  02,639
71F2:  MOVFF  01,638
71F6:  MOVFF  00,637
71FA:  CALL   2866
71FE:  MOVFF  01,58A
7202:  MOVLB  5
7204:  BSF    x8F.3
....................             } 
....................          } 
....................                 
....................          if(DOWN)//Si oprime hacia abajo 
7206:  BSF    F96.0
7208:  BTFSS  F84.0
720A:  BRA    726C
....................          {   
....................             if(MediaMovil>1) 
720C:  MOVF   x8A,W
720E:  SUBLW  01
7210:  BC    726C
....................             { 
....................                delay_ms(30);MediaMovil-=1.0;visual=1;      
7212:  MOVLW  1E
7214:  MOVLB  6
7216:  MOVWF  x3D
7218:  MOVLB  0
721A:  CALL   0CFA
721E:  MOVLB  6
7220:  CLRF   x3E
7222:  MOVFF  58A,63D
7226:  MOVLB  0
7228:  CALL   0D24
722C:  BSF    FD8.1
722E:  MOVFF  03,63F
7232:  MOVFF  02,63E
7236:  MOVFF  01,63D
723A:  MOVFF  00,63C
723E:  MOVLB  6
7240:  CLRF   x43
7242:  CLRF   x42
7244:  CLRF   x41
7246:  MOVLW  7F
7248:  MOVWF  x40
724A:  MOVLB  0
724C:  CALL   18D6
7250:  MOVFF  03,63A
7254:  MOVFF  02,639
7258:  MOVFF  01,638
725C:  MOVFF  00,637
7260:  CALL   2866
7264:  MOVFF  01,58A
7268:  MOVLB  5
726A:  BSF    x8F.3
....................             } 
....................          } 
....................                 
....................          if(RIGHT)//Si oprime SET 
726C:  BSF    F96.1
726E:  BTFSS  F84.1
7270:  BRA    7282
....................          {   
....................             delay_ms(30);visual=1; 
7272:  MOVLW  1E
7274:  MOVLB  6
7276:  MOVWF  x3D
7278:  MOVLB  0
727A:  CALL   0CFA
727E:  MOVLB  5
7280:  BSF    x8F.3
....................          }  
....................                    
....................          if(LEFT)//Si oprime boton de Toma. 
7282:  BSF    F96.2
7284:  BTFSS  F84.2
7286:  BRA    72E2
....................          { 
....................             delay_ms(700);Menu=100;glcd_fillscreen(OFF);Opcion=1;visual=1; 
7288:  MOVLW  04
728A:  MOVLB  6
728C:  MOVWF  x37
728E:  MOVLW  AF
7290:  MOVWF  x3D
7292:  MOVLB  0
7294:  CALL   0CFA
7298:  MOVLB  6
729A:  DECFSZ x37,F
729C:  BRA    728E
729E:  MOVLW  64
72A0:  MOVLB  5
72A2:  MOVWF  x94
72A4:  MOVLB  6
72A6:  CLRF   x38
72A8:  MOVLB  0
72AA:  CALL   0E14
72AE:  MOVLW  01
72B0:  MOVLB  5
72B2:  MOVWF  x9A
72B4:  BSF    x8F.3
....................             write_eeprom(60,MediaMovil); 
72B6:  MOVLW  3C
72B8:  MOVWF  FA9
72BA:  MOVFF  58A,FA8
72BE:  BCF    FA6.6
72C0:  BCF    FA6.7
72C2:  BSF    FA6.2
72C4:  MOVF   FF2,W
72C6:  MOVWF  00
72C8:  BCF    FF2.7
72CA:  MOVLB  F
72CC:  MOVLW  55
72CE:  MOVWF  FA7
72D0:  MOVLW  AA
72D2:  MOVWF  FA7
72D4:  BSF    FA6.1
72D6:  BTFSC  FA6.1
72D8:  BRA    72D6
72DA:  BCF    FA6.2
72DC:  MOVF   00,W
72DE:  IORWF  FF2,F
72E0:  MOVLB  5
....................          } 
....................      } 
.................... //_-------------------------------------------------------------------------------------------------------------------------------------------------------- 
....................  
.................... //_--------------------------------------------------------------------------------------------------------------------------------------------------------       
....................       if(Menu==106){ // Menu de Ajuste de Coeficiente Regulador 
72E2:  MOVF   x94,W
72E4:  SUBLW  6A
72E6:  BTFSS  FD8.2
72E8:  BRA    7540
....................        
....................       if(Coeficiente>250) 
72EA:  MOVLB  6
72EC:  CLRF   x3A
72EE:  CLRF   x39
72F0:  MOVLW  7A
72F2:  MOVWF  x38
72F4:  MOVLW  86
72F6:  MOVWF  x37
72F8:  MOVFF  5FA,63E
72FC:  MOVFF  5F9,63D
7300:  MOVFF  5F8,63C
7304:  MOVFF  5F7,63B
7308:  MOVLB  0
730A:  CALL   0D5A
730E:  BNC   731E
....................       { 
....................          Coeficiente=100; 
7310:  MOVLB  5
7312:  CLRF   xFA
7314:  CLRF   xF9
7316:  MOVLW  48
7318:  MOVWF  xF8
731A:  MOVLW  85
731C:  MOVWF  xF7
....................       } 
....................        
....................       if(visual==1) 
731E:  MOVLB  5
7320:  BTFSS  x8F.3
7322:  BRA    73AA
....................       { 
....................          glcd_fillScreen(OFF); 
7324:  MOVLB  6
7326:  CLRF   x38
7328:  MOVLB  0
732A:  CALL   0E14
....................          strcpy(Menus.Letra,"Coeficiente"); 
732E:  MOVLW  06
7330:  MOVWF  FEA
7332:  MOVLW  17
7334:  MOVWF  FE9
7336:  MOVFF  FF2,637
733A:  BCF    FF2.7
733C:  MOVLW  00
733E:  CALL   0C16
7342:  TBLRD*-
7344:  TBLRD*+
7346:  MOVF   FF5,W
7348:  MOVWF  FEE
734A:  IORLW  00
734C:  BNZ   7344
734E:  MOVLB  6
7350:  BTFSC  x37.7
7352:  BSF    FF2.7
....................          displayMenu(Menus.Letra,0,0,1,2); 
7354:  MOVLW  06
7356:  MOVWF  x38
7358:  MOVLW  17
735A:  MOVWF  x37
735C:  CLRF   x39
735E:  CLRF   x3A
7360:  MOVLW  01
7362:  MOVWF  x3B
7364:  MOVLW  02
7366:  MOVWF  x3C
7368:  MOVLB  0
736A:  CALL   1442
....................           
....................          displayTemperatura(Coeficiente,30,30,0,3); 
736E:  MOVFF  5FA,63A
7372:  MOVFF  5F9,639
7376:  MOVFF  5F8,638
737A:  MOVFF  5F7,637
737E:  CALL   2866
7382:  MOVFF  02,638
7386:  MOVFF  01,637
738A:  MOVFF  02,63A
738E:  MOVFF  01,639
7392:  MOVLW  1E
7394:  MOVLB  6
7396:  MOVWF  x3B
7398:  MOVWF  x3C
739A:  CLRF   x3D
739C:  MOVLW  03
739E:  MOVWF  x3E
73A0:  MOVLB  0
73A2:  CALL   2342
....................           
....................          visual=0; 
73A6:  MOVLB  5
73A8:  BCF    x8F.3
....................       } 
....................        
....................          if(UP)//Si oprime hacia arriba 
73AA:  BSF    F92.5
73AC:  BTFSS  F80.5
73AE:  BRA    743C
....................          {   
....................             if(Coeficiente>250) 
73B0:  MOVLB  6
73B2:  CLRF   x3A
73B4:  CLRF   x39
73B6:  MOVLW  7A
73B8:  MOVWF  x38
73BA:  MOVLW  86
73BC:  MOVWF  x37
73BE:  MOVFF  5FA,63E
73C2:  MOVFF  5F9,63D
73C6:  MOVFF  5F8,63C
73CA:  MOVFF  5F7,63B
73CE:  MOVLB  0
73D0:  CALL   0D5A
73D4:  BNC   73F8
....................             { 
....................                Coeficiente=250;delay_ms(100);visual=1; 
73D6:  MOVLB  5
73D8:  CLRF   xFA
73DA:  CLRF   xF9
73DC:  MOVLW  7A
73DE:  MOVWF  xF8
73E0:  MOVLW  86
73E2:  MOVWF  xF7
73E4:  MOVLW  64
73E6:  MOVLB  6
73E8:  MOVWF  x3D
73EA:  MOVLB  0
73EC:  CALL   0CFA
73F0:  MOVLB  5
73F2:  BSF    x8F.3
....................             } 
....................             else 
73F4:  BRA    743C
73F6:  MOVLB  0
....................             { 
....................                delay_ms(30);Coeficiente+=1.0;visual=1; 
73F8:  MOVLW  1E
73FA:  MOVLB  6
73FC:  MOVWF  x3D
73FE:  MOVLB  0
7400:  CALL   0CFA
7404:  BCF    FD8.1
7406:  MOVFF  5FA,63F
740A:  MOVFF  5F9,63E
740E:  MOVFF  5F8,63D
7412:  MOVFF  5F7,63C
7416:  MOVLB  6
7418:  CLRF   x43
741A:  CLRF   x42
741C:  CLRF   x41
741E:  MOVLW  7F
7420:  MOVWF  x40
7422:  MOVLB  0
7424:  CALL   18D6
7428:  MOVFF  03,5FA
742C:  MOVFF  02,5F9
7430:  MOVFF  01,5F8
7434:  MOVFF  00,5F7
7438:  MOVLB  5
743A:  BSF    x8F.3
....................             } 
....................          } 
....................                 
....................          if(DOWN)//Si oprime hacia abajo 
743C:  BSF    F96.0
743E:  BTFSS  F84.0
7440:  BRA    74AA
....................          {   
....................             if(Coeficiente>1) 
7442:  MOVLB  6
7444:  CLRF   x3A
7446:  CLRF   x39
7448:  CLRF   x38
744A:  MOVLW  7F
744C:  MOVWF  x37
744E:  MOVFF  5FA,63E
7452:  MOVFF  5F9,63D
7456:  MOVFF  5F8,63C
745A:  MOVFF  5F7,63B
745E:  MOVLB  0
7460:  CALL   0D5A
7464:  BNC   74AC
....................             { 
....................                delay_ms(30);Coeficiente-=1.0;visual=1;      
7466:  MOVLW  1E
7468:  MOVLB  6
746A:  MOVWF  x3D
746C:  MOVLB  0
746E:  CALL   0CFA
7472:  BSF    FD8.1
7474:  MOVFF  5FA,63F
7478:  MOVFF  5F9,63E
747C:  MOVFF  5F8,63D
7480:  MOVFF  5F7,63C
7484:  MOVLB  6
7486:  CLRF   x43
7488:  CLRF   x42
748A:  CLRF   x41
748C:  MOVLW  7F
748E:  MOVWF  x40
7490:  MOVLB  0
7492:  CALL   18D6
7496:  MOVFF  03,5FA
749A:  MOVFF  02,5F9
749E:  MOVFF  01,5F8
74A2:  MOVFF  00,5F7
74A6:  MOVLB  5
74A8:  BSF    x8F.3
74AA:  MOVLB  0
....................             } 
....................          } 
....................                 
....................          if(RIGHT)//Si oprime SET 
74AC:  BSF    F96.1
74AE:  BTFSS  F84.1
74B0:  BRA    74C4
....................          {   
....................             delay_ms(30);visual=1; 
74B2:  MOVLW  1E
74B4:  MOVLB  6
74B6:  MOVWF  x3D
74B8:  MOVLB  0
74BA:  CALL   0CFA
74BE:  MOVLB  5
74C0:  BSF    x8F.3
74C2:  MOVLB  0
....................          }  
....................                    
....................          if(LEFT)//Si oprime boton de Toma. 
74C4:  BSF    F96.2
74C6:  BTFSS  F84.2
74C8:  BRA    753E
....................          { 
....................             delay_ms(700);Menu=100;glcd_fillscreen(OFF);Opcion=1;visual=1; 
74CA:  MOVLW  04
74CC:  MOVLB  6
74CE:  MOVWF  x37
74D0:  MOVLW  AF
74D2:  MOVWF  x3D
74D4:  MOVLB  0
74D6:  CALL   0CFA
74DA:  MOVLB  6
74DC:  DECFSZ x37,F
74DE:  BRA    74D0
74E0:  MOVLW  64
74E2:  MOVLB  5
74E4:  MOVWF  x94
74E6:  MOVLB  6
74E8:  CLRF   x38
74EA:  MOVLB  0
74EC:  CALL   0E14
74F0:  MOVLW  01
74F2:  MOVLB  5
74F4:  MOVWF  x9A
74F6:  BSF    x8F.3
....................             write_eeprom(70,(int8)Coeficiente); 
74F8:  MOVFF  5FA,63A
74FC:  MOVFF  5F9,639
7500:  MOVFF  5F8,638
7504:  MOVFF  5F7,637
7508:  MOVLB  0
750A:  CALL   2866
750E:  MOVFF  01,637
7512:  MOVLW  46
7514:  MOVWF  FA9
7516:  MOVFF  637,FA8
751A:  BCF    FA6.6
751C:  BCF    FA6.7
751E:  BSF    FA6.2
7520:  MOVF   FF2,W
7522:  MOVWF  00
7524:  BCF    FF2.7
7526:  MOVLB  F
7528:  MOVLW  55
752A:  MOVWF  FA7
752C:  MOVLW  AA
752E:  MOVWF  FA7
7530:  BSF    FA6.1
7532:  BTFSC  FA6.1
7534:  BRA    7532
7536:  BCF    FA6.2
7538:  MOVF   00,W
753A:  IORWF  FF2,F
753C:  MOVLB  0
753E:  MOVLB  5
....................          } 
....................      } 
.................... //_-------------------------------------------------------------------------------------------------------------------------------------------------------- 
....................  
....................       if(LecturaTemperatura==1) 
7540:  BTFSS  x8F.5
7542:  BRA    7562
....................       { 
....................          Temperatura=Leer_Sensor(MediaMovil); 
7544:  MOVFF  58A,637
7548:  MOVLB  0
754A:  CALL   1C66
754E:  MOVFF  03,602
7552:  MOVFF  02,601
7556:  MOVFF  01,600
755A:  MOVFF  00,5FF
....................          LecturaTemperatura=0; 
755E:  MOVLB  5
7560:  BCF    x8F.5
....................       } 
....................  
....................       if(tiemporeset>=60) 
7562:  MOVF   x92,W
7564:  SUBLW  3B
7566:  BC    7578
....................       { 
....................          glcd_init(ON); 
7568:  MOVLW  01
756A:  MOVLB  6
756C:  MOVWF  x37
756E:  MOVLB  0
7570:  CALL   0F26
....................          tiemporeset=0; 
7574:  MOVLB  5
7576:  CLRF   x92
....................       }  
....................  
....................    } 
7578:  GOTO   3D6E
.................... } 
757C:  SLEEP 

Configuration Fuses:
   Word  1: C220   XTPLL IESO FCMEN PLL1 CPUDIV1 USBDIV
   Word  2: 1E3E   BROWNOUT NOWDT BORV20 PUT WDT32768 VREGEN
   Word  3: 0700   PBADEN CCP2C1 NOMCLR LPT1OSC
   Word  4: 0081   STVREN NODEBUG NOLVP NOXINST NOICPRT
   Word  5: C00F   NOPROTECT NOCPD NOCPB
   Word  6: E00F   NOWRT NOWRTD NOWRTC NOWRTB
   Word  7: 400F   NOEBTR NOEBTRB
