CCS PCH C Compiler, Version 4.104, 5967               14-ene.-20 16:20

               Filename: D:\Laboratorio\Incubadora\2019\Incubadora Dual Avantika OP2019185 #004588069\Firmware V1.1-VariacionVelocidad\Horno.lst

               ROM used: 44952 bytes (46%)
                         Largest free fragment is 32768
               RAM used: 1687 (51%) at main() level
                         1745 (52%) worst case
               Stack:    7 worst case (6 in main + 1 for interrupts)

*
00000:  GOTO   6CBA
*
00008:  GOTO   00AE
0000C:  NOP   
0000E:  NOP   
00010:  NOP   
00012:  NOP   
00014:  NOP   
00016:  NOP   
00018:  MOVWF  04
0001A:  MOVFF  FD8,05
0001E:  MOVFF  FE0,06
00022:  MOVLB  0
00024:  MOVFF  FE9,0C
00028:  MOVFF  FEA,07
0002C:  MOVFF  FE1,08
00030:  MOVFF  FE2,09
00034:  MOVFF  FD9,0A
00038:  MOVFF  FDA,0B
0003C:  MOVFF  FF3,12
00040:  MOVFF  FF4,13
00044:  MOVFF  FFA,14
00048:  MOVFF  FFB,15
0004C:  MOVFF  00,0E
00050:  MOVFF  01,0F
00054:  MOVFF  02,10
00058:  MOVFF  03,11
0005C:  BTFSS  F9D.0
0005E:  GOTO   0068
00062:  BTFSC  F9E.0
00064:  GOTO   122E
00068:  MOVFF  0E,00
0006C:  MOVFF  0F,01
00070:  MOVFF  10,02
00074:  MOVFF  11,03
00078:  MOVFF  0C,FE9
0007C:  MOVFF  07,FEA
00080:  BSF    07.7
00082:  MOVFF  08,FE1
00086:  MOVFF  09,FE2
0008A:  MOVFF  0A,FD9
0008E:  MOVFF  0B,FDA
00092:  MOVFF  12,FF3
00096:  MOVFF  13,FF4
0009A:  MOVFF  14,FFA
0009E:  MOVFF  15,FFB
000A2:  MOVF   04,W
000A4:  MOVFF  06,FE0
000A8:  MOVFF  05,FD8
000AC:  RETFIE 0
000AE:  MOVWF  17
000B0:  MOVFF  FD8,18
000B4:  MOVFF  FE0,19
000B8:  MOVLB  0
000BA:  MOVFF  FE9,1F
000BE:  MOVFF  FEA,1A
000C2:  MOVFF  FE1,1B
000C6:  MOVFF  FE2,1C
000CA:  MOVFF  FD9,1D
000CE:  MOVFF  FDA,1E
000D2:  MOVFF  FF3,25
000D6:  MOVFF  FF4,26
000DA:  MOVFF  FFA,27
000DE:  MOVFF  FFB,28
000E2:  MOVFF  00,21
000E6:  MOVFF  01,22
000EA:  MOVFF  02,23
000EE:  MOVFF  03,24
000F2:  BTFSS  FF2.5
000F4:  GOTO   00FE
000F8:  BTFSC  FF2.2
000FA:  GOTO   1200
000FE:  BTFSS  FF2.4
00100:  GOTO   010A
00104:  BTFSC  FF2.1
00106:  GOTO   1154
0010A:  MOVFF  21,00
0010E:  MOVFF  22,01
00112:  MOVFF  23,02
00116:  MOVFF  24,03
0011A:  MOVFF  1F,FE9
0011E:  MOVFF  1A,FEA
00122:  BSF    1A.7
00124:  MOVFF  1B,FE1
00128:  MOVFF  1C,FE2
0012C:  MOVFF  1D,FD9
00130:  MOVFF  1E,FDA
00134:  MOVFF  25,FF3
00138:  MOVFF  26,FF4
0013C:  MOVFF  27,FFA
00140:  MOVFF  28,FFB
00144:  MOVF   17,W
00146:  MOVFF  19,FE0
0014A:  MOVFF  18,FD8
0014E:  RETFIE 0
.................... #include <18F4685.h> 
.................... //////// Standard Header file for the PIC18F4685 device //////////////// 
.................... #device PIC18F4685 
.................... #list 
....................  
.................... #device adc=10 
.................... #device HIGH_INTS=TRUE //Activamos niveles de prioridad 
.................... #fuses HS,WDT8192,NOPROTECT,NOLVP,NODEBUG,NOSTVREN,NOPUT,NOCPD,NOWRT,NOIESO,NOFCMEN,NOPBADEN,NOWRTC,NOWRTB,NOEBTR,NOEBTRB,NOCPB,NOXINST,NOLPT1OSC,NOMCLR 
.................... #use delay(clock=20000000) 
*
0131C:  MOVLW  06
0131E:  MOVWF  FEA
01320:  MOVLW  9C
01322:  MOVWF  FE9
01324:  MOVF   FEF,W
01326:  BZ    1342
01328:  MOVLW  06
0132A:  MOVWF  01
0132C:  CLRF   00
0132E:  DECFSZ 00,F
01330:  BRA    132E
01332:  DECFSZ 01,F
01334:  BRA    132C
01336:  MOVLW  7B
01338:  MOVWF  00
0133A:  DECFSZ 00,F
0133C:  BRA    133A
0133E:  DECFSZ FEF,F
01340:  BRA    1328
01342:  RETLW  00
.................... #use i2c(Master,slow,sda=PIN_C4,scl=PIN_C3) 
*
03890:  MOVLW  08
03892:  MOVWF  01
03894:  MOVLW  05
03896:  MOVWF  00
03898:  DECFSZ 00,F
0389A:  BRA    3898
0389C:  BCF    F8B.3
0389E:  BCF    F94.3
038A0:  MOVLW  06
038A2:  MOVWF  00
038A4:  DECFSZ 00,F
038A6:  BRA    38A4
038A8:  MOVLB  6
038AA:  RLCF   x97,F
038AC:  BCF    F8B.4
038AE:  BTFSC  FD8.0
038B0:  BSF    F94.4
038B2:  BTFSS  FD8.0
038B4:  BCF    F94.4
038B6:  BSF    F94.3
038B8:  BTFSS  F82.3
038BA:  BRA    38B8
038BC:  DECFSZ 01,F
038BE:  BRA    38C2
038C0:  BRA    38C6
038C2:  MOVLB  0
038C4:  BRA    3894
038C6:  MOVLW  05
038C8:  MOVWF  00
038CA:  DECFSZ 00,F
038CC:  BRA    38CA
038CE:  BCF    F8B.3
038D0:  BCF    F94.3
038D2:  NOP   
038D4:  BSF    F94.4
038D6:  MOVLW  06
038D8:  MOVWF  00
038DA:  DECFSZ 00,F
038DC:  BRA    38DA
038DE:  MOVLW  06
038E0:  MOVWF  00
038E2:  DECFSZ 00,F
038E4:  BRA    38E2
038E6:  BSF    F94.3
038E8:  BTFSS  F82.3
038EA:  BRA    38E8
038EC:  CLRF   01
038EE:  MOVLW  06
038F0:  MOVWF  00
038F2:  DECFSZ 00,F
038F4:  BRA    38F2
038F6:  BTFSC  F82.4
038F8:  BSF    01.0
038FA:  BCF    F8B.3
038FC:  BCF    F94.3
038FE:  BCF    F8B.4
03900:  BCF    F94.4
03902:  MOVLB  0
03904:  RETLW  00
.................... #include "HDM64GS12.c" 
.................... ///////////////////////////////////////////////////////////////////////// 
.................... ////                           HDM64GS12.c                           //// 
.................... ////                                                                 //// 
.................... //// This file contains drivers for using a Hantronix HDM64GS12 with //// 
.................... //// a KS0108 display controller. The HDM64GS12 is 128 by 64 pixels. //// 
.................... //// The driver treats the upper left pixel as (0,0).                //// 
.................... ////                                                                 //// 
.................... //// Use #define FAST_GLCD if the target chip has at least 1k of RAM //// 
.................... //// to decrease the time it takes to update the display.            //// 
.................... //// glcd_update() must then be called to update the display after   //// 
.................... //// changing the pixel information.                                 //// 
.................... //// See ex_glcd.c for suggested usage.                              //// 
.................... //// See KS0108.c for controlling a single 64 by 64 display          //// 
.................... ///////////////////////////////////////////////////////////////////////// 
.................... ////                                                                 //// 
.................... //// LCD Pin connections:                                            //// 
.................... //// (These can be changed as needed in the following defines).      //// 
.................... ////  * 1: VSS is connected to GND                                   //// 
.................... ////  * 2: VDD is connected to +5V                                   //// 
.................... ////  * 3: V0  - LCD operating voltage (Constrast adjustment)        //// 
.................... ////  * 4: D/I - Data or Instruction is connected to B2              //// 
.................... ////  * 5: R/W - Read or Write is connected to B4                    //// 
.................... ////  * 6: Enable is connected to B5                                 //// 
.................... ////  *7-14: Data Bus 0 to 7 is connected to port d                  //// 
.................... ////  *15: Chip Select 1 is connected to B0                          //// 
.................... ////  *16: Chip Select 2 is connected to B1                          //// 
.................... ////  *17: Reset is connected to C0                                  //// 
.................... ////  *18: Negative voltage is also connected to the 20k Ohm POT     //// 
.................... ////  *19: Positive voltage for LED backlight is connected to +5V    //// 
.................... ////  *20: Negavtive voltage for LED backlight is connected to GND   //// 
.................... ////                                                                 //// 
.................... ///////////////////////////////////////////////////////////////////////// 
.................... ////                                                                 //// 
.................... ////  glcd_init(mode)                                                //// 
.................... ////     * Must be called before any other function.                 //// 
.................... ////       - mode can be ON or OFF to turn the LCD on or off         //// 
.................... ////                                                                 //// 
.................... ////  glcd_pixel(x,y,color)                                          //// 
.................... ////     * Sets the pixel to the given color.                        //// 
.................... ////       - color can be ON or OFF                                  //// 
.................... ////                                                                 //// 
.................... ////  glcd_fillScreen(color)                                         //// 
.................... ////     * Fills the entire LCD with the given color.                //// 
.................... ////       - color can be ON or OFF                                  //// 
.................... ////                                                                 //// 
.................... ////  glcd_update()                                                  //// 
.................... ////     * Write the display data stored in RAM to the LCD           //// 
.................... ////     * Only available if FAST_GLCD is defined                    //// 
.................... ////                                                                 //// 
.................... ///////////////////////////////////////////////////////////////////////// 
.................... ////        (C) Copyright 1996, 2004 Custom Computer Services        //// 
.................... //// This source code may only be used by licensed users of the CCS  //// 
.................... //// C compiler.  This source code may only be distributed to other  //// 
.................... //// licensed users of the CCS C compiler.  No other use,            //// 
.................... //// reproduction or distribution is permitted without written       //// 
.................... //// permission.  Derivative programs created using this software    //// 
.................... //// in object code form are not restricted in any way.              //// 
.................... ///////////////////////////////////////////////////////////////////////// 
....................  
....................  
....................  
.................... #ifndef HDM64GS12 
.................... #define HDM64GS12 
....................  
.................... #ifndef FAST_GLCD 
.................... #define FAST_GLCD 
....................  
.................... #ifndef GLCD_WIDTH 
.................... #define GLCD_WIDTH   128 
.................... #endif 
....................  
.................... #ifndef GLCD_CS1 
.................... #define GLCD_CS1     PIN_B2   // Chip Selection 1 
.................... #endif 
....................  
.................... #ifndef GLCD_CS2 
.................... #define GLCD_CS2     PIN_B3   // Chip Selection 2 
.................... #endif 
....................  
.................... #ifndef GLCD_DI 
.................... #define GLCD_DI      PIN_B5   // Data or Instruction input 
.................... #endif 
....................  
.................... #ifndef GLCD_RW 
.................... #define GLCD_RW      PIN_B6   // Read/Write 
.................... #endif 
....................  
.................... #ifndef GLCD_E 
.................... #define GLCD_E       PIN_B7   // Enable 
.................... #endif 
....................  
.................... #ifndef GLCD_RST 
.................... #define GLCD_RST     PIN_B4   // Reset 
.................... #endif 
....................  
.................... #define GLCD_LEFT    0 
.................... #define GLCD_RIGHT   1 
....................  
.................... #ifndef ON 
.................... #define ON           1 
.................... #endif 
....................  
.................... #ifndef OFF 
.................... #define OFF          0 
.................... #endif 
....................  
.................... ///////////////////////////////////////////////////////////////////////// 
.................... // Function Prototypes 
.................... ///////////////////////////////////////////////////////////////////////// 
.................... void glcd_init(int1 mode); 
.................... void glcd_pixel(int8 x, int8 y, int1 color); 
.................... void glcd_fillScreen(int1 color); 
.................... void glcd_writeByte(int1 side, BYTE data); 
.................... BYTE glcd_readByte(int1 side); 
.................... void glcd_update(); 
.................... ///////////////////////////////////////////////////////////////////////// 
....................  
.................... #ifdef FAST_GLCD 
.................... struct 
.................... { 
....................    int8 left[512]; 
....................    int8 right[512]; 
.................... } displayData; 
.................... #endif 
....................  
....................  
.................... // Purpose:       Initialize the LCD. 
.................... //                Call before using any other LCD function. 
.................... // Inputs:        OFF - Turns the LCD off 
.................... //                ON  - Turns the LCD on 
.................... void glcd_init(int1 mode) 
.................... { 
....................    // Initialze some pins 
....................    output_high(GLCD_RST); 
*
02B20:  BCF    F93.4
02B22:  BSF    F8A.4
....................    output_low(GLCD_E); 
02B24:  BCF    F93.7
02B26:  BCF    F8A.7
....................    output_low(GLCD_CS1); 
02B28:  BCF    F93.2
02B2A:  BCF    F8A.2
....................    output_low(GLCD_CS2); 
02B2C:  BCF    F93.3
02B2E:  BCF    F8A.3
....................  
....................    output_low(GLCD_DI);                 // Set for instruction 
02B30:  BCF    F93.5
02B32:  BCF    F8A.5
....................    glcd_writeByte(GLCD_LEFT,  0xC0);    // Specify first RAM line at the top 
02B34:  MOVLB  6
02B36:  CLRF   xAD
02B38:  MOVLW  C0
02B3A:  MOVWF  xAE
02B3C:  MOVLB  0
02B3E:  RCALL  29D8
....................    glcd_writeByte(GLCD_RIGHT, 0xC0);    //   of the screen 
02B40:  MOVLW  01
02B42:  MOVLB  6
02B44:  MOVWF  xAD
02B46:  MOVLW  C0
02B48:  MOVWF  xAE
02B4A:  MOVLB  0
02B4C:  RCALL  29D8
....................    glcd_writeByte(GLCD_LEFT,  0x40);    // Set the column address to 0 
02B4E:  MOVLB  6
02B50:  CLRF   xAD
02B52:  MOVLW  40
02B54:  MOVWF  xAE
02B56:  MOVLB  0
02B58:  RCALL  29D8
....................    glcd_writeByte(GLCD_RIGHT, 0x40); 
02B5A:  MOVLW  01
02B5C:  MOVLB  6
02B5E:  MOVWF  xAD
02B60:  MOVLW  40
02B62:  MOVWF  xAE
02B64:  MOVLB  0
02B66:  RCALL  29D8
....................    glcd_writeByte(GLCD_LEFT,  0xB8);    // Set the page address to 0 
02B68:  MOVLB  6
02B6A:  CLRF   xAD
02B6C:  MOVLW  B8
02B6E:  MOVWF  xAE
02B70:  MOVLB  0
02B72:  RCALL  29D8
....................    glcd_writeByte(GLCD_RIGHT, 0xB8); 
02B74:  MOVLW  01
02B76:  MOVLB  6
02B78:  MOVWF  xAD
02B7A:  MOVLW  B8
02B7C:  MOVWF  xAE
02B7E:  MOVLB  0
02B80:  RCALL  29D8
....................  
....................    if(mode == ON) 
02B82:  MOVLB  6
02B84:  DECFSZ x93,W
02B86:  BRA    2BA4
....................    { 
....................       glcd_writeByte(GLCD_LEFT,  0x3F); // Turn the display on 
02B88:  CLRF   xAD
02B8A:  MOVLW  3F
02B8C:  MOVWF  xAE
02B8E:  MOVLB  0
02B90:  RCALL  29D8
....................       glcd_writeByte(GLCD_RIGHT, 0x3F); 
02B92:  MOVLW  01
02B94:  MOVLB  6
02B96:  MOVWF  xAD
02B98:  MOVLW  3F
02B9A:  MOVWF  xAE
02B9C:  MOVLB  0
02B9E:  RCALL  29D8
....................    } 
....................    else 
02BA0:  BRA    2BBC
02BA2:  MOVLB  6
....................    { 
....................       glcd_writeByte(GLCD_LEFT,  0x3E); // Turn the display off 
02BA4:  CLRF   xAD
02BA6:  MOVLW  3E
02BA8:  MOVWF  xAE
02BAA:  MOVLB  0
02BAC:  RCALL  29D8
....................       glcd_writeByte(GLCD_RIGHT, 0x3E); 
02BAE:  MOVLW  01
02BB0:  MOVLB  6
02BB2:  MOVWF  xAD
02BB4:  MOVLW  3E
02BB6:  MOVWF  xAE
02BB8:  MOVLB  0
02BBA:  RCALL  29D8
....................    } 
....................  
....................    glcd_fillScreen(OFF);                // Clear the display 
02BBC:  MOVLB  6
02BBE:  CLRF   x9B
02BC0:  MOVLB  0
02BC2:  RCALL  2A0E
....................  
....................    #ifdef FAST_GLCD 
....................    glcd_update(); 
02BC4:  RCALL  2A68
....................    #endif 
.................... } 
02BC6:  RETLW  00
....................  
....................  
.................... // Purpose:    Update the LCD with data from the display arrays 
.................... #ifdef FAST_GLCD 
.................... void glcd_update() 
.................... { 
....................    int8 i, j; 
....................    int8 *p1, *p2; 
....................  
....................    p1 = displayData.left; 
*
02A68:  MOVLB  6
02A6A:  CLRF   xA9
02A6C:  MOVLW  2A
02A6E:  MOVWF  xA8
....................    p2 = displayData.right; 
02A70:  MOVLW  02
02A72:  MOVWF  xAB
02A74:  MOVLW  2A
02A76:  MOVWF  xAA
....................  
....................    // Loop through the vertical pages 
....................    for(i = 0; i < 8; ++i) 
02A78:  CLRF   xA6
02A7A:  MOVF   xA6,W
02A7C:  SUBLW  07
02A7E:  BNC   2B1C
....................    { 
....................       output_low(GLCD_DI);                      // Set for instruction 
02A80:  BCF    F93.5
02A82:  BCF    F8A.5
....................       glcd_writeByte(GLCD_LEFT, 0x40);          // Set horizontal address to 0 
02A84:  CLRF   xAD
02A86:  MOVLW  40
02A88:  MOVWF  xAE
02A8A:  MOVLB  0
02A8C:  RCALL  29D8
....................       glcd_writeByte(GLCD_RIGHT, 0x40); 
02A8E:  MOVLW  01
02A90:  MOVLB  6
02A92:  MOVWF  xAD
02A94:  MOVLW  40
02A96:  MOVWF  xAE
02A98:  MOVLB  0
02A9A:  RCALL  29D8
....................       glcd_writeByte(GLCD_LEFT, i | 0xB8);      // Set page address 
02A9C:  MOVLB  6
02A9E:  MOVF   xA6,W
02AA0:  IORLW  B8
02AA2:  MOVWF  xAC
02AA4:  CLRF   xAD
02AA6:  MOVWF  xAE
02AA8:  MOVLB  0
02AAA:  RCALL  29D8
....................       glcd_writeByte(GLCD_RIGHT, i | 0xB8); 
02AAC:  MOVLB  6
02AAE:  MOVF   xA6,W
02AB0:  IORLW  B8
02AB2:  MOVWF  xAC
02AB4:  MOVLW  01
02AB6:  MOVWF  xAD
02AB8:  MOVFF  6AC,6AE
02ABC:  MOVLB  0
02ABE:  RCALL  29D8
....................       output_high(GLCD_DI);                     // Set for data 
02AC0:  BCF    F93.5
02AC2:  BSF    F8A.5
....................  
....................       // Loop through the horizontal sections 
....................       for(j = 0; j < 64; ++j) 
02AC4:  MOVLB  6
02AC6:  CLRF   xA7
02AC8:  MOVF   xA7,W
02ACA:  SUBLW  3F
02ACC:  BNC   2B18
....................       { 
....................          glcd_writeByte(GLCD_LEFT, *p1++);      // Turn pixels on or off 
02ACE:  MOVFF  6A9,03
02AD2:  MOVF   xA8,W
02AD4:  INCF   xA8,F
02AD6:  BTFSC  FD8.2
02AD8:  INCF   xA9,F
02ADA:  MOVWF  FE9
02ADC:  MOVFF  03,FEA
02AE0:  MOVFF  FEF,6AC
02AE4:  CLRF   xAD
02AE6:  MOVFF  6AC,6AE
02AEA:  MOVLB  0
02AEC:  RCALL  29D8
....................          glcd_writeByte(GLCD_RIGHT, *p2++);     // Turn pixels on or off 
02AEE:  MOVLB  6
02AF0:  MOVFF  6AB,03
02AF4:  MOVF   xAA,W
02AF6:  INCF   xAA,F
02AF8:  BTFSC  FD8.2
02AFA:  INCF   xAB,F
02AFC:  MOVWF  FE9
02AFE:  MOVFF  03,FEA
02B02:  MOVFF  FEF,6AC
02B06:  MOVLW  01
02B08:  MOVWF  xAD
02B0A:  MOVFF  6AC,6AE
02B0E:  MOVLB  0
02B10:  RCALL  29D8
....................       } 
02B12:  MOVLB  6
02B14:  INCF   xA7,F
02B16:  BRA    2AC8
....................    } 
02B18:  INCF   xA6,F
02B1A:  BRA    2A7A
.................... } 
02B1C:  MOVLB  0
02B1E:  RETLW  00
.................... #endif 
....................  
....................  
.................... // Purpose:    Turn a pixel on a graphic LCD on or off 
.................... // Inputs:     1) x - the x coordinate of the pixel 
.................... //             2) y - the y coordinate of the pixel 
.................... //             3) color - ON or OFF 
.................... void glcd_pixel(int8 x, int8 y, int1 color) 
.................... #ifdef FAST_GLCD 
.................... { 
....................    int8* p; 
....................    int16 temp; 
....................    temp =  y/8; 
*
02BC8:  MOVLB  6
02BCA:  CLRF   xCD
02BCC:  RRCF   xC8,W
02BCE:  MOVWF  xCC
02BD0:  RRCF   xCC,F
02BD2:  RRCF   xCC,F
02BD4:  MOVLW  1F
02BD6:  ANDWF  xCC,F
....................    temp *= 64; 
02BD8:  RLCF   xCC,F
02BDA:  RLCF   xCD,F
02BDC:  RLCF   xCC,F
02BDE:  RLCF   xCD,F
02BE0:  RLCF   xCC,F
02BE2:  RLCF   xCD,F
02BE4:  RLCF   xCC,F
02BE6:  RLCF   xCD,F
02BE8:  RLCF   xCC,F
02BEA:  RLCF   xCD,F
02BEC:  RLCF   xCC,F
02BEE:  RLCF   xCD,F
02BF0:  MOVLW  C0
02BF2:  ANDWF  xCC,F
....................    temp += x; 
02BF4:  MOVF   xC7,W
02BF6:  ADDWF  xCC,F
02BF8:  MOVLW  00
02BFA:  ADDWFC xCD,F
....................  
....................    if(x > 63) 
02BFC:  MOVF   xC7,W
02BFE:  SUBLW  3F
02C00:  BC    2C1C
....................    { 
....................       p = displayData.right + temp - 64; 
02C02:  MOVLW  2A
02C04:  ADDWF  xCC,W
02C06:  MOVWF  xCE
02C08:  MOVLW  02
02C0A:  ADDWFC xCD,W
02C0C:  MOVWF  xCF
02C0E:  MOVLW  40
02C10:  SUBWF  xCE,W
02C12:  MOVWF  xCA
02C14:  MOVLW  00
02C16:  SUBWFB xCF,W
02C18:  MOVWF  xCB
....................    } 
....................    else 
02C1A:  BRA    2C28
....................    { 
....................       p = displayData.left + temp; 
02C1C:  MOVLW  2A
02C1E:  ADDWF  xCC,W
02C20:  MOVWF  xCA
02C22:  MOVLW  00
02C24:  ADDWFC xCD,W
02C26:  MOVWF  xCB
....................    } 
....................  
....................    if(color) 
02C28:  MOVF   xC9,F
02C2A:  BZ    2C56
....................    { 
....................       bit_set(*p, y%8); 
02C2C:  MOVFF  6CB,03
02C30:  MOVFF  6CA,FE9
02C34:  MOVFF  6CB,FEA
02C38:  MOVF   xC8,W
02C3A:  ANDLW  07
02C3C:  MOVWF  xCE
02C3E:  MOVLW  01
02C40:  MOVWF  00
02C42:  MOVF   xCE,W
02C44:  MOVWF  01
02C46:  BZ    2C50
02C48:  BCF    FD8.0
02C4A:  RLCF   00,F
02C4C:  DECFSZ 01,F
02C4E:  BRA    2C48
02C50:  MOVF   00,W
02C52:  IORWF  FEF,F
....................    } 
....................    else 
02C54:  BRA    2C80
....................    { 
....................       bit_clear(*p, y%8); 
02C56:  MOVFF  6CB,03
02C5A:  MOVFF  6CA,FE9
02C5E:  MOVFF  6CB,FEA
02C62:  MOVF   xC8,W
02C64:  ANDLW  07
02C66:  MOVWF  xCE
02C68:  MOVLW  01
02C6A:  MOVWF  00
02C6C:  MOVF   xCE,W
02C6E:  MOVWF  01
02C70:  BZ    2C7A
02C72:  BCF    FD8.0
02C74:  RLCF   00,F
02C76:  DECFSZ 01,F
02C78:  BRA    2C72
02C7A:  MOVF   00,W
02C7C:  XORLW  FF
02C7E:  ANDWF  FEF,F
....................    } 
.................... } 
02C80:  MOVLB  0
02C82:  RETLW  00
.................... #else 
.................... { 
....................    BYTE data; 
....................    int1 side = GLCD_LEFT;  // Stores which chip to use on the LCD 
....................  
....................    if(x > 63)              // Check for first or second display area 
....................    { 
....................       x -= 64; 
....................       side = GLCD_RIGHT; 
....................    } 
....................  
....................    output_low(GLCD_DI);                         // Set for instruction 
....................    bit_clear(x,7);                              // Clear the MSB. Part of an instruction code 
....................    bit_set(x,6);                                // Set bit 6. Also part of an instruction code 
....................    glcd_writeByte(side, x);                     // Set the horizontal address 
....................    glcd_writeByte(side, (y/8 & 0xBF) | 0xB8);   // Set the vertical page address 
....................    output_high(GLCD_DI);                        // Set for data 
....................    glcd_readByte(side);                         // Need two reads to get data 
....................    data = glcd_readByte(side);                  //  at new address 
....................  
....................    if(color == ON) 
....................       bit_set(data, y%8);        // Turn the pixel on 
....................    else                          // or 
....................       bit_clear(data, y%8);      // turn the pixel off 
....................  
....................    output_low(GLCD_DI);          // Set for instruction 
....................    glcd_writeByte(side, x);      // Set the horizontal address 
....................    output_high(GLCD_DI);         // Set for data 
....................    glcd_writeByte(side, data);   // Write the pixel data 
.................... } 
.................... #endif 
....................  
....................  
.................... // Purpose:    Fill the LCD screen with the passed in color 
.................... // Inputs:     ON  - turn all the pixels on 
.................... //             OFF - turn all the pixels off 
.................... void glcd_fillScreen(int1 color) 
.................... #ifdef FAST_GLCD 
.................... { 
....................    int8  data; 
....................    int8  *p1, *p2; 
....................    int16 i; 
....................  
....................    p1 = displayData.left; 
*
02A0E:  MOVLB  6
02A10:  CLRF   x9E
02A12:  MOVLW  2A
02A14:  MOVWF  x9D
....................    p2 = displayData.right; 
02A16:  MOVLW  02
02A18:  MOVWF  xA0
02A1A:  MOVLW  2A
02A1C:  MOVWF  x9F
....................    data = 0xFF * color; 
02A1E:  MOVF   x9B,W
02A20:  MULLW  FF
02A22:  MOVFF  FF3,69C
....................  
....................    for(i=0; i<512; ++i) 
02A26:  CLRF   xA2
02A28:  CLRF   xA1
02A2A:  MOVF   xA2,W
02A2C:  SUBLW  01
02A2E:  BNC   2A64
....................    { 
....................       *p1++ = data; 
02A30:  MOVFF  69E,03
02A34:  MOVF   x9D,W
02A36:  INCF   x9D,F
02A38:  BTFSC  FD8.2
02A3A:  INCF   x9E,F
02A3C:  MOVWF  FE9
02A3E:  MOVFF  03,FEA
02A42:  MOVFF  69C,FEF
....................       *p2++ = data; 
02A46:  MOVFF  6A0,03
02A4A:  MOVF   x9F,W
02A4C:  INCF   x9F,F
02A4E:  BTFSC  FD8.2
02A50:  INCF   xA0,F
02A52:  MOVWF  FE9
02A54:  MOVFF  03,FEA
02A58:  MOVFF  69C,FEF
....................    } 
02A5C:  INCF   xA1,F
02A5E:  BTFSC  FD8.2
02A60:  INCF   xA2,F
02A62:  BRA    2A2A
.................... } 
02A64:  MOVLB  0
02A66:  RETLW  00
.................... #else 
.................... { 
....................    int8 i, j; 
....................  
....................    // Loop through the vertical pages 
....................    for(i = 0; i < 8; ++i) 
....................    { 
....................       output_low(GLCD_DI);                      // Set for instruction 
....................       glcd_writeByte(GLCD_LEFT, 0b01000000);    // Set horizontal address to 0 
....................       glcd_writeByte(GLCD_RIGHT, 0b01000000); 
....................       glcd_writeByte(GLCD_LEFT, i | 0b10111000);// Set page address 
....................       glcd_writeByte(GLCD_RIGHT, i | 0b10111000); 
....................       output_high(GLCD_DI);                     // Set for data 
....................  
....................       // Loop through the horizontal sections 
....................       for(j = 0; j < 64; ++j) 
....................       { 
....................          glcd_writeByte(GLCD_LEFT, 0xFF*color);  // Turn pixels on or off 
....................          glcd_writeByte(GLCD_RIGHT, 0xFF*color); // Turn pixels on or off 
....................       } 
....................    } 
.................... } 
.................... #endif 
....................  
....................  
.................... // Purpose:    Write a byte of data to the specified chip 
.................... // Inputs:     1) chipSelect - which chip to write the data to 
.................... //             2) data - the byte of data to write 
.................... void glcd_writeByte(int1 side, BYTE data) 
.................... { 
....................    if(side)                   // Choose which side to write to 
*
029D8:  MOVLB  6
029DA:  MOVF   xAD,F
029DC:  BZ    29E4
....................       output_high(GLCD_CS2); 
029DE:  BCF    F93.3
029E0:  BSF    F8A.3
....................    else 
029E2:  BRA    29E8
....................       output_high(GLCD_CS1); 
029E4:  BCF    F93.2
029E6:  BSF    F8A.2
....................  
....................    output_low(GLCD_RW);       // Set for writing 
029E8:  BCF    F93.6
029EA:  BCF    F8A.6
....................    output_d(data);            // Put the data on the port 
029EC:  CLRF   F95
029EE:  MOVFF  6AE,F8C
....................    delay_cycles(1); 
029F2:  NOP   
....................    output_high(GLCD_E);       // Pulse the enable pin 
029F4:  BCF    F93.7
029F6:  BSF    F8A.7
....................    delay_cycles(5); 
029F8:  BRA    29FA
029FA:  BRA    29FC
029FC:  NOP   
....................    output_low(GLCD_E); 
029FE:  BCF    F93.7
02A00:  BCF    F8A.7
....................  
....................    output_low(GLCD_CS1);      // Reset the chip select lines 
02A02:  BCF    F93.2
02A04:  BCF    F8A.2
....................    output_low(GLCD_CS2); 
02A06:  BCF    F93.3
02A08:  BCF    F8A.3
.................... } 
02A0A:  MOVLB  0
02A0C:  RETLW  00
....................  
....................  
.................... // Purpose:    Reads a byte of data from the specified chip 
.................... // Ouputs:     A byte of data read from the chip 
.................... BYTE glcd_readByte(int1 side) 
.................... { 
....................    BYTE data;                 // Stores the data read from the LCD 
....................  
....................    set_tris_d(0xFF);          // Set port d to input 
....................    output_high(GLCD_RW);      // Set for reading 
....................  
....................    if(side)                   // Choose which side to write to 
....................       output_high(GLCD_CS2); 
....................    else 
....................       output_high(GLCD_CS1); 
....................  
....................    delay_cycles(1); 
....................    output_high(GLCD_E);       // Pulse the enable pin 
....................    delay_cycles(4); 
....................    data = input_d();          // Get the data from the display's output register 
....................    output_low(GLCD_E); 
....................  
....................    output_low(GLCD_CS1);      // Reset the chip select lines 
....................    output_low(GLCD_CS2); 
....................    return data;               // Return the read data 
.................... } 
....................  
.................... #endif 
....................  
.................... #include "GRAPHICS.c" 
.................... ///////////////////////////////////////////////////////////////////////// 
.................... ////                          graphics.c                             //// 
.................... ////                                                                 //// 
.................... ////   This file contains functions to draw lines, rectangles, bars, //// 
.................... ////   circles and text to a display. A function which draws a       //// 
.................... ////   single pixel must be defined before calling the functions in  //// 
.................... ////   this file. Call it glcd_pixel(x, y, color) where x is the     //// 
.................... ////   horizontal coordinate, y is the vertical coordinate, and      //// 
.................... ////   color is 1 bit to turn the pixel on or off.                   //// 
.................... ////                                                                 //// 
.................... ////   * Note: (0, 0) is treated as the upper left corner            //// 
.................... ////                                                                 //// 
.................... ///////////////////////////////////////////////////////////////////////// 
.................... ////                                                                 //// 
.................... ////  glcd_line(x1, y1, x2, y2, color)                               //// 
.................... ////     * Draws a line from the first point to the second point     //// 
.................... ////       with the given color                                      //// 
.................... ////       - color can be ON or OFF                                  //// 
.................... ////                                                                 //// 
.................... ////  glcd_rect(x1, y1, x2, y2, fill, color)                         //// 
.................... ////     * Draws a rectangle with one corner at point (x1,y1) and    //// 
.................... ////       the other corner at point (x2,y2)                         //// 
.................... ////       - fill can be YES or NO                                   //// 
.................... ////       - color can be ON or OFF                                  //// 
.................... ////                                                                 //// 
.................... ////  glcd_bar(x1, y1, x2, y2, width, color)                         //// 
.................... ////     * Draws a bar (wide line) from the first point to the       //// 
.................... ////       second point                                              //// 
.................... ////       - width is the number of pixels wide                      //// 
.................... ////       - color is ON or OFF                                      //// 
.................... ////                                                                 //// 
.................... ////  glcd_circle(x, y, radius, fill, color)                         //// 
.................... ////     * Draws a circle with center at (x,y)                       //// 
.................... ////       - fill can be YES or NO                                   //// 
.................... ////       - color can be ON or OFF                                  //// 
.................... ////                                                                 //// 
.................... ////  glcd_text57(x, y, textptr, size, color)                        //// 
.................... ////     * Write the null terminated text pointed to by textptr with //// 
.................... ////       the upper left coordinate of the first character at (x,y) //// 
.................... ////       Characters are 5 pixels wide and 7 pixels tall            //// 
.................... ////       - size is an integer that scales the size of the text     //// 
.................... ////       - color is ON or OFF                                      //// 
.................... ////     * Note - This function wraps characters to the next line    //// 
.................... ////              use #define GLCD_WIDTH to specify a display width  //// 
.................... ////                                                                 //// 
.................... ///////////////////////////////////////////////////////////////////////// 
.................... ////        (C) Copyright 1996, 2004 Custom Computer Services        //// 
.................... //// This source code may only be used by licensed users of the CCS  //// 
.................... //// C compiler.  This source code may only be distributed to other  //// 
.................... //// licensed users of the CCS C compiler.  No other use,            //// 
.................... //// reproduction or distribution is permitted without written       //// 
.................... //// permission.  Derivative programs created using this software    //// 
.................... //// in object code form are not restricted in any way.              //// 
.................... ///////////////////////////////////////////////////////////////////////// 
....................  
....................  
.................... ///////////////////////////////////////////////////////////////////////// 
.................... #ifndef GRAPHICS_DRAWING_FUNCTIONS 
.................... #define GRAPHICS_DRAWING_FUNCTIONS 
.................... ///////////////////////////////////////////////////////////////////////// 
....................  
....................  
.................... ///////////////////////////////////////////////////////////////////////// 
.................... #ifndef ON 
.................... #define ON  1 
.................... #endif 
....................  
.................... #ifndef OFF 
.................... #define OFF 0 
.................... #endif 
....................  
.................... #ifndef YES 
.................... #define YES 1 
.................... #endif 
....................  
.................... #ifndef NO 
.................... #define NO  0 
.................... #endif 
.................... ///////////////////////////////////////////////////////////////////////// 
....................  
....................  
.................... ///////////////////////////////////////////////////////////////////////// 
.................... //// Defines a 5x7 font 
.................... ///////////////////////////////////////////////////////////////////////// 
.................... const int8 FONT[51][5] ={0x00, 0x00, 0x00, 0x00, 0x00, // SPACE 
....................                          0x00, 0x00, 0x5F, 0x00, 0x00, // ! 
....................                          0x00, 0x03, 0x00, 0x03, 0x00, // " 
....................                          0x14, 0x3E, 0x14, 0x3E, 0x14, // # 
....................                          0x24, 0x2A, 0x7F, 0x2A, 0x12, // $ 
....................                          0x43, 0x33, 0x08, 0x66, 0x61, // % 
....................                          0x36, 0x49, 0x55, 0x22, 0x50, // & 
....................                          0x00, 0x05, 0x03, 0x00, 0x00, // ' 
....................                          0x00, 0x1C, 0x22, 0x41, 0x00, // ( 
....................                          0x00, 0x41, 0x22, 0x1C, 0x00, // ) 
....................                          0x14, 0x08, 0x3E, 0x08, 0x14, // * 
....................                          0x08, 0x08, 0x3E, 0x08, 0x08, // + 
....................                          0x00, 0x50, 0x30, 0x00, 0x00, // , 
....................                          0x08, 0x08, 0x08, 0x08, 0x08, // - 
....................                          0x00, 0x60, 0x60, 0x00, 0x00, // . 
....................                          0x20, 0x10, 0x08, 0x04, 0x02, // / 
....................                          0x3E, 0x51, 0x49, 0x45, 0x3E, // 0 
....................                          0x00, 0x04, 0x02, 0x7F, 0x00, // 1 
....................                          0x42, 0x61, 0x51, 0x49, 0x46, // 2 
....................                          0x22, 0x41, 0x49, 0x49, 0x36, // 3 
....................                          0x18, 0x14, 0x12, 0x7F, 0x10, // 4 
....................                          0x27, 0x45, 0x45, 0x45, 0x39, // 5 
....................                          0x3E, 0x49, 0x49, 0x49, 0x32, // 6 
....................                          0x01, 0x01, 0x71, 0x09, 0x07, // 7 
....................                          0x36, 0x49, 0x49, 0x49, 0x36, // 8 
....................                          0x26, 0x49, 0x49, 0x49, 0x3E, // 9 
....................                          0x00, 0x36, 0x36, 0x00, 0x00, // : 
....................                          0x00, 0x56, 0x36, 0x00, 0x00, // ; 
....................                          0x08, 0x14, 0x22, 0x41, 0x00, // < 
....................                          0x14, 0x14, 0x14, 0x14, 0x14, // = 
....................                          0x00, 0x41, 0x22, 0x14, 0x08, // > 
....................                          0x02, 0x01, 0x51, 0x09, 0x06, // ? 
....................                          0x3E, 0x41, 0x59, 0x55, 0x5E, // @ 
....................                          0x7E, 0x09, 0x09, 0x09, 0x7E, // A 
....................                          0x7F, 0x49, 0x49, 0x49, 0x36, // B 
....................                          0x3E, 0x41, 0x41, 0x41, 0x22, // C 
....................                          0x7F, 0x41, 0x41, 0x41, 0x3E, // D 
....................                          0x7F, 0x49, 0x49, 0x49, 0x41, // E 
....................                          0x7F, 0x09, 0x09, 0x09, 0x01, // F 
....................                          0x3E, 0x41, 0x41, 0x49, 0x3A, // G 
....................                          0x7F, 0x08, 0x08, 0x08, 0x7F, // H 
....................                          0x00, 0x41, 0x7F, 0x41, 0x00, // I 
....................                          0x30, 0x40, 0x40, 0x40, 0x3F, // J 
....................                          0x7F, 0x08, 0x14, 0x22, 0x41, // K 
....................                          0x7F, 0x40, 0x40, 0x40, 0x40, // L 
....................                          0x7F, 0x02, 0x0C, 0x02, 0x7F, // M 
....................                          0x7F, 0x02, 0x04, 0x08, 0x7F, // N 
....................                          0x3E, 0x41, 0x41, 0x41, 0x3E, // O 
....................                          0x7F, 0x09, 0x09, 0x09, 0x06, // P 
....................                          0x1E, 0x21, 0x21, 0x21, 0x5E, // Q 
....................                          0x7F, 0x09, 0x09, 0x09, 0x76};// R 
....................  
.................... const int8 FONT2[44][5]={0x26, 0x49, 0x49, 0x49, 0x32, // S 
....................                          0x01, 0x01, 0x7F, 0x01, 0x01, // T 
....................                          0x3F, 0x40, 0x40, 0x40, 0x3F, // U 
....................                          0x1F, 0x20, 0x40, 0x20, 0x1F, // V 
....................                          0x7F, 0x20, 0x10, 0x20, 0x7F, // W 
....................                          0x41, 0x22, 0x1C, 0x22, 0x41, // X 
....................                          0x07, 0x08, 0x70, 0x08, 0x07, // Y 
....................                          0x61, 0x51, 0x49, 0x45, 0x43, // Z 
....................                          0x00, 0x7F, 0x41, 0x00, 0x00, // [ 
....................                          0x02, 0x04, 0x08, 0x10, 0x20, // \ 
....................                          0x00, 0x00, 0x41, 0x7F, 0x00, // ] 
....................                          0x04, 0x02, 0x01, 0x02, 0x04, // ^ 
....................                          0x40, 0x40, 0x40, 0x40, 0x40, // _ 
....................                          0x00, 0x01, 0x02, 0x04, 0x00, // ` 
....................                          0x20, 0x54, 0x54, 0x54, 0x78, // a 
....................                          0x7F, 0x44, 0x44, 0x44, 0x38, // b 
....................                          0x38, 0x44, 0x44, 0x44, 0x44, // c 
....................                          0x38, 0x44, 0x44, 0x44, 0x7F, // d 
....................                          0x38, 0x54, 0x54, 0x54, 0x18, // e 
....................                          0x04, 0x04, 0x7E, 0x05, 0x05, // f 
....................                          0x08, 0x54, 0x54, 0x54, 0x3C, // g 
....................                          0x7F, 0x08, 0x04, 0x04, 0x78, // h 
....................                          0x00, 0x44, 0x7D, 0x40, 0x00, // i 
....................                          0x20, 0x40, 0x44, 0x3D, 0x00, // j 
....................                          0x7F, 0x10, 0x28, 0x44, 0x00, // k 
....................                          0x00, 0x41, 0x7F, 0x40, 0x00, // l 
....................                          0x7C, 0x04, 0x78, 0x04, 0x78, // m 
....................                          0x7C, 0x08, 0x04, 0x04, 0x78, // n 
....................                          0x38, 0x44, 0x44, 0x44, 0x38, // o 
....................                          0x7C, 0x14, 0x14, 0x14, 0x08, // p 
....................                          0x08, 0x14, 0x14, 0x14, 0x7C, // q 
....................                          0x00, 0x7C, 0x08, 0x04, 0x04, // r 
....................                          0x48, 0x54, 0x54, 0x54, 0x20, // s 
....................                          0x04, 0x04, 0x3F, 0x44, 0x44, // t 
....................                          0x3C, 0x40, 0x40, 0x20, 0x7C, // u 
....................                          0x1C, 0x20, 0x40, 0x20, 0x1C, // v 
....................                          0x3C, 0x40, 0x30, 0x40, 0x3C, // w 
....................                          0x44, 0x28, 0x10, 0x28, 0x44, // x 
....................                          0x0C, 0x50, 0x50, 0x50, 0x3C, // y 
....................                          0x44, 0x64, 0x54, 0x4C, 0x44, // z 
....................                          0x00, 0x08, 0x36, 0x41, 0x41, // { 
....................                          0x00, 0x00, 0x7F, 0x00, 0x00, // | 
....................                          0x41, 0x41, 0x36, 0x08, 0x00, // } 
....................                          0x02, 0x01, 0x02, 0x04, 0x02};// ~ 
.................... ///////////////////////////////////////////////////////////////////////// 
....................  
....................  
.................... ///////////////////////////////////////////////////////////////////////// 
.................... // Purpose:       Draw a line on a graphic LCD using Bresenham's 
.................... //                line drawing algorithm 
.................... // Inputs:        (x1, y1) - the start coordinate 
.................... //                (x2, y2) - the end coordinate 
.................... //                color - ON or OFF 
.................... // Dependencies:  glcd_pixel() 
.................... ///////////////////////////////////////////////////////////////////////// 
.................... #ifdef LARGE_LCD 
.................... void glcd_line(int16 x1, int16 y1, int16 x2, int16 y2, int1 color) 
.................... #else 
.................... void glcd_line(int8 x1, int8 y1, int8 x2, int8 y2, int1 color) 
.................... #endif 
.................... { 
*
02E48:  MOVLW  01
02E4A:  MOVLB  6
02E4C:  MOVWF  xC0
02E4E:  MOVWF  xC1
02E50:  CLRF   xC6
....................    int16        dy, dx; 
....................    signed int8  addx=1, addy=1; 
....................    signed int16 P, diff; 
....................  
....................    #ifdef LARGE_LCD 
....................    int16 i=0; 
....................    dx = abs((signed int16)(x2 - x1)); 
....................    dy = abs((signed int16)(y2 - y1)); 
....................    #else 
....................    int8 i=0; 
....................    dx = abs((signed int8)(x2 - x1)); 
02E52:  MOVF   xB7,W
02E54:  SUBWF  xB9,W
02E56:  MOVWF  xC7
02E58:  MOVF   xC7,W
02E5A:  BTFSS  xC7.7
02E5C:  BRA    2E64
02E5E:  MOVLW  00
02E60:  BSF    FD8.0
02E62:  SUBFWB xC7,W
02E64:  CLRF   03
02E66:  MOVWF  xBE
02E68:  MOVFF  03,6BF
....................    dy = abs((signed int8)(y2 - y1)); 
02E6C:  MOVF   xB8,W
02E6E:  SUBWF  xBA,W
02E70:  MOVWF  xC7
02E72:  MOVF   xC7,W
02E74:  BTFSS  xC7.7
02E76:  BRA    2E7E
02E78:  MOVLW  00
02E7A:  BSF    FD8.0
02E7C:  SUBFWB xC7,W
02E7E:  CLRF   03
02E80:  MOVWF  xBC
02E82:  MOVFF  03,6BD
....................    #endif 
....................  
....................    if(x1 > x2) 
02E86:  MOVF   xB7,W
02E88:  SUBWF  xB9,W
02E8A:  BC    2E90
....................       addx = -1; 
02E8C:  MOVLW  FF
02E8E:  MOVWF  xC0
....................    if(y1 > y2) 
02E90:  MOVF   xB8,W
02E92:  SUBWF  xBA,W
02E94:  BC    2E9A
....................       addy = -1; 
02E96:  MOVLW  FF
02E98:  MOVWF  xC1
....................  
....................    if(dx >= dy) 
02E9A:  MOVF   xBD,W
02E9C:  SUBWF  xBF,W
02E9E:  BNC   2F16
02EA0:  BNZ   2EA8
02EA2:  MOVF   xBC,W
02EA4:  SUBWF  xBE,W
02EA6:  BNC   2F16
....................    { 
....................       dy *= 2; 
02EA8:  BCF    FD8.0
02EAA:  RLCF   xBC,F
02EAC:  RLCF   xBD,F
....................       P = dy - dx; 
02EAE:  MOVF   xBE,W
02EB0:  SUBWF  xBC,W
02EB2:  MOVWF  00
02EB4:  MOVF   xBF,W
02EB6:  SUBWFB xBD,W
02EB8:  MOVFF  00,6C2
02EBC:  MOVWF  xC3
....................       diff = P - dx; 
02EBE:  MOVF   xBE,W
02EC0:  SUBWF  xC2,W
02EC2:  MOVWF  xC4
02EC4:  MOVF   xBF,W
02EC6:  SUBWFB xC3,W
02EC8:  MOVWF  xC5
....................  
....................       for(; i<=dx; ++i) 
02ECA:  MOVF   xBF,F
02ECC:  BNZ   2ED4
02ECE:  MOVF   xC6,W
02ED0:  SUBWF  xBE,W
02ED2:  BNC   2F14
....................       { 
....................          glcd_pixel(x1, y1, color); 
02ED4:  MOVFF  6B7,6C7
02ED8:  MOVFF  6B8,6C8
02EDC:  MOVFF  6BB,6C9
02EE0:  MOVLB  0
02EE2:  RCALL  2BC8
....................  
....................          if(P < 0) 
02EE4:  MOVLB  6
02EE6:  BTFSC  xC3.7
02EE8:  BRA    2EEC
02EEA:  BRA    2EFC
....................          { 
....................             P  += dy; 
02EEC:  MOVF   xBC,W
02EEE:  ADDWF  xC2,F
02EF0:  MOVF   xBD,W
02EF2:  ADDWFC xC3,F
....................             x1 += addx; 
02EF4:  MOVF   xC0,W
02EF6:  ADDWF  xB7,W
02EF8:  MOVWF  xB7
....................          } 
....................          else 
02EFA:  BRA    2F10
....................          { 
....................             P  += diff; 
02EFC:  MOVF   xC4,W
02EFE:  ADDWF  xC2,F
02F00:  MOVF   xC5,W
02F02:  ADDWFC xC3,F
....................             x1 += addx; 
02F04:  MOVF   xC0,W
02F06:  ADDWF  xB7,W
02F08:  MOVWF  xB7
....................             y1 += addy; 
02F0A:  MOVF   xC1,W
02F0C:  ADDWF  xB8,W
02F0E:  MOVWF  xB8
....................          } 
....................       } 
02F10:  INCF   xC6,F
02F12:  BRA    2ECA
....................    } 
....................    else 
02F14:  BRA    2F82
....................    { 
....................       dx *= 2; 
02F16:  BCF    FD8.0
02F18:  RLCF   xBE,F
02F1A:  RLCF   xBF,F
....................       P = dx - dy; 
02F1C:  MOVF   xBC,W
02F1E:  SUBWF  xBE,W
02F20:  MOVWF  00
02F22:  MOVF   xBD,W
02F24:  SUBWFB xBF,W
02F26:  MOVFF  00,6C2
02F2A:  MOVWF  xC3
....................       diff = P - dy; 
02F2C:  MOVF   xBC,W
02F2E:  SUBWF  xC2,W
02F30:  MOVWF  xC4
02F32:  MOVF   xBD,W
02F34:  SUBWFB xC3,W
02F36:  MOVWF  xC5
....................  
....................       for(; i<=dy; ++i) 
02F38:  MOVF   xBD,F
02F3A:  BNZ   2F42
02F3C:  MOVF   xC6,W
02F3E:  SUBWF  xBC,W
02F40:  BNC   2F82
....................       { 
....................          glcd_pixel(x1, y1, color); 
02F42:  MOVFF  6B7,6C7
02F46:  MOVFF  6B8,6C8
02F4A:  MOVFF  6BB,6C9
02F4E:  MOVLB  0
02F50:  RCALL  2BC8
....................  
....................          if(P < 0) 
02F52:  MOVLB  6
02F54:  BTFSC  xC3.7
02F56:  BRA    2F5A
02F58:  BRA    2F6A
....................          { 
....................             P  += dx; 
02F5A:  MOVF   xBE,W
02F5C:  ADDWF  xC2,F
02F5E:  MOVF   xBF,W
02F60:  ADDWFC xC3,F
....................             y1 += addy; 
02F62:  MOVF   xC1,W
02F64:  ADDWF  xB8,W
02F66:  MOVWF  xB8
....................          } 
....................          else 
02F68:  BRA    2F7E
....................          { 
....................             P  += diff; 
02F6A:  MOVF   xC4,W
02F6C:  ADDWF  xC2,F
02F6E:  MOVF   xC5,W
02F70:  ADDWFC xC3,F
....................             x1 += addx; 
02F72:  MOVF   xC0,W
02F74:  ADDWF  xB7,W
02F76:  MOVWF  xB7
....................             y1 += addy; 
02F78:  MOVF   xC1,W
02F7A:  ADDWF  xB8,W
02F7C:  MOVWF  xB8
....................          } 
....................       } 
02F7E:  INCF   xC6,F
02F80:  BRA    2F38
....................    } 
.................... } 
02F82:  MOVLB  0
02F84:  RETLW  00
....................  
....................  
.................... ///////////////////////////////////////////////////////////////////////// 
.................... // Purpose:       Draw a rectangle on a graphic LCD 
.................... // Inputs:        (x1, y1) - the start coordinate 
.................... //                (x2, y2) - the end coordinate 
.................... //                fill  - YES or NO 
.................... //                color - ON or OFF 
.................... // Dependencies:  glcd_pixel(), glcd_line() 
.................... ///////////////////////////////////////////////////////////////////////// 
.................... #ifdef LARGE_LCD 
.................... void glcd_rect(int16 x1, int16 y1, int16 x2, int16 y2, int1 fill, int1 color) 
.................... #else 
.................... void glcd_rect(int8 x1, int8 y1, int8 x2, int8 y2, int1 fill, int1 color) 
.................... #endif 
.................... { 
....................    if(fill) 
02F86:  MOVLB  6
02F88:  MOVF   xB0,F
02F8A:  BZ    2FE8
....................    { 
....................       #ifdef LARGE_LCD 
....................       int16 i, xmin, xmax, ymin, ymax; 
....................       #else 
....................       int8  i, xmin, xmax, ymin, ymax; 
....................       #endif 
....................  
....................       if(x1 < x2)                            //  Find x min and max 
02F8C:  MOVF   xAE,W
02F8E:  SUBWF  xAC,W
02F90:  BC    2F9C
....................       { 
....................          xmin = x1; 
02F92:  MOVFF  6AC,6B3
....................          xmax = x2; 
02F96:  MOVFF  6AE,6B4
....................       } 
....................       else 
02F9A:  BRA    2FA4
....................       { 
....................          xmin = x2; 
02F9C:  MOVFF  6AE,6B3
....................          xmax = x1; 
02FA0:  MOVFF  6AC,6B4
....................       } 
....................  
....................       if(y1 < y2)                            // Find the y min and max 
02FA4:  MOVF   xAF,W
02FA6:  SUBWF  xAD,W
02FA8:  BC    2FB4
....................       { 
....................          ymin = y1; 
02FAA:  MOVFF  6AD,6B5
....................          ymax = y2; 
02FAE:  MOVFF  6AF,6B6
....................       } 
....................       else 
02FB2:  BRA    2FBC
....................       { 
....................          ymin = y2; 
02FB4:  MOVFF  6AF,6B5
....................          ymax = y1; 
02FB8:  MOVFF  6AD,6B6
....................       } 
....................  
....................       for(; xmin <= xmax; ++xmin) 
02FBC:  MOVF   xB3,W
02FBE:  SUBWF  xB4,W
02FC0:  BNC   2FE6
....................       { 
....................          for(i=ymin; i<=ymax; ++i) 
02FC2:  MOVFF  6B5,6B2
02FC6:  MOVF   xB2,W
02FC8:  SUBWF  xB6,W
02FCA:  BNC   2FE2
....................          { 
....................             glcd_pixel(xmin, i, color); 
02FCC:  MOVFF  6B3,6C7
02FD0:  MOVFF  6B2,6C8
02FD4:  MOVFF  6B1,6C9
02FD8:  MOVLB  0
02FDA:  RCALL  2BC8
....................          } 
02FDC:  MOVLB  6
02FDE:  INCF   xB2,F
02FE0:  BRA    2FC6
....................       } 
02FE2:  INCF   xB3,F
02FE4:  BRA    2FBC
....................    } 
....................    else 
02FE6:  BRA    3044
....................    { 
....................       glcd_line(x1, y1, x2, y1, color);      // Draw the 4 sides 
02FE8:  MOVFF  6AC,6B7
02FEC:  MOVFF  6AD,6B8
02FF0:  MOVFF  6AE,6B9
02FF4:  MOVFF  6AD,6BA
02FF8:  MOVFF  6B1,6BB
02FFC:  MOVLB  0
02FFE:  RCALL  2E48
....................       glcd_line(x1, y2, x2, y2, color); 
03000:  MOVFF  6AC,6B7
03004:  MOVFF  6AF,6B8
03008:  MOVFF  6AE,6B9
0300C:  MOVFF  6AF,6BA
03010:  MOVFF  6B1,6BB
03014:  RCALL  2E48
....................       glcd_line(x1, y1, x1, y2, color); 
03016:  MOVFF  6AC,6B7
0301A:  MOVFF  6AD,6B8
0301E:  MOVFF  6AC,6B9
03022:  MOVFF  6AF,6BA
03026:  MOVFF  6B1,6BB
0302A:  RCALL  2E48
....................       glcd_line(x2, y1, x2, y2, color); 
0302C:  MOVFF  6AE,6B7
03030:  MOVFF  6AD,6B8
03034:  MOVFF  6AE,6B9
03038:  MOVFF  6AF,6BA
0303C:  MOVFF  6B1,6BB
03040:  RCALL  2E48
03042:  MOVLB  6
....................    } 
.................... } 
03044:  MOVLB  0
03046:  RETLW  00
....................  
.................... ///////////////////////////////////////////////////////////////////////// 
.................... // Purpose:       Draw a bar (wide line) on a graphic LCD 
.................... // Inputs:        (x1, y1) - the start coordinate 
.................... //                (x2, y2) - the end coordinate 
.................... //                width  - The number of pixels wide 
.................... //                color - ON or OFF 
.................... ///////////////////////////////////////////////////////////////////////// 
.................... #ifdef LARGE_LCD 
.................... void glcd_bar(int16 x1, int16 y1, int16 x2, int16 y2, int8 width, int1 color) 
.................... #else 
.................... void glcd_bar(int8 x1, int8 y1, int8 x2, int8 y2, int8 width, int1 color) 
.................... #endif 
.................... { 
....................    int8         half_width; 
....................    signed int16 dy, dx; 
....................    signed int8  addx=1, addy=1, j; 
....................    signed int16 P, diff, c1, c2; 
....................  
....................    #ifdef LARGE_LCD 
....................    int16 i=0; 
....................    dx = abs((signed int16)(x2 - x1)); 
....................    dy = abs((signed int16)(y2 - y1)); 
....................    #else 
....................    int8 i=0; 
....................    dx = abs((signed int8)(x2 - x1)); 
....................    dy = abs((signed int8)(y2 - y1)); 
....................    #endif 
....................  
....................    half_width = width/2; 
....................    c1 = -(dx*x1 + dy*y1); 
....................    c2 = -(dx*x2 + dy*y2); 
....................  
....................    if(x1 > x2) 
....................    { 
....................       signed int16 temp; 
....................       temp = c1; 
....................       c1 = c2; 
....................       c2 = temp; 
....................       addx = -1; 
....................    } 
....................    if(y1 > y2) 
....................    { 
....................       signed int16 temp; 
....................       temp = c1; 
....................       c1 = c2; 
....................       c2 = temp; 
....................       addy = -1; 
....................    } 
....................  
....................    if(dx >= dy) 
....................    { 
....................       P = 2*dy - dx; 
....................       diff = P - dx; 
....................  
....................       for(i=0; i<=dx; ++i) 
....................       { 
....................          for(j=-half_width; j<half_width+width%2; ++j) 
....................          { 
....................             #ifdef LARGE_LCD 
....................             int16 temp; 
....................             #else 
....................             int8 temp; 
....................             #endif 
....................  
....................             temp = dx*x1+dy*(y1+j);    // Use more RAM to increase speed 
....................             if(temp+c1 >= 0 && temp+c2 <=0) 
....................                glcd_pixel(x1, y1+j, color); 
....................          } 
....................          if(P < 0) 
....................          { 
....................             P  += 2*dy; 
....................             x1 += addx; 
....................          } 
....................          else 
....................          { 
....................             P  += diff; 
....................             x1 += addx; 
....................             y1 += addy; 
....................          } 
....................       } 
....................    } 
....................    else 
....................    { 
....................       P = 2*dx - dy; 
....................       diff = P - dy; 
....................  
....................       for(i=0; i<=dy; ++i) 
....................       { 
....................          if(P < 0) 
....................          { 
....................             P  += 2*dx; 
....................             y1 += addy; 
....................          } 
....................          else 
....................          { 
....................             P  += diff; 
....................             x1 += addx; 
....................             y1 += addy; 
....................          } 
....................          for(j=-half_width; j<half_width+width%2; ++j) 
....................          { 
....................             #ifdef LARGE_LCD 
....................             int16 temp; 
....................             #else 
....................             int8 temp; 
....................             #endif 
....................  
....................             temp = dx*x1+dy*(y1+j);    // Use more RAM to increase speed 
....................             if(temp+c1 >= 0 && temp+c2 <=0) 
....................                glcd_pixel(x1+j, y1, color); 
....................          } 
....................       } 
....................    } 
.................... } 
....................  
....................  
.................... ///////////////////////////////////////////////////////////////////////// 
.................... // Purpose:       Draw a circle on a graphic LCD 
.................... // Inputs:        (x,y) - the center of the circle 
.................... //                radius - the radius of the circle 
.................... //                fill - YES or NO 
.................... //                color - ON or OFF 
.................... ///////////////////////////////////////////////////////////////////////// 
.................... #ifdef LARGE_LCD 
.................... void glcd_circle(int16 x, int16 y, int16 radius, int1 fill, int1 color) 
.................... #else 
.................... void glcd_circle(int8 x, int8 y, int8 radius, int1 fill, int1 color) 
.................... #endif 
.................... { 
....................    #ifdef LARGE_LCD 
....................    signed int16 a, b, P; 
....................    #else 
....................    signed int8  a, b, P; 
....................    #endif 
....................  
....................    a = 0; 
*
0463E:  MOVLB  6
04640:  CLRF   xAD
....................    b = radius; 
04642:  MOVFF  6AA,6AE
....................    P = 1 - radius; 
04646:  MOVLW  01
04648:  BSF    FD8.0
0464A:  SUBFWB xAA,W
0464C:  MOVWF  xAF
....................  
....................    do 
....................    { 
....................       if(fill) 
0464E:  MOVF   xAB,F
04650:  BZ    471C
....................       { 
....................          glcd_line(x-a, y+b, x+a, y+b, color); 
04652:  MOVF   xAD,W
04654:  SUBWF  xA8,W
04656:  MOVWF  xB0
04658:  MOVF   xAE,W
0465A:  ADDWF  xA9,W
0465C:  MOVWF  xB1
0465E:  MOVF   xAD,W
04660:  ADDWF  xA8,W
04662:  MOVWF  xB2
04664:  MOVF   xAE,W
04666:  ADDWF  xA9,W
04668:  MOVWF  xB3
0466A:  MOVFF  6B0,6B7
0466E:  MOVFF  6B1,6B8
04672:  MOVFF  6B2,6B9
04676:  MOVWF  xBA
04678:  MOVFF  6AC,6BB
0467C:  MOVLB  0
0467E:  CALL   2E48
....................          glcd_line(x-a, y-b, x+a, y-b, color); 
04682:  MOVLB  6
04684:  MOVF   xAD,W
04686:  SUBWF  xA8,W
04688:  MOVWF  xB0
0468A:  MOVF   xAE,W
0468C:  SUBWF  xA9,W
0468E:  MOVWF  xB1
04690:  MOVF   xAD,W
04692:  ADDWF  xA8,W
04694:  MOVWF  xB2
04696:  MOVF   xAE,W
04698:  SUBWF  xA9,W
0469A:  MOVWF  xB3
0469C:  MOVFF  6B0,6B7
046A0:  MOVFF  6B1,6B8
046A4:  MOVFF  6B2,6B9
046A8:  MOVWF  xBA
046AA:  MOVFF  6AC,6BB
046AE:  MOVLB  0
046B0:  CALL   2E48
....................          glcd_line(x-b, y+a, x+b, y+a, color); 
046B4:  MOVLB  6
046B6:  MOVF   xAE,W
046B8:  SUBWF  xA8,W
046BA:  MOVWF  xB0
046BC:  MOVF   xAD,W
046BE:  ADDWF  xA9,W
046C0:  MOVWF  xB1
046C2:  MOVF   xAE,W
046C4:  ADDWF  xA8,W
046C6:  MOVWF  xB2
046C8:  MOVF   xAD,W
046CA:  ADDWF  xA9,W
046CC:  MOVWF  xB3
046CE:  MOVFF  6B0,6B7
046D2:  MOVFF  6B1,6B8
046D6:  MOVFF  6B2,6B9
046DA:  MOVWF  xBA
046DC:  MOVFF  6AC,6BB
046E0:  MOVLB  0
046E2:  CALL   2E48
....................          glcd_line(x-b, y-a, x+b, y-a, color); 
046E6:  MOVLB  6
046E8:  MOVF   xAE,W
046EA:  SUBWF  xA8,W
046EC:  MOVWF  xB0
046EE:  MOVF   xAD,W
046F0:  SUBWF  xA9,W
046F2:  MOVWF  xB1
046F4:  MOVF   xAE,W
046F6:  ADDWF  xA8,W
046F8:  MOVWF  xB2
046FA:  MOVF   xAD,W
046FC:  SUBWF  xA9,W
046FE:  MOVWF  xB3
04700:  MOVFF  6B0,6B7
04704:  MOVFF  6B1,6B8
04708:  MOVFF  6B2,6B9
0470C:  MOVWF  xBA
0470E:  MOVFF  6AC,6BB
04712:  MOVLB  0
04714:  CALL   2E48
....................       } 
....................       else 
04718:  BRA    480A
0471A:  MOVLB  6
....................       { 
....................          glcd_pixel(a+x, b+y, color); 
0471C:  MOVF   xA8,W
0471E:  ADDWF  xAD,W
04720:  MOVWF  xB0
04722:  MOVF   xA9,W
04724:  ADDWF  xAE,W
04726:  MOVWF  xB1
04728:  MOVFF  6B0,6C7
0472C:  MOVWF  xC8
0472E:  MOVFF  6AC,6C9
04732:  MOVLB  0
04734:  CALL   2BC8
....................          glcd_pixel(b+x, a+y, color); 
04738:  MOVLB  6
0473A:  MOVF   xA8,W
0473C:  ADDWF  xAE,W
0473E:  MOVWF  xB0
04740:  MOVF   xA9,W
04742:  ADDWF  xAD,W
04744:  MOVWF  xB1
04746:  MOVFF  6B0,6C7
0474A:  MOVWF  xC8
0474C:  MOVFF  6AC,6C9
04750:  MOVLB  0
04752:  CALL   2BC8
....................          glcd_pixel(x-a, b+y, color); 
04756:  MOVLB  6
04758:  MOVF   xAD,W
0475A:  SUBWF  xA8,W
0475C:  MOVWF  xB0
0475E:  MOVF   xA9,W
04760:  ADDWF  xAE,W
04762:  MOVWF  xB1
04764:  MOVFF  6B0,6C7
04768:  MOVWF  xC8
0476A:  MOVFF  6AC,6C9
0476E:  MOVLB  0
04770:  CALL   2BC8
....................          glcd_pixel(x-b, a+y, color); 
04774:  MOVLB  6
04776:  MOVF   xAE,W
04778:  SUBWF  xA8,W
0477A:  MOVWF  xB0
0477C:  MOVF   xA9,W
0477E:  ADDWF  xAD,W
04780:  MOVWF  xB1
04782:  MOVFF  6B0,6C7
04786:  MOVWF  xC8
04788:  MOVFF  6AC,6C9
0478C:  MOVLB  0
0478E:  CALL   2BC8
....................          glcd_pixel(b+x, y-a, color); 
04792:  MOVLB  6
04794:  MOVF   xA8,W
04796:  ADDWF  xAE,W
04798:  MOVWF  xB0
0479A:  MOVF   xAD,W
0479C:  SUBWF  xA9,W
0479E:  MOVWF  xB1
047A0:  MOVFF  6B0,6C7
047A4:  MOVWF  xC8
047A6:  MOVFF  6AC,6C9
047AA:  MOVLB  0
047AC:  CALL   2BC8
....................          glcd_pixel(a+x, y-b, color); 
047B0:  MOVLB  6
047B2:  MOVF   xA8,W
047B4:  ADDWF  xAD,W
047B6:  MOVWF  xB0
047B8:  MOVF   xAE,W
047BA:  SUBWF  xA9,W
047BC:  MOVWF  xB1
047BE:  MOVFF  6B0,6C7
047C2:  MOVWF  xC8
047C4:  MOVFF  6AC,6C9
047C8:  MOVLB  0
047CA:  CALL   2BC8
....................          glcd_pixel(x-a, y-b, color); 
047CE:  MOVLB  6
047D0:  MOVF   xAD,W
047D2:  SUBWF  xA8,W
047D4:  MOVWF  xB0
047D6:  MOVF   xAE,W
047D8:  SUBWF  xA9,W
047DA:  MOVWF  xB1
047DC:  MOVFF  6B0,6C7
047E0:  MOVWF  xC8
047E2:  MOVFF  6AC,6C9
047E6:  MOVLB  0
047E8:  CALL   2BC8
....................          glcd_pixel(x-b, y-a, color); 
047EC:  MOVLB  6
047EE:  MOVF   xAE,W
047F0:  SUBWF  xA8,W
047F2:  MOVWF  xB0
047F4:  MOVF   xAD,W
047F6:  SUBWF  xA9,W
047F8:  MOVWF  xB1
047FA:  MOVFF  6B0,6C7
047FE:  MOVWF  xC8
04800:  MOVFF  6AC,6C9
04804:  MOVLB  0
04806:  CALL   2BC8
....................       } 
....................  
....................       if(P < 0) 
0480A:  MOVLB  6
0480C:  BTFSC  xAF.7
0480E:  BRA    4812
04810:  BRA    482E
....................          P += 3 + 2 * a++; 
04812:  MOVF   xAD,W
04814:  INCF   xAD,F
04816:  MOVWF  xB0
04818:  MOVLW  02
0481A:  MOVWF  xB1
0481C:  MOVFF  6B0,6B2
04820:  MOVLB  0
04822:  RCALL  45F0
04824:  MOVF   01,W
04826:  ADDLW  03
04828:  MOVLB  6
0482A:  ADDWF  xAF,F
....................       else 
0482C:  BRA    4850
....................          P += 5 + 2 * (a++ - b--); 
0482E:  MOVF   xAD,W
04830:  INCF   xAD,F
04832:  MOVWF  xB0
04834:  MOVF   xAE,W
04836:  DECF   xAE,F
04838:  SUBWF  xB0,W
0483A:  MOVWF  xB0
0483C:  MOVLW  02
0483E:  MOVWF  xB1
04840:  MOVFF  6B0,6B2
04844:  MOVLB  0
04846:  RCALL  45F0
04848:  MOVF   01,W
0484A:  ADDLW  05
0484C:  MOVLB  6
0484E:  ADDWF  xAF,F
....................     } while(a <= b); 
04850:  MOVF   xAD,W
04852:  XORLW  80
04854:  MOVWF  00
04856:  MOVF   xAE,W
04858:  XORLW  80
0485A:  SUBWF  00,W
0485C:  BTFSC  FD8.2
0485E:  BRA    464E
04860:  BTFSS  FD8.0
04862:  BRA    464E
.................... } 
04864:  MOVLB  0
04866:  RETLW  00
....................  
....................  
.................... ///////////////////////////////////////////////////////////////////////// 
.................... // Purpose:       Write text on a graphic LCD 
.................... // Inputs:        (x,y) - The upper left coordinate of the first letter 
.................... //                textptr - A pointer to an array of text to display 
.................... //                size - The size of the text: 1 = 5x7, 2 = 10x14, ... 
.................... //                color - ON or OFF 
.................... ///////////////////////////////////////////////////////////////////////// 
.................... #ifdef LARGE_LCD 
.................... void glcd_text57(int16 x, int16 y, char* textptr, int8 size, int1 color) 
.................... #else 
.................... void glcd_text57(int8 x, int8 y, char* textptr, int8 size, int1 color) 
.................... #endif 
.................... { 
....................    int8 j, k, l, m;                       // Loop counters 
....................    int8 pixelData[5];                     // Stores character data 
....................  
....................    for(; *textptr != '\0'; ++textptr, ++x)// Loop through the passed string 
*
02C84:  MOVFF  6AF,03
02C88:  MOVLB  6
02C8A:  MOVFF  6AE,FE9
02C8E:  MOVFF  6AF,FEA
02C92:  MOVF   FEF,F
02C94:  BTFSC  FD8.2
02C96:  BRA    2E44
....................    { 
....................       if(*textptr < 'S') // Checks if the letter is in the first font array 
02C98:  MOVFF  6AF,03
02C9C:  MOVFF  6AE,FE9
02CA0:  MOVFF  6AF,FEA
02CA4:  MOVF   FEF,W
02CA6:  SUBLW  52
02CA8:  BNC   2CFE
....................          memcpy(pixelData, FONT[*textptr - ' '], 5); 
02CAA:  MOVFF  6AF,03
02CAE:  MOVFF  6AE,FE9
02CB2:  MOVFF  6AF,FEA
02CB6:  MOVLW  20
02CB8:  SUBWF  FEF,W
02CBA:  MULLW  05
02CBC:  MOVF   FF3,W
02CBE:  CLRF   03
02CC0:  MOVWF  xBB
02CC2:  MOVLW  06
02CC4:  MOVWF  FEA
02CC6:  MOVLW  B6
02CC8:  MOVWF  FE9
02CCA:  CLRF   xBF
02CCC:  MOVFF  6BB,6BE
02CD0:  MOVFF  FF2,6BC
02CD4:  BCF    FF2.6
02CD6:  BCF    FF2.7
02CD8:  MOVLW  05
02CDA:  MOVWF  01
02CDC:  CLRF   FF7
02CDE:  MOVF   xBB,W
02CE0:  MOVLB  0
02CE2:  CALL   0150
02CE6:  TBLRD*-
02CE8:  TBLRD*+
02CEA:  MOVFF  FF5,FEE
02CEE:  DECFSZ 01,F
02CF0:  BRA    2CE8
02CF2:  MOVLB  6
02CF4:  BTFSC  xBC.6
02CF6:  BSF    FF2.6
02CF8:  BTFSC  xBC.7
02CFA:  BSF    FF2.7
....................       else if(*textptr <= '~') // Check if the letter is in the second font array 
02CFC:  BRA    2D6E
02CFE:  MOVFF  6AF,03
02D02:  MOVFF  6AE,FE9
02D06:  MOVFF  6AF,FEA
02D0A:  MOVF   FEF,W
02D0C:  SUBLW  7E
02D0E:  BNC   2D64
....................          memcpy(pixelData, FONT2[*textptr - 'S'], 5); 
02D10:  MOVFF  6AF,03
02D14:  MOVFF  6AE,FE9
02D18:  MOVFF  6AF,FEA
02D1C:  MOVLW  53
02D1E:  SUBWF  FEF,W
02D20:  MULLW  05
02D22:  MOVF   FF3,W
02D24:  CLRF   03
02D26:  MOVWF  xBB
02D28:  MOVLW  06
02D2A:  MOVWF  FEA
02D2C:  MOVLW  B6
02D2E:  MOVWF  FE9
02D30:  CLRF   xBF
02D32:  MOVFF  6BB,6BE
02D36:  MOVFF  FF2,6BC
02D3A:  BCF    FF2.6
02D3C:  BCF    FF2.7
02D3E:  MOVLW  05
02D40:  MOVWF  01
02D42:  CLRF   FF7
02D44:  MOVF   xBB,W
02D46:  MOVLB  0
02D48:  CALL   0274
02D4C:  TBLRD*-
02D4E:  TBLRD*+
02D50:  MOVFF  FF5,FEE
02D54:  DECFSZ 01,F
02D56:  BRA    2D4E
02D58:  MOVLB  6
02D5A:  BTFSC  xBC.6
02D5C:  BSF    FF2.6
02D5E:  BTFSC  xBC.7
02D60:  BSF    FF2.7
....................       else 
02D62:  BRA    2D6E
....................          memcpy(pixelData, FONT[0], 5);   // Default to space 
02D64:  CLRF   xB6
02D66:  CLRF   xB7
02D68:  CLRF   xB8
02D6A:  CLRF   xB9
02D6C:  CLRF   xBA
....................  
....................       // Handles newline and carriage returns 
....................       switch(*textptr) 
....................       { 
02D6E:  MOVFF  6AF,03
02D72:  MOVF   xAE,W
02D74:  MOVWF  FE9
02D76:  MOVFF  03,FEA
02D7A:  MOVF   FEF,W
02D7C:  XORLW  0A
02D7E:  MOVLB  0
02D80:  BZ    2D88
02D82:  XORLW  07
02D84:  BZ    2D98
02D86:  BRA    2D9E
....................          case '\n': 
....................             y += 7*size + 1; 
02D88:  MOVLB  6
02D8A:  MOVF   xB0,W
02D8C:  MULLW  07
02D8E:  MOVF   FF3,W
02D90:  ADDLW  01
02D92:  ADDWF  xAD,F
....................             continue; 
02D94:  BRA    2E36
02D96:  MOVLB  0
....................          case '\r': 
....................             x = 0; 
02D98:  MOVLB  6
02D9A:  CLRF   xAC
....................             continue; 
02D9C:  BRA    2E36
....................       } 
....................  
....................       if(x+5*size >= GLCD_WIDTH)          // Performs character wrapping 
02D9E:  MOVLB  6
02DA0:  MOVF   xB0,W
02DA2:  MULLW  05
02DA4:  MOVF   FF3,W
02DA6:  ADDWF  xAC,W
02DA8:  SUBLW  7F
02DAA:  BC    2DB8
....................       { 
....................          x = 0;                           // Set x at far left position 
02DAC:  CLRF   xAC
....................          y += 7*size + 1;                 // Set y at next position down 
02DAE:  MOVF   xB0,W
02DB0:  MULLW  07
02DB2:  MOVF   FF3,W
02DB4:  ADDLW  01
02DB6:  ADDWF  xAD,F
....................       } 
....................       for(j=0; j<5; ++j, x+=size)         // Loop through character byte data 
02DB8:  CLRF   xB2
02DBA:  MOVF   xB2,W
02DBC:  SUBLW  04
02DBE:  BNC   2E36
....................       { 
....................          for(k=0; k < 7; ++k)             // Loop through the vertical pixels 
02DC0:  CLRF   xB3
02DC2:  MOVF   xB3,W
02DC4:  SUBLW  06
02DC6:  BNC   2E2E
....................          { 
....................             if(bit_test(pixelData[j], k)) // Check if the pixel should be set 
02DC8:  CLRF   03
02DCA:  MOVF   xB2,W
02DCC:  ADDLW  B6
02DCE:  MOVWF  FE9
02DD0:  MOVLW  06
02DD2:  ADDWFC 03,W
02DD4:  MOVWF  FEA
02DD6:  MOVFF  FEF,6BB
02DDA:  MOVFF  6BB,00
02DDE:  MOVF   xB3,W
02DE0:  MOVWF  01
02DE2:  BZ    2DEC
02DE4:  BCF    FD8.0
02DE6:  RRCF   00,F
02DE8:  DECFSZ 01,F
02DEA:  BRA    2DE4
02DEC:  BTFSS  00.0
02DEE:  BRA    2E2A
....................             { 
....................                for(l=0; l < size; ++l)    // These two loops change the 
02DF0:  CLRF   xB4
02DF2:  MOVF   xB0,W
02DF4:  SUBWF  xB4,W
02DF6:  BC    2E2A
....................                {                          // character's size 
....................                   for(m=0; m < size; ++m) 
02DF8:  CLRF   xB5
02DFA:  MOVF   xB0,W
02DFC:  SUBWF  xB5,W
02DFE:  BC    2E26
....................                   { 
....................                      glcd_pixel(x+m, y+k*size+l, color); // Draws the pixel 
02E00:  MOVF   xB5,W
02E02:  ADDWF  xAC,W
02E04:  MOVWF  xBB
02E06:  MOVF   xB3,W
02E08:  MULWF  xB0
02E0A:  MOVF   FF3,W
02E0C:  ADDWF  xAD,W
02E0E:  ADDWF  xB4,W
02E10:  MOVWF  xBC
02E12:  MOVFF  6BB,6C7
02E16:  MOVWF  xC8
02E18:  MOVFF  6B1,6C9
02E1C:  MOVLB  0
02E1E:  RCALL  2BC8
....................                   } 
02E20:  MOVLB  6
02E22:  INCF   xB5,F
02E24:  BRA    2DFA
....................                } 
02E26:  INCF   xB4,F
02E28:  BRA    2DF2
....................             } 
....................          } 
02E2A:  INCF   xB3,F
02E2C:  BRA    2DC2
....................       } 
02E2E:  INCF   xB2,F
02E30:  MOVF   xB0,W
02E32:  ADDWF  xAC,F
02E34:  BRA    2DBA
....................    } 
02E36:  INCF   xAE,F
02E38:  BTFSC  FD8.2
02E3A:  INCF   xAF,F
02E3C:  INCF   xAC,F
02E3E:  MOVLB  0
02E40:  BRA    2C84
02E42:  MOVLB  6
.................... } 
02E44:  MOVLB  0
02E46:  RETLW  00
....................  
.................... #endif 
....................  
.................... #include "imagen.h" 
.................... const int8 Horno [64][16] = { 
.................... 0x00, 0x00, 0x00, 0x00, 0x00, 0x00, 0x00, 0x00, 0x00, 0x00, 0x00, 0x1F, 0xFF, 0xFF, 0xFF, 0xFE, 
.................... 0x00, 0x00, 0x00, 0x00, 0x00, 0x00, 0x00, 0x00, 0x00, 0x00, 0x00, 0x1F, 0xFF, 0xFF, 0xFF, 0xFE, 
.................... 0x01, 0xC0, 0x00, 0x00, 0x00, 0x00, 0x00, 0x00, 0x00, 0x00, 0x00, 0x1C, 0x00, 0x00, 0x00, 0x0E, 
.................... 0x07, 0xF0, 0x00, 0x00, 0x00, 0x00, 0x00, 0x00, 0x00, 0x00, 0x00, 0x1C, 0x00, 0x00, 0x00, 0x0E, 
.................... 0x1C, 0x9C, 0x00, 0x00, 0x00, 0x00, 0x00, 0x00, 0x00, 0x00, 0x00, 0x1C, 0x7F, 0x00, 0x00, 0x0E, 
.................... 0x18, 0x0C, 0x00, 0x00, 0x00, 0x00, 0x00, 0x00, 0x00, 0x00, 0x00, 0x1C, 0x41, 0x00, 0x00, 0x0E, 
.................... 0x30, 0x86, 0x00, 0x00, 0x00, 0x00, 0x00, 0x00, 0x00, 0x00, 0x00, 0x1C, 0x41, 0x00, 0x00, 0x0E, 
.................... 0x20, 0x82, 0x00, 0x00, 0x00, 0x00, 0x00, 0x00, 0x00, 0x00, 0x00, 0x1C, 0x41, 0x02, 0x00, 0x0E, 
.................... 0x60, 0x83, 0x00, 0x00, 0x00, 0x00, 0x00, 0x00, 0x00, 0x00, 0x00, 0x1C, 0x7F, 0x05, 0x00, 0x0E, 
.................... 0x70, 0x87, 0x00, 0x00, 0x00, 0x00, 0x00, 0x00, 0x00, 0x00, 0x00, 0x1C, 0x00, 0x02, 0x00, 0x0E, 
.................... 0x60, 0xC3, 0x00, 0x00, 0x00, 0x00, 0x00, 0x00, 0x00, 0x00, 0x00, 0x1C, 0x00, 0x00, 0x00, 0x0E, 
.................... 0x20, 0x62, 0x00, 0x00, 0x00, 0x00, 0x00, 0x00, 0x00, 0x00, 0x00, 0x1C, 0x00, 0x00, 0x00, 0x0E, 
.................... 0x30, 0x26, 0x00, 0x00, 0x00, 0x00, 0x00, 0x00, 0x00, 0x00, 0x00, 0x1F, 0xFF, 0xFF, 0xFF, 0xFE, 
.................... 0x18, 0x0C, 0x00, 0x00, 0x00, 0x00, 0x00, 0x00, 0x00, 0x00, 0x00, 0x1C, 0x00, 0x00, 0x00, 0x0E, 
.................... 0x1C, 0x9C, 0x00, 0x00, 0x00, 0x00, 0x00, 0x00, 0x00, 0x00, 0x00, 0x1C, 0x00, 0x00, 0x00, 0x0E, 
.................... 0x07, 0xF0, 0x00, 0x00, 0x00, 0x00, 0x00, 0x00, 0x00, 0x00, 0x00, 0x1C, 0x00, 0x00, 0x00, 0x0E, 
.................... 0x01, 0xC0, 0x00, 0x00, 0x00, 0x00, 0x00, 0x00, 0x00, 0x00, 0x00, 0x1C, 0x00, 0x00, 0x00, 0x0E, 
.................... 0x00, 0x00, 0x00, 0x00, 0x00, 0x00, 0x00, 0x00, 0x00, 0x00, 0x00, 0x1C, 0x00, 0x00, 0x00, 0x0E, 
.................... 0x00, 0x00, 0x00, 0x00, 0x00, 0x00, 0x00, 0x00, 0x00, 0x00, 0x00, 0x1C, 0x00, 0x00, 0x00, 0x0E, 
.................... 0x00, 0x00, 0x00, 0x00, 0x00, 0x00, 0x00, 0x00, 0x00, 0x00, 0x00, 0x1C, 0x00, 0x00, 0x00, 0x0E, 
.................... 0x00, 0x00, 0x00, 0x00, 0x00, 0x00, 0x00, 0x00, 0x00, 0x00, 0x00, 0x1C, 0x00, 0x00, 0x00, 0x0E, 
.................... 0x00, 0x00, 0x00, 0x00, 0x00, 0x00, 0x00, 0x00, 0x00, 0x00, 0x00, 0x1C, 0x00, 0x1E, 0x00, 0x0E, 
.................... 0x00, 0x00, 0x00, 0x00, 0x00, 0x00, 0x00, 0x00, 0x00, 0x00, 0x00, 0x1C, 0x00, 0xE1, 0xC0, 0x0E, 
.................... 0x00, 0x00, 0x00, 0x00, 0x00, 0x00, 0x00, 0x00, 0x00, 0x00, 0x00, 0x1C, 0x01, 0x80, 0x60, 0x0E, 
.................... 0x00, 0x00, 0x00, 0x00, 0x00, 0x00, 0x00, 0x00, 0x00, 0x00, 0x00, 0x1C, 0x02, 0x78, 0x10, 0x0E, 
.................... 0x00, 0x00, 0x00, 0x00, 0x00, 0x00, 0x00, 0x00, 0x00, 0x00, 0x00, 0x1C, 0x06, 0x7C, 0x18, 0x0E, 
.................... 0x00, 0x00, 0x00, 0x00, 0x00, 0x00, 0x00, 0x00, 0x00, 0x00, 0x00, 0x1C, 0x04, 0x7C, 0x08, 0x0E, 
.................... 0x00, 0x00, 0x00, 0x00, 0x00, 0x00, 0x00, 0x00, 0x00, 0x00, 0x00, 0x1C, 0x08, 0x3C, 0x04, 0x0E, 
.................... 0x00, 0x00, 0x00, 0x00, 0x00, 0x00, 0x00, 0x00, 0x00, 0x00, 0x00, 0x1C, 0x08, 0x10, 0x04, 0x0E, 
.................... 0x01, 0x80, 0x00, 0x00, 0x00, 0x00, 0x00, 0x00, 0x00, 0x00, 0x00, 0x1C, 0x08, 0x0C, 0xE4, 0x0E, 
.................... 0x02, 0x40, 0x00, 0x00, 0x00, 0x00, 0x00, 0x00, 0x00, 0x00, 0x00, 0x1C, 0x08, 0x2D, 0xF4, 0x0E, 
.................... 0x02, 0x70, 0x00, 0x00, 0x00, 0x00, 0x00, 0x00, 0x00, 0x00, 0x00, 0x1C, 0x08, 0x63, 0xF4, 0x0E, 
.................... 0x02, 0x40, 0x00, 0x00, 0x00, 0x00, 0x00, 0x00, 0x00, 0x00, 0x00, 0x1C, 0x08, 0xF1, 0xE4, 0x0E, 
.................... 0x03, 0xC0, 0x00, 0x00, 0x00, 0x00, 0x00, 0x00, 0x00, 0x00, 0x00, 0x1C, 0x04, 0xF0, 0x08, 0x0E, 
.................... 0x03, 0xF0, 0x00, 0x00, 0x00, 0x00, 0x00, 0x00, 0x00, 0x00, 0x00, 0x1C, 0x04, 0xF0, 0x08, 0x0E, 
.................... 0x03, 0xC0, 0x00, 0x00, 0x00, 0x00, 0x00, 0x00, 0x00, 0x00, 0x00, 0x1C, 0x02, 0x70, 0x10, 0x0E, 
.................... 0x03, 0xC0, 0x00, 0x00, 0x00, 0x00, 0x00, 0x00, 0x00, 0x00, 0x00, 0x1C, 0x03, 0x00, 0x30, 0x0E, 
.................... 0x07, 0xE0, 0x00, 0x00, 0x00, 0x00, 0x00, 0x00, 0x00, 0x00, 0x00, 0x1C, 0x00, 0xC0, 0xC0, 0x0E, 
.................... 0x0F, 0xF0, 0x00, 0x00, 0x00, 0x00, 0x00, 0x00, 0x00, 0x00, 0x00, 0x1C, 0x00, 0x7F, 0x80, 0x0E, 
.................... 0x0B, 0xF0, 0x00, 0x00, 0x00, 0x00, 0x00, 0x00, 0x00, 0x00, 0x00, 0x1C, 0x00, 0x00, 0x00, 0x0E, 
.................... 0x0B, 0xF0, 0x00, 0x00, 0x00, 0x00, 0x00, 0x00, 0x00, 0x00, 0x00, 0x1C, 0x00, 0x00, 0x00, 0x0E, 
.................... 0x0F, 0xF0, 0x00, 0x00, 0x00, 0x00, 0x00, 0x00, 0x00, 0x00, 0x00, 0x1C, 0x00, 0x00, 0x00, 0x0E, 
.................... 0x0F, 0xF0, 0x00, 0x00, 0x00, 0x00, 0x00, 0x00, 0x00, 0x00, 0x00, 0x1C, 0x00, 0x00, 0x00, 0x0E, 
.................... 0x07, 0xE0, 0x00, 0x00, 0x00, 0x00, 0x00, 0x00, 0x00, 0x00, 0x00, 0x1C, 0x00, 0x00, 0x00, 0x0E, 
.................... 0x03, 0xC0, 0x00, 0x00, 0x00, 0x00, 0x00, 0x00, 0x00, 0x00, 0x00, 0x1C, 0x00, 0x00, 0x00, 0x0E, 
.................... 0x00, 0x00, 0x00, 0x00, 0x00, 0x00, 0x00, 0x00, 0x00, 0x00, 0x00, 0x1C, 0x00, 0x00, 0x00, 0x0E, 
.................... 0x00, 0x00, 0x00, 0x00, 0x00, 0x00, 0x00, 0x00, 0x00, 0x00, 0x00, 0x1C, 0x00, 0x00, 0x00, 0x0E, 
.................... 0x00, 0x00, 0x00, 0x00, 0x00, 0x00, 0x00, 0x00, 0x00, 0x00, 0x00, 0x1C, 0x00, 0x00, 0x00, 0x0E, 
.................... 0x00, 0x00, 0x00, 0x00, 0x00, 0x00, 0x00, 0x00, 0x00, 0x00, 0x00, 0x1C, 0x00, 0x00, 0x00, 0x0E, 
.................... 0x00, 0x00, 0x00, 0x00, 0x00, 0x00, 0x00, 0x00, 0x00, 0x00, 0x00, 0x1C, 0x00, 0x00, 0x00, 0x0E, 
.................... 0x00, 0x00, 0x00, 0x00, 0x00, 0x00, 0x00, 0x00, 0x00, 0x00, 0x00, 0x1C, 0x00, 0x00, 0x00, 0x0E, 
.................... 0x00, 0x00, 0x00, 0x00, 0x00, 0x00, 0x00, 0x00, 0x00, 0x00, 0x00, 0x1C, 0x00, 0x00, 0x00, 0x0E, 
.................... 0x00, 0x00, 0x00, 0x00, 0x00, 0x00, 0x00, 0x00, 0x00, 0x00, 0x00, 0x1F, 0xFF, 0xFF, 0xFF, 0xFE, 
.................... 0x00, 0x00, 0x00, 0x00, 0x00, 0x00, 0x00, 0x00, 0x00, 0x00, 0x00, 0x1F, 0xFF, 0xFF, 0xFF, 0xFE, 
.................... 0x00, 0x00, 0x00, 0x00, 0x00, 0x00, 0x00, 0x00, 0x00, 0x00, 0x00, 0x1F, 0xFF, 0xFF, 0xFF, 0xFE, 
.................... 0x00, 0x00, 0x00, 0x00, 0x00, 0x00, 0x00, 0x00, 0x00, 0x00, 0x00, 0x00, 0x00, 0x00, 0x00, 0x00, 
.................... 0x00, 0x00, 0x00, 0x00, 0x00, 0x00, 0x00, 0x00, 0x00, 0x00, 0x00, 0x00, 0x00, 0x00, 0x00, 0x00, 
.................... 0x00, 0x00, 0x00, 0x00, 0x00, 0x00, 0x00, 0x00, 0x00, 0x00, 0x00, 0x00, 0x00, 0x00, 0x00, 0x00, 
.................... 0x00, 0x00, 0x00, 0x00, 0x00, 0x00, 0x00, 0x00, 0x00, 0x00, 0x00, 0x00, 0x00, 0x00, 0x00, 0x00, 
.................... 0x00, 0x00, 0x00, 0x00, 0x00, 0x00, 0x00, 0x00, 0x00, 0x00, 0x00, 0x00, 0x00, 0x00, 0x00, 0x00, 
.................... 0x00, 0x00, 0x00, 0x00, 0x00, 0x00, 0x00, 0x00, 0x00, 0x00, 0x00, 0x00, 0x00, 0x00, 0x00, 0x00, 
.................... 0x00, 0x00, 0x00, 0x00, 0x00, 0x00, 0x00, 0x00, 0x00, 0x00, 0x00, 0x00, 0x00, 0x00, 0x00, 0x00, 
.................... 0x00, 0x00, 0x00, 0x00, 0x00, 0x00, 0x00, 0x00, 0x00, 0x00, 0x00, 0x00, 0x00, 0x00, 0x00, 0x00, 
.................... 0x00, 0x00, 0x00, 0x00, 0x00, 0x00, 0x00, 0x00, 0x00, 0x00, 0x00, 0x00, 0x00, 0x00, 0x00, 0x00 
.................... }; 
....................  
....................  
.................... #include <stdio.h> 
.................... /////////////////////////////////////////////////////////////////////////// 
.................... ////        (C) Copyright 1996,2003 Custom Computer Services           //// 
.................... //// This source code may only be used by licensed users of the CCS C  //// 
.................... //// compiler.  This source code may only be distributed to other      //// 
.................... //// licensed users of the CCS C compiler.  No other use, reproduction //// 
.................... //// or distribution is permitted without written permission.          //// 
.................... //// Derivative programs created using this software in object code    //// 
.................... //// form are not restricted in any way.                               //// 
.................... /////////////////////////////////////////////////////////////////////////// 
....................  
.................... #ifndef _STDIO 
.................... #define _STDIO 
.................... #include <string.h> 
.................... //////////////////////////////////////////////////////////////////////////// 
.................... ////        (C) Copyright 1996,2008 Custom Computer Services            //// 
.................... //// This source code may only be used by licensed users of the CCS C   //// 
.................... //// compiler.  This source code may only be distributed to other       //// 
.................... //// licensed users of the CCS C compiler.  No other use, reproduction  //// 
.................... //// or distribution is permitted without written permission.           //// 
.................... //// Derivative programs created using this software in object code     //// 
.................... //// form are not restricted in any way.                                //// 
.................... //////////////////////////////////////////////////////////////////////////// 
....................  
.................... #ifndef _STRING 
.................... #define _STRING 
.................... #include <stddef.h> 
.................... /////////////////////////////////////////////////////////////////////////// 
.................... ////        (C) Copyright 1996,2003 Custom Computer Services           //// 
.................... //// This source code may only be used by licensed users of the CCS C  //// 
.................... //// compiler.  This source code may only be distributed to other      //// 
.................... //// licensed users of the CCS C compiler.  No other use, reproduction //// 
.................... //// or distribution is permitted without written permission.          //// 
.................... //// Derivative programs created using this software in object code    //// 
.................... //// form are not restricted in any way.                               //// 
.................... /////////////////////////////////////////////////////////////////////////// 
....................  
.................... #ifndef _STDDEF 
....................  
.................... #define _STDDEF 
....................  
.................... #if sizeof(unsigned int8 *)==1 
.................... #define ptrdiff_t unsigned int8 
.................... #else 
.................... #define ptrdiff_t unsigned int16 
.................... #endif 
....................  
.................... #define size_t unsigned int8 
.................... #define wchar_t char 
.................... #define NULL 0 
....................  
.................... #define offsetof(s,f) (offsetofbit(s,f)/8) 
....................  
.................... #endif 
....................  
.................... #include <ctype.h> 
.................... //////////////////////////////////////////////////////////////////////////// 
.................... ////        (C) Copyright 1996,2003 Custom Computer Services            //// 
.................... //// This source code may only be used by licensed users of the CCS C   //// 
.................... //// compiler.  This source code may only be distributed to other       //// 
.................... //// licensed users of the CCS C compiler.  No other use, reproduction  //// 
.................... //// or distribution is permitted without written permission.           //// 
.................... //// Derivative programs created using this software in object code     //// 
.................... //// form are not restricted in any way.                                //// 
.................... //////////////////////////////////////////////////////////////////////////// 
....................  
.................... #ifndef _CTYPE 
.................... #define _CTYPE 
....................  
.................... #define islower(x)  isamong(x,"abcdefghijklmnopqrstuvwxyz") 
.................... #define isupper(x)  isamong(x,"ABCDEFGHIJKLMNOPQRSTUVWXYZ") 
.................... #define isalnum(x)  isamong(x,"0123456789ABCDEFGHIJKLMNOPQRSTUVWXYZabcdefghijklmnopqrstuvwxyz") 
.................... #define isalpha(x)  isamong(x,"ABCDEFGHIJKLMNOPQRSTUVWXYZabcdefghijklmnopqrstuvwxyz") 
.................... #define isdigit(x)  isamong(x,"0123456789") 
.................... #define isspace(x)  ((x)==' ') 
.................... #define isxdigit(x) isamong(x,"0123456789ABCDEFabcdef") 
.................... #define iscntrl(x)  ((x)<' ') 
.................... #define isprint(x)  ((x)>=' ') 
.................... #define isgraph(x)  ((x)>' ') 
.................... #define ispunct(x)  (((x)>' ')&&!isalnum(x)) 
....................  
.................... #endif 
....................  
....................  
....................  
....................  
....................  
.................... ////////////////////////////////////////////// 
.................... //// Uncomment the following define to    //// 
.................... //// allow some functions to use a        //// 
.................... //// quicker algorithm, but use more ROM  //// 
.................... ////                                      //// 
.................... //// #define FASTER_BUT_MORE_ROM          //// 
.................... ////////////////////////////////////////////// 
....................  
....................  
....................  
.................... /*Copying functions*/ 
.................... /* standard template: 
....................    void *memmove(void *s1, void *s2, size_t n). 
....................    Copies max of n characters safely (not following ending '\0') 
....................    from s2 in s1; if s2 has less than n characters, appends 0 */ 
....................  
.................... char *memmove(void *s1,char *s2,size_t n) 
.................... { 
....................    char *sc1; 
....................    char *sc2; 
....................    sc1=s1; 
....................    sc2=s2; 
....................    if(sc2<sc1 && sc1 <sc2 +n) 
....................       for(sc1+=n,sc2+=n;0<n;--n) 
....................          *--sc1=*--sc2; 
....................    else 
....................       for(;0<n;--n) 
....................          *sc1++=*sc2++; 
....................   return s1; 
....................   } 
....................  
.................... /* Standard template: char *strcpy(char *s1, const char *s2) 
....................    copies the string s2 including the null character to s1. 
....................    This is a compiler built in to handle the different address 
....................    spaces */ 
....................  
.................... #define strcopy strcpy 
....................  
.................... /* standard template: 
....................    char *strncpy(char *s1, const char *s2, size_t n). 
....................    Copies max of n characters (not following ending '\0') 
....................    from s2 in s1; if s2 has less than n characters, appends 0 */ 
....................  
.................... char *strncpy(char *s1, char *s2, size_t n) 
.................... { 
....................   char *s; 
....................  
....................   for (s = s1; n > 0 && *s2 != '\0'; n--) 
....................      *s++ = *s2++; 
....................   for (; n > 0; n--) 
....................      *s++ = '\0'; 
....................  
....................   return(s1); 
.................... } 
.................... /***********************************************************/ 
....................  
.................... /*concatenation functions*/ 
.................... /* standard template: char *strcat(char *s1, const char *s2) 
.................... appends s2 to s1*/ 
....................  
.................... char *strcat(char *s1, char *s2) 
.................... { 
....................    char *s; 
....................  
....................    for (s = s1; *s != '\0'; ++s); 
....................    while(*s2 != '\0') 
....................    { 
....................       *s = *s2; 
....................       ++s; 
....................       ++s2; 
....................    } 
....................  
....................    *s = '\0'; 
....................    return(s1); 
.................... } 
.................... /* standard template: char *strncat(char *s1, char *s2,size_t n) 
.................... appends not more than n characters from s2 to s1*/ 
....................  
.................... char *strncat(char *s1, char *s2, size_t n) 
.................... { 
....................    char *s; 
....................  
....................    for (s = s1; *s != '\0'; ++s); 
....................    while(*s2 != '\0' && 0<n) 
....................    { 
....................       *s = *s2; 
....................       ++s; 
....................       ++s2; 
....................       --n; 
....................    } 
....................  
....................    *s = '\0'; 
....................    return(s1); 
.................... } 
....................  
.................... /***********************************************************/ 
....................  
....................  
.................... /*comparison functions*/ 
.................... /* standard template: signed int memcmp(void *s1, void *s2). 
....................    Compares s1 & s2; returns -1 if s1<s2, 0 if s1=s2, 1 if s1>s2 */ 
....................  
.................... signed int8 memcmp(void * s1,char *s2,size_t n) 
.................... { 
.................... char *su1, *su2; 
.................... for(su1=s1, su2=s2; 0<n; ++su1, ++su2, --n) 
.................... { 
....................    if(*su1!=*su2) 
....................       return ((*su1<*su2)?-1:+1); 
.................... } 
.................... return 0; 
.................... } 
....................  
.................... /* standard template: int strcmp(const char *s1, const char *s2). 
....................    Compares s1 & s2; returns -1 if s1<s2, 0 if s1=s2, 1 if s1>s2 */ 
....................  
.................... signed int8 strcmp(char *s1, char *s2) 
.................... { 
....................    for (; *s1 == *s2; s1++, s2++) 
....................       if (*s1 == '\0') 
....................          return(0); 
....................    return((*s1 < *s2) ? -1: 1); 
.................... } 
.................... /* standard template: int strcoll(const char *s1, const char *s2). 
....................    Compares s1 & s2; returns -1 if s1<s2, 0 if s1=s2, 1 if s1>s2 */ 
....................  
.................... signed int8 strcoll(char *s1, char *s2) 
.................... { 
....................    for (; *s1 == *s2; s1++, s2++) 
....................       if (*s1 == '\0') 
....................          return(0); 
....................    return((*s1 < *s2) ? -1: 1); 
.................... } 
....................  
.................... /* standard template: 
....................    int strncmp(const char *s1, const char *s2, size_t n). 
....................    Compares max of n characters (not following 0) from s1 to s2; 
....................    returns same as strcmp */ 
....................  
.................... signed int8 strncmp(char *s1, char *s2, size_t n) 
.................... { 
....................    for (; n > 0; s1++, s2++, n--) 
....................       if (*s1 != *s2) 
....................          return((*s1 <*s2) ? -1: 1); 
....................       else if (*s1 == '\0') 
....................          return(0); 
....................    return(0); 
.................... } 
.................... /* standard template: 
....................    int strxfrm(const char *s1, const char *s2, size_t n). 
....................    transforms maximum of n characters from s2 and places them into s1*/ 
.................... size_t strxfrm(char *s1, char *s2, size_t n) 
.................... { 
....................   char *s; 
....................   unsigned int8 n1; 
....................   n1=n; 
....................   for (s = s1; n > 0 && *s2 != '\0'; n--) 
....................      *s++ = *s2++; 
....................   for (; n > 0; n--) 
....................      *s++ = '\0'; 
....................  
....................   return(n1); 
.................... } 
....................  
....................  
....................  
....................  
....................  
.................... /***********************************************************/ 
.................... /*Search functions*/ 
.................... /* standard template: void *memchr(const char *s, int c). 
....................    Finds first occurrence of c in n characters of s */ 
....................  
.................... char *memchr(void *s,unsigned int8 c,size_t n) 
.................... { 
....................    char uc; 
....................    char *su; 
....................    uc=c; 
....................    for(su=s;0<n;++su,--n) 
....................       if(*su==uc) 
....................       return su; 
....................    return NULL; 
.................... } 
....................  
.................... /* standard template: char *strchr(const char *s, int c). 
....................    Finds first occurrence of c in s */ 
....................  
.................... char *strchr(char *s, unsigned int8 c) 
.................... { 
....................    for (; *s != c; s++) 
....................       if (*s == '\0') 
....................          return(0); 
....................    return(s); 
.................... } 
.................... /* standard template: 
....................    size_t strcspn(const char *s1, const char *s2). 
....................    Computes length of max initial segment of s1 that 
....................    consists entirely of characters NOT from s2*/ 
....................  
.................... unsigned int8  strcspn(char *s1, char *s2) 
.................... { 
....................    char *sc1, *sc2; 
....................  
....................    for (sc1 = s1; *sc1 != 0; sc1++) 
....................       for (sc2 = s2; *sc2 != 0; sc2++) 
....................          if (*sc1 == *sc2) 
....................             return(sc1 - s1); 
....................    return(sc1 - s1); 
.................... } 
.................... /* standard template: 
....................    char *strpbrk(const char *s1, const char *s2). 
....................    Locates first occurence of any character from s2 in s1; 
....................    returns s1 if s2 is empty string */ 
....................  
.................... char *strpbrk(char *s1, char *s2) 
.................... { 
....................    char *sc1, *sc2; 
....................  
....................    for (sc1 = s1; *sc1 != 0; sc1++) 
....................       for (sc2 = s2; *sc2 != 0; sc2++) 
....................          if (*sc1 == *sc2) 
....................             return(sc1); 
....................    return(0); 
.................... } 
....................  
....................  
.................... /* standard template: char *strrchr(const char *s, int c). 
....................    Finds last occurrence of c in s */ 
....................  
.................... char *strrchr(char *s, unsigned int8 c) 
.................... { 
....................    char *p; 
....................  
....................    for (p = 0; ; s++) 
....................    { 
....................       if (*s == c) 
....................          p = s; 
....................       if (*s == '\0') 
....................          return(p); 
....................    } 
.................... } 
.................... /* computes length of max initial segment of s1 consisting 
....................    entirely of characters from s2 */ 
....................  
.................... unsigned int8  strspn(char *s1, char *s2) 
.................... { 
....................    char *sc1, *sc2; 
....................  
....................    for (sc1 = s1; *sc1 != 0; sc1++) 
....................       for (sc2 = s2; ; sc2++) 
....................     if (*sc2 == '\0') 
....................        return(sc1 - s1); 
....................          else if (*sc1 == *sc2) 
....................             break; 
....................    return(sc1 - s1); 
.................... } 
.................... /* standard template: 
....................    char *strstr(const char *s1, const char *s2); 
....................    Locates first occurence of character sequence s2 in s1; 
....................    returns 0 if s2 is empty string 
....................  
....................    Uncomment #define FASTER_BUT_MORE_ROM at the top of the 
....................    file to use the faster algorithm */ 
.................... char *strstr(char *s1, char *s2) 
.................... { 
....................    char *s, *t; 
....................  
....................    #ifdef FASTER_BUT_MORE_ROM 
....................    if (*s2 == '\0') 
....................          return(s1); 
....................    #endif 
....................  
....................    while (*s1) 
....................    { 
....................       for(s = s1, t = s2; *t && (*s == *t); ++s, ++t); 
....................  
....................       if (*t == '\0') 
....................          return s1; 
....................       ++s1; 
....................       #ifdef FASTER_BUT_MORE_ROM 
....................          while(*s1 != '\0' && *s1 != *s2) 
....................             ++s1; 
....................       #endif 
....................    } 
....................    return 0; 
.................... } 
....................  
.................... /* standard template: char *strtok(char *s1, const char *s2). 
....................  
....................    Finds next token in s1 delimited by a character from separator 
....................    string s2 (which can be different from call to call).  First call 
....................    starts at beginning of s1 searching for first character NOT 
....................    contained in s2; returns 0 if none is found. 
....................    If one is found, it is the start of first token (return value). 
....................    Function then searches from there for a character contained in s2. 
....................    If none is found, current token extends to end of s1, and subsequent 
....................    searches for a token will return 0.  If one is found, it is 
....................    overwritten by '\0', which terminates current token.  Function saves 
....................    pointer to following character from which next search will start. 
....................    Each subsequent call, with 0 as first argument, starts searching 
....................    from saved pointer */ 
....................  
.................... char *strtok(char *s1, char *s2) 
.................... { 
....................    char *beg, *end; 
....................    static char *save; 
....................  
....................    beg = (s1)? s1: save; 
....................    beg += strspn(beg, s2); 
....................    if (*beg == '\0') 
....................    { 
....................       *save = ' '; 
....................       return(0); 
....................    } 
....................    end = strpbrk(beg, s2); 
....................    if (*end != '\0') 
....................    { 
....................       *end = '\0'; 
....................       end++; 
....................    } 
....................    save = end; 
....................    return(beg); 
.................... } 
....................  
.................... /*****************************************************************/ 
.................... /*Miscellaneous functions*/ 
.................... /* standard template 
.................... maps error number in errnum to an error message string 
.................... Returns: Pointer to string 
.................... */ 
.................... #ifdef _ERRNO 
.................... char * strerror(unsigned int8 errnum) 
.................... { 
.................... char s[15]; 
.................... switch( errnum) 
.................... { 
.................... case 0: 
....................    strcpy(s,"no errors"); 
....................    return s; 
.................... case EDOM : 
....................    strcpy(s,"domain error"); 
....................    return s; 
.................... case ERANGE: 
....................    strcpy(s,"range error"); 
....................    return s; 
.................... } 
.................... } 
.................... #ENDIF 
.................... /* standard template: size_t strlen(const char *s). 
....................    Computes length of s1 (preceding terminating 0) */ 
....................  
.................... unsigned int8 strlen(char *s) 
.................... { 
....................    char *sc; 
....................  
....................    for (sc = s; *sc != 0; sc++); 
....................    return(sc - s); 
.................... } 
....................  
.................... /* standard template: size_t stricmp(const char *s1, const char *s2). 
....................    Compares s1 to s2 ignoring case (upper vs. lower) */ 
....................  
.................... signed int8 stricmp(char *s1, char *s2) 
.................... { 
....................  for(; *s1==*s2||(isalpha(*s1)&&isalpha(*s2)&&(*s1==*s2+32||*s2==*s1+32)); 
....................     s1++, s2++) 
....................     if (*s1 == '\0') 
....................        return(0); 
....................  return((*s1 < *s2) ? -1: 1); 
.................... } 
....................  
....................  
.................... /* standard template: char *strlwr(char *s). 
....................    Replaces uppercase letters by lowercase; 
....................    returns pointer to new string s */ 
....................  
.................... char *strlwr(char *s) 
.................... { 
....................    char *p; 
....................  
....................    for (p = s; *p != '\0'; p++) 
....................       if (*p >= 'A' && *p <='Z') 
....................          *p += 'a' - 'A'; 
....................    return(s); 
.................... } 
....................  
....................  
.................... /************************************************************/ 
....................  
....................  
.................... #endif 
....................  
.................... #ifndef getc 
.................... #define getc getch 
.................... #define getchar getch 
.................... #define puts(s) {printf(s); putchar(13); putchar(10);} 
.................... #define putc putchar 
.................... #endif 
.................... /* maps error number to an error message. Writes a sequence of characters to 
.................... stderr stream thus: if s is not null then string pointed to by s follwed by 
.................... a colon (:) and a space and the appropriate error message returned by strerror 
.................... function with argument errno 
....................  
.................... Returns: no value 
.................... */ 
....................  
.................... #ifdef _ERRNO 
.................... void perror(char *s) 
.................... { 
....................   if(s) 
....................   fprintf(STDERR,"%s: ",s); 
....................   fprintf(STDERR,"%s\r\n",strerror(errno)); 
.................... } 
.................... #endif 
.................... #endif 
....................  
.................... #include <string.h> 
.................... //////////////////////////////////////////////////////////////////////////// 
.................... ////        (C) Copyright 1996,2008 Custom Computer Services            //// 
.................... //// This source code may only be used by licensed users of the CCS C   //// 
.................... //// compiler.  This source code may only be distributed to other       //// 
.................... //// licensed users of the CCS C compiler.  No other use, reproduction  //// 
.................... //// or distribution is permitted without written permission.           //// 
.................... //// Derivative programs created using this software in object code     //// 
.................... //// form are not restricted in any way.                                //// 
.................... //////////////////////////////////////////////////////////////////////////// 
....................  
.................... #ifndef _STRING 
.................... #define _STRING 
.................... #include <stddef.h> 
.................... #include <ctype.h> 
....................  
....................  
....................  
.................... ////////////////////////////////////////////// 
.................... //// Uncomment the following define to    //// 
.................... //// allow some functions to use a        //// 
.................... //// quicker algorithm, but use more ROM  //// 
.................... ////                                      //// 
.................... //// #define FASTER_BUT_MORE_ROM          //// 
.................... ////////////////////////////////////////////// 
....................  
....................  
....................  
.................... /*Copying functions*/ 
.................... /* standard template: 
....................    void *memmove(void *s1, void *s2, size_t n). 
....................    Copies max of n characters safely (not following ending '\0') 
....................    from s2 in s1; if s2 has less than n characters, appends 0 */ 
....................  
.................... char *memmove(void *s1,char *s2,size_t n) 
.................... { 
....................    char *sc1; 
....................    char *sc2; 
....................    sc1=s1; 
....................    sc2=s2; 
....................    if(sc2<sc1 && sc1 <sc2 +n) 
....................       for(sc1+=n,sc2+=n;0<n;--n) 
....................          *--sc1=*--sc2; 
....................    else 
....................       for(;0<n;--n) 
....................          *sc1++=*sc2++; 
....................   return s1; 
....................   } 
....................  
.................... /* Standard template: char *strcpy(char *s1, const char *s2) 
....................    copies the string s2 including the null character to s1. 
....................    This is a compiler built in to handle the different address 
....................    spaces */ 
....................  
.................... #define strcopy strcpy 
....................  
.................... /* standard template: 
....................    char *strncpy(char *s1, const char *s2, size_t n). 
....................    Copies max of n characters (not following ending '\0') 
....................    from s2 in s1; if s2 has less than n characters, appends 0 */ 
....................  
.................... char *strncpy(char *s1, char *s2, size_t n) 
.................... { 
....................   char *s; 
....................  
....................   for (s = s1; n > 0 && *s2 != '\0'; n--) 
....................      *s++ = *s2++; 
....................   for (; n > 0; n--) 
....................      *s++ = '\0'; 
....................  
....................   return(s1); 
.................... } 
.................... /***********************************************************/ 
....................  
.................... /*concatenation functions*/ 
.................... /* standard template: char *strcat(char *s1, const char *s2) 
.................... appends s2 to s1*/ 
....................  
.................... char *strcat(char *s1, char *s2) 
.................... { 
....................    char *s; 
....................  
....................    for (s = s1; *s != '\0'; ++s); 
....................    while(*s2 != '\0') 
....................    { 
....................       *s = *s2; 
....................       ++s; 
....................       ++s2; 
....................    } 
....................  
....................    *s = '\0'; 
....................    return(s1); 
.................... } 
.................... /* standard template: char *strncat(char *s1, char *s2,size_t n) 
.................... appends not more than n characters from s2 to s1*/ 
....................  
.................... char *strncat(char *s1, char *s2, size_t n) 
.................... { 
....................    char *s; 
....................  
....................    for (s = s1; *s != '\0'; ++s); 
....................    while(*s2 != '\0' && 0<n) 
....................    { 
....................       *s = *s2; 
....................       ++s; 
....................       ++s2; 
....................       --n; 
....................    } 
....................  
....................    *s = '\0'; 
....................    return(s1); 
.................... } 
....................  
.................... /***********************************************************/ 
....................  
....................  
.................... /*comparison functions*/ 
.................... /* standard template: signed int memcmp(void *s1, void *s2). 
....................    Compares s1 & s2; returns -1 if s1<s2, 0 if s1=s2, 1 if s1>s2 */ 
....................  
.................... signed int8 memcmp(void * s1,char *s2,size_t n) 
.................... { 
.................... char *su1, *su2; 
.................... for(su1=s1, su2=s2; 0<n; ++su1, ++su2, --n) 
.................... { 
....................    if(*su1!=*su2) 
....................       return ((*su1<*su2)?-1:+1); 
.................... } 
.................... return 0; 
.................... } 
....................  
.................... /* standard template: int strcmp(const char *s1, const char *s2). 
....................    Compares s1 & s2; returns -1 if s1<s2, 0 if s1=s2, 1 if s1>s2 */ 
....................  
.................... signed int8 strcmp(char *s1, char *s2) 
.................... { 
....................    for (; *s1 == *s2; s1++, s2++) 
....................       if (*s1 == '\0') 
....................          return(0); 
....................    return((*s1 < *s2) ? -1: 1); 
.................... } 
.................... /* standard template: int strcoll(const char *s1, const char *s2). 
....................    Compares s1 & s2; returns -1 if s1<s2, 0 if s1=s2, 1 if s1>s2 */ 
....................  
.................... signed int8 strcoll(char *s1, char *s2) 
.................... { 
....................    for (; *s1 == *s2; s1++, s2++) 
....................       if (*s1 == '\0') 
....................          return(0); 
....................    return((*s1 < *s2) ? -1: 1); 
.................... } 
....................  
.................... /* standard template: 
....................    int strncmp(const char *s1, const char *s2, size_t n). 
....................    Compares max of n characters (not following 0) from s1 to s2; 
....................    returns same as strcmp */ 
....................  
.................... signed int8 strncmp(char *s1, char *s2, size_t n) 
.................... { 
....................    for (; n > 0; s1++, s2++, n--) 
....................       if (*s1 != *s2) 
....................          return((*s1 <*s2) ? -1: 1); 
....................       else if (*s1 == '\0') 
....................          return(0); 
....................    return(0); 
.................... } 
.................... /* standard template: 
....................    int strxfrm(const char *s1, const char *s2, size_t n). 
....................    transforms maximum of n characters from s2 and places them into s1*/ 
.................... size_t strxfrm(char *s1, char *s2, size_t n) 
.................... { 
....................   char *s; 
....................   unsigned int8 n1; 
....................   n1=n; 
....................   for (s = s1; n > 0 && *s2 != '\0'; n--) 
....................      *s++ = *s2++; 
....................   for (; n > 0; n--) 
....................      *s++ = '\0'; 
....................  
....................   return(n1); 
.................... } 
....................  
....................  
....................  
....................  
....................  
.................... /***********************************************************/ 
.................... /*Search functions*/ 
.................... /* standard template: void *memchr(const char *s, int c). 
....................    Finds first occurrence of c in n characters of s */ 
....................  
.................... char *memchr(void *s,unsigned int8 c,size_t n) 
.................... { 
....................    char uc; 
....................    char *su; 
....................    uc=c; 
....................    for(su=s;0<n;++su,--n) 
....................       if(*su==uc) 
....................       return su; 
....................    return NULL; 
.................... } 
....................  
.................... /* standard template: char *strchr(const char *s, int c). 
....................    Finds first occurrence of c in s */ 
....................  
.................... char *strchr(char *s, unsigned int8 c) 
.................... { 
....................    for (; *s != c; s++) 
....................       if (*s == '\0') 
....................          return(0); 
....................    return(s); 
.................... } 
.................... /* standard template: 
....................    size_t strcspn(const char *s1, const char *s2). 
....................    Computes length of max initial segment of s1 that 
....................    consists entirely of characters NOT from s2*/ 
....................  
.................... unsigned int8  strcspn(char *s1, char *s2) 
.................... { 
....................    char *sc1, *sc2; 
....................  
....................    for (sc1 = s1; *sc1 != 0; sc1++) 
....................       for (sc2 = s2; *sc2 != 0; sc2++) 
....................          if (*sc1 == *sc2) 
....................             return(sc1 - s1); 
....................    return(sc1 - s1); 
.................... } 
.................... /* standard template: 
....................    char *strpbrk(const char *s1, const char *s2). 
....................    Locates first occurence of any character from s2 in s1; 
....................    returns s1 if s2 is empty string */ 
....................  
.................... char *strpbrk(char *s1, char *s2) 
.................... { 
....................    char *sc1, *sc2; 
....................  
....................    for (sc1 = s1; *sc1 != 0; sc1++) 
....................       for (sc2 = s2; *sc2 != 0; sc2++) 
....................          if (*sc1 == *sc2) 
....................             return(sc1); 
....................    return(0); 
.................... } 
....................  
....................  
.................... /* standard template: char *strrchr(const char *s, int c). 
....................    Finds last occurrence of c in s */ 
....................  
.................... char *strrchr(char *s, unsigned int8 c) 
.................... { 
....................    char *p; 
....................  
....................    for (p = 0; ; s++) 
....................    { 
....................       if (*s == c) 
....................          p = s; 
....................       if (*s == '\0') 
....................          return(p); 
....................    } 
.................... } 
.................... /* computes length of max initial segment of s1 consisting 
....................    entirely of characters from s2 */ 
....................  
.................... unsigned int8  strspn(char *s1, char *s2) 
.................... { 
....................    char *sc1, *sc2; 
....................  
....................    for (sc1 = s1; *sc1 != 0; sc1++) 
....................       for (sc2 = s2; ; sc2++) 
....................     if (*sc2 == '\0') 
....................        return(sc1 - s1); 
....................          else if (*sc1 == *sc2) 
....................             break; 
....................    return(sc1 - s1); 
.................... } 
.................... /* standard template: 
....................    char *strstr(const char *s1, const char *s2); 
....................    Locates first occurence of character sequence s2 in s1; 
....................    returns 0 if s2 is empty string 
....................  
....................    Uncomment #define FASTER_BUT_MORE_ROM at the top of the 
....................    file to use the faster algorithm */ 
.................... char *strstr(char *s1, char *s2) 
.................... { 
....................    char *s, *t; 
....................  
....................    #ifdef FASTER_BUT_MORE_ROM 
....................    if (*s2 == '\0') 
....................          return(s1); 
....................    #endif 
....................  
....................    while (*s1) 
....................    { 
....................       for(s = s1, t = s2; *t && (*s == *t); ++s, ++t); 
....................  
....................       if (*t == '\0') 
....................          return s1; 
....................       ++s1; 
....................       #ifdef FASTER_BUT_MORE_ROM 
....................          while(*s1 != '\0' && *s1 != *s2) 
....................             ++s1; 
....................       #endif 
....................    } 
....................    return 0; 
.................... } 
....................  
.................... /* standard template: char *strtok(char *s1, const char *s2). 
....................  
....................    Finds next token in s1 delimited by a character from separator 
....................    string s2 (which can be different from call to call).  First call 
....................    starts at beginning of s1 searching for first character NOT 
....................    contained in s2; returns 0 if none is found. 
....................    If one is found, it is the start of first token (return value). 
....................    Function then searches from there for a character contained in s2. 
....................    If none is found, current token extends to end of s1, and subsequent 
....................    searches for a token will return 0.  If one is found, it is 
....................    overwritten by '\0', which terminates current token.  Function saves 
....................    pointer to following character from which next search will start. 
....................    Each subsequent call, with 0 as first argument, starts searching 
....................    from saved pointer */ 
....................  
.................... char *strtok(char *s1, char *s2) 
.................... { 
....................    char *beg, *end; 
....................    static char *save; 
....................  
....................    beg = (s1)? s1: save; 
....................    beg += strspn(beg, s2); 
....................    if (*beg == '\0') 
....................    { 
....................       *save = ' '; 
....................       return(0); 
....................    } 
....................    end = strpbrk(beg, s2); 
....................    if (*end != '\0') 
....................    { 
....................       *end = '\0'; 
....................       end++; 
....................    } 
....................    save = end; 
....................    return(beg); 
.................... } 
....................  
.................... /*****************************************************************/ 
.................... /*Miscellaneous functions*/ 
.................... /* standard template 
.................... maps error number in errnum to an error message string 
.................... Returns: Pointer to string 
.................... */ 
.................... #ifdef _ERRNO 
.................... char * strerror(unsigned int8 errnum) 
.................... { 
.................... char s[15]; 
.................... switch( errnum) 
.................... { 
.................... case 0: 
....................    strcpy(s,"no errors"); 
....................    return s; 
.................... case EDOM : 
....................    strcpy(s,"domain error"); 
....................    return s; 
.................... case ERANGE: 
....................    strcpy(s,"range error"); 
....................    return s; 
.................... } 
.................... } 
.................... #ENDIF 
.................... /* standard template: size_t strlen(const char *s). 
....................    Computes length of s1 (preceding terminating 0) */ 
....................  
.................... unsigned int8 strlen(char *s) 
.................... { 
....................    char *sc; 
....................  
....................    for (sc = s; *sc != 0; sc++); 
....................    return(sc - s); 
.................... } 
....................  
.................... /* standard template: size_t stricmp(const char *s1, const char *s2). 
....................    Compares s1 to s2 ignoring case (upper vs. lower) */ 
....................  
.................... signed int8 stricmp(char *s1, char *s2) 
.................... { 
....................  for(; *s1==*s2||(isalpha(*s1)&&isalpha(*s2)&&(*s1==*s2+32||*s2==*s1+32)); 
....................     s1++, s2++) 
....................     if (*s1 == '\0') 
....................        return(0); 
....................  return((*s1 < *s2) ? -1: 1); 
.................... } 
....................  
....................  
.................... /* standard template: char *strlwr(char *s). 
....................    Replaces uppercase letters by lowercase; 
....................    returns pointer to new string s */ 
....................  
.................... char *strlwr(char *s) 
.................... { 
....................    char *p; 
....................  
....................    for (p = s; *p != '\0'; p++) 
....................       if (*p >= 'A' && *p <='Z') 
....................          *p += 'a' - 'A'; 
....................    return(s); 
.................... } 
....................  
....................  
.................... /************************************************************/ 
....................  
....................  
.................... #endif 
....................  
.................... #include <stdlib.h> 
.................... /////////////////////////////////////////////////////////////////////////// 
.................... ////        (C) Copyright 1996,2007 Custom Computer Services           //// 
.................... //// This source code may only be used by licensed users of the CCS C  //// 
.................... //// compiler.  This source code may only be distributed to other      //// 
.................... //// licensed users of the CCS C compiler.  No other use, reproduction //// 
.................... //// or distribution is permitted without written permission.          //// 
.................... //// Derivative programs created using this software in object code    //// 
.................... //// form are not restricted in any way.                               //// 
.................... /////////////////////////////////////////////////////////////////////////// 
....................  
.................... #ifndef _STDLIB 
.................... #define _STDLIB 
....................  
.................... //--------------------------------------------------------------------------- 
.................... // Definitions and types 
.................... //--------------------------------------------------------------------------- 
....................  
.................... #ifndef RAND_MAX 
.................... #define RAND_MAX  32767    // The value of which is the maximum value 
....................                            // ... returned by the rand function 
.................... #endif 
....................  
....................  
.................... #IF (sizeof(int16*)>1) 
.................... #DEFINE LONG_POINTERS 1 
.................... #ELSE  
.................... #DEFINE LONG_POINTERS 0 
.................... #ENDIF 
....................  
.................... typedef struct { 
....................    signed int quot; 
....................    signed int rem; 
.................... } div_t; 
....................  
.................... typedef struct { 
....................    signed long quot; 
....................    signed long rem; 
.................... } ldiv_t; 
....................  
.................... #include <stddef.h> 
.................... /////////////////////////////////////////////////////////////////////////// 
.................... ////        (C) Copyright 1996,2003 Custom Computer Services           //// 
.................... //// This source code may only be used by licensed users of the CCS C  //// 
.................... //// compiler.  This source code may only be distributed to other      //// 
.................... //// licensed users of the CCS C compiler.  No other use, reproduction //// 
.................... //// or distribution is permitted without written permission.          //// 
.................... //// Derivative programs created using this software in object code    //// 
.................... //// form are not restricted in any way.                               //// 
.................... /////////////////////////////////////////////////////////////////////////// 
....................  
.................... #ifndef _STDDEF 
....................  
.................... #define _STDDEF 
....................  
.................... #if sizeof(unsigned int8 *)==1 
.................... #define ptrdiff_t unsigned int8 
.................... #else 
.................... #define ptrdiff_t unsigned int16 
.................... #endif 
....................  
.................... #define size_t unsigned int8 
.................... #define wchar_t char 
.................... #define NULL 0 
....................  
.................... #define offsetof(s,f) (offsetofbit(s,f)/8) 
....................  
.................... #endif 
....................  
....................  
.................... //--------------------------------------------------------------------------- 
.................... // String conversion functions 
.................... //--------------------------------------------------------------------------- 
....................  
.................... /* Standard template: signed int  atoi(char * s) 
....................  * converts the initial portion of the string s to a signed int 
....................  * returns the converted value if any, 0 otherwise 
....................  */ 
.................... signed int atoi(char *s); 
....................  
.................... /* Syntax: signed int32  atoi32(char * s) 
....................    converts the initial portion of the string s to a signed int32 
....................    returns the converted value if any, 0 otherwise*/ 
.................... #if (sizeof(long)==4) 
....................  #define atoi32(s) atol(s) 
.................... #else  
....................  signed int32 atoi32(char *s); 
.................... #endif 
....................  
.................... #if defined(__PCD__) 
.................... // The following functions only work on the 24 bit compiler 
.................... // for the 30F, 33F, 24F and 24H parts 
.................... /* Syntax: signed int48  atoi48(char * s) 
....................    converts the initial portion of the string s to a signed int48 
....................    returns the converted value if any, 0 otherwise*/ 
....................     
.................... signed int48 atoi48(char *s); 
....................  
.................... /* Syntax: signed int64  atoi64(char * s) 
....................    converts the initial portion of the string s to a signed int64 
....................    returns the converted value if any, 0 otherwise*/ 
.................... signed int64 atoi64(char *s); 
.................... #endif 
....................  
.................... /* Syntax: char *  itoa(signed int32 num, int8 base, char * s) 
....................    converts the signed int32 to a string and 
....................    returns the converted value if any, 0 otherwise*/ 
.................... char * itoa(signed int32 num, unsigned int base, char * s); 
....................  
.................... /* Standard template: signed int16  atol(char * s) 
....................  * converts the initial portion of the string s to a signed int16 
....................  * returns the converted value if any, 0 otherwise 
....................  */ 
.................... signed long atol(char *s); 
....................  
.................... /* Standard template: int16 strtoul(char * s,char *endptr,signed int base) 
....................  * converts the initial portion of the string s, represented as an 
....................  * integral value of radix base  to a signed long. 
....................  * Returns the converted value if any, 0 otherwise 
....................  * the final string is returned in the endptr, if endptr is not null 
....................  */ 
.................... signed long strtol(char *s,char *endptr, signed int base); 
....................  
.................... /* Standard template: int16 strtoul(char * s,char *endptr,signed int base) 
....................  * converts the initial portion of the string s, represented as an 
....................  * integral value of radix base to a unsigned long. 
....................  * returns the converted value if any, 0 otherwise 
....................  * the final string is returned in the endptr, if endptr is not null 
....................  */ 
.................... unsigned long strtoul(char *s,char *endptr, signed int base); 
....................  
.................... /* Standart template: float strtof(char * s,char *endptr) 
....................                       float48 strtof48(char *s,char *endptr); 
....................                       float64 strtod(char *s,char *endptr); 
....................  * converts the initial portion of the string s to a float32, float48 or float64, 
....................  * returns the converted value if any, 0 otherwise 
....................  * the final string is returned in the endptr, if endptr is not null                    
.................... */ 
.................... float strtof(char *s,char *endptr); 
.................... #if defined(__PCD__) 
.................... float48 strtof48(char *s,char *endptr); 
.................... float64 strtod(char *s,char *endptr); 
.................... #else 
.................... //provided for compatibility 
.................... #define strtof48(s, e) strtof(s, e) 
.................... #define strtod(s, e) strtof(s, e) 
.................... #endif 
....................  
.................... /* Standard template: float32 atof(char * s) 
....................  * converts the initial portion of the string s to a float. 
....................  * returns the converted value if any, 0 otherwise 
....................  */ 
.................... #define atof(s)   strtof(s, 0) 
....................  
.................... #if defined(__PCD__) 
.................... // The following functions only work on the 24 bit compiler 
.................... // for the 30F, 33F, 24F and 24H parts 
....................  
.................... /* Standard template: float48 atof48(char * s) 
....................  * converts the initial portion of the string s to a float. 
....................  * returns the converted value if any, 0 otherwise 
....................  */ 
.................... #define atof48(s) strtof48(s, 0) 
....................  
.................... /* Standard template: float64 atof64(char * s) 
....................  * converts the initial portion of the string s to a float. 
....................  * returns the converted value if any, 0 otherwise 
....................  */ 
.................... #define atof64(s) strtod(s, 0) 
.................... #endif 
....................  
.................... /* Standard template: float32 atoe(char * s) 
....................  * converts the initial portion of the string s to a float. 
....................  * returns the converted value if any, 0 otherwise 
....................  * also handles E format numbers 
....................  */ 
.................... #if !defined(__PCD__) 
.................... float atoe(char * s); 
.................... #endif 
....................  
.................... #if defined(__PCD__) 
.................... float32 atoe(char * s); 
.................... #endif 
....................  
.................... //--------------------------------------------------------------------------- 
.................... // Pseudo-random sequence generation functions 
.................... //--------------------------------------------------------------------------- 
....................  
.................... /* The rand function computes a sequence of pseudo-random integers in 
....................  * the range 0 to RAND_MAX 
....................  * 
....................  * Parameters: 
....................  *       (none) 
....................  * 
....................  * Returns: 
....................  *       The pseudo-random integer 
....................  */ 
.................... unsigned int16 rand(void); 
....................  
.................... /* The srand function uses the argument as a seed for a new sequence of 
....................  * pseudo-random numbers to be returned by subsequent calls to rand. 
....................  * 
....................  * Parameters: 
....................  *       [in] seed: The seed value to start from. You might need to pass 
....................  * 
....................  * Returns: 
....................  *       (none) 
....................  * 
....................  * Remarks 
....................  *          The srand function sets the starting point for generating 
....................  *       a series of pseudorandom integers. To reinitialize the 
....................  *       generator, use 1 as the seed argument. Any other value for 
....................  *       seed sets the generator to a random starting point. rand 
....................  *       retrieves the pseudorandom numbers that are generated. 
....................  *       Calling rand before any call to srand generates the same 
....................  *       sequence as calling srand with seed passed as 1. 
....................  *          Usually, you need to pass a time here from outer source 
....................  *       so that the numbers will be different every time you run. 
....................  */ 
.................... void srand(unsigned int32 seed); 
....................  
.................... //--------------------------------------------------------------------------- 
.................... // Memory management functions 
.................... //--------------------------------------------------------------------------- 
....................  
.................... // Comming soon 
....................  
.................... //--------------------------------------------------------------------------- 
.................... // Communication with the environment 
.................... //--------------------------------------------------------------------------- 
....................  
.................... /* The function returns 0 always 
....................  */ 
.................... signed int8 system(char *string); 
....................  
.................... //--------------------------------------------------------------------------- 
.................... // Searching and sorting utilities 
.................... //--------------------------------------------------------------------------- 
....................  
.................... /* Performs a binary search of a sorted array.. 
....................  * 
....................  * Parameters: 
....................  *       [in] key: Object to search for 
....................  *       [in] base: Pointer to base of search data 
....................  *       [in] num: Number of elements 
....................  *       [in] width: Width of elements 
....................  *       [in] compare: Function that compares two elements 
....................  * 
....................  * Returns: 
....................  *       bsearch returns a pointer to an occurrence of key in the array pointed 
....................  *       to by base. If key is not found, the function returns NULL. If the 
....................  *       array is not in order or contains duplicate records with identical keys, 
....................  *       the result is unpredictable. 
....................  */ 
.................... //void *bsearch(const void *key, const void *base, size_t num, size_t width, 
.................... //              int (*compare)(const void *, const void *)); 
....................  
.................... /* Performs the shell-metzner sort (not the quick sort algorithm). The contents 
....................  * of the array are sorted into ascending order according to a comparison 
....................  * function pointed to by compar. 
....................  * 
....................  * Parameters: 
....................  *       [in] base: Pointer to base of search data 
....................  *       [in] num: Number of elements 
....................  *       [in] width: Width of elements 
....................  *       [in] compare: Function that compares two elements 
....................  * 
....................  * Returns: 
....................  *       (none) 
....................  */ 
.................... //void *qsort(const void *base, size_t num, size_t width, 
.................... //              int (*compare)(const void *, const void *)); 
....................  
.................... //--------------------------------------------------------------------------- 
.................... // Integer arithmetic functions 
.................... //--------------------------------------------------------------------------- 
....................  
.................... #define labs abs 
....................  
.................... div_t div(signed int numer, signed int denom); 
.................... ldiv_t ldiv(signed long numer, signed long denom); 
....................  
.................... //--------------------------------------------------------------------------- 
.................... // Multibyte character functions 
.................... //--------------------------------------------------------------------------- 
....................  
.................... // Not supported 
....................  
.................... //--------------------------------------------------------------------------- 
.................... // Multibyte string functions 
.................... //--------------------------------------------------------------------------- 
....................  
.................... // Not supported 
....................  
....................  
.................... //--------------------------------------------------------------------------- 
.................... // Internal implementation 
.................... //--------------------------------------------------------------------------- 
....................  
.................... #include <stddef.h> 
.................... /////////////////////////////////////////////////////////////////////////// 
.................... ////        (C) Copyright 1996,2003 Custom Computer Services           //// 
.................... //// This source code may only be used by licensed users of the CCS C  //// 
.................... //// compiler.  This source code may only be distributed to other      //// 
.................... //// licensed users of the CCS C compiler.  No other use, reproduction //// 
.................... //// or distribution is permitted without written permission.          //// 
.................... //// Derivative programs created using this software in object code    //// 
.................... //// form are not restricted in any way.                               //// 
.................... /////////////////////////////////////////////////////////////////////////// 
....................  
.................... #ifndef _STDDEF 
....................  
.................... #define _STDDEF 
....................  
.................... #if sizeof(unsigned int8 *)==1 
.................... #define ptrdiff_t unsigned int8 
.................... #else 
.................... #define ptrdiff_t unsigned int16 
.................... #endif 
....................  
.................... #define size_t unsigned int8 
.................... #define wchar_t char 
.................... #define NULL 0 
....................  
.................... #define offsetof(s,f) (offsetofbit(s,f)/8) 
....................  
.................... #endif 
....................  
.................... #include <string.h> 
.................... //////////////////////////////////////////////////////////////////////////// 
.................... ////        (C) Copyright 1996,2008 Custom Computer Services            //// 
.................... //// This source code may only be used by licensed users of the CCS C   //// 
.................... //// compiler.  This source code may only be distributed to other       //// 
.................... //// licensed users of the CCS C compiler.  No other use, reproduction  //// 
.................... //// or distribution is permitted without written permission.           //// 
.................... //// Derivative programs created using this software in object code     //// 
.................... //// form are not restricted in any way.                                //// 
.................... //////////////////////////////////////////////////////////////////////////// 
....................  
.................... #ifndef _STRING 
.................... #define _STRING 
.................... #include <stddef.h> 
.................... #include <ctype.h> 
....................  
....................  
....................  
.................... ////////////////////////////////////////////// 
.................... //// Uncomment the following define to    //// 
.................... //// allow some functions to use a        //// 
.................... //// quicker algorithm, but use more ROM  //// 
.................... ////                                      //// 
.................... //// #define FASTER_BUT_MORE_ROM          //// 
.................... ////////////////////////////////////////////// 
....................  
....................  
....................  
.................... /*Copying functions*/ 
.................... /* standard template: 
....................    void *memmove(void *s1, void *s2, size_t n). 
....................    Copies max of n characters safely (not following ending '\0') 
....................    from s2 in s1; if s2 has less than n characters, appends 0 */ 
....................  
.................... char *memmove(void *s1,char *s2,size_t n) 
.................... { 
....................    char *sc1; 
....................    char *sc2; 
....................    sc1=s1; 
....................    sc2=s2; 
....................    if(sc2<sc1 && sc1 <sc2 +n) 
....................       for(sc1+=n,sc2+=n;0<n;--n) 
....................          *--sc1=*--sc2; 
....................    else 
....................       for(;0<n;--n) 
....................          *sc1++=*sc2++; 
....................   return s1; 
....................   } 
....................  
.................... /* Standard template: char *strcpy(char *s1, const char *s2) 
....................    copies the string s2 including the null character to s1. 
....................    This is a compiler built in to handle the different address 
....................    spaces */ 
....................  
.................... #define strcopy strcpy 
....................  
.................... /* standard template: 
....................    char *strncpy(char *s1, const char *s2, size_t n). 
....................    Copies max of n characters (not following ending '\0') 
....................    from s2 in s1; if s2 has less than n characters, appends 0 */ 
....................  
.................... char *strncpy(char *s1, char *s2, size_t n) 
.................... { 
....................   char *s; 
....................  
....................   for (s = s1; n > 0 && *s2 != '\0'; n--) 
....................      *s++ = *s2++; 
....................   for (; n > 0; n--) 
....................      *s++ = '\0'; 
....................  
....................   return(s1); 
.................... } 
.................... /***********************************************************/ 
....................  
.................... /*concatenation functions*/ 
.................... /* standard template: char *strcat(char *s1, const char *s2) 
.................... appends s2 to s1*/ 
....................  
.................... char *strcat(char *s1, char *s2) 
.................... { 
....................    char *s; 
....................  
....................    for (s = s1; *s != '\0'; ++s); 
....................    while(*s2 != '\0') 
....................    { 
....................       *s = *s2; 
....................       ++s; 
....................       ++s2; 
....................    } 
....................  
....................    *s = '\0'; 
....................    return(s1); 
.................... } 
.................... /* standard template: char *strncat(char *s1, char *s2,size_t n) 
.................... appends not more than n characters from s2 to s1*/ 
....................  
.................... char *strncat(char *s1, char *s2, size_t n) 
.................... { 
....................    char *s; 
....................  
....................    for (s = s1; *s != '\0'; ++s); 
....................    while(*s2 != '\0' && 0<n) 
....................    { 
....................       *s = *s2; 
....................       ++s; 
....................       ++s2; 
....................       --n; 
....................    } 
....................  
....................    *s = '\0'; 
....................    return(s1); 
.................... } 
....................  
.................... /***********************************************************/ 
....................  
....................  
.................... /*comparison functions*/ 
.................... /* standard template: signed int memcmp(void *s1, void *s2). 
....................    Compares s1 & s2; returns -1 if s1<s2, 0 if s1=s2, 1 if s1>s2 */ 
....................  
.................... signed int8 memcmp(void * s1,char *s2,size_t n) 
.................... { 
.................... char *su1, *su2; 
.................... for(su1=s1, su2=s2; 0<n; ++su1, ++su2, --n) 
.................... { 
....................    if(*su1!=*su2) 
....................       return ((*su1<*su2)?-1:+1); 
.................... } 
.................... return 0; 
.................... } 
....................  
.................... /* standard template: int strcmp(const char *s1, const char *s2). 
....................    Compares s1 & s2; returns -1 if s1<s2, 0 if s1=s2, 1 if s1>s2 */ 
....................  
.................... signed int8 strcmp(char *s1, char *s2) 
.................... { 
....................    for (; *s1 == *s2; s1++, s2++) 
....................       if (*s1 == '\0') 
....................          return(0); 
....................    return((*s1 < *s2) ? -1: 1); 
.................... } 
.................... /* standard template: int strcoll(const char *s1, const char *s2). 
....................    Compares s1 & s2; returns -1 if s1<s2, 0 if s1=s2, 1 if s1>s2 */ 
....................  
.................... signed int8 strcoll(char *s1, char *s2) 
.................... { 
....................    for (; *s1 == *s2; s1++, s2++) 
....................       if (*s1 == '\0') 
....................          return(0); 
....................    return((*s1 < *s2) ? -1: 1); 
.................... } 
....................  
.................... /* standard template: 
....................    int strncmp(const char *s1, const char *s2, size_t n). 
....................    Compares max of n characters (not following 0) from s1 to s2; 
....................    returns same as strcmp */ 
....................  
.................... signed int8 strncmp(char *s1, char *s2, size_t n) 
.................... { 
....................    for (; n > 0; s1++, s2++, n--) 
....................       if (*s1 != *s2) 
....................          return((*s1 <*s2) ? -1: 1); 
....................       else if (*s1 == '\0') 
....................          return(0); 
....................    return(0); 
.................... } 
.................... /* standard template: 
....................    int strxfrm(const char *s1, const char *s2, size_t n). 
....................    transforms maximum of n characters from s2 and places them into s1*/ 
.................... size_t strxfrm(char *s1, char *s2, size_t n) 
.................... { 
....................   char *s; 
....................   unsigned int8 n1; 
....................   n1=n; 
....................   for (s = s1; n > 0 && *s2 != '\0'; n--) 
....................      *s++ = *s2++; 
....................   for (; n > 0; n--) 
....................      *s++ = '\0'; 
....................  
....................   return(n1); 
.................... } 
....................  
....................  
....................  
....................  
....................  
.................... /***********************************************************/ 
.................... /*Search functions*/ 
.................... /* standard template: void *memchr(const char *s, int c). 
....................    Finds first occurrence of c in n characters of s */ 
....................  
.................... char *memchr(void *s,unsigned int8 c,size_t n) 
.................... { 
....................    char uc; 
....................    char *su; 
....................    uc=c; 
....................    for(su=s;0<n;++su,--n) 
....................       if(*su==uc) 
....................       return su; 
....................    return NULL; 
.................... } 
....................  
.................... /* standard template: char *strchr(const char *s, int c). 
....................    Finds first occurrence of c in s */ 
....................  
.................... char *strchr(char *s, unsigned int8 c) 
.................... { 
....................    for (; *s != c; s++) 
....................       if (*s == '\0') 
....................          return(0); 
....................    return(s); 
.................... } 
.................... /* standard template: 
....................    size_t strcspn(const char *s1, const char *s2). 
....................    Computes length of max initial segment of s1 that 
....................    consists entirely of characters NOT from s2*/ 
....................  
.................... unsigned int8  strcspn(char *s1, char *s2) 
.................... { 
....................    char *sc1, *sc2; 
....................  
....................    for (sc1 = s1; *sc1 != 0; sc1++) 
....................       for (sc2 = s2; *sc2 != 0; sc2++) 
....................          if (*sc1 == *sc2) 
....................             return(sc1 - s1); 
....................    return(sc1 - s1); 
.................... } 
.................... /* standard template: 
....................    char *strpbrk(const char *s1, const char *s2). 
....................    Locates first occurence of any character from s2 in s1; 
....................    returns s1 if s2 is empty string */ 
....................  
.................... char *strpbrk(char *s1, char *s2) 
.................... { 
....................    char *sc1, *sc2; 
....................  
....................    for (sc1 = s1; *sc1 != 0; sc1++) 
....................       for (sc2 = s2; *sc2 != 0; sc2++) 
....................          if (*sc1 == *sc2) 
....................             return(sc1); 
....................    return(0); 
.................... } 
....................  
....................  
.................... /* standard template: char *strrchr(const char *s, int c). 
....................    Finds last occurrence of c in s */ 
....................  
.................... char *strrchr(char *s, unsigned int8 c) 
.................... { 
....................    char *p; 
....................  
....................    for (p = 0; ; s++) 
....................    { 
....................       if (*s == c) 
....................          p = s; 
....................       if (*s == '\0') 
....................          return(p); 
....................    } 
.................... } 
.................... /* computes length of max initial segment of s1 consisting 
....................    entirely of characters from s2 */ 
....................  
.................... unsigned int8  strspn(char *s1, char *s2) 
.................... { 
....................    char *sc1, *sc2; 
....................  
....................    for (sc1 = s1; *sc1 != 0; sc1++) 
....................       for (sc2 = s2; ; sc2++) 
....................     if (*sc2 == '\0') 
....................        return(sc1 - s1); 
....................          else if (*sc1 == *sc2) 
....................             break; 
....................    return(sc1 - s1); 
.................... } 
.................... /* standard template: 
....................    char *strstr(const char *s1, const char *s2); 
....................    Locates first occurence of character sequence s2 in s1; 
....................    returns 0 if s2 is empty string 
....................  
....................    Uncomment #define FASTER_BUT_MORE_ROM at the top of the 
....................    file to use the faster algorithm */ 
.................... char *strstr(char *s1, char *s2) 
.................... { 
....................    char *s, *t; 
....................  
....................    #ifdef FASTER_BUT_MORE_ROM 
....................    if (*s2 == '\0') 
....................          return(s1); 
....................    #endif 
....................  
....................    while (*s1) 
....................    { 
....................       for(s = s1, t = s2; *t && (*s == *t); ++s, ++t); 
....................  
....................       if (*t == '\0') 
....................          return s1; 
....................       ++s1; 
....................       #ifdef FASTER_BUT_MORE_ROM 
....................          while(*s1 != '\0' && *s1 != *s2) 
....................             ++s1; 
....................       #endif 
....................    } 
....................    return 0; 
.................... } 
....................  
.................... /* standard template: char *strtok(char *s1, const char *s2). 
....................  
....................    Finds next token in s1 delimited by a character from separator 
....................    string s2 (which can be different from call to call).  First call 
....................    starts at beginning of s1 searching for first character NOT 
....................    contained in s2; returns 0 if none is found. 
....................    If one is found, it is the start of first token (return value). 
....................    Function then searches from there for a character contained in s2. 
....................    If none is found, current token extends to end of s1, and subsequent 
....................    searches for a token will return 0.  If one is found, it is 
....................    overwritten by '\0', which terminates current token.  Function saves 
....................    pointer to following character from which next search will start. 
....................    Each subsequent call, with 0 as first argument, starts searching 
....................    from saved pointer */ 
....................  
.................... char *strtok(char *s1, char *s2) 
.................... { 
....................    char *beg, *end; 
....................    static char *save; 
....................  
....................    beg = (s1)? s1: save; 
....................    beg += strspn(beg, s2); 
....................    if (*beg == '\0') 
....................    { 
....................       *save = ' '; 
....................       return(0); 
....................    } 
....................    end = strpbrk(beg, s2); 
....................    if (*end != '\0') 
....................    { 
....................       *end = '\0'; 
....................       end++; 
....................    } 
....................    save = end; 
....................    return(beg); 
.................... } 
....................  
.................... /*****************************************************************/ 
.................... /*Miscellaneous functions*/ 
.................... /* standard template 
.................... maps error number in errnum to an error message string 
.................... Returns: Pointer to string 
.................... */ 
.................... #ifdef _ERRNO 
.................... char * strerror(unsigned int8 errnum) 
.................... { 
.................... char s[15]; 
.................... switch( errnum) 
.................... { 
.................... case 0: 
....................    strcpy(s,"no errors"); 
....................    return s; 
.................... case EDOM : 
....................    strcpy(s,"domain error"); 
....................    return s; 
.................... case ERANGE: 
....................    strcpy(s,"range error"); 
....................    return s; 
.................... } 
.................... } 
.................... #ENDIF 
.................... /* standard template: size_t strlen(const char *s). 
....................    Computes length of s1 (preceding terminating 0) */ 
....................  
.................... unsigned int8 strlen(char *s) 
.................... { 
....................    char *sc; 
....................  
....................    for (sc = s; *sc != 0; sc++); 
....................    return(sc - s); 
.................... } 
....................  
.................... /* standard template: size_t stricmp(const char *s1, const char *s2). 
....................    Compares s1 to s2 ignoring case (upper vs. lower) */ 
....................  
.................... signed int8 stricmp(char *s1, char *s2) 
.................... { 
....................  for(; *s1==*s2||(isalpha(*s1)&&isalpha(*s2)&&(*s1==*s2+32||*s2==*s1+32)); 
....................     s1++, s2++) 
....................     if (*s1 == '\0') 
....................        return(0); 
....................  return((*s1 < *s2) ? -1: 1); 
.................... } 
....................  
....................  
.................... /* standard template: char *strlwr(char *s). 
....................    Replaces uppercase letters by lowercase; 
....................    returns pointer to new string s */ 
....................  
.................... char *strlwr(char *s) 
.................... { 
....................    char *p; 
....................  
....................    for (p = s; *p != '\0'; p++) 
....................       if (*p >= 'A' && *p <='Z') 
....................          *p += 'a' - 'A'; 
....................    return(s); 
.................... } 
....................  
....................  
.................... /************************************************************/ 
....................  
....................  
.................... #endif 
....................  
....................  
.................... div_t div(signed int numer, signed int denom) 
.................... { 
....................    div_t val; 
....................    val.quot = numer / denom; 
....................    val.rem = numer - (denom * val.quot); 
....................    return (val); 
.................... } 
....................  
.................... ldiv_t ldiv(signed long numer, signed long denom) 
.................... { 
....................    ldiv_t val; 
....................  
....................    val.quot = numer / denom; 
....................    val.rem = numer - (denom * val.quot); 
....................    return (val); 
.................... } 
....................  
.................... #if defined(__PCD__) 
.................... float32 atoe(char * s) 
.................... { 
....................    float32 pow10 = 1.0; 
....................    float32 result = 0.0; 
....................    unsigned int8 sign = 0; 
....................    unsigned int8 expsign = 0; 
....................    char c; 
....................    unsigned int8 ptr = 0; 
....................    unsigned int8 i; 
....................    float32 exp = 1.0; 
....................    unsigned int8 expcnt = 0; 
....................  
....................    c = s[ptr++]; 
....................  
....................    if ((c>='0' && c<='9') || c=='+' || c=='-' || c=='.' || c=='E' || c=='e') { 
....................       if(c == '-') { 
....................          sign = 1; 
....................          c = s[ptr++]; 
....................       } 
....................       if(c == '+') 
....................          c = s[ptr++]; 
....................  
....................       while((c >= '0' && c <= '9')) { 
....................          result = 10*result + c - '0'; 
....................          c = s[ptr++]; 
....................       } 
....................  
....................       if (c == '.') { 
....................          c = s[ptr++]; 
....................          while((c >= '0' && c <= '9')) { 
....................              pow10 = pow10*10; 
....................              result += (c - '0')/pow10; 
....................              c = s[ptr++]; 
....................          } 
....................       } 
....................  
....................       // Handling the exponent 
....................       if (c=='e' || c=='E') { 
....................          c = s[ptr++]; 
....................  
....................          if(c == '-') { 
....................             expsign = 1; 
....................             c = s[ptr++]; 
....................          } 
....................          if(c == '+') 
....................             c = s[ptr++]; 
....................  
....................          while((c >= '0' && c <= '9')) { 
....................             expcnt = 10*expcnt + c - '0'; 
....................             c = s[ptr++]; 
....................          } 
....................  
....................          for(i=0;i<expcnt;i++) 
....................             exp*=10; 
....................  
....................          if(expsign==1) 
....................             result/=exp; 
....................          else 
....................             result*=exp; 
....................       } 
....................    } 
....................  
....................    if (sign == 1) 
....................       result = -1*result; 
....................    return(result); 
.................... } 
.................... #endif 
....................  
.................... #if !defined(__PCD__) 
.................... float atoe(char * s) 
.................... { 
....................    float pow10 = 1.0; 
....................    float result = 0.0; 
....................    unsigned int8 sign = 0; 
....................    unsigned int8 expsign = 0; 
....................    char c; 
....................    unsigned int8 ptr = 0; 
....................    unsigned int8 i; 
....................    float exp = 1.0; 
....................    unsigned int8 expcnt = 0; 
....................  
....................    c = s[ptr++]; 
....................  
....................    if ((c>='0' && c<='9') || c=='+' || c=='-' || c=='.' || c=='E' || c=='e') { 
....................       if(c == '-') { 
....................          sign = 1; 
....................          c = s[ptr++]; 
....................       } 
....................       if(c == '+') 
....................          c = s[ptr++]; 
....................  
....................       while((c >= '0' && c <= '9')) { 
....................          result = 10*result + c - '0'; 
....................          c = s[ptr++]; 
....................       } 
....................  
....................       if (c == '.') { 
....................          c = s[ptr++]; 
....................          while((c >= '0' && c <= '9')) { 
....................              pow10 = pow10*10; 
....................              result += (c - '0')/pow10; 
....................              c = s[ptr++]; 
....................          } 
....................       } 
....................  
....................       // Handling the exponent 
....................       if (c=='e' || c=='E') { 
....................          c = s[ptr++]; 
....................  
....................          if(c == '-') { 
....................             expsign = 1; 
....................             c = s[ptr++]; 
....................          } 
....................          if(c == '+') 
....................             c = s[ptr++]; 
....................  
....................          while((c >= '0' && c <= '9')) { 
....................             expcnt = 10*expcnt + c - '0'; 
....................             c = s[ptr++]; 
....................          } 
....................  
....................          for(i=0;i<expcnt;i++) 
....................             exp*=10; 
....................  
....................          if(expsign==1) 
....................             result/=exp; 
....................          else 
....................             result*=exp; 
....................       } 
....................    } 
....................  
....................    if (sign == 1) 
....................       result = -1*result; 
....................    return(result); 
.................... } 
.................... #endif 
....................  
.................... signed int atoi(char *s) 
.................... { 
....................    signed int result; 
....................    unsigned int sign, base, index; 
....................    char c; 
....................  
....................    index = 0; 
....................    sign = 0; 
....................    base = 10; 
....................    result = 0; 
....................  
....................    if (!s) 
....................       return 0; 
....................    // Omit all preceeding alpha characters 
....................    c = s[index++]; 
....................  
....................    // increase index if either positive or negative sign is detected 
....................    if (c == '-') 
....................    { 
....................       sign = 1;         // Set the sign to negative 
....................       c = s[index++]; 
....................    } 
....................    else if (c == '+') 
....................    { 
....................       c = s[index++]; 
....................    } 
....................  
....................    if (c >= '0' && c <= '9') 
....................    { 
....................  
....................       // Check for hexa number 
....................       if (c == '0' && (s[index] == 'x' || s[index] == 'X')) 
....................       { 
....................          base = 16; 
....................          index++; 
....................          c = s[index++]; 
....................       } 
....................  
....................       // The number is a decimal number 
....................       if (base == 10) 
....................       { 
....................          while (c >= '0' && c <= '9') 
....................          { 
....................             result = 10*result + (c - '0'); 
....................             c = s[index++]; 
....................          } 
....................       } 
....................       else if (base == 16)    // The number is a hexa number 
....................       { 
....................          c = toupper(c); 
....................          while ( (c >= '0' && c <= '9') || (c >= 'A' && c<='F')) 
....................          { 
....................             if (c >= '0' && c <= '9') 
....................                result = (result << 4) + (c - '0'); 
....................             else 
....................                result = (result << 4) + (c - 'A' + 10); 
....................  
....................             c = s[index++]; 
....................             c = toupper(c); 
....................          } 
....................       } 
....................    } 
....................  
....................    if (sign == 1 && base == 10) 
....................        result = -result; 
....................  
....................    return(result); 
.................... } 
....................  
.................... signed long atol(char *s) 
.................... { 
....................    signed long result; 
....................    unsigned int sign, base, index; 
....................    char c; 
....................  
....................    index = 0; 
....................    sign = 0; 
....................    base = 10; 
....................    result = 0; 
....................  
....................    if (!s) 
....................       return 0; 
....................    c = s[index++]; 
....................  
....................    // increase index if either positive or negative sign is detected 
....................    if (c == '-') 
....................    { 
....................       sign = 1;         // Set the sign to negative 
....................       c = s[index++]; 
....................    } 
....................    else if (c == '+') 
....................    { 
....................       c = s[index++]; 
....................    } 
....................  
....................    if (c >= '0' && c <= '9') 
....................    { 
....................       if (c == '0' && (s[index] == 'x' || s[index] == 'X')) 
....................       { 
....................          base = 16; 
....................          index++; 
....................          c = s[index++]; 
....................       } 
....................  
....................       // The number is a decimal number 
....................       if (base == 10) 
....................       { 
....................          while (c >= '0' && c <= '9') 
....................          { 
....................             result = 10*result + (c - '0'); 
....................             c = s[index++]; 
....................          } 
....................       } 
....................       else if (base == 16)    // The number is a hexa number 
....................       { 
....................          c = toupper(c); 
....................          while ( (c >= '0' && c <= '9') || (c >= 'A' && c <='F')) 
....................          { 
....................             if (c >= '0' && c <= '9') 
....................                result = (result << 4) + (c - '0'); 
....................             else 
....................                result = (result << 4) + (c - 'A' + 10); 
....................  
....................             c = s[index++];c = toupper(c); 
....................          } 
....................       } 
....................    } 
....................  
....................    if (base == 10 && sign == 1) 
....................       result = -result; 
....................  
....................    return(result); 
.................... } 
....................  
.................... /* A fast routine to multiply by 10 
....................  */ 
.................... signed int32 mult_with10(int32 num) 
.................... { 
....................    return ( (num << 1) + (num << 3) ); 
.................... } 
....................  
.................... #if sizeof(long)==2 
.................... signed int32 atoi32(char *s) 
.................... { 
....................    signed int32 result; 
....................    int8 sign, base, index; 
....................    char c; 
....................  
....................    index = 0; 
....................    sign = 0; 
....................    base = 10; 
....................    result = 0; 
....................  
....................    if (!s) 
....................       return 0; 
....................    c = s[index++]; 
....................  
....................    // increase index if either positive or negative sign is detected 
....................    if (c == '-') 
....................    { 
....................       sign = 1;         // Set the sign to negative 
....................       c = s[index++]; 
....................    } 
....................    else if (c == '+') 
....................    { 
....................       c = s[index++]; 
....................    } 
....................  
....................    if (c >= '0' && c <= '9') 
....................    { 
....................       if (c == '0' && (s[index] == 'x' || s[index] == 'X')) 
....................       { 
....................          base = 16; 
....................          index++; 
....................          c = s[index++]; 
....................       } 
....................  
....................       // The number is a decimal number 
....................       if (base == 10) 
....................       { 
....................          while (c >= '0' && c <= '9') { 
....................             result = (result << 1) + (result << 3);  // result *= 10; 
....................             result += (c - '0'); 
....................             c = s[index++]; 
....................          } 
....................       } 
....................       else if (base == 16)    // The number is a hexa number 
....................       { 
....................          c = toupper(c); 
....................          while ((c >= '0' && c <= '9') || (c >= 'A' && c <='F')) 
....................          { 
....................             if (c >= '0' && c <= '9') 
....................                result = (result << 4) + (c - '0'); 
....................             else 
....................                result = (result << 4) + (c - 'A' + 10); 
....................  
....................             c = s[index++];c = toupper(c); 
....................          } 
....................       } 
....................    } 
....................  
....................    if (base == 10 && sign == 1) 
....................       result = -result; 
....................  
....................    return(result); 
.................... } 
.................... #endif 
....................  
.................... #if defined(__PCD__) 
....................  
.................... signed int48 atoi48(char *s) 
.................... { 
....................    signed int48 result; 
....................    int8 sign, base, index; 
....................    char c; 
....................  
....................    index = 0; 
....................    sign = 0; 
....................    base = 10; 
....................    result = 0; 
....................  
....................    if (!s) 
....................       return 0; 
....................    c = s[index++]; 
....................  
....................    // increase index if either positive or negative sign is detected 
....................    if (c == '-') 
....................    { 
....................       sign = 1;         // Set the sign to negative 
....................       c = s[index++]; 
....................    } 
....................    else if (c == '+') 
....................    { 
....................       c = s[index++]; 
....................    } 
....................  
....................    if (c >= '0' && c <= '9') 
....................    { 
....................       if (c == '0' && (s[index] == 'x' || s[index] == 'X')) 
....................       { 
....................          base = 16; 
....................          index++; 
....................          c = s[index++]; 
....................       } 
....................  
....................       // The number is a decimal number 
....................       if (base == 10) 
....................       { 
....................          while (c >= '0' && c <= '9') { 
....................             result = (result << 1) + (result << 3);  // result *= 10; 
....................             result += (c - '0'); 
....................             c = s[index++]; 
....................          } 
....................       } 
....................       else if (base == 16)    // The number is a hexa number 
....................       { 
....................          c = toupper(c); 
....................          while ((c >= '0' && c <= '9') || (c >= 'A' && c <='F')) 
....................          { 
....................             if (c >= '0' && c <= '9') 
....................                result = (result << 4) + (c - '0'); 
....................             else 
....................                result = (result << 4) + (c - 'A' + 10); 
....................  
....................             c = s[index++];c = toupper(c); 
....................          } 
....................       } 
....................    } 
....................  
....................    if (base == 10 && sign == 1) 
....................       result = -result; 
....................  
....................    return(result); 
.................... } 
....................  
.................... signed int64 atoi64(char *s) 
.................... { 
....................    signed int64 result; 
....................    int8 sign, base, index; 
....................    char c; 
....................  
....................    index = 0; 
....................    sign = 0; 
....................    base = 10; 
....................    result = 0; 
....................  
....................    if (!s) 
....................       return 0; 
....................    c = s[index++]; 
....................  
....................    // increase index if either positive or negative sign is detected 
....................    if (c == '-') 
....................    { 
....................       sign = 1;         // Set the sign to negative 
....................       c = s[index++]; 
....................    } 
....................    else if (c == '+') 
....................    { 
....................       c = s[index++]; 
....................    } 
....................  
....................    if (c >= '0' && c <= '9') 
....................    { 
....................       if (c == '0' && (s[index] == 'x' || s[index] == 'X')) 
....................       { 
....................          base = 16; 
....................          index++; 
....................          c = s[index++]; 
....................       } 
....................  
....................       // The number is a decimal number 
....................       if (base == 10) 
....................       { 
....................          while (c >= '0' && c <= '9') { 
....................             result = (result << 1) + (result << 3);  // result *= 10; 
....................             result += (c - '0'); 
....................             c = s[index++]; 
....................          } 
....................       } 
....................       else if (base == 16)    // The number is a hexa number 
....................       { 
....................          c = toupper(c); 
....................          while ((c >= '0' && c <= '9') || (c >= 'A' && c <='F')) 
....................          { 
....................             if (c >= '0' && c <= '9') 
....................                result = (result << 4) + (c - '0'); 
....................             else 
....................                result = (result << 4) + (c - 'A' + 10); 
....................  
....................             c = s[index++];c = toupper(c); 
....................          } 
....................       } 
....................    } 
....................  
....................    if (base == 10 && sign == 1) 
....................       result = -result; 
....................  
....................    return(result); 
.................... } 
.................... #endif 
....................  
.................... char * itoa(signed int32 num, unsigned int base, char * s) 
.................... { 
....................      unsigned int32 temp=1; 
....................      unsigned int8 i,sign=0,cnt=0; 
....................      char c; 
....................  
....................      if(num<0) { 
....................          sign=1;        // Check for negative number 
....................          num*=-1; 
....................      } 
....................  
....................      while(temp>0) { 
....................          temp=(num/base); 
....................          s[cnt]=(num%base)+'0';    // Conversion 
....................  
....................          if(s[cnt]>0x39) 
....................             s[cnt]+=0x7; 
....................  
....................          cnt++; 
....................          num=temp; 
....................      } 
....................  
....................      if(sign==1) { 
....................          s[cnt]=0x2D;      // Negative sign 
....................          cnt++; 
....................      } 
....................  
....................      for(i = 0;i<(int8)(cnt/2);i++) { 
....................  
....................          c=s[i]; 
....................          s[i]=s[cnt-i-1];        // Reverse the number 
....................          s[cnt-i-1]=c; 
....................      } 
....................      s[cnt]='\0';     // End the string 
....................      return s; 
.................... } 
....................  
.................... float strtof(char *s, char *endptr) 
.................... { 
....................    float pow10 = 1.0; 
....................    float result = 0.0; 
....................    int1 skip = 1, sign = 0, point = 0; 
....................    char c; 
....................    unsigned int8 ptr = 0; 
....................  
....................    if (!s) 
....................       return 0; 
....................  
....................    for(c=s[ptr++]; c!=0; c=s[ptr++]) 
....................    { 
....................       if (skip && !isspace(c)) 
....................       { 
....................          skip = 0; 
....................          if (c == '+') 
....................          { 
....................             sign = 0; 
....................             continue; 
....................          }             
....................          else if (c == '-') 
....................          { 
....................             sign = 1; 
....................             continue; 
....................          } 
....................       } 
....................       if (!skip && (c == '.') && !point) 
....................          point = 1; 
....................       else if (!skip && isdigit(c)) 
....................       { 
....................          c -= '0'; 
....................          if (point) 
....................          { 
....................             pow10 = pow10 * 10.0; 
....................             result += (float)c / pow10;    
....................          } 
....................          else 
....................          { 
....................             result = 10.0 * result + (float)c; 
....................          } 
....................       } 
....................       else if (!skip) 
....................          break; 
....................    } 
....................  
....................    if (sign) 
....................       result = -1*result; 
....................        
....................    if(endptr) 
....................    { 
....................       if (ptr) { 
....................          ptr--; 
....................        #IF LONG_POINTERS  
....................          *((long *)endptr)= s+ptr;  
....................        #ELSE 
....................          *((char *)endptr)=s+ptr; 
....................        #ENDIF 
....................       } 
....................       else 
....................       { 
....................       #IF LONG_POINTERS 
....................       *((long *)endptr)= s;  
....................       #ELSE 
....................       *((char *)endptr)=s; 
....................       #ENDIF 
....................       } 
....................    } 
....................  
....................    return(result); 
.................... } 
....................  
.................... #if defined(__PCD__) 
.................... float48 strtof48(char *s, char *endptr) 
.................... { 
....................    float48 pow10 = 1.0; 
....................    float48 result = 0.0; 
....................    int1 skip = 1, sign = 0, point = 0; 
....................    char c; 
....................    unsigned int8 ptr = 0; 
....................  
....................    if (!s) 
....................       return 0; 
....................  
....................    for(c=s[ptr++]; c!=0; c=s[ptr++]) 
....................    { 
....................       if (skip && !isspace(c)) 
....................       { 
....................          skip = 0; 
....................          if (c == '+') 
....................          { 
....................             sign = 0; 
....................             continue; 
....................          }             
....................          else if (c == '-') 
....................          { 
....................             sign = 1; 
....................             continue; 
....................          } 
....................       } 
....................       if (!skip && (c == '.') && !point) 
....................          point = 1; 
....................       else if (!skip && isdigit(c)) 
....................       { 
....................          c -= '0'; 
....................          if (point) 
....................          { 
....................             pow10 = pow10 * 10.0; 
....................             result += (float48)c / pow10;    
....................          } 
....................          else 
....................          { 
....................             result = 10.0 * result + (float48)c; 
....................          } 
....................       } 
....................       else if (!skip) 
....................          break; 
....................    } 
....................  
....................    if (sign) 
....................       result = -1*result; 
....................        
....................    if(endptr) 
....................    { 
....................       if (ptr) { 
....................          ptr--; 
....................        #IF LONG_POINTERS  
....................          *((long *)endptr)= s+ptr;  
....................        #ELSE 
....................          *((char *)endptr)=s+ptr; 
....................        #ENDIF 
....................       } 
....................       else 
....................       { 
....................       #IF LONG_POINTERS 
....................       *((long *)endptr)= s;  
....................       #ELSE 
....................       *((char *)endptr)=s; 
....................       #ENDIF 
....................       } 
....................    } 
....................  
....................    return(result); 
.................... } 
....................  
.................... float64 strtod(char *s, char *endptr) 
.................... { 
....................    float64 pow10 = 1.0; 
....................    float64 result = 0.0; 
....................    int1 skip = 1, sign = 0, point = 0; 
....................    char c; 
....................    unsigned int8 ptr = 0; 
....................  
....................    if (!s) 
....................       return 0; 
....................  
....................    for(c=s[ptr++]; c!=0; c=s[ptr++]) 
....................    { 
....................       if (skip && !isspace(c)) 
....................       { 
....................          skip = 0; 
....................          if (c == '+') 
....................          { 
....................             sign = 0; 
....................             continue; 
....................          }             
....................          else if (c == '-') 
....................          { 
....................             sign = 1; 
....................             continue; 
....................          } 
....................       } 
....................       if (!skip && (c == '.') && !point) 
....................          point = 1; 
....................       else if (!skip && isdigit(c)) 
....................       { 
....................          c -= '0'; 
....................          if (point) 
....................          { 
....................             pow10 = pow10 * 10.0; 
....................             result += (float64)c / pow10;    
....................          } 
....................          else 
....................          { 
....................             result = 10.0 * result + (float64)c; 
....................          } 
....................       } 
....................       else if (!skip) 
....................          break; 
....................    } 
....................  
....................    if (sign) 
....................       result = -1*result; 
....................        
....................    if(endptr) 
....................    { 
....................       if (ptr) { 
....................          ptr--; 
....................        #IF LONG_POINTERS  
....................          *((long *)endptr)= s+ptr;  
....................        #ELSE 
....................          *((char *)endptr)=s+ptr; 
....................        #ENDIF 
....................       } 
....................       else 
....................       { 
....................       #IF LONG_POINTERS 
....................       *((long *)endptr)= s;  
....................       #ELSE 
....................       *((char *)endptr)=s; 
....................       #ENDIF 
....................       } 
....................    } 
....................  
....................    return(result); 
.................... } 
.................... #endif 
....................  
.................... unsigned long strtoul(char *s, char *endptr, signed int base) 
.................... { 
....................    char *sc,*s1,*sd; 
....................    unsigned long x=0; 
....................    char sign; 
....................    char digits[]="0123456789abcdefghijklmnopqstuvwxyz"; 
....................    for(sc=s;isspace(*sc);++sc); 
....................    sign=*sc=='-'||*sc=='+'?*sc++:'+'; 
....................    if(sign=='-' || base <0 || base ==1|| base >36) // invalid base 
....................    goto StrtoulGO; 
....................  
....................    else if (base) 
....................    { 
....................       if(base==16 && *sc =='0'&&(sc[1]=='x' || sc[1]=='X')) 
....................          sc+=2; 
....................       if(base==8 && *sc =='0') 
....................          sc+=1; 
....................       if(base==2 && *sc =='0'&&sc[1]=='b') 
....................          sc+=2; 
....................  
....................    } 
....................    else if(*sc!='0') // base is 0, find base 
....................       base=10; 
....................    else if (sc[1]=='x' || sc[1]=='X') 
....................       base =16,sc+=2; 
....................    else if(sc[1]=='b') 
....................       base=2,sc+=2; 
....................    else 
....................       base=8; 
....................    for (s1=sc;*sc=='0';++sc);// skip leading zeroes 
....................    sd=memchr(digits,tolower(*sc),base); 
....................    for(; sd!=0; ) 
....................    { 
....................       x=x*base+(int16)(sd-digits); 
....................       ++sc; 
....................       sd=memchr(digits,tolower(*sc),base); 
....................    } 
....................    if(s1==sc) 
....................    { 
....................    StrtoulGO: 
....................       if (endptr) 
....................       { 
....................          #IF LONG_POINTERS 
....................          *((long *)endptr)= s;  
....................          #ELSE 
....................          *((char *)endptr)=s; 
....................          #ENDIF 
....................          } 
....................    return 0; 
....................    } 
....................    if (endptr) 
....................    { 
....................          #IF LONG_POINTERS 
....................          *((long *)endptr)= sc;  
....................          #ELSE 
....................          *((char *)endptr)=sc;  
....................          #ENDIF 
....................    } 
....................    return x; 
.................... } 
....................  
....................  
.................... signed long strtol(char *s,char *endptr, signed int base) 
.................... { 
....................    char *sc,*s1,*sd; 
....................    signed long x=0; 
....................    char sign; 
....................    char digits[]="0123456789abcdefghijklmnopqstuvwxyz"; 
....................    for(sc=s;isspace(*sc);++sc); 
....................    sign=*sc=='-'||*sc=='+'?*sc++:'+'; 
....................    if (base <0 || base ==1|| base >36) // invalid base 
....................    goto StrtolGO; 
....................    else if (base) 
....................    { 
....................       if(base==16 && *sc =='0'&&(sc[1]=='x' || sc[1]=='X')) 
....................          sc+=2; 
....................       if(base==8 && *sc =='0') 
....................          sc+=1; 
....................       if(base==2 && *sc =='0'&&sc[1]=='b') 
....................          sc+=2; 
....................  
....................    } 
....................    else if(*sc!='0') // base is 0, find base 
....................       base=10; 
....................    else if (sc[1]=='x' || sc[1]=='X') 
....................       base =16,sc+=2; 
....................    else if(sc[1]=='b') 
....................       base=2,sc+=2; 
....................    else 
....................       base=8; 
....................    for (s1=sc;*sc=='0';++sc);// skip leading zeroes 
....................  
....................    sd=memchr(digits,tolower(*sc),base); 
....................    for(;sd!=0;) 
....................    { 
....................       x=x*base+(int16)(sd-digits); 
....................       ++sc; 
....................       sd=memchr(digits,tolower(*sc),base); 
....................    } 
....................    if(s1==sc) 
....................    { 
....................    StrtolGO: 
....................       if (endptr) 
....................       { 
....................          #IF LONG_POINTERS 
....................          *((long *)endptr)= s;  
....................          #ELSE 
....................          *((char *)endptr)=s; 
....................          #ENDIF 
....................       } 
....................    return 0; 
....................    } 
....................    if(sign=='-') 
....................       x  =-x; 
....................    if (endptr) 
....................    { 
....................         #IF LONG_POINTERS 
....................          *((long *)endptr)= sc;  
....................         #ELSE 
....................         *((char *)endptr)=sc; 
....................         #ENDIF 
....................    } 
....................    return x; 
.................... } 
....................  
.................... signed int8 system(char *string) 
.................... { 
....................    return 0; 
.................... } 
....................  
.................... int8 mblen(char *s,size_t n) 
.................... { 
....................    return strlen(s); 
.................... } 
....................  
.................... int8 mbtowc(wchar_t *pwc,char *s,size_t n) 
.................... { 
....................    *pwc=*s; 
....................    return 1; 
.................... } 
....................  
.................... int8 wctomb(char *s,wchar_t wchar) 
.................... { 
....................    *s=wchar; 
....................    return 1; 
.................... } 
....................  
.................... size_t mbstowcs(wchar_t *pwcs,char *s,size_t n) 
.................... { 
....................    strncpy(pwcs,s,n); 
....................    return strlen(pwcs); 
.................... } 
....................  
.................... size_t wcstombs(char *s,wchar_t *pwcs,size_t n) 
.................... { 
....................    strncpy(s,pwcs,n); 
....................    return strlen(s); 
.................... } 
....................  
.................... //--------------------------------------------------------------------------- 
.................... // The random number implementation 
.................... //--------------------------------------------------------------------------- 
....................  
.................... unsigned int32 _Randseed; 
....................  
.................... unsigned int16 rand(void) 
.................... { 
....................    _Randseed = _Randseed * 1103515245 + 12345; 
....................    return ((unsigned int16)(_Randseed >> 16) % RAND_MAX); 
.................... } 
....................  
.................... void srand(unsigned int32 seed) 
.................... { 
....................    _Randseed = seed; 
.................... } 
....................  
.................... //--------------------------------------------------------------------------- 
.................... // Searching and sorting utilities implementation 
.................... //--------------------------------------------------------------------------- 
....................  
.................... #if !defined(__PCD__) 
.................... typedef signed int8 (*_Cmpfun)(char * p1,char * p2);  
.................... #else  
.................... typedef signed int16 (*_Cmpfun)(char * p1,char * p2);  
.................... #endif 
....................  
....................  
....................  
.................... void qsort(char * qdata, unsigned int qitems, unsigned int qsize, _Cmpfun cmp) { 
....................    unsigned int m,j,i,l; 
....................    int1 done; 
....................    unsigned int8 t[16]; 
....................  
....................    m = qitems/2; 
....................    while( m > 0 ) { 
....................      for(j=0; j<(qitems-m); ++j) { 
....................         i = j; 
....................         do 
....................         { 
....................            done=1; 
....................            l = i+m; 
....................            if( (*cmp)(qdata+i*qsize, qdata+l*qsize) > 0 ) { 
....................               memcpy(t, qdata+i*qsize, qsize); 
....................               memcpy(qdata+i*qsize, qdata+l*qsize, qsize); 
....................               memcpy(qdata+l*qsize, t, qsize); 
....................               if(m <= i) 
....................                 i -= m; 
....................                 done = 0; 
....................            } 
....................         } while(!done); 
....................      } 
....................      m = m/2; 
....................    } 
.................... } 
....................  
....................  
.................... char *bsearch(char *key, char *base, size_t num, size_t width,_Cmpfun cmp) 
.................... { 
....................    char *p, *q; 
....................    size_t n; 
....................    size_t pivot; 
....................    signed int val; 
....................  
....................    p = base; 
....................    n = num; 
....................  
....................    while (n > 0) 
....................    { 
....................       pivot = n >> 1; 
....................       q = p + width * pivot; 
....................  
....................       val = (*cmp)(key, q); 
....................  
....................       if (val < 0) 
....................          n = pivot; 
....................       else if (val == 0) 
....................          return ((char *)q); 
....................       else { 
....................          p = q + width; 
....................          n -= pivot + 1; 
....................       } 
....................    } 
....................  
....................    return NULL;      // There's no match 
.................... } 
....................  
....................  
.................... #endif 
....................  
....................  
.................... // Definicin de teclado - NO 
.................... #define   UP            !input(PIN_A5) 
.................... #define   DOWN          !input(PIN_E0) 
.................... #define   RIGHT         !input(PIN_E1) 
.................... #define   LEFT          !input(PIN_E2) 
....................  
.................... #define   DOOR          input(PIN_A4) 
.................... #define   TERM          input(PIN_A3) 
....................  
....................  
.................... // Definicin de Salidas 
.................... #define   Servo_on          output_bit(PIN_A2,1) 
.................... #define   Servo_off         output_bit(PIN_A2,0) 
.................... #define   SSR_on            output_bit(PIN_C2,1) 
.................... #define   SSR_off           output_bit(PIN_C2,0) 
.................... #define   SSR2_on            output_bit(PIN_C1,1) 
.................... #define   SSR2_off           output_bit(PIN_C1,0) 
.................... #define   Motor1_on         output_bit(PIN_C0,1) 
.................... #define   Motor1_off        output_bit(PIN_C0,0) 
.................... #define   Buzzer_on         output_bit(PIN_C7,1) 
.................... #define   Buzzer_off        output_bit(PIN_C7,0) 
....................  
.................... float promedio[90]={0.0,0.0,0.0,0.0,0.0,0.0,0.0,0.0,0.0,0.0,0.0,0.0,0.0,0.0,0.0,0.0,0.0,0.0,0.0,0.0,0.0,0.0,0.0,0.0,0.0,0.0,0.0,0.0,0.0,0.0,0.0,0.0,0.0,0.0,0.0,0.0,0.0,0.0,0.0,0.0,0.0,0.0,0.0,0.0,0.0,0.0,0.0,0.0,0.0,0.0,0.0,0.0,0.0,0.0,0.0,0.0,0.0,0.0,0.0,0.0,0.0,0.0,0.0,0.0,0.0,0.0,0.0,0.0,0.0,0.0,0.0,0.0,0.0,0.0}; 
.................... float X[2]={0.0,0.0}; 
.................... short Desconectado=0,Alarma=0,flagup=0,flagdn=0,flag_controlando=0,Cruce=OFF,flagMotor=OFF; 
.................... int8 h=0,l=0,Ajuste=0,Ajusten=0,MediaMovil=10,tiemporecta=0,flag_ganancia=0,Lectura2=0,Controlando=0,Ajusto=10,n=0; 
.................... short Flanco=0,Flanco1=0,Flanco2=0,visual=1,Lectura=0,flag_ajuste=0,flag_ajuste2=0,flag_clear=0,Infinito=0,abrio=0; 
.................... short flag_clear2=0,flag_clear3=0,flag_tiempocalentamiento=0,flag_display=0,flag_setpoint=0,Finalizo=0,sobrepaso=0; 
.................... int8 y=0,tiemporeset=0,Source=1,VelMotor=0,Vel1=10; 
.................... int8 Menu=0, unidad=1,i=0,Pausa=0,tiempoup=0,tiempodn=0,pulsos=0; 
.................... int8 Opcion=1,tiempo_esterilizacion=0,tiempo_secado=0,decimal=0,entero=0,angulo=0; 
.................... int16 tiempos=0,tiempos3=0,tiempoctrl=0,tinicio=0,tiempocalentamiento=0,tiemposetpoint=0,Tp=0,Tc=0,TiempoControl=0,tiempoApertura=0,tSobrepaso=0,tiempoServo=0; 
.................... float Potencia=0.0,Tpulsomin=0.0,Gananciamax=0.0,Gain=0.0,RPT100=0.0,Integral=0,Derivativo=0,derivativo_ant=0; 
.................... signed int  Testerilizacion[4]={0,0,0,0};   // Tiempo transcurrido 
.................... signed int  Testerilizacionp[4]={0,0,0,0};   // Tiempo transcurrido 
.................... signed int  Contrasena[4]={0,0,0,0};      // Contrasena de 4 digitos 
.................... signed int  Password[4]={0,0,0,0};        // Contrasena Almacenada de 4 digitos 
.................... float V0=0.0,R1=10000.0,Pt,Tciclo=10.0,Tpulso=0.0,error=0.0,Prom=0.0,Temperature=0.0,tmp=0.0,Ganancia=2.0,desvio=0.5,Coeficiente=44.5,gananciaAnt=0.0; 
.................... float Aumento=0.0,Temperatura=0.0,TpulsoMax=0.0,Setpoint=0,Temperatura1=0,Temperatura2=0,Temperatura3=0,Temporal=0.0,Ajustef=0.0,Ajustenf=0.0; 
.................... float a=0.0011,b=2.3302,c=-244.0723; 
....................  
.................... //Comunicacion//------------------------ 
.................... byte dato=0;            //Contendr la informacin a enviar o recibir 
.................... byte direccion=0;       //Contendr la direccin del esclavo en el bus I2C 
.................... byte posicion=0;        //Contendr la posicin en el buffer de memoria del esclavo donde se almacenar o de donde se recuperar el dato 
....................  
....................  
.................... typedef struct{ 
....................    char Letra[30]; 
.................... }MENUU; 
....................  
.................... MENUU Menus; 
....................  
.................... #include "Funciones.h" 
.................... void ActualizaRecta(){ 
....................    X[y]=Temperatura; 
*
052EE:  MOVLB  5
052F0:  MOVF   xAE,W
052F2:  MULLW  04
052F4:  MOVF   FF3,W
052F6:  CLRF   03
052F8:  ADDLW  98
052FA:  MOVWF  FE9
052FC:  MOVLW  05
052FE:  ADDWFC 03,W
05300:  MOVWF  FEA
05302:  MOVFF  640,FEF
05306:  MOVFF  641,FEC
0530A:  MOVFF  642,FEC
0530E:  MOVFF  643,FEC
....................    y++; 
05312:  INCF   xAE,F
....................    if(y>=2){ 
05314:  MOVF   xAE,W
05316:  SUBLW  01
05318:  BC    5356
....................       y=0; 
0531A:  CLRF   xAE
....................       Aumento=X[1]-X[0]; 
0531C:  BSF    FD8.1
0531E:  MOVFF  59F,6A2
05322:  MOVFF  59E,6A1
05326:  MOVFF  59D,6A0
0532A:  MOVFF  59C,69F
0532E:  MOVFF  59B,6A6
05332:  MOVFF  59A,6A5
05336:  MOVFF  599,6A4
0533A:  MOVFF  598,6A3
0533E:  MOVLB  0
05340:  CALL   151E
05344:  MOVFF  03,63F
05348:  MOVFF  02,63E
0534C:  MOVFF  01,63D
05350:  MOVFF  00,63C
05354:  MOVLB  5
....................    } 
.................... } 
05356:  MOVLB  0
05358:  RETLW  00
....................  
.................... // Funcion para conversor analogo-digital 
.................... float sensores(int8 x){ 
.................... float y;set_adc_channel(x);delay_ms(1);y=read_adc();return (y); 
*
03142:  MOVLB  6
03144:  RLCF   x94,W
03146:  MOVWF  00
03148:  RLCF   00,F
0314A:  MOVLW  FC
0314C:  ANDWF  00,F
0314E:  MOVFF  00,01
03152:  MOVF   FC2,W
03154:  ANDLW  C3
03156:  IORWF  00,W
03158:  MOVWF  FC2
0315A:  MOVLW  01
0315C:  MOVWF  x9C
0315E:  MOVLB  0
03160:  CALL   131C
03164:  BSF    FC2.1
03166:  BTFSC  FC2.1
03168:  BRA    3166
0316A:  MOVFF  FC4,6A0
0316E:  MOVFF  FC3,69F
03172:  MOVLB  0
03174:  CALL   138A
03178:  MOVFF  03,698
0317C:  MOVFF  02,697
03180:  MOVFF  01,696
03184:  MOVFF  00,695
03188:  MOVFF  695,00
0318C:  MOVFF  696,01
03190:  MOVFF  697,02
03194:  MOVFF  698,03
.................... } 
03198:  GOTO   32C4 (RETURN)
....................  
.................... float Leer_Sensor(int8 media){ 
....................    Prom=0.0; 
*
032B4:  MOVLB  6
032B6:  CLRF   x23
032B8:  CLRF   x22
032BA:  CLRF   x21
032BC:  CLRF   x20
....................    V0 = sensores(0);   //Lectura de Divisor de Voltaje de PT100 con resistencia de 6.18k (+-2%) 
032BE:  CLRF   x94
032C0:  MOVLB  0
032C2:  BRA    3142
032C4:  MOVFF  03,60B
032C8:  MOVFF  02,60A
032CC:  MOVFF  01,609
032D0:  MOVFF  00,608
....................    V0 = V0/Gain; // Se elimina la ganancia 
032D4:  MOVFF  60B,697
032D8:  MOVFF  60A,696
032DC:  MOVFF  609,695
032E0:  MOVFF  608,694
032E4:  MOVFF  5E7,69B
032E8:  MOVFF  5E6,69A
032EC:  MOVFF  5E5,699
032F0:  MOVFF  5E4,698
032F4:  CALL   13C0
032F8:  MOVFF  03,60B
032FC:  MOVFF  02,60A
03300:  MOVFF  01,609
03304:  MOVFF  00,608
....................    V0 += 14.93; 
03308:  BCF    FD8.1
0330A:  MOVFF  60B,6A2
0330E:  MOVFF  60A,6A1
03312:  MOVFF  609,6A0
03316:  MOVFF  608,69F
0331A:  MOVLW  48
0331C:  MOVLB  6
0331E:  MOVWF  xA6
03320:  MOVLW  E1
03322:  MOVWF  xA5
03324:  MOVLW  6E
03326:  MOVWF  xA4
03328:  MOVLW  82
0332A:  MOVWF  xA3
0332C:  MOVLB  0
0332E:  CALL   151E
03332:  MOVFF  03,60B
03336:  MOVFF  02,60A
0333A:  MOVFF  01,609
0333E:  MOVFF  00,608
....................    Pt=6790/((1023/V0)-1); 
03342:  MOVLB  6
03344:  CLRF   x97
03346:  MOVLW  C0
03348:  MOVWF  x96
0334A:  MOVLW  7F
0334C:  MOVWF  x95
0334E:  MOVLW  88
03350:  MOVWF  x94
03352:  MOVFF  60B,69B
03356:  MOVFF  60A,69A
0335A:  MOVFF  609,699
0335E:  MOVFF  608,698
03362:  MOVLB  0
03364:  CALL   13C0
03368:  MOVFF  00,694
0336C:  MOVFF  01,695
03370:  MOVFF  02,696
03374:  MOVFF  03,697
03378:  BSF    FD8.1
0337A:  MOVFF  03,6A2
0337E:  MOVFF  02,6A1
03382:  MOVFF  01,6A0
03386:  MOVFF  00,69F
0338A:  MOVLB  6
0338C:  CLRF   xA6
0338E:  CLRF   xA5
03390:  CLRF   xA4
03392:  MOVLW  7F
03394:  MOVWF  xA3
03396:  MOVLB  0
03398:  CALL   151E
0339C:  MOVLB  6
0339E:  CLRF   x97
033A0:  MOVLW  30
033A2:  MOVWF  x96
033A4:  MOVLW  54
033A6:  MOVWF  x95
033A8:  MOVLW  8B
033AA:  MOVWF  x94
033AC:  MOVFF  03,69B
033B0:  MOVFF  02,69A
033B4:  MOVFF  01,699
033B8:  MOVFF  00,698
033BC:  MOVLB  0
033BE:  CALL   13C0
033C2:  MOVFF  03,613
033C6:  MOVFF  02,612
033CA:  MOVFF  01,611
033CE:  MOVFF  00,610
....................              
....................    if(l>(media-1)) 
033D2:  MOVLW  01
033D4:  MOVLB  6
033D6:  SUBWF  x93,W
033D8:  MOVLB  5
033DA:  SUBWF  xA2,W
033DC:  BZ    33E2
033DE:  BNC   33E2
....................    {l=0;} 
033E0:  CLRF   xA2
....................    //promedio[l]=Temperature;l++; 
....................    promedio[l]=Pt;l++; 
033E2:  MOVLB  6
033E4:  CLRF   x98
033E6:  MOVFF  5A2,697
033EA:  CLRF   x9A
033EC:  MOVLW  04
033EE:  MOVWF  x99
033F0:  MOVLB  0
033F2:  RCALL  319C
033F4:  MOVF   01,W
033F6:  ADDLW  30
033F8:  MOVWF  FE9
033FA:  MOVLW  04
033FC:  ADDWFC 02,W
033FE:  MOVWF  FEA
03400:  MOVFF  610,FEF
03404:  MOVFF  611,FEC
03408:  MOVFF  612,FEC
0340C:  MOVFF  613,FEC
03410:  MOVLB  5
03412:  INCF   xA2,F
....................           
....................    for(h=0;h<media;h++) 
03414:  CLRF   xA1
03416:  MOVLB  6
03418:  MOVF   x93,W
0341A:  MOVLB  5
0341C:  SUBWF  xA1,W
0341E:  BC    349E
....................    { 
....................       Prom+=promedio[h]; 
03420:  MOVLB  6
03422:  CLRF   x98
03424:  MOVFF  5A1,697
03428:  CLRF   x9A
0342A:  MOVLW  04
0342C:  MOVWF  x99
0342E:  MOVLB  0
03430:  RCALL  319C
03432:  MOVFF  02,03
03436:  MOVF   01,W
03438:  ADDLW  30
0343A:  MOVWF  FE9
0343C:  MOVLW  04
0343E:  ADDWFC 02,W
03440:  MOVWF  FEA
03442:  MOVFF  FEF,00
03446:  MOVFF  FEC,01
0344A:  MOVFF  FEC,02
0344E:  MOVFF  FEC,03
03452:  MOVFF  FEA,695
03456:  MOVFF  FE9,694
0345A:  BCF    FD8.1
0345C:  MOVFF  623,6A2
03460:  MOVFF  622,6A1
03464:  MOVFF  621,6A0
03468:  MOVFF  620,69F
0346C:  MOVFF  03,6A6
03470:  MOVFF  02,6A5
03474:  MOVFF  01,6A4
03478:  MOVFF  00,6A3
0347C:  CALL   151E
03480:  MOVFF  695,FEA
03484:  MOVFF  694,FE9
03488:  MOVFF  03,623
0348C:  MOVFF  02,622
03490:  MOVFF  01,621
03494:  MOVFF  00,620
....................    }  
03498:  MOVLB  5
0349A:  INCF   xA1,F
0349C:  BRA    3416
....................    Prom=Prom/media;    
0349E:  MOVLB  6
034A0:  CLRF   xA0
034A2:  MOVFF  693,69F
034A6:  MOVLB  0
034A8:  CALL   138A
034AC:  MOVFF  623,697
034B0:  MOVFF  622,696
034B4:  MOVFF  621,695
034B8:  MOVFF  620,694
034BC:  MOVFF  03,69B
034C0:  MOVFF  02,69A
034C4:  MOVFF  01,699
034C8:  MOVFF  00,698
034CC:  CALL   13C0
034D0:  MOVFF  03,623
034D4:  MOVFF  02,622
034D8:  MOVFF  01,621
034DC:  MOVFF  00,620
....................    //Temperature=(Prom-100.0)/(0.385);  // Ecuacin determinada por linealizacin en Matlab. Revisar este polinomio.   
....................    Temperature=((Prom*Prom)*a)+(Prom*b)+c;  // Ecuacin determinada por linealizacin en Matlab. Revisar este polinomio. 
034E0:  MOVFF  623,6B6
034E4:  MOVFF  622,6B5
034E8:  MOVFF  621,6B4
034EC:  MOVFF  620,6B3
034F0:  MOVFF  623,6BA
034F4:  MOVFF  622,6B9
034F8:  MOVFF  621,6B8
034FC:  MOVFF  620,6B7
03500:  RCALL  31BE
03502:  MOVFF  00,694
03506:  MOVFF  01,695
0350A:  MOVFF  02,696
0350E:  MOVFF  03,697
03512:  MOVFF  03,6B6
03516:  MOVFF  02,6B5
0351A:  MOVFF  01,6B4
0351E:  MOVFF  00,6B3
03522:  MOVFF  667,6BA
03526:  MOVFF  666,6B9
0352A:  MOVFF  665,6B8
0352E:  MOVFF  664,6B7
03532:  RCALL  31BE
03534:  MOVFF  00,694
03538:  MOVFF  01,695
0353C:  MOVFF  02,696
03540:  MOVFF  03,697
03544:  MOVFF  623,6B6
03548:  MOVFF  622,6B5
0354C:  MOVFF  621,6B4
03550:  MOVFF  620,6B3
03554:  MOVFF  66B,6BA
03558:  MOVFF  66A,6B9
0355C:  MOVFF  669,6B8
03560:  MOVFF  668,6B7
03564:  RCALL  31BE
03566:  BCF    FD8.1
03568:  MOVFF  697,6A2
0356C:  MOVFF  696,6A1
03570:  MOVFF  695,6A0
03574:  MOVFF  694,69F
03578:  MOVFF  03,6A6
0357C:  MOVFF  02,6A5
03580:  MOVFF  01,6A4
03584:  MOVFF  00,6A3
03588:  CALL   151E
0358C:  MOVFF  00,694
03590:  MOVFF  01,695
03594:  MOVFF  02,696
03598:  MOVFF  03,697
0359C:  BCF    FD8.1
0359E:  MOVFF  03,6A2
035A2:  MOVFF  02,6A1
035A6:  MOVFF  01,6A0
035AA:  MOVFF  00,69F
035AE:  MOVFF  66F,6A6
035B2:  MOVFF  66E,6A5
035B6:  MOVFF  66D,6A4
035BA:  MOVFF  66C,6A3
035BE:  CALL   151E
035C2:  MOVFF  03,627
035C6:  MOVFF  02,626
035CA:  MOVFF  01,625
035CE:  MOVFF  00,624
....................    Ajustef=Ajuste; 
035D2:  MOVLB  6
035D4:  CLRF   xA0
035D6:  MOVFF  5A3,69F
035DA:  MOVLB  0
035DC:  CALL   138A
035E0:  MOVFF  03,65F
035E4:  MOVFF  02,65E
035E8:  MOVFF  01,65D
035EC:  MOVFF  00,65C
....................    Ajustenf=Ajusten; 
035F0:  MOVLB  6
035F2:  CLRF   xA0
035F4:  MOVFF  5A4,69F
035F8:  MOVLB  0
035FA:  CALL   138A
035FE:  MOVFF  03,663
03602:  MOVFF  02,662
03606:  MOVFF  01,661
0360A:  MOVFF  00,660
....................    Ajustef=Ajustef/10; 
0360E:  MOVFF  65F,697
03612:  MOVFF  65E,696
03616:  MOVFF  65D,695
0361A:  MOVFF  65C,694
0361E:  MOVLB  6
03620:  CLRF   x9B
03622:  CLRF   x9A
03624:  MOVLW  20
03626:  MOVWF  x99
03628:  MOVLW  82
0362A:  MOVWF  x98
0362C:  MOVLB  0
0362E:  CALL   13C0
03632:  MOVFF  03,65F
03636:  MOVFF  02,65E
0363A:  MOVFF  01,65D
0363E:  MOVFF  00,65C
....................    Ajustenf=Ajustenf/10; 
03642:  MOVFF  663,697
03646:  MOVFF  662,696
0364A:  MOVFF  661,695
0364E:  MOVFF  660,694
03652:  MOVLB  6
03654:  CLRF   x9B
03656:  CLRF   x9A
03658:  MOVLW  20
0365A:  MOVWF  x99
0365C:  MOVLW  82
0365E:  MOVWF  x98
03660:  MOVLB  0
03662:  CALL   13C0
03666:  MOVFF  03,663
0366A:  MOVFF  02,662
0366E:  MOVFF  01,661
03672:  MOVFF  00,660
....................    Temperature+=(Ajustef-Ajustenf); 
03676:  BSF    FD8.1
03678:  MOVFF  65F,6A2
0367C:  MOVFF  65E,6A1
03680:  MOVFF  65D,6A0
03684:  MOVFF  65C,69F
03688:  MOVFF  663,6A6
0368C:  MOVFF  662,6A5
03690:  MOVFF  661,6A4
03694:  MOVFF  660,6A3
03698:  CALL   151E
0369C:  BCF    FD8.1
0369E:  MOVFF  627,6A2
036A2:  MOVFF  626,6A1
036A6:  MOVFF  625,6A0
036AA:  MOVFF  624,69F
036AE:  MOVFF  03,6A6
036B2:  MOVFF  02,6A5
036B6:  MOVFF  01,6A4
036BA:  MOVFF  00,6A3
036BE:  CALL   151E
036C2:  MOVFF  03,627
036C6:  MOVFF  02,626
036CA:  MOVFF  01,625
036CE:  MOVFF  00,624
....................    //Temperature-=39.0; 
....................     
....................    //return Prom; 
....................    return Temperature; 
036D2:  MOVFF  624,00
036D6:  MOVFF  625,01
036DA:  MOVFF  626,02
036DE:  MOVFF  627,03
.................... } 
036E2:  RETLW  00
....................  
.................... void ControlaNatural(){ 
....................    //if(tiempoApertura>600){ 
....................    //   abrio=0; 
....................    //   tiempoApertura=0; 
....................    //   flag_setpoint=0; 
....................    //} 
....................        
.................... //-------------------------------Control de Calentamiento------------------------------------------------------------//          
....................       if(tiemporecta>=derivativo_ant){ 
*
05DC6:  MOVLB  6
05DC8:  CLRF   xA0
05DCA:  MOVFF  5A6,69F
05DCE:  MOVLB  0
05DD0:  CALL   138A
05DD4:  MOVFF  5F7,696
05DD8:  MOVFF  5F6,695
05DDC:  MOVFF  5F5,694
05DE0:  MOVFF  5F4,693
05DE4:  MOVFF  03,69A
05DE8:  MOVFF  02,699
05DEC:  MOVFF  01,698
05DF0:  MOVFF  00,697
05DF4:  CALL   1FE4
05DF8:  BC    5DFC
05DFA:  BNZ   5E04
....................          ActualizaRecta(); 
05DFC:  CALL   52EE
....................          tiemporecta=0; 
05E00:  MOVLB  5
05E02:  CLRF   xA6
....................       }     
....................       desvio=1.0; 
05E04:  MOVLB  6
05E06:  CLRF   x33
05E08:  CLRF   x32
05E0A:  CLRF   x31
05E0C:  MOVLW  7F
05E0E:  MOVWF  x30
....................       error=desvio+Setpoint-Temperatura;      // Clculo del error ****** 
05E10:  BCF    FD8.1
05E12:  MOVFF  633,6A2
05E16:  MOVFF  632,6A1
05E1A:  MOVFF  631,6A0
05E1E:  MOVFF  630,69F
05E22:  MOVFF  64B,6A6
05E26:  MOVFF  64A,6A5
05E2A:  MOVFF  649,6A4
05E2E:  MOVFF  648,6A3
05E32:  MOVLB  0
05E34:  CALL   151E
05E38:  MOVFF  00,693
05E3C:  MOVFF  01,694
05E40:  MOVFF  02,695
05E44:  MOVFF  03,696
05E48:  BSF    FD8.1
05E4A:  MOVFF  03,6A2
05E4E:  MOVFF  02,6A1
05E52:  MOVFF  01,6A0
05E56:  MOVFF  00,69F
05E5A:  MOVFF  643,6A6
05E5E:  MOVFF  642,6A5
05E62:  MOVFF  641,6A4
05E66:  MOVFF  640,6A3
05E6A:  CALL   151E
05E6E:  MOVFF  03,61F
05E72:  MOVFF  02,61E
05E76:  MOVFF  01,61D
05E7A:  MOVFF  00,61C
....................    
....................       if(error>=15.0 && error<60 && Aumento<=0.5){ 
05E7E:  MOVLB  6
05E80:  CLRF   x96
05E82:  CLRF   x95
05E84:  MOVLW  70
05E86:  MOVWF  x94
05E88:  MOVLW  82
05E8A:  MOVWF  x93
05E8C:  MOVFF  61F,69A
05E90:  MOVFF  61E,699
05E94:  MOVFF  61D,698
05E98:  MOVFF  61C,697
05E9C:  MOVLB  0
05E9E:  CALL   1FE4
05EA2:  BC    5EA8
05EA4:  BTFSS  FD8.2
05EA6:  BRA    60DE
05EA8:  MOVFF  61F,696
05EAC:  MOVFF  61E,695
05EB0:  MOVFF  61D,694
05EB4:  MOVFF  61C,693
05EB8:  MOVLB  6
05EBA:  CLRF   x9A
05EBC:  CLRF   x99
05EBE:  MOVLW  70
05EC0:  MOVWF  x98
05EC2:  MOVLW  84
05EC4:  MOVWF  x97
05EC6:  MOVLB  0
05EC8:  CALL   1FE4
05ECC:  BTFSS  FD8.0
05ECE:  BRA    60DE
05ED0:  MOVFF  63F,696
05ED4:  MOVFF  63E,695
05ED8:  MOVFF  63D,694
05EDC:  MOVFF  63C,693
05EE0:  MOVLB  6
05EE2:  CLRF   x9A
05EE4:  CLRF   x99
05EE6:  CLRF   x98
05EE8:  MOVLW  7E
05EEA:  MOVWF  x97
05EEC:  MOVLB  0
05EEE:  CALL   1FE4
05EF2:  BC    5EF8
05EF4:  BTFSS  FD8.2
05EF6:  BRA    60DE
....................          Derivativo=derivativo_ant*4; 
05EF8:  MOVFF  5F7,6B6
05EFC:  MOVFF  5F6,6B5
05F00:  MOVFF  5F5,6B4
05F04:  MOVFF  5F4,6B3
05F08:  MOVLB  6
05F0A:  CLRF   xBA
05F0C:  CLRF   xB9
05F0E:  CLRF   xB8
05F10:  MOVLW  81
05F12:  MOVWF  xB7
05F14:  MOVLB  0
05F16:  CALL   31BE
05F1A:  MOVFF  03,5F3
05F1E:  MOVFF  02,5F2
05F22:  MOVFF  01,5F1
05F26:  MOVFF  00,5F0
....................          flag_ajuste=0; 
05F2A:  MOVLB  5
05F2C:  BCF    xAC.4
....................          flag_ajuste2=0; 
05F2E:  BCF    xAC.5
....................          Ajusto=10; 
05F30:  MOVLW  0A
05F32:  MOVWF  xAA
....................          if(Potencia<60.0){ 
05F34:  MOVFF  5DB,696
05F38:  MOVFF  5DA,695
05F3C:  MOVFF  5D9,694
05F40:  MOVFF  5D8,693
05F44:  MOVLB  6
05F46:  CLRF   x9A
05F48:  CLRF   x99
05F4A:  MOVLW  70
05F4C:  MOVWF  x98
05F4E:  MOVLW  84
05F50:  MOVWF  x97
05F52:  MOVLB  0
05F54:  CALL   1FE4
05F58:  BTFSS  FD8.0
05F5A:  BRA    60DC
....................             if(TiempoControl>=Derivativo)//80 
05F5C:  MOVFF  5D1,6A0
05F60:  MOVFF  5D0,69F
05F64:  CALL   138A
05F68:  MOVFF  5F3,696
05F6C:  MOVFF  5F2,695
05F70:  MOVFF  5F1,694
05F74:  MOVFF  5F0,693
05F78:  MOVFF  03,69A
05F7C:  MOVFF  02,699
05F80:  MOVFF  01,698
05F84:  MOVFF  00,697
05F88:  CALL   1FE4
05F8C:  BC    5F92
05F8E:  BTFSS  FD8.2
05F90:  BRA    60DC
....................             { 
....................                TiempoControl=0; 
05F92:  MOVLB  5
05F94:  CLRF   xD1
05F96:  CLRF   xD0
....................                if(Aumento<-0.5) 
05F98:  MOVFF  63F,696
05F9C:  MOVFF  63E,695
05FA0:  MOVFF  63D,694
05FA4:  MOVFF  63C,693
05FA8:  MOVLB  6
05FAA:  CLRF   x9A
05FAC:  CLRF   x99
05FAE:  MOVLW  80
05FB0:  MOVWF  x98
05FB2:  MOVLW  7E
05FB4:  MOVWF  x97
05FB6:  MOVLB  0
05FB8:  CALL   1FE4
05FBC:  BNC   5FF6
....................                { 
....................                   Ganancia+=Integral;//2 
05FBE:  BCF    FD8.1
05FC0:  MOVFF  62F,6A2
05FC4:  MOVFF  62E,6A1
05FC8:  MOVFF  62D,6A0
05FCC:  MOVFF  62C,69F
05FD0:  MOVFF  5EF,6A6
05FD4:  MOVFF  5EE,6A5
05FD8:  MOVFF  5ED,6A4
05FDC:  MOVFF  5EC,6A3
05FE0:  CALL   151E
05FE4:  MOVFF  03,62F
05FE8:  MOVFF  02,62E
05FEC:  MOVFF  01,62D
05FF0:  MOVFF  00,62C
....................                } 
....................                else 
05FF4:  BRA    60DC
....................                { 
....................                   if(Aumento<-0.1) 
05FF6:  MOVFF  63F,696
05FFA:  MOVFF  63E,695
05FFE:  MOVFF  63D,694
06002:  MOVFF  63C,693
06006:  MOVLW  CD
06008:  MOVLB  6
0600A:  MOVWF  x9A
0600C:  MOVLW  CC
0600E:  MOVWF  x99
06010:  MOVWF  x98
06012:  MOVLW  7B
06014:  MOVWF  x97
06016:  MOVLB  0
06018:  CALL   1FE4
0601C:  BNC   607E
....................                   { 
....................                      Ganancia+=Integral*0.3;//1 
0601E:  MOVFF  5EF,6B6
06022:  MOVFF  5EE,6B5
06026:  MOVFF  5ED,6B4
0602A:  MOVFF  5EC,6B3
0602E:  MOVLW  9A
06030:  MOVLB  6
06032:  MOVWF  xBA
06034:  MOVLW  99
06036:  MOVWF  xB9
06038:  MOVLW  19
0603A:  MOVWF  xB8
0603C:  MOVLW  7D
0603E:  MOVWF  xB7
06040:  MOVLB  0
06042:  CALL   31BE
06046:  BCF    FD8.1
06048:  MOVFF  62F,6A2
0604C:  MOVFF  62E,6A1
06050:  MOVFF  62D,6A0
06054:  MOVFF  62C,69F
06058:  MOVFF  03,6A6
0605C:  MOVFF  02,6A5
06060:  MOVFF  01,6A4
06064:  MOVFF  00,6A3
06068:  CALL   151E
0606C:  MOVFF  03,62F
06070:  MOVFF  02,62E
06074:  MOVFF  01,62D
06078:  MOVFF  00,62C
....................                   }    
....................                   else 
0607C:  BRA    60DC
....................                   { 
....................                      Ganancia+=Integral*0.1;//0.5 
0607E:  MOVFF  5EF,6B6
06082:  MOVFF  5EE,6B5
06086:  MOVFF  5ED,6B4
0608A:  MOVFF  5EC,6B3
0608E:  MOVLW  CD
06090:  MOVLB  6
06092:  MOVWF  xBA
06094:  MOVLW  CC
06096:  MOVWF  xB9
06098:  MOVLW  4C
0609A:  MOVWF  xB8
0609C:  MOVLW  7B
0609E:  MOVWF  xB7
060A0:  MOVLB  0
060A2:  CALL   31BE
060A6:  BCF    FD8.1
060A8:  MOVFF  62F,6A2
060AC:  MOVFF  62E,6A1
060B0:  MOVFF  62D,6A0
060B4:  MOVFF  62C,69F
060B8:  MOVFF  03,6A6
060BC:  MOVFF  02,6A5
060C0:  MOVFF  01,6A4
060C4:  MOVFF  00,6A3
060C8:  CALL   151E
060CC:  MOVFF  03,62F
060D0:  MOVFF  02,62E
060D4:  MOVFF  01,62D
060D8:  MOVFF  00,62C
....................                   } 
....................                } 
....................             } 
....................          } 
....................       }else if(error>=6.0 && error<15 && Aumento<=0.3){ 
060DC:  BRA    65D0
060DE:  MOVLB  6
060E0:  CLRF   x96
060E2:  CLRF   x95
060E4:  MOVLW  40
060E6:  MOVWF  x94
060E8:  MOVLW  81
060EA:  MOVWF  x93
060EC:  MOVFF  61F,69A
060F0:  MOVFF  61E,699
060F4:  MOVFF  61D,698
060F8:  MOVFF  61C,697
060FC:  MOVLB  0
060FE:  CALL   1FE4
06102:  BC    6108
06104:  BTFSS  FD8.2
06106:  BRA    6346
06108:  MOVFF  61F,696
0610C:  MOVFF  61E,695
06110:  MOVFF  61D,694
06114:  MOVFF  61C,693
06118:  MOVLB  6
0611A:  CLRF   x9A
0611C:  CLRF   x99
0611E:  MOVLW  70
06120:  MOVWF  x98
06122:  MOVLW  82
06124:  MOVWF  x97
06126:  MOVLB  0
06128:  CALL   1FE4
0612C:  BTFSS  FD8.0
0612E:  BRA    6346
06130:  MOVFF  63F,696
06134:  MOVFF  63E,695
06138:  MOVFF  63D,694
0613C:  MOVFF  63C,693
06140:  MOVLW  9A
06142:  MOVLB  6
06144:  MOVWF  x9A
06146:  MOVLW  99
06148:  MOVWF  x99
0614A:  MOVLW  19
0614C:  MOVWF  x98
0614E:  MOVLW  7D
06150:  MOVWF  x97
06152:  MOVLB  0
06154:  CALL   1FE4
06158:  BC    615E
0615A:  BTFSS  FD8.2
0615C:  BRA    6346
....................          Derivativo=derivativo_ant*3; 
0615E:  MOVFF  5F7,6B6
06162:  MOVFF  5F6,6B5
06166:  MOVFF  5F5,6B4
0616A:  MOVFF  5F4,6B3
0616E:  MOVLB  6
06170:  CLRF   xBA
06172:  CLRF   xB9
06174:  MOVLW  40
06176:  MOVWF  xB8
06178:  MOVLW  80
0617A:  MOVWF  xB7
0617C:  MOVLB  0
0617E:  CALL   31BE
06182:  MOVFF  03,5F3
06186:  MOVFF  02,5F2
0618A:  MOVFF  01,5F1
0618E:  MOVFF  00,5F0
....................          flag_ajuste=0; 
06192:  MOVLB  5
06194:  BCF    xAC.4
....................          flag_ajuste2=0; 
06196:  BCF    xAC.5
....................          Ajusto=10; 
06198:  MOVLW  0A
0619A:  MOVWF  xAA
....................          if(Potencia<40.0){ 
0619C:  MOVFF  5DB,696
061A0:  MOVFF  5DA,695
061A4:  MOVFF  5D9,694
061A8:  MOVFF  5D8,693
061AC:  MOVLB  6
061AE:  CLRF   x9A
061B0:  CLRF   x99
061B2:  MOVLW  20
061B4:  MOVWF  x98
061B6:  MOVLW  84
061B8:  MOVWF  x97
061BA:  MOVLB  0
061BC:  CALL   1FE4
061C0:  BTFSS  FD8.0
061C2:  BRA    6344
....................             if(TiempoControl>=Derivativo)//80 
061C4:  MOVFF  5D1,6A0
061C8:  MOVFF  5D0,69F
061CC:  CALL   138A
061D0:  MOVFF  5F3,696
061D4:  MOVFF  5F2,695
061D8:  MOVFF  5F1,694
061DC:  MOVFF  5F0,693
061E0:  MOVFF  03,69A
061E4:  MOVFF  02,699
061E8:  MOVFF  01,698
061EC:  MOVFF  00,697
061F0:  CALL   1FE4
061F4:  BC    61FA
061F6:  BTFSS  FD8.2
061F8:  BRA    6344
....................             { 
....................                TiempoControl=0; 
061FA:  MOVLB  5
061FC:  CLRF   xD1
061FE:  CLRF   xD0
....................                if(Aumento<-0.5) 
06200:  MOVFF  63F,696
06204:  MOVFF  63E,695
06208:  MOVFF  63D,694
0620C:  MOVFF  63C,693
06210:  MOVLB  6
06212:  CLRF   x9A
06214:  CLRF   x99
06216:  MOVLW  80
06218:  MOVWF  x98
0621A:  MOVLW  7E
0621C:  MOVWF  x97
0621E:  MOVLB  0
06220:  CALL   1FE4
06224:  BNC   625E
....................                { 
....................                   Ganancia+=Integral;//2 
06226:  BCF    FD8.1
06228:  MOVFF  62F,6A2
0622C:  MOVFF  62E,6A1
06230:  MOVFF  62D,6A0
06234:  MOVFF  62C,69F
06238:  MOVFF  5EF,6A6
0623C:  MOVFF  5EE,6A5
06240:  MOVFF  5ED,6A4
06244:  MOVFF  5EC,6A3
06248:  CALL   151E
0624C:  MOVFF  03,62F
06250:  MOVFF  02,62E
06254:  MOVFF  01,62D
06258:  MOVFF  00,62C
....................                } 
....................                else 
0625C:  BRA    6344
....................                { 
....................                   if(Aumento<-0.1) 
0625E:  MOVFF  63F,696
06262:  MOVFF  63E,695
06266:  MOVFF  63D,694
0626A:  MOVFF  63C,693
0626E:  MOVLW  CD
06270:  MOVLB  6
06272:  MOVWF  x9A
06274:  MOVLW  CC
06276:  MOVWF  x99
06278:  MOVWF  x98
0627A:  MOVLW  7B
0627C:  MOVWF  x97
0627E:  MOVLB  0
06280:  CALL   1FE4
06284:  BNC   62E6
....................                   { 
....................                      Ganancia+=Integral*0.3;//1 
06286:  MOVFF  5EF,6B6
0628A:  MOVFF  5EE,6B5
0628E:  MOVFF  5ED,6B4
06292:  MOVFF  5EC,6B3
06296:  MOVLW  9A
06298:  MOVLB  6
0629A:  MOVWF  xBA
0629C:  MOVLW  99
0629E:  MOVWF  xB9
062A0:  MOVLW  19
062A2:  MOVWF  xB8
062A4:  MOVLW  7D
062A6:  MOVWF  xB7
062A8:  MOVLB  0
062AA:  CALL   31BE
062AE:  BCF    FD8.1
062B0:  MOVFF  62F,6A2
062B4:  MOVFF  62E,6A1
062B8:  MOVFF  62D,6A0
062BC:  MOVFF  62C,69F
062C0:  MOVFF  03,6A6
062C4:  MOVFF  02,6A5
062C8:  MOVFF  01,6A4
062CC:  MOVFF  00,6A3
062D0:  CALL   151E
062D4:  MOVFF  03,62F
062D8:  MOVFF  02,62E
062DC:  MOVFF  01,62D
062E0:  MOVFF  00,62C
....................                   }    
....................                   else 
062E4:  BRA    6344
....................                   { 
....................                      Ganancia+=Integral*0.1;//0.5 
062E6:  MOVFF  5EF,6B6
062EA:  MOVFF  5EE,6B5
062EE:  MOVFF  5ED,6B4
062F2:  MOVFF  5EC,6B3
062F6:  MOVLW  CD
062F8:  MOVLB  6
062FA:  MOVWF  xBA
062FC:  MOVLW  CC
062FE:  MOVWF  xB9
06300:  MOVLW  4C
06302:  MOVWF  xB8
06304:  MOVLW  7B
06306:  MOVWF  xB7
06308:  MOVLB  0
0630A:  CALL   31BE
0630E:  BCF    FD8.1
06310:  MOVFF  62F,6A2
06314:  MOVFF  62E,6A1
06318:  MOVFF  62D,6A0
0631C:  MOVFF  62C,69F
06320:  MOVFF  03,6A6
06324:  MOVFF  02,6A5
06328:  MOVFF  01,6A4
0632C:  MOVFF  00,6A3
06330:  CALL   151E
06334:  MOVFF  03,62F
06338:  MOVFF  02,62E
0633C:  MOVFF  01,62D
06340:  MOVFF  00,62C
....................                   } 
....................                } 
....................             } 
....................          } 
....................       }else if(error>=desvio+0.5 && error<10 && Aumento<=0.3){ 
06344:  BRA    65D0
06346:  BCF    FD8.1
06348:  MOVFF  633,6A2
0634C:  MOVFF  632,6A1
06350:  MOVFF  631,6A0
06354:  MOVFF  630,69F
06358:  MOVLB  6
0635A:  CLRF   xA6
0635C:  CLRF   xA5
0635E:  CLRF   xA4
06360:  MOVLW  7E
06362:  MOVWF  xA3
06364:  MOVLB  0
06366:  CALL   151E
0636A:  MOVFF  03,696
0636E:  MOVFF  02,695
06372:  MOVFF  01,694
06376:  MOVFF  00,693
0637A:  MOVFF  61F,69A
0637E:  MOVFF  61E,699
06382:  MOVFF  61D,698
06386:  MOVFF  61C,697
0638A:  CALL   1FE4
0638E:  BC    6394
06390:  BTFSS  FD8.2
06392:  BRA    65D0
06394:  MOVFF  61F,696
06398:  MOVFF  61E,695
0639C:  MOVFF  61D,694
063A0:  MOVFF  61C,693
063A4:  MOVLB  6
063A6:  CLRF   x9A
063A8:  CLRF   x99
063AA:  MOVLW  20
063AC:  MOVWF  x98
063AE:  MOVLW  82
063B0:  MOVWF  x97
063B2:  MOVLB  0
063B4:  CALL   1FE4
063B8:  BTFSS  FD8.0
063BA:  BRA    65D0
063BC:  MOVFF  63F,696
063C0:  MOVFF  63E,695
063C4:  MOVFF  63D,694
063C8:  MOVFF  63C,693
063CC:  MOVLW  9A
063CE:  MOVLB  6
063D0:  MOVWF  x9A
063D2:  MOVLW  99
063D4:  MOVWF  x99
063D6:  MOVLW  19
063D8:  MOVWF  x98
063DA:  MOVLW  7D
063DC:  MOVWF  x97
063DE:  MOVLB  0
063E0:  CALL   1FE4
063E4:  BC    63EA
063E6:  BTFSS  FD8.2
063E8:  BRA    65D0
....................          Derivativo=derivativo_ant*3; 
063EA:  MOVFF  5F7,6B6
063EE:  MOVFF  5F6,6B5
063F2:  MOVFF  5F5,6B4
063F6:  MOVFF  5F4,6B3
063FA:  MOVLB  6
063FC:  CLRF   xBA
063FE:  CLRF   xB9
06400:  MOVLW  40
06402:  MOVWF  xB8
06404:  MOVLW  80
06406:  MOVWF  xB7
06408:  MOVLB  0
0640A:  CALL   31BE
0640E:  MOVFF  03,5F3
06412:  MOVFF  02,5F2
06416:  MOVFF  01,5F1
0641A:  MOVFF  00,5F0
....................          flag_ajuste=0; 
0641E:  MOVLB  5
06420:  BCF    xAC.4
....................          flag_ajuste2=0; 
06422:  BCF    xAC.5
....................          Ajusto=10; 
06424:  MOVLW  0A
06426:  MOVWF  xAA
....................          if(Potencia<30.0){ 
06428:  MOVFF  5DB,696
0642C:  MOVFF  5DA,695
06430:  MOVFF  5D9,694
06434:  MOVFF  5D8,693
06438:  MOVLB  6
0643A:  CLRF   x9A
0643C:  CLRF   x99
0643E:  MOVLW  70
06440:  MOVWF  x98
06442:  MOVLW  83
06444:  MOVWF  x97
06446:  MOVLB  0
06448:  CALL   1FE4
0644C:  BTFSS  FD8.0
0644E:  BRA    65D0
....................             if(TiempoControl>=Derivativo)//80 
06450:  MOVFF  5D1,6A0
06454:  MOVFF  5D0,69F
06458:  CALL   138A
0645C:  MOVFF  5F3,696
06460:  MOVFF  5F2,695
06464:  MOVFF  5F1,694
06468:  MOVFF  5F0,693
0646C:  MOVFF  03,69A
06470:  MOVFF  02,699
06474:  MOVFF  01,698
06478:  MOVFF  00,697
0647C:  CALL   1FE4
06480:  BC    6486
06482:  BTFSS  FD8.2
06484:  BRA    65D0
....................                { 
....................                   TiempoControl=0; 
06486:  MOVLB  5
06488:  CLRF   xD1
0648A:  CLRF   xD0
....................                   if(Aumento<-0.5) 
0648C:  MOVFF  63F,696
06490:  MOVFF  63E,695
06494:  MOVFF  63D,694
06498:  MOVFF  63C,693
0649C:  MOVLB  6
0649E:  CLRF   x9A
064A0:  CLRF   x99
064A2:  MOVLW  80
064A4:  MOVWF  x98
064A6:  MOVLW  7E
064A8:  MOVWF  x97
064AA:  MOVLB  0
064AC:  CALL   1FE4
064B0:  BNC   64EA
....................                   { 
....................                      Ganancia+=Integral;//2 
064B2:  BCF    FD8.1
064B4:  MOVFF  62F,6A2
064B8:  MOVFF  62E,6A1
064BC:  MOVFF  62D,6A0
064C0:  MOVFF  62C,69F
064C4:  MOVFF  5EF,6A6
064C8:  MOVFF  5EE,6A5
064CC:  MOVFF  5ED,6A4
064D0:  MOVFF  5EC,6A3
064D4:  CALL   151E
064D8:  MOVFF  03,62F
064DC:  MOVFF  02,62E
064E0:  MOVFF  01,62D
064E4:  MOVFF  00,62C
....................                   } 
....................                   else 
064E8:  BRA    65D0
....................                   { 
....................                      if(Aumento<-0.1) 
064EA:  MOVFF  63F,696
064EE:  MOVFF  63E,695
064F2:  MOVFF  63D,694
064F6:  MOVFF  63C,693
064FA:  MOVLW  CD
064FC:  MOVLB  6
064FE:  MOVWF  x9A
06500:  MOVLW  CC
06502:  MOVWF  x99
06504:  MOVWF  x98
06506:  MOVLW  7B
06508:  MOVWF  x97
0650A:  MOVLB  0
0650C:  CALL   1FE4
06510:  BNC   6572
....................                      { 
....................                         Ganancia+=Integral*0.3;//1 
06512:  MOVFF  5EF,6B6
06516:  MOVFF  5EE,6B5
0651A:  MOVFF  5ED,6B4
0651E:  MOVFF  5EC,6B3
06522:  MOVLW  9A
06524:  MOVLB  6
06526:  MOVWF  xBA
06528:  MOVLW  99
0652A:  MOVWF  xB9
0652C:  MOVLW  19
0652E:  MOVWF  xB8
06530:  MOVLW  7D
06532:  MOVWF  xB7
06534:  MOVLB  0
06536:  CALL   31BE
0653A:  BCF    FD8.1
0653C:  MOVFF  62F,6A2
06540:  MOVFF  62E,6A1
06544:  MOVFF  62D,6A0
06548:  MOVFF  62C,69F
0654C:  MOVFF  03,6A6
06550:  MOVFF  02,6A5
06554:  MOVFF  01,6A4
06558:  MOVFF  00,6A3
0655C:  CALL   151E
06560:  MOVFF  03,62F
06564:  MOVFF  02,62E
06568:  MOVFF  01,62D
0656C:  MOVFF  00,62C
....................                      }    
....................                      else 
06570:  BRA    65D0
....................                      { 
....................                         Ganancia+=Integral*0.1;//0.5 
06572:  MOVFF  5EF,6B6
06576:  MOVFF  5EE,6B5
0657A:  MOVFF  5ED,6B4
0657E:  MOVFF  5EC,6B3
06582:  MOVLW  CD
06584:  MOVLB  6
06586:  MOVWF  xBA
06588:  MOVLW  CC
0658A:  MOVWF  xB9
0658C:  MOVLW  4C
0658E:  MOVWF  xB8
06590:  MOVLW  7B
06592:  MOVWF  xB7
06594:  MOVLB  0
06596:  CALL   31BE
0659A:  BCF    FD8.1
0659C:  MOVFF  62F,6A2
065A0:  MOVFF  62E,6A1
065A4:  MOVFF  62D,6A0
065A8:  MOVFF  62C,69F
065AC:  MOVFF  03,6A6
065B0:  MOVFF  02,6A5
065B4:  MOVFF  01,6A4
065B8:  MOVFF  00,6A3
065BC:  CALL   151E
065C0:  MOVFF  03,62F
065C4:  MOVFF  02,62E
065C8:  MOVFF  01,62D
065CC:  MOVFF  00,62C
....................                      } 
....................                   } 
....................                } 
....................          } 
....................       } 
....................        
....................       if(Ganancia<0.1) 
065D0:  MOVFF  62F,696
065D4:  MOVFF  62E,695
065D8:  MOVFF  62D,694
065DC:  MOVFF  62C,693
065E0:  MOVLW  CD
065E2:  MOVLB  6
065E4:  MOVWF  x9A
065E6:  MOVLW  CC
065E8:  MOVWF  x99
065EA:  MOVLW  4C
065EC:  MOVWF  x98
065EE:  MOVLW  7B
065F0:  MOVWF  x97
065F2:  MOVLB  0
065F4:  CALL   1FE4
065F8:  BNC   660E
....................          Ganancia=0.1; 
065FA:  MOVLW  CD
065FC:  MOVLB  6
065FE:  MOVWF  x2F
06600:  MOVLW  CC
06602:  MOVWF  x2E
06604:  MOVLW  4C
06606:  MOVWF  x2D
06608:  MOVLW  7B
0660A:  MOVWF  x2C
0660C:  MOVLB  0
....................        
....................       if(Ganancia>Gananciamax) 
0660E:  MOVFF  5E3,696
06612:  MOVFF  5E2,695
06616:  MOVFF  5E1,694
0661A:  MOVFF  5E0,693
0661E:  MOVFF  62F,69A
06622:  MOVFF  62E,699
06626:  MOVFF  62D,698
0662A:  MOVFF  62C,697
0662E:  CALL   1FE4
06632:  BNC   6644
....................          Ganancia=Gananciamax; 
06634:  MOVFF  5E3,62F
06638:  MOVFF  5E2,62E
0663C:  MOVFF  5E1,62D
06640:  MOVFF  5E0,62C
....................     
....................       if(error<0.0)     // Anti Wind_DOWN     
06644:  MOVFF  61F,696
06648:  MOVFF  61E,695
0664C:  MOVFF  61D,694
06650:  MOVFF  61C,693
06654:  MOVLB  6
06656:  CLRF   x9A
06658:  CLRF   x99
0665A:  CLRF   x98
0665C:  CLRF   x97
0665E:  MOVLB  0
06660:  CALL   1FE4
06664:  BNC   6674
....................          tmp=0; 
06666:  MOVLB  6
06668:  CLRF   x2B
0666A:  CLRF   x2A
0666C:  CLRF   x29
0666E:  CLRF   x28
....................       else 
06670:  BRA    66A8
06672:  MOVLB  0
....................          tmp=error*Ganancia;  // Control Proporcional. 
06674:  MOVFF  61F,6B6
06678:  MOVFF  61E,6B5
0667C:  MOVFF  61D,6B4
06680:  MOVFF  61C,6B3
06684:  MOVFF  62F,6BA
06688:  MOVFF  62E,6B9
0668C:  MOVFF  62D,6B8
06690:  MOVFF  62C,6B7
06694:  CALL   31BE
06698:  MOVFF  03,62B
0669C:  MOVFF  02,62A
066A0:  MOVFF  01,629
066A4:  MOVFF  00,628
....................        
....................       //tmp=(Setpoint-Prom)*Ganancia;  // Control Proporcional. 
....................              
....................       if(tmp>Setpoint)   // Anti Wind-UP       
066A8:  MOVFF  64B,696
066AC:  MOVFF  64A,695
066B0:  MOVFF  649,694
066B4:  MOVFF  648,693
066B8:  MOVFF  62B,69A
066BC:  MOVFF  62A,699
066C0:  MOVFF  629,698
066C4:  MOVFF  628,697
066C8:  MOVLB  0
066CA:  CALL   1FE4
066CE:  BNC   66E0
....................          tmp=Setpoint; 
066D0:  MOVFF  64B,62B
066D4:  MOVFF  64A,62A
066D8:  MOVFF  649,629
066DC:  MOVFF  648,628
....................                    
....................       if(tmp<0.0)     // Anti Wind_DOWN     
066E0:  MOVFF  62B,696
066E4:  MOVFF  62A,695
066E8:  MOVFF  629,694
066EC:  MOVFF  628,693
066F0:  MOVLB  6
066F2:  CLRF   x9A
066F4:  CLRF   x99
066F6:  CLRF   x98
066F8:  CLRF   x97
066FA:  MOVLB  0
066FC:  CALL   1FE4
06700:  BNC   670E
....................          tmp=0.0; 
06702:  MOVLB  6
06704:  CLRF   x2B
06706:  CLRF   x2A
06708:  CLRF   x29
0670A:  CLRF   x28
0670C:  MOVLB  0
....................     
....................       Tpulso=(tmp/Setpoint)*Tciclo; 
0670E:  MOVFF  62B,697
06712:  MOVFF  62A,696
06716:  MOVFF  629,695
0671A:  MOVFF  628,694
0671E:  MOVFF  64B,69B
06722:  MOVFF  64A,69A
06726:  MOVFF  649,699
0672A:  MOVFF  648,698
0672E:  CALL   13C0
06732:  MOVFF  00,693
06736:  MOVFF  01,694
0673A:  MOVFF  02,695
0673E:  MOVFF  03,696
06742:  MOVFF  03,6B6
06746:  MOVFF  02,6B5
0674A:  MOVFF  01,6B4
0674E:  MOVFF  00,6B3
06752:  MOVFF  617,6BA
06756:  MOVFF  616,6B9
0675A:  MOVFF  615,6B8
0675E:  MOVFF  614,6B7
06762:  CALL   31BE
06766:  MOVFF  03,61B
0676A:  MOVFF  02,61A
0676E:  MOVFF  01,619
06772:  MOVFF  00,618
....................        
....................       //if(Tpulso<Tpulsomin && flag_setpoint){ 
....................       //   Tpulso=Tpulsomin; 
....................       //} 
....................        
....................       if(error<desvio+0.5 && error>0){ 
06776:  BCF    FD8.1
06778:  MOVFF  633,6A2
0677C:  MOVFF  632,6A1
06780:  MOVFF  631,6A0
06784:  MOVFF  630,69F
06788:  MOVLB  6
0678A:  CLRF   xA6
0678C:  CLRF   xA5
0678E:  CLRF   xA4
06790:  MOVLW  7E
06792:  MOVWF  xA3
06794:  MOVLB  0
06796:  CALL   151E
0679A:  MOVFF  61F,696
0679E:  MOVFF  61E,695
067A2:  MOVFF  61D,694
067A6:  MOVFF  61C,693
067AA:  MOVFF  03,69A
067AE:  MOVFF  02,699
067B2:  MOVFF  01,698
067B6:  MOVFF  00,697
067BA:  CALL   1FE4
067BE:  BTFSS  FD8.0
067C0:  BRA    697E
067C2:  MOVLB  6
067C4:  CLRF   x96
067C6:  CLRF   x95
067C8:  CLRF   x94
067CA:  CLRF   x93
067CC:  MOVFF  61F,69A
067D0:  MOVFF  61E,699
067D4:  MOVFF  61D,698
067D8:  MOVFF  61C,697
067DC:  MOVLB  0
067DE:  CALL   1FE4
067E2:  BTFSS  FD8.0
067E4:  BRA    697E
....................          if(error<=desvio+0.5 && error>0){    
067E6:  BCF    FD8.1
067E8:  MOVFF  633,6A2
067EC:  MOVFF  632,6A1
067F0:  MOVFF  631,6A0
067F4:  MOVFF  630,69F
067F8:  MOVLB  6
067FA:  CLRF   xA6
067FC:  CLRF   xA5
067FE:  CLRF   xA4
06800:  MOVLW  7E
06802:  MOVWF  xA3
06804:  MOVLB  0
06806:  CALL   151E
0680A:  MOVFF  61F,696
0680E:  MOVFF  61E,695
06812:  MOVFF  61D,694
06816:  MOVFF  61C,693
0681A:  MOVFF  03,69A
0681E:  MOVFF  02,699
06822:  MOVFF  01,698
06826:  MOVFF  00,697
0682A:  CALL   1FE4
0682E:  BC    6832
06830:  BNZ   6872
06832:  MOVLB  6
06834:  CLRF   x96
06836:  CLRF   x95
06838:  CLRF   x94
0683A:  CLRF   x93
0683C:  MOVFF  61F,69A
06840:  MOVFF  61E,699
06844:  MOVFF  61D,698
06848:  MOVFF  61C,697
0684C:  MOVLB  0
0684E:  CALL   1FE4
06852:  BNC   6872
....................             if(flag_ajuste==0){ 
06854:  MOVLB  5
06856:  BTFSC  xAC.4
06858:  BRA    6870
....................                TpulsoMax=Tpulso; 
0685A:  MOVFF  61B,647
0685E:  MOVFF  61A,646
06862:  MOVFF  619,645
06866:  MOVFF  618,644
....................                flag_ajuste=1;   
0686A:  BSF    xAC.4
....................                Ajusto=5; 
0686C:  MOVLW  05
0686E:  MOVWF  xAA
06870:  MOVLB  0
....................             } 
....................          } 
....................           
....................          if(error<=desvio-0.3 && error>0){    
06872:  BSF    FD8.1
06874:  MOVFF  633,6A2
06878:  MOVFF  632,6A1
0687C:  MOVFF  631,6A0
06880:  MOVFF  630,69F
06884:  MOVLW  9A
06886:  MOVLB  6
06888:  MOVWF  xA6
0688A:  MOVLW  99
0688C:  MOVWF  xA5
0688E:  MOVLW  19
06890:  MOVWF  xA4
06892:  MOVLW  7D
06894:  MOVWF  xA3
06896:  MOVLB  0
06898:  CALL   151E
0689C:  MOVFF  61F,696
068A0:  MOVFF  61E,695
068A4:  MOVFF  61D,694
068A8:  MOVFF  61C,693
068AC:  MOVFF  03,69A
068B0:  MOVFF  02,699
068B4:  MOVFF  01,698
068B8:  MOVFF  00,697
068BC:  CALL   1FE4
068C0:  BC    68C4
068C2:  BNZ   6902
068C4:  MOVLB  6
068C6:  CLRF   x96
068C8:  CLRF   x95
068CA:  CLRF   x94
068CC:  CLRF   x93
068CE:  MOVFF  61F,69A
068D2:  MOVFF  61E,699
068D6:  MOVFF  61D,698
068DA:  MOVFF  61C,697
068DE:  MOVLB  0
068E0:  CALL   1FE4
068E4:  BNC   6902
....................             if(flag_ajuste2==0){ 
068E6:  MOVLB  5
068E8:  BTFSC  xAC.5
068EA:  BRA    6902
....................                Tpulsomin=Tpulso; 
068EC:  MOVFF  61B,5DF
068F0:  MOVFF  61A,5DE
068F4:  MOVFF  619,5DD
068F8:  MOVFF  618,5DC
....................                flag_ajuste2=1;            
068FC:  BSF    xAC.5
....................                Ajusto=5; 
068FE:  MOVLW  05
06900:  MOVWF  xAA
....................             } 
....................          } 
....................           
....................          if(flag_ajuste2==1){ 
06902:  MOVLB  5
06904:  BTFSS  xAC.5
06906:  BRA    6942
....................             if(Tpulso<Tpulsomin){ 
06908:  MOVFF  61B,696
0690C:  MOVFF  61A,695
06910:  MOVFF  619,694
06914:  MOVFF  618,693
06918:  MOVFF  5DF,69A
0691C:  MOVFF  5DE,699
06920:  MOVFF  5DD,698
06924:  MOVFF  5DC,697
06928:  MOVLB  0
0692A:  CALL   1FE4
0692E:  BNC   6940
....................                Tpulso=Tpulsomin; 
06930:  MOVFF  5DF,61B
06934:  MOVFF  5DE,61A
06938:  MOVFF  5DD,619
0693C:  MOVFF  5DC,618
06940:  MOVLB  5
....................             } 
....................          } 
....................          if(flag_ajuste==1){    
06942:  BTFSS  xAC.4
06944:  BRA    6980
....................             if(Tpulso>TpulsoMax){ 
06946:  MOVFF  647,696
0694A:  MOVFF  646,695
0694E:  MOVFF  645,694
06952:  MOVFF  644,693
06956:  MOVFF  61B,69A
0695A:  MOVFF  61A,699
0695E:  MOVFF  619,698
06962:  MOVFF  618,697
06966:  MOVLB  0
06968:  CALL   1FE4
0696C:  BNC   697E
....................                Tpulso=TpulsoMax; 
0696E:  MOVFF  647,61B
06972:  MOVFF  646,61A
06976:  MOVFF  645,619
0697A:  MOVFF  644,618
0697E:  MOVLB  5
....................             }  
....................          } 
....................       } 
....................        
....................       if(error<desvio-0.4 && error>0){ 
06980:  BSF    FD8.1
06982:  MOVFF  633,6A2
06986:  MOVFF  632,6A1
0698A:  MOVFF  631,6A0
0698E:  MOVFF  630,69F
06992:  MOVLW  CD
06994:  MOVLB  6
06996:  MOVWF  xA6
06998:  MOVLW  CC
0699A:  MOVWF  xA5
0699C:  MOVLW  4C
0699E:  MOVWF  xA4
069A0:  MOVLW  7D
069A2:  MOVWF  xA3
069A4:  MOVLB  0
069A6:  CALL   151E
069AA:  MOVFF  61F,696
069AE:  MOVFF  61E,695
069B2:  MOVFF  61D,694
069B6:  MOVFF  61C,693
069BA:  MOVFF  03,69A
069BE:  MOVFF  02,699
069C2:  MOVFF  01,698
069C6:  MOVFF  00,697
069CA:  CALL   1FE4
069CE:  BNC   6A7E
069D0:  MOVLB  6
069D2:  CLRF   x96
069D4:  CLRF   x95
069D6:  CLRF   x94
069D8:  CLRF   x93
069DA:  MOVFF  61F,69A
069DE:  MOVFF  61E,699
069E2:  MOVFF  61D,698
069E6:  MOVFF  61C,697
069EA:  MOVLB  0
069EC:  CALL   1FE4
069F0:  BNC   6A7E
....................          sobrepaso=1; 
069F2:  MOVLB  5
069F4:  BSF    xAD.7
....................          Tpulso=Tpulsomin/2; 
069F6:  MOVFF  5DF,697
069FA:  MOVFF  5DE,696
069FE:  MOVFF  5DD,695
06A02:  MOVFF  5DC,694
06A06:  MOVLB  6
06A08:  CLRF   x9B
06A0A:  CLRF   x9A
06A0C:  CLRF   x99
06A0E:  MOVLW  80
06A10:  MOVWF  x98
06A12:  MOVLB  0
06A14:  CALL   13C0
06A18:  MOVFF  03,61B
06A1C:  MOVFF  02,61A
06A20:  MOVFF  01,619
06A24:  MOVFF  00,618
....................          if(tSobrepaso>300){ 
06A28:  MOVLB  5
06A2A:  MOVF   xD5,W
06A2C:  SUBLW  00
06A2E:  BC    6A7A
06A30:  XORLW  FF
06A32:  BNZ   6A3A
06A34:  MOVF   xD4,W
06A36:  SUBLW  2C
06A38:  BC    6A7A
....................             Tpulsomin-=0.1; 
06A3A:  BSF    FD8.1
06A3C:  MOVFF  5DF,6A2
06A40:  MOVFF  5DE,6A1
06A44:  MOVFF  5DD,6A0
06A48:  MOVFF  5DC,69F
06A4C:  MOVLW  CD
06A4E:  MOVLB  6
06A50:  MOVWF  xA6
06A52:  MOVLW  CC
06A54:  MOVWF  xA5
06A56:  MOVLW  4C
06A58:  MOVWF  xA4
06A5A:  MOVLW  7B
06A5C:  MOVWF  xA3
06A5E:  MOVLB  0
06A60:  CALL   151E
06A64:  MOVFF  03,5DF
06A68:  MOVFF  02,5DE
06A6C:  MOVFF  01,5DD
06A70:  MOVFF  00,5DC
....................             tSobrepaso=0; 
06A74:  MOVLB  5
06A76:  CLRF   xD5
06A78:  CLRF   xD4
....................          } 
....................       }else{ 
06A7A:  BRA    6A86
06A7C:  MOVLB  0
....................          sobrepaso=0; 
06A7E:  MOVLB  5
06A80:  BCF    xAD.7
....................          tSobrepaso=0; 
06A82:  CLRF   xD5
06A84:  CLRF   xD4
....................       } 
....................        
....................       if(Tpulso<0)Tpulso=0; 
06A86:  MOVFF  61B,696
06A8A:  MOVFF  61A,695
06A8E:  MOVFF  619,694
06A92:  MOVFF  618,693
06A96:  MOVLB  6
06A98:  CLRF   x9A
06A9A:  CLRF   x99
06A9C:  CLRF   x98
06A9E:  CLRF   x97
06AA0:  MOVLB  0
06AA2:  CALL   1FE4
06AA6:  BNC   6AB4
06AA8:  MOVLB  6
06AAA:  CLRF   x1B
06AAC:  CLRF   x1A
06AAE:  CLRF   x19
06AB0:  CLRF   x18
06AB2:  MOVLB  0
....................       if(Tpulso>Tciclo)Tpulso=0; 
06AB4:  MOVFF  617,696
06AB8:  MOVFF  616,695
06ABC:  MOVFF  615,694
06AC0:  MOVFF  614,693
06AC4:  MOVFF  61B,69A
06AC8:  MOVFF  61A,699
06ACC:  MOVFF  619,698
06AD0:  MOVFF  618,697
06AD4:  CALL   1FE4
06AD8:  BNC   6AE4
06ADA:  MOVLB  6
06ADC:  CLRF   x1B
06ADE:  CLRF   x1A
06AE0:  CLRF   x19
06AE2:  CLRF   x18
....................        
....................       Tp=(Tpulso/0.005); 
06AE4:  MOVFF  61B,697
06AE8:  MOVFF  61A,696
06AEC:  MOVFF  619,695
06AF0:  MOVFF  618,694
06AF4:  MOVLW  0A
06AF6:  MOVLB  6
06AF8:  MOVWF  x9B
06AFA:  MOVLW  D7
06AFC:  MOVWF  x9A
06AFE:  MOVLW  23
06B00:  MOVWF  x99
06B02:  MOVLW  77
06B04:  MOVWF  x98
06B06:  MOVLB  0
06B08:  CALL   13C0
06B0C:  MOVFF  03,6A2
06B10:  MOVFF  02,6A1
06B14:  MOVFF  01,6A0
06B18:  MOVFF  00,69F
06B1C:  CALL   3854
06B20:  MOVFF  02,5CD
06B24:  MOVFF  01,5CC
....................       Tc=(Tciclo/0.005); 
06B28:  MOVFF  617,697
06B2C:  MOVFF  616,696
06B30:  MOVFF  615,695
06B34:  MOVFF  614,694
06B38:  MOVLW  0A
06B3A:  MOVLB  6
06B3C:  MOVWF  x9B
06B3E:  MOVLW  D7
06B40:  MOVWF  x9A
06B42:  MOVLW  23
06B44:  MOVWF  x99
06B46:  MOVLW  77
06B48:  MOVWF  x98
06B4A:  MOVLB  0
06B4C:  CALL   13C0
06B50:  MOVFF  03,6A2
06B54:  MOVFF  02,6A1
06B58:  MOVFF  01,6A0
06B5C:  MOVFF  00,69F
06B60:  CALL   3854
06B64:  MOVFF  02,5CF
06B68:  MOVFF  01,5CE
....................        
....................       Controlando=1;      
06B6C:  MOVLW  01
06B6E:  MOVLB  5
06B70:  MOVWF  xA9
....................     
.................... //--------------------------------------------------------------------------------------------------------------------//      
.................... } 
06B72:  MOVLB  0
06B74:  RETLW  00
....................  
.................... void ControlaForzada(){ 
....................       Derivativo=derivativo_ant; 
*
0535A:  MOVFF  5F7,5F3
0535E:  MOVFF  5F6,5F2
05362:  MOVFF  5F5,5F1
05366:  MOVFF  5F4,5F0
....................        
.................... //-------------------------------Control de Calentamiento------------------------------------------------------------// 
....................       if(tiemporecta>=(Derivativo)){ 
0536A:  MOVLB  6
0536C:  CLRF   xA0
0536E:  MOVFF  5A6,69F
05372:  MOVLB  0
05374:  CALL   138A
05378:  MOVFF  5F3,696
0537C:  MOVFF  5F2,695
05380:  MOVFF  5F1,694
05384:  MOVFF  5F0,693
05388:  MOVFF  03,69A
0538C:  MOVFF  02,699
05390:  MOVFF  01,698
05394:  MOVFF  00,697
05398:  CALL   1FE4
0539C:  BC    53A0
0539E:  BNZ   53A6
....................          ActualizaRecta(); 
053A0:  RCALL  52EE
....................          tiemporecta=0; 
053A2:  MOVLB  5
053A4:  CLRF   xA6
....................       }     
....................  
....................       desvio=0.5; 
053A6:  MOVLB  6
053A8:  CLRF   x33
053AA:  CLRF   x32
053AC:  CLRF   x31
053AE:  MOVLW  7E
053B0:  MOVWF  x30
....................       error=desvio+Setpoint-Temperatura;      // Clculo del error ****** 
053B2:  BCF    FD8.1
053B4:  MOVFF  633,6A2
053B8:  MOVFF  632,6A1
053BC:  MOVFF  631,6A0
053C0:  MOVFF  630,69F
053C4:  MOVFF  64B,6A6
053C8:  MOVFF  64A,6A5
053CC:  MOVFF  649,6A4
053D0:  MOVFF  648,6A3
053D4:  MOVLB  0
053D6:  CALL   151E
053DA:  MOVFF  00,693
053DE:  MOVFF  01,694
053E2:  MOVFF  02,695
053E6:  MOVFF  03,696
053EA:  BSF    FD8.1
053EC:  MOVFF  03,6A2
053F0:  MOVFF  02,6A1
053F4:  MOVFF  01,6A0
053F8:  MOVFF  00,69F
053FC:  MOVFF  643,6A6
05400:  MOVFF  642,6A5
05404:  MOVFF  641,6A4
05408:  MOVFF  640,6A3
0540C:  CALL   151E
05410:  MOVFF  03,61F
05414:  MOVFF  02,61E
05418:  MOVFF  01,61D
0541C:  MOVFF  00,61C
....................    
....................       if(error>=15.0 && error<60 && Aumento<=0.5){ 
05420:  MOVLB  6
05422:  CLRF   x96
05424:  CLRF   x95
05426:  MOVLW  70
05428:  MOVWF  x94
0542A:  MOVLW  82
0542C:  MOVWF  x93
0542E:  MOVFF  61F,69A
05432:  MOVFF  61E,699
05436:  MOVFF  61D,698
0543A:  MOVFF  61C,697
0543E:  MOVLB  0
05440:  CALL   1FE4
05444:  BC    544A
05446:  BTFSS  FD8.2
05448:  BRA    5678
0544A:  MOVFF  61F,696
0544E:  MOVFF  61E,695
05452:  MOVFF  61D,694
05456:  MOVFF  61C,693
0545A:  MOVLB  6
0545C:  CLRF   x9A
0545E:  CLRF   x99
05460:  MOVLW  70
05462:  MOVWF  x98
05464:  MOVLW  84
05466:  MOVWF  x97
05468:  MOVLB  0
0546A:  CALL   1FE4
0546E:  BTFSS  FD8.0
05470:  BRA    5678
05472:  MOVFF  63F,696
05476:  MOVFF  63E,695
0547A:  MOVFF  63D,694
0547E:  MOVFF  63C,693
05482:  MOVLB  6
05484:  CLRF   x9A
05486:  CLRF   x99
05488:  CLRF   x98
0548A:  MOVLW  7E
0548C:  MOVWF  x97
0548E:  MOVLB  0
05490:  CALL   1FE4
05494:  BC    549A
05496:  BTFSS  FD8.2
05498:  BRA    5678
....................          Derivativo=derivativo_ant*2; 
0549A:  MOVFF  5F7,6B6
0549E:  MOVFF  5F6,6B5
054A2:  MOVFF  5F5,6B4
054A6:  MOVFF  5F4,6B3
054AA:  MOVLB  6
054AC:  CLRF   xBA
054AE:  CLRF   xB9
054B0:  CLRF   xB8
054B2:  MOVLW  80
054B4:  MOVWF  xB7
054B6:  MOVLB  0
054B8:  CALL   31BE
054BC:  MOVFF  03,5F3
054C0:  MOVFF  02,5F2
054C4:  MOVFF  01,5F1
054C8:  MOVFF  00,5F0
....................          flag_ajuste=0; 
054CC:  MOVLB  5
054CE:  BCF    xAC.4
....................          flag_ajuste2=0; 
054D0:  BCF    xAC.5
....................          Ajusto=10; 
054D2:  MOVLW  0A
054D4:  MOVWF  xAA
....................          if(Potencia<50.0){ 
054D6:  MOVFF  5DB,696
054DA:  MOVFF  5DA,695
054DE:  MOVFF  5D9,694
054E2:  MOVFF  5D8,693
054E6:  MOVLB  6
054E8:  CLRF   x9A
054EA:  CLRF   x99
054EC:  MOVLW  48
054EE:  MOVWF  x98
054F0:  MOVLW  84
054F2:  MOVWF  x97
054F4:  MOVLB  0
054F6:  CALL   1FE4
054FA:  BTFSS  FD8.0
054FC:  BRA    5676
....................             if(TiempoControl>=Derivativo)//80 
054FE:  MOVFF  5D1,6A0
05502:  MOVFF  5D0,69F
05506:  CALL   138A
0550A:  MOVFF  5F3,696
0550E:  MOVFF  5F2,695
05512:  MOVFF  5F1,694
05516:  MOVFF  5F0,693
0551A:  MOVFF  03,69A
0551E:  MOVFF  02,699
05522:  MOVFF  01,698
05526:  MOVFF  00,697
0552A:  CALL   1FE4
0552E:  BC    5534
05530:  BTFSS  FD8.2
05532:  BRA    5676
....................             { 
....................                TiempoControl=0; 
05534:  MOVLB  5
05536:  CLRF   xD1
05538:  CLRF   xD0
....................                if(Aumento<-0.5) 
0553A:  MOVFF  63F,696
0553E:  MOVFF  63E,695
05542:  MOVFF  63D,694
05546:  MOVFF  63C,693
0554A:  MOVLB  6
0554C:  CLRF   x9A
0554E:  CLRF   x99
05550:  MOVLW  80
05552:  MOVWF  x98
05554:  MOVLW  7E
05556:  MOVWF  x97
05558:  MOVLB  0
0555A:  CALL   1FE4
0555E:  BNC   55BC
....................                { 
....................                   Ganancia+=Integral+1;//2 
05560:  BCF    FD8.1
05562:  MOVFF  5EF,6A2
05566:  MOVFF  5EE,6A1
0556A:  MOVFF  5ED,6A0
0556E:  MOVFF  5EC,69F
05572:  MOVLB  6
05574:  CLRF   xA6
05576:  CLRF   xA5
05578:  CLRF   xA4
0557A:  MOVLW  7F
0557C:  MOVWF  xA3
0557E:  MOVLB  0
05580:  CALL   151E
05584:  BCF    FD8.1
05586:  MOVFF  62F,6A2
0558A:  MOVFF  62E,6A1
0558E:  MOVFF  62D,6A0
05592:  MOVFF  62C,69F
05596:  MOVFF  03,6A6
0559A:  MOVFF  02,6A5
0559E:  MOVFF  01,6A4
055A2:  MOVFF  00,6A3
055A6:  CALL   151E
055AA:  MOVFF  03,62F
055AE:  MOVFF  02,62E
055B2:  MOVFF  01,62D
055B6:  MOVFF  00,62C
....................                } 
....................                else 
055BA:  BRA    5676
....................                { 
....................                   if(Aumento<-0.1) 
055BC:  MOVFF  63F,696
055C0:  MOVFF  63E,695
055C4:  MOVFF  63D,694
055C8:  MOVFF  63C,693
055CC:  MOVLW  CD
055CE:  MOVLB  6
055D0:  MOVWF  x9A
055D2:  MOVLW  CC
055D4:  MOVWF  x99
055D6:  MOVWF  x98
055D8:  MOVLW  7B
055DA:  MOVWF  x97
055DC:  MOVLB  0
055DE:  CALL   1FE4
055E2:  BNC   561C
....................                   { 
....................                      Ganancia+=Integral;//1 
055E4:  BCF    FD8.1
055E6:  MOVFF  62F,6A2
055EA:  MOVFF  62E,6A1
055EE:  MOVFF  62D,6A0
055F2:  MOVFF  62C,69F
055F6:  MOVFF  5EF,6A6
055FA:  MOVFF  5EE,6A5
055FE:  MOVFF  5ED,6A4
05602:  MOVFF  5EC,6A3
05606:  CALL   151E
0560A:  MOVFF  03,62F
0560E:  MOVFF  02,62E
05612:  MOVFF  01,62D
05616:  MOVFF  00,62C
....................                   }    
....................                   else 
0561A:  BRA    5676
....................                   { 
....................                      Ganancia+=Integral-0.5;//0.5 
0561C:  BSF    FD8.1
0561E:  MOVFF  5EF,6A2
05622:  MOVFF  5EE,6A1
05626:  MOVFF  5ED,6A0
0562A:  MOVFF  5EC,69F
0562E:  MOVLB  6
05630:  CLRF   xA6
05632:  CLRF   xA5
05634:  CLRF   xA4
05636:  MOVLW  7E
05638:  MOVWF  xA3
0563A:  MOVLB  0
0563C:  CALL   151E
05640:  BCF    FD8.1
05642:  MOVFF  62F,6A2
05646:  MOVFF  62E,6A1
0564A:  MOVFF  62D,6A0
0564E:  MOVFF  62C,69F
05652:  MOVFF  03,6A6
05656:  MOVFF  02,6A5
0565A:  MOVFF  01,6A4
0565E:  MOVFF  00,6A3
05662:  CALL   151E
05666:  MOVFF  03,62F
0566A:  MOVFF  02,62E
0566E:  MOVFF  01,62D
05672:  MOVFF  00,62C
....................                   } 
....................                } 
....................             } 
....................          } 
....................       }else if(error>=6.0 && error<15 && Aumento<=0.3){ 
05676:  BRA    5B30
05678:  MOVLB  6
0567A:  CLRF   x96
0567C:  CLRF   x95
0567E:  MOVLW  40
05680:  MOVWF  x94
05682:  MOVLW  81
05684:  MOVWF  x93
05686:  MOVFF  61F,69A
0568A:  MOVFF  61E,699
0568E:  MOVFF  61D,698
05692:  MOVFF  61C,697
05696:  MOVLB  0
05698:  CALL   1FE4
0569C:  BC    56A2
0569E:  BTFSS  FD8.2
056A0:  BRA    58D6
056A2:  MOVFF  61F,696
056A6:  MOVFF  61E,695
056AA:  MOVFF  61D,694
056AE:  MOVFF  61C,693
056B2:  MOVLB  6
056B4:  CLRF   x9A
056B6:  CLRF   x99
056B8:  MOVLW  70
056BA:  MOVWF  x98
056BC:  MOVLW  82
056BE:  MOVWF  x97
056C0:  MOVLB  0
056C2:  CALL   1FE4
056C6:  BTFSS  FD8.0
056C8:  BRA    58D6
056CA:  MOVFF  63F,696
056CE:  MOVFF  63E,695
056D2:  MOVFF  63D,694
056D6:  MOVFF  63C,693
056DA:  MOVLW  9A
056DC:  MOVLB  6
056DE:  MOVWF  x9A
056E0:  MOVLW  99
056E2:  MOVWF  x99
056E4:  MOVLW  19
056E6:  MOVWF  x98
056E8:  MOVLW  7D
056EA:  MOVWF  x97
056EC:  MOVLB  0
056EE:  CALL   1FE4
056F2:  BC    56F8
056F4:  BTFSS  FD8.2
056F6:  BRA    58D6
....................          Derivativo=derivativo_ant*2; 
056F8:  MOVFF  5F7,6B6
056FC:  MOVFF  5F6,6B5
05700:  MOVFF  5F5,6B4
05704:  MOVFF  5F4,6B3
05708:  MOVLB  6
0570A:  CLRF   xBA
0570C:  CLRF   xB9
0570E:  CLRF   xB8
05710:  MOVLW  80
05712:  MOVWF  xB7
05714:  MOVLB  0
05716:  CALL   31BE
0571A:  MOVFF  03,5F3
0571E:  MOVFF  02,5F2
05722:  MOVFF  01,5F1
05726:  MOVFF  00,5F0
....................          flag_ajuste=0; 
0572A:  MOVLB  5
0572C:  BCF    xAC.4
....................          flag_ajuste2=0; 
0572E:  BCF    xAC.5
....................          Ajusto=10; 
05730:  MOVLW  0A
05732:  MOVWF  xAA
....................          if(Potencia<40.0){ 
05734:  MOVFF  5DB,696
05738:  MOVFF  5DA,695
0573C:  MOVFF  5D9,694
05740:  MOVFF  5D8,693
05744:  MOVLB  6
05746:  CLRF   x9A
05748:  CLRF   x99
0574A:  MOVLW  20
0574C:  MOVWF  x98
0574E:  MOVLW  84
05750:  MOVWF  x97
05752:  MOVLB  0
05754:  CALL   1FE4
05758:  BTFSS  FD8.0
0575A:  BRA    58D4
....................             if(TiempoControl>=Derivativo)//80 
0575C:  MOVFF  5D1,6A0
05760:  MOVFF  5D0,69F
05764:  CALL   138A
05768:  MOVFF  5F3,696
0576C:  MOVFF  5F2,695
05770:  MOVFF  5F1,694
05774:  MOVFF  5F0,693
05778:  MOVFF  03,69A
0577C:  MOVFF  02,699
05780:  MOVFF  01,698
05784:  MOVFF  00,697
05788:  CALL   1FE4
0578C:  BC    5792
0578E:  BTFSS  FD8.2
05790:  BRA    58D4
....................             { 
....................                TiempoControl=0; 
05792:  MOVLB  5
05794:  CLRF   xD1
05796:  CLRF   xD0
....................                if(Aumento<-0.5) 
05798:  MOVFF  63F,696
0579C:  MOVFF  63E,695
057A0:  MOVFF  63D,694
057A4:  MOVFF  63C,693
057A8:  MOVLB  6
057AA:  CLRF   x9A
057AC:  CLRF   x99
057AE:  MOVLW  80
057B0:  MOVWF  x98
057B2:  MOVLW  7E
057B4:  MOVWF  x97
057B6:  MOVLB  0
057B8:  CALL   1FE4
057BC:  BNC   581A
....................                { 
....................                   Ganancia+=Integral+1;//2 
057BE:  BCF    FD8.1
057C0:  MOVFF  5EF,6A2
057C4:  MOVFF  5EE,6A1
057C8:  MOVFF  5ED,6A0
057CC:  MOVFF  5EC,69F
057D0:  MOVLB  6
057D2:  CLRF   xA6
057D4:  CLRF   xA5
057D6:  CLRF   xA4
057D8:  MOVLW  7F
057DA:  MOVWF  xA3
057DC:  MOVLB  0
057DE:  CALL   151E
057E2:  BCF    FD8.1
057E4:  MOVFF  62F,6A2
057E8:  MOVFF  62E,6A1
057EC:  MOVFF  62D,6A0
057F0:  MOVFF  62C,69F
057F4:  MOVFF  03,6A6
057F8:  MOVFF  02,6A5
057FC:  MOVFF  01,6A4
05800:  MOVFF  00,6A3
05804:  CALL   151E
05808:  MOVFF  03,62F
0580C:  MOVFF  02,62E
05810:  MOVFF  01,62D
05814:  MOVFF  00,62C
....................                } 
....................                else 
05818:  BRA    58D4
....................                { 
....................                   if(Aumento<-0.1) 
0581A:  MOVFF  63F,696
0581E:  MOVFF  63E,695
05822:  MOVFF  63D,694
05826:  MOVFF  63C,693
0582A:  MOVLW  CD
0582C:  MOVLB  6
0582E:  MOVWF  x9A
05830:  MOVLW  CC
05832:  MOVWF  x99
05834:  MOVWF  x98
05836:  MOVLW  7B
05838:  MOVWF  x97
0583A:  MOVLB  0
0583C:  CALL   1FE4
05840:  BNC   587A
....................                   { 
....................                      Ganancia+=Integral;//1 
05842:  BCF    FD8.1
05844:  MOVFF  62F,6A2
05848:  MOVFF  62E,6A1
0584C:  MOVFF  62D,6A0
05850:  MOVFF  62C,69F
05854:  MOVFF  5EF,6A6
05858:  MOVFF  5EE,6A5
0585C:  MOVFF  5ED,6A4
05860:  MOVFF  5EC,6A3
05864:  CALL   151E
05868:  MOVFF  03,62F
0586C:  MOVFF  02,62E
05870:  MOVFF  01,62D
05874:  MOVFF  00,62C
....................                   }    
....................                   else 
05878:  BRA    58D4
....................                   { 
....................                      Ganancia+=Integral-0.5;//0.5 
0587A:  BSF    FD8.1
0587C:  MOVFF  5EF,6A2
05880:  MOVFF  5EE,6A1
05884:  MOVFF  5ED,6A0
05888:  MOVFF  5EC,69F
0588C:  MOVLB  6
0588E:  CLRF   xA6
05890:  CLRF   xA5
05892:  CLRF   xA4
05894:  MOVLW  7E
05896:  MOVWF  xA3
05898:  MOVLB  0
0589A:  CALL   151E
0589E:  BCF    FD8.1
058A0:  MOVFF  62F,6A2
058A4:  MOVFF  62E,6A1
058A8:  MOVFF  62D,6A0
058AC:  MOVFF  62C,69F
058B0:  MOVFF  03,6A6
058B4:  MOVFF  02,6A5
058B8:  MOVFF  01,6A4
058BC:  MOVFF  00,6A3
058C0:  CALL   151E
058C4:  MOVFF  03,62F
058C8:  MOVFF  02,62E
058CC:  MOVFF  01,62D
058D0:  MOVFF  00,62C
....................                   } 
....................                } 
....................             } 
....................          } 
....................       }else if(error>=0.7 && error<6 && Aumento<=0.2){ 
058D4:  BRA    5B30
058D6:  MOVLW  33
058D8:  MOVLB  6
058DA:  MOVWF  x96
058DC:  MOVWF  x95
058DE:  MOVWF  x94
058E0:  MOVLW  7E
058E2:  MOVWF  x93
058E4:  MOVFF  61F,69A
058E8:  MOVFF  61E,699
058EC:  MOVFF  61D,698
058F0:  MOVFF  61C,697
058F4:  MOVLB  0
058F6:  CALL   1FE4
058FA:  BC    5900
058FC:  BTFSS  FD8.2
058FE:  BRA    5B30
05900:  MOVFF  61F,696
05904:  MOVFF  61E,695
05908:  MOVFF  61D,694
0590C:  MOVFF  61C,693
05910:  MOVLB  6
05912:  CLRF   x9A
05914:  CLRF   x99
05916:  MOVLW  40
05918:  MOVWF  x98
0591A:  MOVLW  81
0591C:  MOVWF  x97
0591E:  MOVLB  0
05920:  CALL   1FE4
05924:  BTFSS  FD8.0
05926:  BRA    5B30
05928:  MOVFF  63F,696
0592C:  MOVFF  63E,695
05930:  MOVFF  63D,694
05934:  MOVFF  63C,693
05938:  MOVLW  CD
0593A:  MOVLB  6
0593C:  MOVWF  x9A
0593E:  MOVLW  CC
05940:  MOVWF  x99
05942:  MOVLW  4C
05944:  MOVWF  x98
05946:  MOVLW  7C
05948:  MOVWF  x97
0594A:  MOVLB  0
0594C:  CALL   1FE4
05950:  BC    5956
05952:  BTFSS  FD8.2
05954:  BRA    5B30
....................          Derivativo=derivativo_ant*2; 
05956:  MOVFF  5F7,6B6
0595A:  MOVFF  5F6,6B5
0595E:  MOVFF  5F5,6B4
05962:  MOVFF  5F4,6B3
05966:  MOVLB  6
05968:  CLRF   xBA
0596A:  CLRF   xB9
0596C:  CLRF   xB8
0596E:  MOVLW  80
05970:  MOVWF  xB7
05972:  MOVLB  0
05974:  CALL   31BE
05978:  MOVFF  03,5F3
0597C:  MOVFF  02,5F2
05980:  MOVFF  01,5F1
05984:  MOVFF  00,5F0
....................          flag_ajuste=0; 
05988:  MOVLB  5
0598A:  BCF    xAC.4
....................          flag_ajuste2=0; 
0598C:  BCF    xAC.5
....................          Ajusto=10; 
0598E:  MOVLW  0A
05990:  MOVWF  xAA
....................          if(Potencia<30.0){ 
05992:  MOVFF  5DB,696
05996:  MOVFF  5DA,695
0599A:  MOVFF  5D9,694
0599E:  MOVFF  5D8,693
059A2:  MOVLB  6
059A4:  CLRF   x9A
059A6:  CLRF   x99
059A8:  MOVLW  70
059AA:  MOVWF  x98
059AC:  MOVLW  83
059AE:  MOVWF  x97
059B0:  MOVLB  0
059B2:  CALL   1FE4
059B6:  BTFSS  FD8.0
059B8:  BRA    5B30
....................             if(TiempoControl>=Derivativo)//80 
059BA:  MOVFF  5D1,6A0
059BE:  MOVFF  5D0,69F
059C2:  CALL   138A
059C6:  MOVFF  5F3,696
059CA:  MOVFF  5F2,695
059CE:  MOVFF  5F1,694
059D2:  MOVFF  5F0,693
059D6:  MOVFF  03,69A
059DA:  MOVFF  02,699
059DE:  MOVFF  01,698
059E2:  MOVFF  00,697
059E6:  CALL   1FE4
059EA:  BC    59F0
059EC:  BTFSS  FD8.2
059EE:  BRA    5B30
....................                { 
....................                   TiempoControl=0; 
059F0:  MOVLB  5
059F2:  CLRF   xD1
059F4:  CLRF   xD0
....................                   if(Aumento<-0.5) 
059F6:  MOVFF  63F,696
059FA:  MOVFF  63E,695
059FE:  MOVFF  63D,694
05A02:  MOVFF  63C,693
05A06:  MOVLB  6
05A08:  CLRF   x9A
05A0A:  CLRF   x99
05A0C:  MOVLW  80
05A0E:  MOVWF  x98
05A10:  MOVLW  7E
05A12:  MOVWF  x97
05A14:  MOVLB  0
05A16:  CALL   1FE4
05A1A:  BNC   5A78
....................                   { 
....................                      Ganancia+=Integral+1;//2 
05A1C:  BCF    FD8.1
05A1E:  MOVFF  5EF,6A2
05A22:  MOVFF  5EE,6A1
05A26:  MOVFF  5ED,6A0
05A2A:  MOVFF  5EC,69F
05A2E:  MOVLB  6
05A30:  CLRF   xA6
05A32:  CLRF   xA5
05A34:  CLRF   xA4
05A36:  MOVLW  7F
05A38:  MOVWF  xA3
05A3A:  MOVLB  0
05A3C:  CALL   151E
05A40:  BCF    FD8.1
05A42:  MOVFF  62F,6A2
05A46:  MOVFF  62E,6A1
05A4A:  MOVFF  62D,6A0
05A4E:  MOVFF  62C,69F
05A52:  MOVFF  03,6A6
05A56:  MOVFF  02,6A5
05A5A:  MOVFF  01,6A4
05A5E:  MOVFF  00,6A3
05A62:  CALL   151E
05A66:  MOVFF  03,62F
05A6A:  MOVFF  02,62E
05A6E:  MOVFF  01,62D
05A72:  MOVFF  00,62C
....................                   } 
....................                   else 
05A76:  BRA    5B30
....................                   { 
....................                      if(Aumento<-0.1) 
05A78:  MOVFF  63F,696
05A7C:  MOVFF  63E,695
05A80:  MOVFF  63D,694
05A84:  MOVFF  63C,693
05A88:  MOVLW  CD
05A8A:  MOVLB  6
05A8C:  MOVWF  x9A
05A8E:  MOVLW  CC
05A90:  MOVWF  x99
05A92:  MOVWF  x98
05A94:  MOVLW  7B
05A96:  MOVWF  x97
05A98:  MOVLB  0
05A9A:  CALL   1FE4
05A9E:  BNC   5AD8
....................                      { 
....................                         Ganancia+=Integral;//1 
05AA0:  BCF    FD8.1
05AA2:  MOVFF  62F,6A2
05AA6:  MOVFF  62E,6A1
05AAA:  MOVFF  62D,6A0
05AAE:  MOVFF  62C,69F
05AB2:  MOVFF  5EF,6A6
05AB6:  MOVFF  5EE,6A5
05ABA:  MOVFF  5ED,6A4
05ABE:  MOVFF  5EC,6A3
05AC2:  CALL   151E
05AC6:  MOVFF  03,62F
05ACA:  MOVFF  02,62E
05ACE:  MOVFF  01,62D
05AD2:  MOVFF  00,62C
....................                      }    
....................                      else 
05AD6:  BRA    5B30
....................                      { 
....................                         Ganancia+=Integral*0.5;//0.5 
05AD8:  MOVFF  5EF,6B6
05ADC:  MOVFF  5EE,6B5
05AE0:  MOVFF  5ED,6B4
05AE4:  MOVFF  5EC,6B3
05AE8:  MOVLB  6
05AEA:  CLRF   xBA
05AEC:  CLRF   xB9
05AEE:  CLRF   xB8
05AF0:  MOVLW  7E
05AF2:  MOVWF  xB7
05AF4:  MOVLB  0
05AF6:  CALL   31BE
05AFA:  BCF    FD8.1
05AFC:  MOVFF  62F,6A2
05B00:  MOVFF  62E,6A1
05B04:  MOVFF  62D,6A0
05B08:  MOVFF  62C,69F
05B0C:  MOVFF  03,6A6
05B10:  MOVFF  02,6A5
05B14:  MOVFF  01,6A4
05B18:  MOVFF  00,6A3
05B1C:  CALL   151E
05B20:  MOVFF  03,62F
05B24:  MOVFF  02,62E
05B28:  MOVFF  01,62D
05B2C:  MOVFF  00,62C
....................                      } 
....................                   } 
....................                } 
....................          } 
....................       } 
....................        
....................       if(Ganancia<0.1) 
05B30:  MOVFF  62F,696
05B34:  MOVFF  62E,695
05B38:  MOVFF  62D,694
05B3C:  MOVFF  62C,693
05B40:  MOVLW  CD
05B42:  MOVLB  6
05B44:  MOVWF  x9A
05B46:  MOVLW  CC
05B48:  MOVWF  x99
05B4A:  MOVLW  4C
05B4C:  MOVWF  x98
05B4E:  MOVLW  7B
05B50:  MOVWF  x97
05B52:  MOVLB  0
05B54:  CALL   1FE4
05B58:  BNC   5B6E
....................          Ganancia=0.1; 
05B5A:  MOVLW  CD
05B5C:  MOVLB  6
05B5E:  MOVWF  x2F
05B60:  MOVLW  CC
05B62:  MOVWF  x2E
05B64:  MOVLW  4C
05B66:  MOVWF  x2D
05B68:  MOVLW  7B
05B6A:  MOVWF  x2C
05B6C:  MOVLB  0
....................        
....................       if(Ganancia>Gananciamax) 
05B6E:  MOVFF  5E3,696
05B72:  MOVFF  5E2,695
05B76:  MOVFF  5E1,694
05B7A:  MOVFF  5E0,693
05B7E:  MOVFF  62F,69A
05B82:  MOVFF  62E,699
05B86:  MOVFF  62D,698
05B8A:  MOVFF  62C,697
05B8E:  CALL   1FE4
05B92:  BNC   5BA4
....................          Ganancia=Gananciamax; 
05B94:  MOVFF  5E3,62F
05B98:  MOVFF  5E2,62E
05B9C:  MOVFF  5E1,62D
05BA0:  MOVFF  5E0,62C
....................     
....................       if(error<0.0)     // Anti Wind_DOWN     
05BA4:  MOVFF  61F,696
05BA8:  MOVFF  61E,695
05BAC:  MOVFF  61D,694
05BB0:  MOVFF  61C,693
05BB4:  MOVLB  6
05BB6:  CLRF   x9A
05BB8:  CLRF   x99
05BBA:  CLRF   x98
05BBC:  CLRF   x97
05BBE:  MOVLB  0
05BC0:  CALL   1FE4
05BC4:  BNC   5BD4
....................          tmp=0; 
05BC6:  MOVLB  6
05BC8:  CLRF   x2B
05BCA:  CLRF   x2A
05BCC:  CLRF   x29
05BCE:  CLRF   x28
....................       else 
05BD0:  BRA    5C08
05BD2:  MOVLB  0
....................          tmp=error*Ganancia;  // Control Proporcional. 
05BD4:  MOVFF  61F,6B6
05BD8:  MOVFF  61E,6B5
05BDC:  MOVFF  61D,6B4
05BE0:  MOVFF  61C,6B3
05BE4:  MOVFF  62F,6BA
05BE8:  MOVFF  62E,6B9
05BEC:  MOVFF  62D,6B8
05BF0:  MOVFF  62C,6B7
05BF4:  CALL   31BE
05BF8:  MOVFF  03,62B
05BFC:  MOVFF  02,62A
05C00:  MOVFF  01,629
05C04:  MOVFF  00,628
....................        
....................       //tmp=(Setpoint-Prom)*Ganancia;  // Control Proporcional. 
....................              
....................       if(tmp>Setpoint)   // Anti Wind-UP       
05C08:  MOVFF  64B,696
05C0C:  MOVFF  64A,695
05C10:  MOVFF  649,694
05C14:  MOVFF  648,693
05C18:  MOVFF  62B,69A
05C1C:  MOVFF  62A,699
05C20:  MOVFF  629,698
05C24:  MOVFF  628,697
05C28:  MOVLB  0
05C2A:  CALL   1FE4
05C2E:  BNC   5C40
....................          tmp=Setpoint; 
05C30:  MOVFF  64B,62B
05C34:  MOVFF  64A,62A
05C38:  MOVFF  649,629
05C3C:  MOVFF  648,628
....................                    
....................       if(tmp<0.0)     // Anti Wind_DOWN     
05C40:  MOVFF  62B,696
05C44:  MOVFF  62A,695
05C48:  MOVFF  629,694
05C4C:  MOVFF  628,693
05C50:  MOVLB  6
05C52:  CLRF   x9A
05C54:  CLRF   x99
05C56:  CLRF   x98
05C58:  CLRF   x97
05C5A:  MOVLB  0
05C5C:  CALL   1FE4
05C60:  BNC   5C6E
....................          tmp=0.0; 
05C62:  MOVLB  6
05C64:  CLRF   x2B
05C66:  CLRF   x2A
05C68:  CLRF   x29
05C6A:  CLRF   x28
05C6C:  MOVLB  0
....................     
....................       Tpulso=(tmp/Setpoint)*Tciclo; 
05C6E:  MOVFF  62B,697
05C72:  MOVFF  62A,696
05C76:  MOVFF  629,695
05C7A:  MOVFF  628,694
05C7E:  MOVFF  64B,69B
05C82:  MOVFF  64A,69A
05C86:  MOVFF  649,699
05C8A:  MOVFF  648,698
05C8E:  CALL   13C0
05C92:  MOVFF  00,693
05C96:  MOVFF  01,694
05C9A:  MOVFF  02,695
05C9E:  MOVFF  03,696
05CA2:  MOVFF  03,6B6
05CA6:  MOVFF  02,6B5
05CAA:  MOVFF  01,6B4
05CAE:  MOVFF  00,6B3
05CB2:  MOVFF  617,6BA
05CB6:  MOVFF  616,6B9
05CBA:  MOVFF  615,6B8
05CBE:  MOVFF  614,6B7
05CC2:  CALL   31BE
05CC6:  MOVFF  03,61B
05CCA:  MOVFF  02,61A
05CCE:  MOVFF  01,619
05CD2:  MOVFF  00,618
....................        
....................       //if(Tpulso<Tpulsomin && flag_setpoint){ 
....................       //   Tpulso=Tpulsomin; 
....................       //} 
....................        
....................       /* 
....................       if(error<1.5){ 
....................          if(error<=2.3){    
....................             if(flag_ajuste==0){ 
....................                TpulsoMax=Tpulso; 
....................                flag_ajuste=1;   
....................                Ajusto=5; 
....................             } 
....................          } 
....................           
....................          if(error<=0.8){    
....................             if(flag_ajuste2==0){ 
....................                Tpulsomin=Tpulso; 
....................                flag_ajuste2=1;            
....................                Ajusto=5; 
....................             } 
....................          } 
....................           
....................          if(flag_ajuste2==1){ 
....................             if(Tpulso<Tpulsomin){ 
....................                Tpulso=Tpulsomin; 
....................             } 
....................          } 
....................          //if(flag_ajuste==1){    
....................          //   if(Tpulso>TpulsoMax){ 
....................          //      Tpulso=TpulsoMax; 
....................          //   }  
....................          //} 
....................       } 
....................        
....................       if(error<0.5){ 
....................          sobrepaso=1; 
....................          Tpulso=Tpulsomin/2; 
....................          if(tSobrepaso>300){ 
....................             Tpulsomin-=0.1; 
....................             tSobrepaso=0; 
....................             if(Tpulsomin<0)Tpulsomin=0; 
....................          } 
....................       }else{ 
....................          sobrepaso=0; 
....................          tSobrepaso=0; 
....................       } 
....................       */ 
....................       if(Tpulso<0)Tpulso=0; 
05CD6:  MOVFF  61B,696
05CDA:  MOVFF  61A,695
05CDE:  MOVFF  619,694
05CE2:  MOVFF  618,693
05CE6:  MOVLB  6
05CE8:  CLRF   x9A
05CEA:  CLRF   x99
05CEC:  CLRF   x98
05CEE:  CLRF   x97
05CF0:  MOVLB  0
05CF2:  CALL   1FE4
05CF6:  BNC   5D04
05CF8:  MOVLB  6
05CFA:  CLRF   x1B
05CFC:  CLRF   x1A
05CFE:  CLRF   x19
05D00:  CLRF   x18
05D02:  MOVLB  0
....................       if(Tpulso>Tciclo)Tpulso=0; 
05D04:  MOVFF  617,696
05D08:  MOVFF  616,695
05D0C:  MOVFF  615,694
05D10:  MOVFF  614,693
05D14:  MOVFF  61B,69A
05D18:  MOVFF  61A,699
05D1C:  MOVFF  619,698
05D20:  MOVFF  618,697
05D24:  CALL   1FE4
05D28:  BNC   5D34
05D2A:  MOVLB  6
05D2C:  CLRF   x1B
05D2E:  CLRF   x1A
05D30:  CLRF   x19
05D32:  CLRF   x18
....................        
....................       Tp=(Tpulso/0.005); 
05D34:  MOVFF  61B,697
05D38:  MOVFF  61A,696
05D3C:  MOVFF  619,695
05D40:  MOVFF  618,694
05D44:  MOVLW  0A
05D46:  MOVLB  6
05D48:  MOVWF  x9B
05D4A:  MOVLW  D7
05D4C:  MOVWF  x9A
05D4E:  MOVLW  23
05D50:  MOVWF  x99
05D52:  MOVLW  77
05D54:  MOVWF  x98
05D56:  MOVLB  0
05D58:  CALL   13C0
05D5C:  MOVFF  03,6A2
05D60:  MOVFF  02,6A1
05D64:  MOVFF  01,6A0
05D68:  MOVFF  00,69F
05D6C:  CALL   3854
05D70:  MOVFF  02,5CD
05D74:  MOVFF  01,5CC
....................       Tc=(Tciclo/0.005); 
05D78:  MOVFF  617,697
05D7C:  MOVFF  616,696
05D80:  MOVFF  615,695
05D84:  MOVFF  614,694
05D88:  MOVLW  0A
05D8A:  MOVLB  6
05D8C:  MOVWF  x9B
05D8E:  MOVLW  D7
05D90:  MOVWF  x9A
05D92:  MOVLW  23
05D94:  MOVWF  x99
05D96:  MOVLW  77
05D98:  MOVWF  x98
05D9A:  MOVLB  0
05D9C:  CALL   13C0
05DA0:  MOVFF  03,6A2
05DA4:  MOVFF  02,6A1
05DA8:  MOVFF  01,6A0
05DAC:  MOVFF  00,69F
05DB0:  CALL   3854
05DB4:  MOVFF  02,5CF
05DB8:  MOVFF  01,5CE
....................        
....................       Controlando=1;      
05DBC:  MOVLW  01
05DBE:  MOVLB  5
05DC0:  MOVWF  xA9
....................     
.................... //--------------------------------------------------------------------------------------------------------------------//    
....................      
.................... } 
05DC2:  MOVLB  0
05DC4:  RETLW  00
....................  
.................... void displayMenu(char palabra[30], int x, int y, int sombreado, int tamano) 
.................... { 
....................    strcpy(Menus.Letra,palabra); 
*
03048:  MOVLB  6
0304A:  MOVFF  69B,01
0304E:  MOVFF  69C,03
03052:  MOVFF  69B,6A1
03056:  MOVFF  69C,6A2
0305A:  MOVLW  06
0305C:  MOVWF  FEA
0305E:  MOVLW  73
03060:  MOVWF  FE9
03062:  MOVFF  69C,FE2
03066:  MOVFF  69B,FE1
0306A:  MOVF   FE7,F
0306C:  MOVFF  FE6,FEE
03070:  BNZ   306A
....................    if(sombreado==2) 
03072:  MOVF   x9F,W
03074:  SUBLW  02
03076:  BNZ   30A0
....................       {glcd_text57(x+1, y+1, Menus.Letra, tamano, ON);} 
03078:  MOVLW  01
0307A:  ADDWF  x9D,W
0307C:  MOVWF  xA1
0307E:  MOVLW  01
03080:  ADDWF  x9E,W
03082:  MOVWF  xA2
03084:  MOVFF  6A1,6AC
03088:  MOVWF  xAD
0308A:  MOVLW  06
0308C:  MOVWF  xAF
0308E:  MOVLW  73
03090:  MOVWF  xAE
03092:  MOVFF  6A0,6B0
03096:  MOVLW  01
03098:  MOVWF  xB1
0309A:  MOVLB  0
0309C:  RCALL  2C84
0309E:  MOVLB  6
....................    if(sombreado==1) 
030A0:  DECFSZ x9F,W
030A2:  BRA    30EE
....................       {glcd_rect(0, y, 127, y+(tamano*8), YES, ON);glcd_text57(x+1, y+1, Menus.Letra, tamano, OFF);} 
030A4:  MOVF   xA0,W
030A6:  MULLW  08
030A8:  MOVF   FF3,W
030AA:  ADDWF  x9E,W
030AC:  MOVWF  xA1
030AE:  CLRF   xAC
030B0:  MOVFF  69E,6AD
030B4:  MOVLW  7F
030B6:  MOVWF  xAE
030B8:  MOVFF  6A1,6AF
030BC:  MOVLW  01
030BE:  MOVWF  xB0
030C0:  MOVWF  xB1
030C2:  MOVLB  0
030C4:  RCALL  2F86
030C6:  MOVLW  01
030C8:  MOVLB  6
030CA:  ADDWF  x9D,W
030CC:  MOVWF  xA1
030CE:  MOVLW  01
030D0:  ADDWF  x9E,W
030D2:  MOVWF  xA2
030D4:  MOVFF  6A1,6AC
030D8:  MOVWF  xAD
030DA:  MOVLW  06
030DC:  MOVWF  xAF
030DE:  MOVLW  73
030E0:  MOVWF  xAE
030E2:  MOVFF  6A0,6B0
030E6:  CLRF   xB1
030E8:  MOVLB  0
030EA:  RCALL  2C84
030EC:  MOVLB  6
....................    if(sombreado==0) 
030EE:  MOVF   x9F,F
030F0:  BNZ   313C
....................       {glcd_rect(0, y, 127, y+(tamano*8), YES, OFF);glcd_text57(x+1, y+1, Menus.Letra, tamano, ON);} 
030F2:  MOVF   xA0,W
030F4:  MULLW  08
030F6:  MOVF   FF3,W
030F8:  ADDWF  x9E,W
030FA:  MOVWF  xA1
030FC:  CLRF   xAC
030FE:  MOVFF  69E,6AD
03102:  MOVLW  7F
03104:  MOVWF  xAE
03106:  MOVFF  6A1,6AF
0310A:  MOVLW  01
0310C:  MOVWF  xB0
0310E:  CLRF   xB1
03110:  MOVLB  0
03112:  RCALL  2F86
03114:  MOVLW  01
03116:  MOVLB  6
03118:  ADDWF  x9D,W
0311A:  MOVWF  xA1
0311C:  MOVLW  01
0311E:  ADDWF  x9E,W
03120:  MOVWF  xA2
03122:  MOVFF  6A1,6AC
03126:  MOVWF  xAD
03128:  MOVLW  06
0312A:  MOVWF  xAF
0312C:  MOVLW  73
0312E:  MOVWF  xAE
03130:  MOVFF  6A0,6B0
03134:  MOVLW  01
03136:  MOVWF  xB1
03138:  MOVLB  0
0313A:  RCALL  2C84
....................    glcd_update(); 
0313C:  MOVLB  0
0313E:  RCALL  2A68
.................... } 
03140:  RETLW  00
....................  
.................... void displayTemps(char palabra[30], float digito, int x, int y, int sombreado, int tamano) 
.................... { 
....................    char voltage[9]; 
....................     
....................    if(sombreado==1) 
*
04D56:  MOVLB  6
04D58:  DECFSZ x9B,W
04D5A:  BRA    4E9A
....................    { 
....................       sprintf(voltage, "%03.1f", digito); 
04D5C:  MOVLW  06
04D5E:  MOVWF  x92
04D60:  MOVLW  9D
04D62:  MOVWF  x91
04D64:  MOVLW  42
04D66:  MOVWF  FE9
04D68:  MOVFF  698,6A9
04D6C:  MOVFF  697,6A8
04D70:  MOVFF  696,6A7
04D74:  MOVFF  695,6A6
04D78:  MOVLW  01
04D7A:  MOVWF  xAA
04D7C:  MOVLB  0
04D7E:  RCALL  4BA2
....................       glcd_rect(0, y-2, 127, y+(tamano*8), YES, ON); 
04D80:  MOVLW  02
04D82:  MOVLB  6
04D84:  SUBWF  x9A,W
04D86:  MOVWF  xA6
04D88:  MOVF   x9C,W
04D8A:  MULLW  08
04D8C:  MOVF   FF3,W
04D8E:  ADDWF  x9A,W
04D90:  MOVWF  xA7
04D92:  CLRF   xAC
04D94:  MOVFF  6A6,6AD
04D98:  MOVLW  7F
04D9A:  MOVWF  xAE
04D9C:  MOVFF  6A7,6AF
04DA0:  MOVLW  01
04DA2:  MOVWF  xB0
04DA4:  MOVWF  xB1
04DA6:  MOVLB  0
04DA8:  CALL   2F86
....................       strcpy(Menus.Letra,palabra); 
04DAC:  MOVLB  6
04DAE:  MOVFF  693,01
04DB2:  MOVFF  694,03
04DB6:  MOVFF  693,6A6
04DBA:  MOVFF  694,6A7
04DBE:  MOVLW  06
04DC0:  MOVWF  FEA
04DC2:  MOVLW  73
04DC4:  MOVWF  FE9
04DC6:  MOVFF  694,FE2
04DCA:  MOVFF  693,FE1
04DCE:  MOVF   FE7,F
04DD0:  MOVFF  FE6,FEE
04DD4:  BNZ   4DCE
....................       glcd_text57(x+84, y+1, voltage, tamano, OFF); 
04DD6:  MOVLW  54
04DD8:  ADDWF  x99,W
04DDA:  MOVWF  xA6
04DDC:  MOVLW  01
04DDE:  ADDWF  x9A,W
04DE0:  MOVWF  xA7
04DE2:  MOVFF  6A6,6AC
04DE6:  MOVWF  xAD
04DE8:  MOVLW  06
04DEA:  MOVWF  xAF
04DEC:  MOVLW  9D
04DEE:  MOVWF  xAE
04DF0:  MOVFF  69C,6B0
04DF4:  CLRF   xB1
04DF6:  MOVLB  0
04DF8:  CALL   2C84
....................       glcd_text57(x+1, y+1, Menus.Letra, tamano, OFF); 
04DFC:  MOVLW  01
04DFE:  MOVLB  6
04E00:  ADDWF  x99,W
04E02:  MOVWF  xA6
04E04:  MOVLW  01
04E06:  ADDWF  x9A,W
04E08:  MOVWF  xA7
04E0A:  MOVFF  6A6,6AC
04E0E:  MOVWF  xAD
04E10:  MOVLW  06
04E12:  MOVWF  xAF
04E14:  MOVLW  73
04E16:  MOVWF  xAE
04E18:  MOVFF  69C,6B0
04E1C:  CLRF   xB1
04E1E:  MOVLB  0
04E20:  CALL   2C84
....................       strcpy(Menus.Letra,"C"); 
04E24:  MOVLW  06
04E26:  MOVWF  FEA
04E28:  MOVLW  73
04E2A:  MOVWF  FE9
04E2C:  MOVFF  FF2,6A6
04E30:  BCF    FF2.6
04E32:  BCF    FF2.7
04E34:  MOVLW  00
04E36:  CALL   0796
04E3A:  TBLRD*-
04E3C:  TBLRD*+
04E3E:  MOVF   FF5,W
04E40:  MOVWF  FEE
04E42:  IORLW  00
04E44:  BNZ   4E3C
04E46:  MOVLB  6
04E48:  BTFSC  xA6.6
04E4A:  BSF    FF2.6
04E4C:  BTFSC  xA6.7
04E4E:  BSF    FF2.7
....................       glcd_text57(x+120, y+1, Menus.Letra, tamano, OFF); 
04E50:  MOVLW  78
04E52:  ADDWF  x99,W
04E54:  MOVWF  xA6
04E56:  MOVLW  01
04E58:  ADDWF  x9A,W
04E5A:  MOVWF  xA7
04E5C:  MOVFF  6A6,6AC
04E60:  MOVWF  xAD
04E62:  MOVLW  06
04E64:  MOVWF  xAF
04E66:  MOVLW  73
04E68:  MOVWF  xAE
04E6A:  MOVFF  69C,6B0
04E6E:  CLRF   xB1
04E70:  MOVLB  0
04E72:  CALL   2C84
....................       glcd_circle(x+115,y-1,1,NO,OFF); 
04E76:  MOVLW  73
04E78:  MOVLB  6
04E7A:  ADDWF  x99,W
04E7C:  MOVWF  xA6
04E7E:  MOVLW  01
04E80:  SUBWF  x9A,W
04E82:  MOVWF  xA7
04E84:  MOVFF  6A6,6A8
04E88:  MOVWF  xA9
04E8A:  MOVLW  01
04E8C:  MOVWF  xAA
04E8E:  CLRF   xAB
04E90:  CLRF   xAC
04E92:  MOVLB  0
04E94:  CALL   463E
04E98:  MOVLB  6
....................    } 
....................    if(sombreado==0) 
04E9A:  MOVF   x9B,F
04E9C:  BTFSS  FD8.2
04E9E:  BRA    4FE2
....................    { 
....................       sprintf(voltage, "%03.1f", digito); 
04EA0:  MOVLW  06
04EA2:  MOVWF  x92
04EA4:  MOVLW  9D
04EA6:  MOVWF  x91
04EA8:  MOVLW  42
04EAA:  MOVWF  FE9
04EAC:  MOVFF  698,6A9
04EB0:  MOVFF  697,6A8
04EB4:  MOVFF  696,6A7
04EB8:  MOVFF  695,6A6
04EBC:  MOVLW  01
04EBE:  MOVWF  xAA
04EC0:  MOVLB  0
04EC2:  RCALL  4BA2
....................       glcd_rect(0, y-2, 127, y+(tamano*8), YES, OFF); 
04EC4:  MOVLW  02
04EC6:  MOVLB  6
04EC8:  SUBWF  x9A,W
04ECA:  MOVWF  xA6
04ECC:  MOVF   x9C,W
04ECE:  MULLW  08
04ED0:  MOVF   FF3,W
04ED2:  ADDWF  x9A,W
04ED4:  MOVWF  xA7
04ED6:  CLRF   xAC
04ED8:  MOVFF  6A6,6AD
04EDC:  MOVLW  7F
04EDE:  MOVWF  xAE
04EE0:  MOVFF  6A7,6AF
04EE4:  MOVLW  01
04EE6:  MOVWF  xB0
04EE8:  CLRF   xB1
04EEA:  MOVLB  0
04EEC:  CALL   2F86
....................       strcpy(Menus.Letra,palabra); 
04EF0:  MOVLB  6
04EF2:  MOVFF  693,01
04EF6:  MOVFF  694,03
04EFA:  MOVFF  693,6A6
04EFE:  MOVFF  694,6A7
04F02:  MOVLW  06
04F04:  MOVWF  FEA
04F06:  MOVLW  73
04F08:  MOVWF  FE9
04F0A:  MOVFF  694,FE2
04F0E:  MOVFF  693,FE1
04F12:  MOVF   FE7,F
04F14:  MOVFF  FE6,FEE
04F18:  BNZ   4F12
....................       glcd_text57(x+84, y+1, voltage, tamano, ON); 
04F1A:  MOVLW  54
04F1C:  ADDWF  x99,W
04F1E:  MOVWF  xA6
04F20:  MOVLW  01
04F22:  ADDWF  x9A,W
04F24:  MOVWF  xA7
04F26:  MOVFF  6A6,6AC
04F2A:  MOVWF  xAD
04F2C:  MOVLW  06
04F2E:  MOVWF  xAF
04F30:  MOVLW  9D
04F32:  MOVWF  xAE
04F34:  MOVFF  69C,6B0
04F38:  MOVLW  01
04F3A:  MOVWF  xB1
04F3C:  MOVLB  0
04F3E:  CALL   2C84
....................       glcd_text57(x+1, y+1, Menus.Letra, tamano, ON); 
04F42:  MOVLW  01
04F44:  MOVLB  6
04F46:  ADDWF  x99,W
04F48:  MOVWF  xA6
04F4A:  MOVLW  01
04F4C:  ADDWF  x9A,W
04F4E:  MOVWF  xA7
04F50:  MOVFF  6A6,6AC
04F54:  MOVWF  xAD
04F56:  MOVLW  06
04F58:  MOVWF  xAF
04F5A:  MOVLW  73
04F5C:  MOVWF  xAE
04F5E:  MOVFF  69C,6B0
04F62:  MOVLW  01
04F64:  MOVWF  xB1
04F66:  MOVLB  0
04F68:  CALL   2C84
....................       strcpy(Menus.Letra,"C"); 
04F6C:  MOVLW  06
04F6E:  MOVWF  FEA
04F70:  MOVLW  73
04F72:  MOVWF  FE9
04F74:  MOVFF  FF2,6A6
04F78:  BCF    FF2.6
04F7A:  BCF    FF2.7
04F7C:  MOVLW  00
04F7E:  CALL   0796
04F82:  TBLRD*-
04F84:  TBLRD*+
04F86:  MOVF   FF5,W
04F88:  MOVWF  FEE
04F8A:  IORLW  00
04F8C:  BNZ   4F84
04F8E:  MOVLB  6
04F90:  BTFSC  xA6.6
04F92:  BSF    FF2.6
04F94:  BTFSC  xA6.7
04F96:  BSF    FF2.7
....................       glcd_text57(x+120, y+1, Menus.Letra, tamano, ON); 
04F98:  MOVLW  78
04F9A:  ADDWF  x99,W
04F9C:  MOVWF  xA6
04F9E:  MOVLW  01
04FA0:  ADDWF  x9A,W
04FA2:  MOVWF  xA7
04FA4:  MOVFF  6A6,6AC
04FA8:  MOVWF  xAD
04FAA:  MOVLW  06
04FAC:  MOVWF  xAF
04FAE:  MOVLW  73
04FB0:  MOVWF  xAE
04FB2:  MOVFF  69C,6B0
04FB6:  MOVLW  01
04FB8:  MOVWF  xB1
04FBA:  MOVLB  0
04FBC:  CALL   2C84
....................       glcd_circle(x+115,y-1,1,NO,ON); 
04FC0:  MOVLW  73
04FC2:  MOVLB  6
04FC4:  ADDWF  x99,W
04FC6:  MOVWF  xA6
04FC8:  MOVLW  01
04FCA:  SUBWF  x9A,W
04FCC:  MOVWF  xA7
04FCE:  MOVFF  6A6,6A8
04FD2:  MOVWF  xA9
04FD4:  MOVLW  01
04FD6:  MOVWF  xAA
04FD8:  CLRF   xAB
04FDA:  MOVWF  xAC
04FDC:  MOVLB  0
04FDE:  CALL   463E
....................    } 
....................    glcd_update(); 
04FE2:  MOVLB  0
04FE4:  CALL   2A68
.................... } 
04FE8:  RETLW  00
....................  
.................... void displayTiempo(int digito, int x, int y, int sombreado, int tamano) 
.................... { 
....................    char voltage[9]; 
....................     
....................    if(sombreado==2) 
*
05070:  MOVLB  6
05072:  MOVF   x97,W
05074:  SUBLW  02
05076:  BNZ   50E8
....................    { 
....................       sprintf(voltage, "%03u", digito); 
05078:  MOVLW  06
0507A:  MOVWF  x92
0507C:  MOVLW  99
0507E:  MOVWF  x91
05080:  MOVFF  694,6A2
05084:  MOVLW  03
05086:  MOVWF  xA3
05088:  MOVLB  0
0508A:  RCALL  4FEA
....................       glcd_rect(x, y, x+(tamano*18), y+(tamano*8), YES, ON); 
0508C:  MOVLB  6
0508E:  MOVF   x98,W
05090:  MULLW  12
05092:  MOVF   FF3,W
05094:  ADDWF  x95,W
05096:  MOVWF  xA2
05098:  MOVF   x98,W
0509A:  MULLW  08
0509C:  MOVF   FF3,W
0509E:  ADDWF  x96,W
050A0:  MOVWF  xA3
050A2:  MOVFF  695,6AC
050A6:  MOVFF  696,6AD
050AA:  MOVFF  6A2,6AE
050AE:  MOVWF  xAF
050B0:  MOVLW  01
050B2:  MOVWF  xB0
050B4:  MOVWF  xB1
050B6:  MOVLB  0
050B8:  CALL   2F86
....................       glcd_text57(x+1, y+1, voltage, tamano, OFF); 
050BC:  MOVLW  01
050BE:  MOVLB  6
050C0:  ADDWF  x95,W
050C2:  MOVWF  xA2
050C4:  MOVLW  01
050C6:  ADDWF  x96,W
050C8:  MOVWF  xA3
050CA:  MOVFF  6A2,6AC
050CE:  MOVWF  xAD
050D0:  MOVLW  06
050D2:  MOVWF  xAF
050D4:  MOVLW  99
050D6:  MOVWF  xAE
050D8:  MOVFF  698,6B0
050DC:  CLRF   xB1
050DE:  MOVLB  0
050E0:  CALL   2C84
....................    } 
....................    else 
050E4:  BRA    522C
050E6:  MOVLB  6
....................    { 
....................       if(sombreado==3) 
050E8:  MOVF   x97,W
050EA:  SUBLW  03
050EC:  BNZ   515E
....................       { 
....................          sprintf(voltage, "%03u", digito); 
050EE:  MOVLW  06
050F0:  MOVWF  x92
050F2:  MOVLW  99
050F4:  MOVWF  x91
050F6:  MOVFF  694,6A2
050FA:  MOVLW  03
050FC:  MOVWF  xA3
050FE:  MOVLB  0
05100:  RCALL  4FEA
....................          glcd_rect(x, y, x+(tamano*18), y+(tamano*8), YES, OFF); 
05102:  MOVLB  6
05104:  MOVF   x98,W
05106:  MULLW  12
05108:  MOVF   FF3,W
0510A:  ADDWF  x95,W
0510C:  MOVWF  xA2
0510E:  MOVF   x98,W
05110:  MULLW  08
05112:  MOVF   FF3,W
05114:  ADDWF  x96,W
05116:  MOVWF  xA3
05118:  MOVFF  695,6AC
0511C:  MOVFF  696,6AD
05120:  MOVFF  6A2,6AE
05124:  MOVWF  xAF
05126:  MOVLW  01
05128:  MOVWF  xB0
0512A:  CLRF   xB1
0512C:  MOVLB  0
0512E:  CALL   2F86
....................          glcd_text57(x+1, y+1, voltage, tamano, ON); 
05132:  MOVLW  01
05134:  MOVLB  6
05136:  ADDWF  x95,W
05138:  MOVWF  xA2
0513A:  MOVLW  01
0513C:  ADDWF  x96,W
0513E:  MOVWF  xA3
05140:  MOVFF  6A2,6AC
05144:  MOVWF  xAD
05146:  MOVLW  06
05148:  MOVWF  xAF
0514A:  MOVLW  99
0514C:  MOVWF  xAE
0514E:  MOVFF  698,6B0
05152:  MOVLW  01
05154:  MOVWF  xB1
05156:  MOVLB  0
05158:  CALL   2C84
0515C:  MOVLB  6
....................       } 
....................       sprintf(voltage, "%u", digito); 
0515E:  MOVLW  06
05160:  MOVWF  x92
05162:  MOVLW  99
05164:  MOVWF  x91
05166:  MOVFF  694,6A2
0516A:  MOVLW  1B
0516C:  MOVWF  xA3
0516E:  MOVLB  0
05170:  RCALL  4FEA
....................       if(sombreado==1) 
05172:  MOVLB  6
05174:  DECFSZ x97,W
05176:  BRA    51D0
....................          {glcd_rect(x, y, x+(tamano*5), y+(tamano*8), YES, ON);glcd_text57(x+1, y+1, voltage, tamano, OFF);} 
05178:  MOVF   x98,W
0517A:  MULLW  05
0517C:  MOVF   FF3,W
0517E:  ADDWF  x95,W
05180:  MOVWF  xA2
05182:  MOVF   x98,W
05184:  MULLW  08
05186:  MOVF   FF3,W
05188:  ADDWF  x96,W
0518A:  MOVWF  xA3
0518C:  MOVFF  695,6AC
05190:  MOVFF  696,6AD
05194:  MOVFF  6A2,6AE
05198:  MOVWF  xAF
0519A:  MOVLW  01
0519C:  MOVWF  xB0
0519E:  MOVWF  xB1
051A0:  MOVLB  0
051A2:  CALL   2F86
051A6:  MOVLW  01
051A8:  MOVLB  6
051AA:  ADDWF  x95,W
051AC:  MOVWF  xA2
051AE:  MOVLW  01
051B0:  ADDWF  x96,W
051B2:  MOVWF  xA3
051B4:  MOVFF  6A2,6AC
051B8:  MOVWF  xAD
051BA:  MOVLW  06
051BC:  MOVWF  xAF
051BE:  MOVLW  99
051C0:  MOVWF  xAE
051C2:  MOVFF  698,6B0
051C6:  CLRF   xB1
051C8:  MOVLB  0
051CA:  CALL   2C84
051CE:  MOVLB  6
....................       if(sombreado==0) 
051D0:  MOVF   x97,F
051D2:  BNZ   522E
....................          {glcd_rect(x, y, x+(tamano*5), y+(tamano*8), YES, OFF);glcd_text57(x+1, y+1, voltage, tamano, ON);} 
051D4:  MOVF   x98,W
051D6:  MULLW  05
051D8:  MOVF   FF3,W
051DA:  ADDWF  x95,W
051DC:  MOVWF  xA2
051DE:  MOVF   x98,W
051E0:  MULLW  08
051E2:  MOVF   FF3,W
051E4:  ADDWF  x96,W
051E6:  MOVWF  xA3
051E8:  MOVFF  695,6AC
051EC:  MOVFF  696,6AD
051F0:  MOVFF  6A2,6AE
051F4:  MOVWF  xAF
051F6:  MOVLW  01
051F8:  MOVWF  xB0
051FA:  CLRF   xB1
051FC:  MOVLB  0
051FE:  CALL   2F86
05202:  MOVLW  01
05204:  MOVLB  6
05206:  ADDWF  x95,W
05208:  MOVWF  xA2
0520A:  MOVLW  01
0520C:  ADDWF  x96,W
0520E:  MOVWF  xA3
05210:  MOVFF  6A2,6AC
05214:  MOVWF  xAD
05216:  MOVLW  06
05218:  MOVWF  xAF
0521A:  MOVLW  99
0521C:  MOVWF  xAE
0521E:  MOVFF  698,6B0
05222:  MOVLW  01
05224:  MOVWF  xB1
05226:  MOVLB  0
05228:  CALL   2C84
0522C:  MOVLB  6
....................    } 
....................    glcd_update(); 
0522E:  MOVLB  0
05230:  CALL   2A68
.................... } 
05234:  RETLW  00
....................  
.................... void displayTT(float adc,int x,int y,int w) { 
....................    char voltage[9];     
....................    sprintf(voltage, "%03.1f",adc); // Converts adc to text 
*
06C3E:  MOVLW  06
06C40:  MOVLB  6
06C42:  MOVWF  x92
06C44:  MOVLW  9A
06C46:  MOVWF  x91
06C48:  MOVLW  42
06C4A:  MOVWF  FE9
06C4C:  MOVFF  696,6A9
06C50:  MOVFF  695,6A8
06C54:  MOVFF  694,6A7
06C58:  MOVFF  693,6A6
06C5C:  MOVLW  01
06C5E:  MOVWF  xAA
06C60:  MOVLB  0
06C62:  CALL   4BA2
....................    glcd_rect(x, y, x+(w*27), y+(w*8), YES, OFF); 
06C66:  MOVLB  6
06C68:  MOVF   x99,W
06C6A:  MULLW  1B
06C6C:  MOVF   FF3,W
06C6E:  ADDWF  x97,W
06C70:  MOVWF  xA3
06C72:  MOVF   x99,W
06C74:  MULLW  08
06C76:  MOVF   FF3,W
06C78:  ADDWF  x98,W
06C7A:  MOVWF  xA4
06C7C:  MOVFF  697,6AC
06C80:  MOVFF  698,6AD
06C84:  MOVFF  6A3,6AE
06C88:  MOVWF  xAF
06C8A:  MOVLW  01
06C8C:  MOVWF  xB0
06C8E:  CLRF   xB1
06C90:  MOVLB  0
06C92:  CALL   2F86
....................    /*glcd_rect(x, y, x+53, y+15, YES, ON);*/glcd_text57(x, y, voltage, w, ON); 
06C96:  MOVFF  697,6AC
06C9A:  MOVFF  698,6AD
06C9E:  MOVLW  06
06CA0:  MOVLB  6
06CA2:  MOVWF  xAF
06CA4:  MOVLW  9A
06CA6:  MOVWF  xAE
06CA8:  MOVFF  699,6B0
06CAC:  MOVLW  01
06CAE:  MOVWF  xB1
06CB0:  MOVLB  0
06CB2:  CALL   2C84
.................... } 
06CB6:  GOTO   AD74 (RETURN)
....................  
.................... void displayTemperatura(int16 digito, int x, int y, int sombreado, int tamano) 
.................... { 
....................    char voltage[9]; 
....................     
....................    if(sombreado==2) 
*
04926:  MOVLB  6
04928:  MOVF   x99,W
0492A:  SUBLW  02
0492C:  BNZ   49A2
....................    { 
....................       sprintf(voltage, "%03Lu", digito); 
0492E:  MOVLW  06
04930:  MOVWF  x92
04932:  MOVLW  9B
04934:  MOVWF  x91
04936:  MOVLW  0A
04938:  MOVWF  FE9
0493A:  MOVFF  696,6A5
0493E:  MOVFF  695,6A4
04942:  MOVLB  0
04944:  RCALL  4868
....................       glcd_rect(x, y, x+(tamano*18), y+(tamano*8), YES, ON); 
04946:  MOVLB  6
04948:  MOVF   x9A,W
0494A:  MULLW  12
0494C:  MOVF   FF3,W
0494E:  ADDWF  x97,W
04950:  MOVWF  xA4
04952:  MOVF   x9A,W
04954:  MULLW  08
04956:  MOVF   FF3,W
04958:  ADDWF  x98,W
0495A:  MOVWF  xA5
0495C:  MOVFF  697,6AC
04960:  MOVFF  698,6AD
04964:  MOVFF  6A4,6AE
04968:  MOVWF  xAF
0496A:  MOVLW  01
0496C:  MOVWF  xB0
0496E:  MOVWF  xB1
04970:  MOVLB  0
04972:  CALL   2F86
....................       glcd_text57(x+1, y+1, voltage, tamano, OFF); 
04976:  MOVLW  01
04978:  MOVLB  6
0497A:  ADDWF  x97,W
0497C:  MOVWF  xA4
0497E:  MOVLW  01
04980:  ADDWF  x98,W
04982:  MOVWF  xA5
04984:  MOVFF  6A4,6AC
04988:  MOVWF  xAD
0498A:  MOVLW  06
0498C:  MOVWF  xAF
0498E:  MOVLW  9B
04990:  MOVWF  xAE
04992:  MOVFF  69A,6B0
04996:  CLRF   xB1
04998:  MOVLB  0
0499A:  CALL   2C84
....................    } 
....................    else 
0499E:  BRA    4AD4
049A0:  MOVLB  6
....................    { 
....................       sprintf(voltage, "%03Lu", digito); 
049A2:  MOVLW  06
049A4:  MOVWF  x92
049A6:  MOVLW  9B
049A8:  MOVWF  x91
049AA:  MOVLW  0A
049AC:  MOVWF  FE9
049AE:  MOVFF  696,6A5
049B2:  MOVFF  695,6A4
049B6:  MOVLB  0
049B8:  RCALL  4868
....................     
....................       if(sombreado==4) 
049BA:  MOVLB  6
049BC:  MOVF   x99,W
049BE:  SUBLW  04
049C0:  BNZ   4A1C
....................       { 
....................          glcd_rect(x, y, x+(tamano*16), y+(tamano*8), YES, OFF); 
049C2:  MOVF   x9A,W
049C4:  MULLW  10
049C6:  MOVF   FF3,W
049C8:  ADDWF  x97,W
049CA:  MOVWF  xA4
049CC:  MOVF   x9A,W
049CE:  MULLW  08
049D0:  MOVF   FF3,W
049D2:  ADDWF  x98,W
049D4:  MOVWF  xA5
049D6:  MOVFF  697,6AC
049DA:  MOVFF  698,6AD
049DE:  MOVFF  6A4,6AE
049E2:  MOVWF  xAF
049E4:  MOVLW  01
049E6:  MOVWF  xB0
049E8:  CLRF   xB1
049EA:  MOVLB  0
049EC:  CALL   2F86
....................          glcd_text57(x+1, y+1, voltage, tamano, ON); 
049F0:  MOVLW  01
049F2:  MOVLB  6
049F4:  ADDWF  x97,W
049F6:  MOVWF  xA4
049F8:  MOVLW  01
049FA:  ADDWF  x98,W
049FC:  MOVWF  xA5
049FE:  MOVFF  6A4,6AC
04A02:  MOVWF  xAD
04A04:  MOVLW  06
04A06:  MOVWF  xAF
04A08:  MOVLW  9B
04A0A:  MOVWF  xAE
04A0C:  MOVFF  69A,6B0
04A10:  MOVLW  01
04A12:  MOVWF  xB1
04A14:  MOVLB  0
04A16:  CALL   2C84
04A1A:  MOVLB  6
....................       } 
....................       if(sombreado==1) 
04A1C:  DECFSZ x99,W
04A1E:  BRA    4A78
....................          {glcd_rect(x, y, x+(tamano*5), y+(tamano*8), YES, ON);glcd_text57(x+1, y+1, voltage, tamano, OFF);} 
04A20:  MOVF   x9A,W
04A22:  MULLW  05
04A24:  MOVF   FF3,W
04A26:  ADDWF  x97,W
04A28:  MOVWF  xA4
04A2A:  MOVF   x9A,W
04A2C:  MULLW  08
04A2E:  MOVF   FF3,W
04A30:  ADDWF  x98,W
04A32:  MOVWF  xA5
04A34:  MOVFF  697,6AC
04A38:  MOVFF  698,6AD
04A3C:  MOVFF  6A4,6AE
04A40:  MOVWF  xAF
04A42:  MOVLW  01
04A44:  MOVWF  xB0
04A46:  MOVWF  xB1
04A48:  MOVLB  0
04A4A:  CALL   2F86
04A4E:  MOVLW  01
04A50:  MOVLB  6
04A52:  ADDWF  x97,W
04A54:  MOVWF  xA4
04A56:  MOVLW  01
04A58:  ADDWF  x98,W
04A5A:  MOVWF  xA5
04A5C:  MOVFF  6A4,6AC
04A60:  MOVWF  xAD
04A62:  MOVLW  06
04A64:  MOVWF  xAF
04A66:  MOVLW  9B
04A68:  MOVWF  xAE
04A6A:  MOVFF  69A,6B0
04A6E:  CLRF   xB1
04A70:  MOVLB  0
04A72:  CALL   2C84
04A76:  MOVLB  6
....................       if(sombreado==0) 
04A78:  MOVF   x99,F
04A7A:  BNZ   4AD6
....................          {glcd_rect(x, y, x+(tamano*5), y+(tamano*8), YES, OFF);glcd_text57(x+1, y+1, voltage, tamano, ON);} 
04A7C:  MOVF   x9A,W
04A7E:  MULLW  05
04A80:  MOVF   FF3,W
04A82:  ADDWF  x97,W
04A84:  MOVWF  xA4
04A86:  MOVF   x9A,W
04A88:  MULLW  08
04A8A:  MOVF   FF3,W
04A8C:  ADDWF  x98,W
04A8E:  MOVWF  xA5
04A90:  MOVFF  697,6AC
04A94:  MOVFF  698,6AD
04A98:  MOVFF  6A4,6AE
04A9C:  MOVWF  xAF
04A9E:  MOVLW  01
04AA0:  MOVWF  xB0
04AA2:  CLRF   xB1
04AA4:  MOVLB  0
04AA6:  CALL   2F86
04AAA:  MOVLW  01
04AAC:  MOVLB  6
04AAE:  ADDWF  x97,W
04AB0:  MOVWF  xA4
04AB2:  MOVLW  01
04AB4:  ADDWF  x98,W
04AB6:  MOVWF  xA5
04AB8:  MOVFF  6A4,6AC
04ABC:  MOVWF  xAD
04ABE:  MOVLW  06
04AC0:  MOVWF  xAF
04AC2:  MOVLW  9B
04AC4:  MOVWF  xAE
04AC6:  MOVFF  69A,6B0
04ACA:  MOVLW  01
04ACC:  MOVWF  xB1
04ACE:  MOVLB  0
04AD0:  CALL   2C84
04AD4:  MOVLB  6
....................    } 
....................    glcd_update(); 
04AD6:  MOVLB  0
04AD8:  CALL   2A68
.................... } 
04ADC:  RETLW  00
....................  
.................... void glcd_imagen(int8 x) 
.................... { 
....................    char i,j; 
....................    signed char k;  
....................     
....................    if(x==5){ 
*
05236:  MOVLB  6
05238:  MOVF   x93,W
0523A:  SUBLW  05
0523C:  BNZ   52E8
....................    for( i = 0 ; i < 64 ; i ++ ) 
0523E:  CLRF   x94
05240:  MOVF   x94,W
05242:  SUBLW  3F
05244:  BNC   52E8
....................    {   
....................       for( j = 0 ; j < 16 ; j ++) 
05246:  CLRF   x95
05248:  MOVF   x95,W
0524A:  SUBLW  0F
0524C:  BNC   52E4
....................       {     
....................          for(k=7;k>-1;k--) 
0524E:  MOVLW  07
05250:  MOVWF  x96
05252:  MOVF   x96,W
05254:  XORLW  80
05256:  SUBLW  7F
05258:  BC    52E0
....................          {       
....................             if( bit_test(Horno[i][j] ,7-k ))  
0525A:  CLRF   x98
0525C:  MOVFF  694,697
05260:  CLRF   x9A
05262:  MOVLW  10
05264:  MOVWF  x99
05266:  MOVLB  0
05268:  CALL   319C
0526C:  MOVFF  02,698
05270:  MOVFF  01,697
05274:  MOVLB  6
05276:  MOVF   x95,W
05278:  ADDWF  01,W
0527A:  MOVWF  01
0527C:  MOVLW  00
0527E:  ADDWFC 02,W
05280:  MOVWF  03
05282:  MOVF   01,W
05284:  MOVFF  FF2,697
05288:  BCF    FF2.6
0528A:  BCF    FF2.7
0528C:  MOVFF  03,FF7
05290:  MOVLB  0
05292:  CALL   0374
05296:  MOVLB  6
05298:  BTFSC  x97.6
0529A:  BSF    FF2.6
0529C:  BTFSC  x97.7
0529E:  BSF    FF2.7
052A0:  MOVWF  x97
052A2:  MOVLW  07
052A4:  BSF    FD8.0
052A6:  SUBFWB x96,W
052A8:  MOVWF  x98
052AA:  MOVFF  697,00
052AE:  MOVF   x98,W
052B0:  MOVWF  01
052B2:  BZ    52BC
052B4:  BCF    FD8.0
052B6:  RRCF   00,F
052B8:  DECFSZ 01,F
052BA:  BRA    52B4
052BC:  BTFSS  00.0
052BE:  BRA    52DC
....................                glcd_pixel( j*8+k,i, ON ); 
052C0:  MOVF   x95,W
052C2:  MULLW  08
052C4:  MOVF   FF3,W
052C6:  ADDWF  x96,W
052C8:  MOVWF  x97
052CA:  MOVWF  xC7
052CC:  MOVFF  694,6C8
052D0:  MOVLW  01
052D2:  MOVWF  xC9
052D4:  MOVLB  0
052D6:  CALL   2BC8
052DA:  MOVLB  6
....................          }   
052DC:  DECF   x96,F
052DE:  BRA    5252
....................       } 
052E0:  INCF   x95,F
052E2:  BRA    5248
....................    } 
052E4:  INCF   x94,F
052E6:  BRA    5240
....................    } 
....................     
.................... } 
052E8:  MOVLB  0
052EA:  GOTO   8D70 (RETURN)
....................  
....................     
.................... void Limpia(int x1,int x2,int y){ 
....................    glcd_rect(x1, y, x2, y+7, YES, OFF); 
.................... } 
....................  
.................... void displayT(float adc,int x,int y,int w) { 
....................    char voltage[9];     
....................    sprintf(voltage, "%03.1f",adc); // Converts adc to text 
*
06B76:  MOVLW  06
06B78:  MOVLB  6
06B7A:  MOVWF  x92
06B7C:  MOVLW  9A
06B7E:  MOVWF  x91
06B80:  MOVLW  42
06B82:  MOVWF  FE9
06B84:  MOVFF  696,6A9
06B88:  MOVFF  695,6A8
06B8C:  MOVFF  694,6A7
06B90:  MOVFF  693,6A6
06B94:  MOVLW  01
06B96:  MOVWF  xAA
06B98:  MOVLB  0
06B9A:  CALL   4BA2
....................    glcd_rect(x, y, x+(w*27), y+(w*7), YES, OFF); 
06B9E:  MOVLB  6
06BA0:  MOVF   x99,W
06BA2:  MULLW  1B
06BA4:  MOVF   FF3,W
06BA6:  ADDWF  x97,W
06BA8:  MOVWF  xA3
06BAA:  MOVF   x99,W
06BAC:  MULLW  07
06BAE:  MOVF   FF3,W
06BB0:  ADDWF  x98,W
06BB2:  MOVWF  xA4
06BB4:  MOVFF  697,6AC
06BB8:  MOVFF  698,6AD
06BBC:  MOVFF  6A3,6AE
06BC0:  MOVWF  xAF
06BC2:  MOVLW  01
06BC4:  MOVWF  xB0
06BC6:  CLRF   xB1
06BC8:  MOVLB  0
06BCA:  CALL   2F86
....................    glcd_text57(x, y, voltage, w, ON); 
06BCE:  MOVFF  697,6AC
06BD2:  MOVFF  698,6AD
06BD6:  MOVLW  06
06BD8:  MOVLB  6
06BDA:  MOVWF  xAF
06BDC:  MOVLW  9A
06BDE:  MOVWF  xAE
06BE0:  MOVFF  699,6B0
06BE4:  MOVLW  01
06BE6:  MOVWF  xB1
06BE8:  MOVLB  0
06BEA:  CALL   2C84
.................... } 
06BEE:  RETLW  00
....................  
.................... void displayContrasena(int digito, int x, int y, int sombreado) 
.................... { 
....................    char voltage[9]; 
....................    sprintf(voltage, "%i", digito); 
*
03BD8:  MOVLW  06
03BDA:  MOVLB  6
03BDC:  MOVWF  x92
03BDE:  MOVLW  A1
03BE0:  MOVWF  x91
03BE2:  MOVFF  69D,6AA
03BE6:  MOVLW  1F
03BE8:  MOVWF  xAB
03BEA:  MOVLB  0
03BEC:  BRA    3AF8
....................     
....................    if(sombreado==1) 
03BEE:  MOVLB  6
03BF0:  DECFSZ xA0,W
03BF2:  BRA    3C46
....................       {glcd_rect(x, y, x+18, y+24, YES, ON);glcd_text57(x+2, y+1, voltage, 2, OFF);} 
03BF4:  MOVLW  12
03BF6:  ADDWF  x9E,W
03BF8:  MOVWF  xAA
03BFA:  MOVLW  18
03BFC:  ADDWF  x9F,W
03BFE:  MOVWF  xAB
03C00:  MOVFF  69E,6AC
03C04:  MOVFF  69F,6AD
03C08:  MOVFF  6AA,6AE
03C0C:  MOVWF  xAF
03C0E:  MOVLW  01
03C10:  MOVWF  xB0
03C12:  MOVWF  xB1
03C14:  MOVLB  0
03C16:  CALL   2F86
03C1A:  MOVLW  02
03C1C:  MOVLB  6
03C1E:  ADDWF  x9E,W
03C20:  MOVWF  xAA
03C22:  MOVLW  01
03C24:  ADDWF  x9F,W
03C26:  MOVWF  xAB
03C28:  MOVFF  6AA,6AC
03C2C:  MOVWF  xAD
03C2E:  MOVLW  06
03C30:  MOVWF  xAF
03C32:  MOVLW  A1
03C34:  MOVWF  xAE
03C36:  MOVLW  02
03C38:  MOVWF  xB0
03C3A:  CLRF   xB1
03C3C:  MOVLB  0
03C3E:  CALL   2C84
....................    else    
03C42:  BRA    3C94
03C44:  MOVLB  6
....................       {glcd_rect(x, y, x+18, y+24, NO, OFF);glcd_text57(x+2, y+1, voltage, 2, ON);} 
03C46:  MOVLW  12
03C48:  ADDWF  x9E,W
03C4A:  MOVWF  xAA
03C4C:  MOVLW  18
03C4E:  ADDWF  x9F,W
03C50:  MOVWF  xAB
03C52:  MOVFF  69E,6AC
03C56:  MOVFF  69F,6AD
03C5A:  MOVFF  6AA,6AE
03C5E:  MOVWF  xAF
03C60:  CLRF   xB0
03C62:  CLRF   xB1
03C64:  MOVLB  0
03C66:  CALL   2F86
03C6A:  MOVLW  02
03C6C:  MOVLB  6
03C6E:  ADDWF  x9E,W
03C70:  MOVWF  xAA
03C72:  MOVLW  01
03C74:  ADDWF  x9F,W
03C76:  MOVWF  xAB
03C78:  MOVFF  6AA,6AC
03C7C:  MOVWF  xAD
03C7E:  MOVLW  06
03C80:  MOVWF  xAF
03C82:  MOVLW  A1
03C84:  MOVWF  xAE
03C86:  MOVLW  02
03C88:  MOVWF  xB0
03C8A:  MOVLW  01
03C8C:  MOVWF  xB1
03C8E:  MOVLB  0
03C90:  CALL   2C84
....................  
.................... } 
03C94:  RETLW  00
....................  
.................... void MensajeAlmacenado(){ 
....................    glcd_fillScreen(OFF); 
*
03CA4:  MOVLB  6
03CA6:  CLRF   x9B
03CA8:  MOVLB  0
03CAA:  CALL   2A0E
....................    strcpy(Menus.Letra,"Valor"); 
03CAE:  MOVLW  06
03CB0:  MOVWF  FEA
03CB2:  MOVLW  73
03CB4:  MOVWF  FE9
03CB6:  MOVFF  FF2,69B
03CBA:  BCF    FF2.6
03CBC:  BCF    FF2.7
03CBE:  MOVLW  00
03CC0:  CALL   07BC
03CC4:  TBLRD*-
03CC6:  TBLRD*+
03CC8:  MOVF   FF5,W
03CCA:  MOVWF  FEE
03CCC:  IORLW  00
03CCE:  BNZ   3CC6
03CD0:  MOVLB  6
03CD2:  BTFSC  x9B.6
03CD4:  BSF    FF2.6
03CD6:  BTFSC  x9B.7
03CD8:  BSF    FF2.7
....................    displayMenu(Menus.Letra,30,0,0,2); 
03CDA:  MOVLW  06
03CDC:  MOVWF  x9C
03CDE:  MOVLW  73
03CE0:  MOVWF  x9B
03CE2:  MOVLW  1E
03CE4:  MOVWF  x9D
03CE6:  CLRF   x9E
03CE8:  CLRF   x9F
03CEA:  MOVLW  02
03CEC:  MOVWF  xA0
03CEE:  MOVLB  0
03CF0:  CALL   3048
....................    strcpy(Menus.Letra," Almacenado"); 
03CF4:  MOVLW  06
03CF6:  MOVWF  FEA
03CF8:  MOVLW  73
03CFA:  MOVWF  FE9
03CFC:  MOVFF  FF2,69B
03D00:  BCF    FF2.6
03D02:  BCF    FF2.7
03D04:  MOVLW  00
03D06:  CALL   07E6
03D0A:  TBLRD*-
03D0C:  TBLRD*+
03D0E:  MOVF   FF5,W
03D10:  MOVWF  FEE
03D12:  IORLW  00
03D14:  BNZ   3D0C
03D16:  MOVLB  6
03D18:  BTFSC  x9B.6
03D1A:  BSF    FF2.6
03D1C:  BTFSC  x9B.7
03D1E:  BSF    FF2.7
....................    displayMenu(Menus.Letra,0,30,0,2); 
03D20:  MOVLW  06
03D22:  MOVWF  x9C
03D24:  MOVLW  73
03D26:  MOVWF  x9B
03D28:  CLRF   x9D
03D2A:  MOVLW  1E
03D2C:  MOVWF  x9E
03D2E:  CLRF   x9F
03D30:  MOVLW  02
03D32:  MOVWF  xA0
03D34:  MOVLB  0
03D36:  CALL   3048
....................    glcd_update(); 
03D3A:  CALL   2A68
....................    delay_ms(2000); 
03D3E:  MOVLW  08
03D40:  MOVLB  6
03D42:  MOVWF  x9B
03D44:  MOVLW  FA
03D46:  MOVWF  x9C
03D48:  MOVLB  0
03D4A:  CALL   131C
03D4E:  MOVLB  6
03D50:  DECFSZ x9B,F
03D52:  BRA    3D44
....................    glcd_fillScreen(OFF); 
03D54:  CLRF   x9B
03D56:  MOVLB  0
03D58:  CALL   2A0E
.................... } 
03D5C:  RETLW  00
....................  
.................... void ConfiguraInterrupciones(){ 
....................    delay_ms(1000);      
*
01344:  MOVLW  04
01346:  MOVLB  6
01348:  MOVWF  x93
0134A:  MOVLW  FA
0134C:  MOVWF  x9C
0134E:  MOVLB  0
01350:  RCALL  131C
01352:  MOVLB  6
01354:  DECFSZ x93,F
01356:  BRA    134A
....................    enable_interrupts(INT_EXT_L2H); 
01358:  BSF    FF2.4
0135A:  BSF    FF1.6
....................    setup_timer_0(RTCC_8_BIT|RTCC_DIV_256); 
0135C:  MOVLW  C7
0135E:  MOVWF  FD5
....................    enable_interrupts(INT_TIMER0); 
01360:  BSF    FF2.5
....................    setup_timer_1(T1_INTERNAL|T1_DIV_BY_1); 
01362:  MOVLW  85
01364:  MOVWF  FCD
....................    enable_interrupts(INT_TIMER1); 
01366:  BSF    F9D.0
....................    setup_adc_ports(AN0); 
01368:  MOVF   FC1,W
0136A:  ANDLW  C0
0136C:  IORLW  0E
0136E:  MOVWF  FC1
....................    setup_adc(ADC_CLOCK_DIV_64 ); 
01370:  MOVF   FC0,W
01372:  ANDLW  C0
01374:  IORLW  06
01376:  MOVWF  FC0
01378:  BSF    FC0.7
0137A:  BSF    FC2.0
....................    set_timer0(0); 
0137C:  CLRF   FD7
0137E:  CLRF   FD6
....................    enable_interrupts(global); 
01380:  MOVLW  C0
01382:  IORWF  FF2,F
.................... } 
01384:  MOVLB  0
01386:  GOTO   71D4 (RETURN)
....................  
.................... void MensajeBienvenida(){ 
....................    glcd_init(ON);             //Inicializa la glcd 
*
036E4:  MOVLW  01
036E6:  MOVLB  6
036E8:  MOVWF  x93
036EA:  MOVLB  0
036EC:  CALL   2B20
....................    glcd_fillScreen(OFF);      //Limpia la pantalla 
036F0:  MOVLB  6
036F2:  CLRF   x9B
036F4:  MOVLB  0
036F6:  CALL   2A0E
....................    strcpy(Menus.Letra,"JP Inglobal"); 
036FA:  MOVLW  06
036FC:  MOVWF  FEA
036FE:  MOVLW  73
03700:  MOVWF  FE9
03702:  MOVFF  FF2,693
03706:  BCF    FF2.6
03708:  BCF    FF2.7
0370A:  MOVLW  00
0370C:  CALL   0816
03710:  TBLRD*-
03712:  TBLRD*+
03714:  MOVF   FF5,W
03716:  MOVWF  FEE
03718:  IORLW  00
0371A:  BNZ   3712
0371C:  MOVLB  6
0371E:  BTFSC  x93.6
03720:  BSF    FF2.6
03722:  BTFSC  x93.7
03724:  BSF    FF2.7
....................    displayMenu(Menus.Letra,0,0,0,2);      
03726:  MOVLW  06
03728:  MOVWF  x9C
0372A:  MOVLW  73
0372C:  MOVWF  x9B
0372E:  CLRF   x9D
03730:  CLRF   x9E
03732:  CLRF   x9F
03734:  MOVLW  02
03736:  MOVWF  xA0
03738:  MOVLB  0
0373A:  RCALL  3048
....................    strcpy(Menus.Letra,"   Incubadora"); 
0373C:  MOVLW  06
0373E:  MOVWF  FEA
03740:  MOVLW  73
03742:  MOVWF  FE9
03744:  MOVFF  FF2,693
03748:  BCF    FF2.6
0374A:  BCF    FF2.7
0374C:  MOVLW  00
0374E:  CALL   0846
03752:  TBLRD*-
03754:  TBLRD*+
03756:  MOVF   FF5,W
03758:  MOVWF  FEE
0375A:  IORLW  00
0375C:  BNZ   3754
0375E:  MOVLB  6
03760:  BTFSC  x93.6
03762:  BSF    FF2.6
03764:  BTFSC  x93.7
03766:  BSF    FF2.7
....................    displayMenu(Menus.Letra,0,20,0,1);        
03768:  MOVLW  06
0376A:  MOVWF  x9C
0376C:  MOVLW  73
0376E:  MOVWF  x9B
03770:  CLRF   x9D
03772:  MOVLW  14
03774:  MOVWF  x9E
03776:  CLRF   x9F
03778:  MOVLW  01
0377A:  MOVWF  xA0
0377C:  MOVLB  0
0377E:  RCALL  3048
....................    strcpy(Menus.Letra,"     Digital  "); 
03780:  MOVLW  06
03782:  MOVWF  FEA
03784:  MOVLW  73
03786:  MOVWF  FE9
03788:  MOVFF  FF2,693
0378C:  BCF    FF2.6
0378E:  BCF    FF2.7
03790:  MOVLW  00
03792:  CALL   0878
03796:  TBLRD*-
03798:  TBLRD*+
0379A:  MOVF   FF5,W
0379C:  MOVWF  FEE
0379E:  IORLW  00
037A0:  BNZ   3798
037A2:  MOVLB  6
037A4:  BTFSC  x93.6
037A6:  BSF    FF2.6
037A8:  BTFSC  x93.7
037AA:  BSF    FF2.7
....................    displayMenu(Menus.Letra,0,30,0,1); 
037AC:  MOVLW  06
037AE:  MOVWF  x9C
037B0:  MOVLW  73
037B2:  MOVWF  x9B
037B4:  CLRF   x9D
037B6:  MOVLW  1E
037B8:  MOVWF  x9E
037BA:  CLRF   x9F
037BC:  MOVLW  01
037BE:  MOVWF  xA0
037C0:  MOVLB  0
037C2:  RCALL  3048
....................    strcpy(Menus.Letra,"   105 Lts"); 
037C4:  MOVLW  06
037C6:  MOVWF  FEA
037C8:  MOVLW  73
037CA:  MOVWF  FE9
037CC:  MOVFF  FF2,693
037D0:  BCF    FF2.6
037D2:  BCF    FF2.7
037D4:  MOVLW  00
037D6:  CALL   08AC
037DA:  TBLRD*-
037DC:  TBLRD*+
037DE:  MOVF   FF5,W
037E0:  MOVWF  FEE
037E2:  IORLW  00
037E4:  BNZ   37DC
037E6:  MOVLB  6
037E8:  BTFSC  x93.6
037EA:  BSF    FF2.6
037EC:  BTFSC  x93.7
037EE:  BSF    FF2.7
....................    displayMenu(Menus.Letra,0,45,0,2); 
037F0:  MOVLW  06
037F2:  MOVWF  x9C
037F4:  MOVLW  73
037F6:  MOVWF  x9B
037F8:  CLRF   x9D
037FA:  MOVLW  2D
037FC:  MOVWF  x9E
037FE:  CLRF   x9F
03800:  MOVLW  02
03802:  MOVWF  xA0
03804:  MOVLB  0
03806:  RCALL  3048
....................    delay_ms(1000); 
03808:  MOVLW  04
0380A:  MOVLB  6
0380C:  MOVWF  x93
0380E:  MOVLW  FA
03810:  MOVWF  x9C
03812:  MOVLB  0
03814:  CALL   131C
03818:  MOVLB  6
0381A:  DECFSZ x93,F
0381C:  BRA    380E
....................    glcd_fillScreen(OFF);      //Limpia la pantalla 
0381E:  CLRF   x9B
03820:  MOVLB  0
03822:  CALL   2A0E
....................     
....................    for(i=0;i<80;i++){ 
03826:  MOVLB  5
03828:  CLRF   xB5
0382A:  MOVF   xB5,W
0382C:  SUBLW  4F
0382E:  BNC   384E
....................       Temperatura=Leer_Sensor(MediaMovil); 
03830:  MOVFF  5A5,693
03834:  MOVLB  0
03836:  RCALL  32B4
03838:  MOVFF  03,643
0383C:  MOVFF  02,642
03840:  MOVFF  01,641
03844:  MOVFF  00,640
....................    } 
03848:  MOVLB  5
0384A:  INCF   xB5,F
0384C:  BRA    382A
.................... } 
0384E:  MOVLB  0
03850:  GOTO   71E0 (RETURN)
....................  
.................... void LeeEEPROM(){ 
....................    Testerilizacionp[0]=read_eeprom(0); 
*
01796:  MOVFF  FF2,693
0179A:  BCF    FF2.6
0179C:  BCF    FF2.7
0179E:  CLRF   FAA
017A0:  CLRF   FA9
017A2:  BCF    FA6.6
017A4:  BCF    FA6.7
017A6:  BSF    FA6.0
017A8:  MOVF   FA8,W
017AA:  MOVLB  6
017AC:  BTFSC  x93.6
017AE:  BSF    FF2.6
017B0:  BTFSC  x93.7
017B2:  BSF    FF2.7
017B4:  MOVLB  5
017B6:  MOVWF  xFC
....................    delay_ms(20);    
017B8:  MOVLW  14
017BA:  MOVLB  6
017BC:  MOVWF  x9C
017BE:  MOVLB  0
017C0:  RCALL  131C
....................    Testerilizacionp[1]=read_eeprom(1); 
017C2:  MOVFF  FF2,693
017C6:  BCF    FF2.6
017C8:  BCF    FF2.7
017CA:  CLRF   FAA
017CC:  MOVLW  01
017CE:  MOVWF  FA9
017D0:  BCF    FA6.6
017D2:  BCF    FA6.7
017D4:  BSF    FA6.0
017D6:  MOVF   FA8,W
017D8:  MOVLB  6
017DA:  BTFSC  x93.6
017DC:  BSF    FF2.6
017DE:  BTFSC  x93.7
017E0:  BSF    FF2.7
017E2:  MOVLB  5
017E4:  MOVWF  xFD
....................    delay_ms(20);    
017E6:  MOVLW  14
017E8:  MOVLB  6
017EA:  MOVWF  x9C
017EC:  MOVLB  0
017EE:  RCALL  131C
....................    Testerilizacionp[2]=read_eeprom(2); 
017F0:  MOVFF  FF2,693
017F4:  BCF    FF2.6
017F6:  BCF    FF2.7
017F8:  CLRF   FAA
017FA:  MOVLW  02
017FC:  MOVWF  FA9
017FE:  BCF    FA6.6
01800:  BCF    FA6.7
01802:  BSF    FA6.0
01804:  MOVF   FA8,W
01806:  MOVLB  6
01808:  BTFSC  x93.6
0180A:  BSF    FF2.6
0180C:  BTFSC  x93.7
0180E:  BSF    FF2.7
01810:  MOVLB  5
01812:  MOVWF  xFE
....................    delay_ms(20); 
01814:  MOVLW  14
01816:  MOVLB  6
01818:  MOVWF  x9C
0181A:  MOVLB  0
0181C:  RCALL  131C
....................    Testerilizacionp[3]=read_eeprom(3); 
0181E:  MOVFF  FF2,693
01822:  BCF    FF2.6
01824:  BCF    FF2.7
01826:  CLRF   FAA
01828:  MOVLW  03
0182A:  MOVWF  FA9
0182C:  BCF    FA6.6
0182E:  BCF    FA6.7
01830:  BSF    FA6.0
01832:  MOVF   FA8,W
01834:  MOVLB  6
01836:  BTFSC  x93.6
01838:  BSF    FF2.6
0183A:  BTFSC  x93.7
0183C:  BSF    FF2.7
0183E:  MOVLB  5
01840:  MOVWF  xFF
....................    delay_ms(20);    
01842:  MOVLW  14
01844:  MOVLB  6
01846:  MOVWF  x9C
01848:  MOVLB  0
0184A:  RCALL  131C
....................    Password[0]=read_eeprom(4); 
0184C:  MOVFF  FF2,693
01850:  BCF    FF2.6
01852:  BCF    FF2.7
01854:  CLRF   FAA
01856:  MOVLW  04
01858:  MOVWF  FA9
0185A:  BCF    FA6.6
0185C:  BCF    FA6.7
0185E:  BSF    FA6.0
01860:  MOVF   FA8,W
01862:  MOVLB  6
01864:  BTFSC  x93.6
01866:  BSF    FF2.6
01868:  BTFSC  x93.7
0186A:  BSF    FF2.7
0186C:  MOVWF  x04
....................    delay_ms(20);    
0186E:  MOVLW  14
01870:  MOVWF  x9C
01872:  MOVLB  0
01874:  RCALL  131C
....................    Password[1]=read_eeprom(5); 
01876:  MOVFF  FF2,693
0187A:  BCF    FF2.6
0187C:  BCF    FF2.7
0187E:  CLRF   FAA
01880:  MOVLW  05
01882:  MOVWF  FA9
01884:  BCF    FA6.6
01886:  BCF    FA6.7
01888:  BSF    FA6.0
0188A:  MOVF   FA8,W
0188C:  MOVLB  6
0188E:  BTFSC  x93.6
01890:  BSF    FF2.6
01892:  BTFSC  x93.7
01894:  BSF    FF2.7
01896:  MOVWF  x05
....................    delay_ms(20);    
01898:  MOVLW  14
0189A:  MOVWF  x9C
0189C:  MOVLB  0
0189E:  RCALL  131C
....................    Password[2]=read_eeprom(6); 
018A0:  MOVFF  FF2,693
018A4:  BCF    FF2.6
018A6:  BCF    FF2.7
018A8:  CLRF   FAA
018AA:  MOVLW  06
018AC:  MOVWF  FA9
018AE:  BCF    FA6.6
018B0:  BCF    FA6.7
018B2:  BSF    FA6.0
018B4:  MOVF   FA8,W
018B6:  MOVLB  6
018B8:  BTFSC  x93.6
018BA:  BSF    FF2.6
018BC:  BTFSC  x93.7
018BE:  BSF    FF2.7
018C0:  MOVWF  x06
....................    delay_ms(20);    
018C2:  MOVLW  14
018C4:  MOVWF  x9C
018C6:  MOVLB  0
018C8:  RCALL  131C
....................    Password[3]=read_eeprom(7); 
018CA:  MOVFF  FF2,693
018CE:  BCF    FF2.6
018D0:  BCF    FF2.7
018D2:  CLRF   FAA
018D4:  MOVLW  07
018D6:  MOVWF  FA9
018D8:  BCF    FA6.6
018DA:  BCF    FA6.7
018DC:  BSF    FA6.0
018DE:  MOVF   FA8,W
018E0:  MOVLB  6
018E2:  BTFSC  x93.6
018E4:  BSF    FF2.6
018E6:  BTFSC  x93.7
018E8:  BSF    FF2.7
018EA:  MOVWF  x07
....................    delay_ms(20);    
018EC:  MOVLW  14
018EE:  MOVWF  x9C
018F0:  MOVLB  0
018F2:  RCALL  131C
....................  
....................    entero=read_eeprom(8); 
018F4:  MOVFF  FF2,693
018F8:  BCF    FF2.6
018FA:  BCF    FF2.7
018FC:  CLRF   FAA
018FE:  MOVLW  08
01900:  MOVWF  FA9
01902:  BCF    FA6.6
01904:  BCF    FA6.7
01906:  BSF    FA6.0
01908:  MOVF   FA8,W
0190A:  MOVLB  6
0190C:  BTFSC  x93.6
0190E:  BSF    FF2.6
01910:  BTFSC  x93.7
01912:  BSF    FF2.7
01914:  MOVLB  5
01916:  MOVWF  xBE
....................    delay_ms(20);    
01918:  MOVLW  14
0191A:  MOVLB  6
0191C:  MOVWF  x9C
0191E:  MOVLB  0
01920:  RCALL  131C
....................    Temporal=read_eeprom(9); 
01922:  MOVFF  FF2,693
01926:  BCF    FF2.6
01928:  BCF    FF2.7
0192A:  CLRF   FAA
0192C:  MOVLW  09
0192E:  MOVWF  FA9
01930:  BCF    FA6.6
01932:  BCF    FA6.7
01934:  BSF    FA6.0
01936:  MOVF   FA8,W
01938:  MOVLB  6
0193A:  BTFSC  x93.6
0193C:  BSF    FF2.6
0193E:  BTFSC  x93.7
01940:  BSF    FF2.7
01942:  CLRF   xA0
01944:  MOVWF  x9F
01946:  MOVLB  0
01948:  RCALL  138A
0194A:  MOVFF  03,65B
0194E:  MOVFF  02,65A
01952:  MOVFF  01,659
01956:  MOVFF  00,658
....................    Temporal=Temporal/10.0; 
0195A:  MOVFF  65B,697
0195E:  MOVFF  65A,696
01962:  MOVFF  659,695
01966:  MOVFF  658,694
0196A:  MOVLB  6
0196C:  CLRF   x9B
0196E:  CLRF   x9A
01970:  MOVLW  20
01972:  MOVWF  x99
01974:  MOVLW  82
01976:  MOVWF  x98
01978:  MOVLB  0
0197A:  RCALL  13C0
0197C:  MOVFF  03,65B
01980:  MOVFF  02,65A
01984:  MOVFF  01,659
01988:  MOVFF  00,658
....................    Temperatura1=entero+Temporal; 
0198C:  MOVLB  6
0198E:  CLRF   xA0
01990:  MOVFF  5BE,69F
01994:  MOVLB  0
01996:  RCALL  138A
01998:  BCF    FD8.1
0199A:  MOVFF  03,6A2
0199E:  MOVFF  02,6A1
019A2:  MOVFF  01,6A0
019A6:  MOVFF  00,69F
019AA:  MOVFF  65B,6A6
019AE:  MOVFF  65A,6A5
019B2:  MOVFF  659,6A4
019B6:  MOVFF  658,6A3
019BA:  RCALL  151E
019BC:  MOVFF  03,64F
019C0:  MOVFF  02,64E
019C4:  MOVFF  01,64D
019C8:  MOVFF  00,64C
....................    delay_ms(20);    
019CC:  MOVLW  14
019CE:  MOVLB  6
019D0:  MOVWF  x9C
019D2:  MOVLB  0
019D4:  RCALL  131C
....................     
....................    entero=read_eeprom(10); 
019D6:  MOVFF  FF2,693
019DA:  BCF    FF2.6
019DC:  BCF    FF2.7
019DE:  CLRF   FAA
019E0:  MOVLW  0A
019E2:  MOVWF  FA9
019E4:  BCF    FA6.6
019E6:  BCF    FA6.7
019E8:  BSF    FA6.0
019EA:  MOVF   FA8,W
019EC:  MOVLB  6
019EE:  BTFSC  x93.6
019F0:  BSF    FF2.6
019F2:  BTFSC  x93.7
019F4:  BSF    FF2.7
019F6:  MOVLB  5
019F8:  MOVWF  xBE
....................    delay_ms(20);    
019FA:  MOVLW  14
019FC:  MOVLB  6
019FE:  MOVWF  x9C
01A00:  MOVLB  0
01A02:  RCALL  131C
....................    Temporal=read_eeprom(11); 
01A04:  MOVFF  FF2,693
01A08:  BCF    FF2.6
01A0A:  BCF    FF2.7
01A0C:  CLRF   FAA
01A0E:  MOVLW  0B
01A10:  MOVWF  FA9
01A12:  BCF    FA6.6
01A14:  BCF    FA6.7
01A16:  BSF    FA6.0
01A18:  MOVF   FA8,W
01A1A:  MOVLB  6
01A1C:  BTFSC  x93.6
01A1E:  BSF    FF2.6
01A20:  BTFSC  x93.7
01A22:  BSF    FF2.7
01A24:  CLRF   xA0
01A26:  MOVWF  x9F
01A28:  MOVLB  0
01A2A:  RCALL  138A
01A2C:  MOVFF  03,65B
01A30:  MOVFF  02,65A
01A34:  MOVFF  01,659
01A38:  MOVFF  00,658
....................    Temporal=Temporal/10.0; 
01A3C:  MOVFF  65B,697
01A40:  MOVFF  65A,696
01A44:  MOVFF  659,695
01A48:  MOVFF  658,694
01A4C:  MOVLB  6
01A4E:  CLRF   x9B
01A50:  CLRF   x9A
01A52:  MOVLW  20
01A54:  MOVWF  x99
01A56:  MOVLW  82
01A58:  MOVWF  x98
01A5A:  MOVLB  0
01A5C:  RCALL  13C0
01A5E:  MOVFF  03,65B
01A62:  MOVFF  02,65A
01A66:  MOVFF  01,659
01A6A:  MOVFF  00,658
....................    Temperatura2=entero+Temporal; 
01A6E:  MOVLB  6
01A70:  CLRF   xA0
01A72:  MOVFF  5BE,69F
01A76:  MOVLB  0
01A78:  RCALL  138A
01A7A:  BCF    FD8.1
01A7C:  MOVFF  03,6A2
01A80:  MOVFF  02,6A1
01A84:  MOVFF  01,6A0
01A88:  MOVFF  00,69F
01A8C:  MOVFF  65B,6A6
01A90:  MOVFF  65A,6A5
01A94:  MOVFF  659,6A4
01A98:  MOVFF  658,6A3
01A9C:  RCALL  151E
01A9E:  MOVFF  03,653
01AA2:  MOVFF  02,652
01AA6:  MOVFF  01,651
01AAA:  MOVFF  00,650
....................    delay_ms(20);    
01AAE:  MOVLW  14
01AB0:  MOVLB  6
01AB2:  MOVWF  x9C
01AB4:  MOVLB  0
01AB6:  RCALL  131C
....................     
....................    entero=read_eeprom(12); 
01AB8:  MOVFF  FF2,693
01ABC:  BCF    FF2.6
01ABE:  BCF    FF2.7
01AC0:  CLRF   FAA
01AC2:  MOVLW  0C
01AC4:  MOVWF  FA9
01AC6:  BCF    FA6.6
01AC8:  BCF    FA6.7
01ACA:  BSF    FA6.0
01ACC:  MOVF   FA8,W
01ACE:  MOVLB  6
01AD0:  BTFSC  x93.6
01AD2:  BSF    FF2.6
01AD4:  BTFSC  x93.7
01AD6:  BSF    FF2.7
01AD8:  MOVLB  5
01ADA:  MOVWF  xBE
....................    delay_ms(20);    
01ADC:  MOVLW  14
01ADE:  MOVLB  6
01AE0:  MOVWF  x9C
01AE2:  MOVLB  0
01AE4:  RCALL  131C
....................    Temporal=read_eeprom(13); 
01AE6:  MOVFF  FF2,693
01AEA:  BCF    FF2.6
01AEC:  BCF    FF2.7
01AEE:  CLRF   FAA
01AF0:  MOVLW  0D
01AF2:  MOVWF  FA9
01AF4:  BCF    FA6.6
01AF6:  BCF    FA6.7
01AF8:  BSF    FA6.0
01AFA:  MOVF   FA8,W
01AFC:  MOVLB  6
01AFE:  BTFSC  x93.6
01B00:  BSF    FF2.6
01B02:  BTFSC  x93.7
01B04:  BSF    FF2.7
01B06:  CLRF   xA0
01B08:  MOVWF  x9F
01B0A:  MOVLB  0
01B0C:  RCALL  138A
01B0E:  MOVFF  03,65B
01B12:  MOVFF  02,65A
01B16:  MOVFF  01,659
01B1A:  MOVFF  00,658
....................    Temporal=Temporal/10.0; 
01B1E:  MOVFF  65B,697
01B22:  MOVFF  65A,696
01B26:  MOVFF  659,695
01B2A:  MOVFF  658,694
01B2E:  MOVLB  6
01B30:  CLRF   x9B
01B32:  CLRF   x9A
01B34:  MOVLW  20
01B36:  MOVWF  x99
01B38:  MOVLW  82
01B3A:  MOVWF  x98
01B3C:  MOVLB  0
01B3E:  RCALL  13C0
01B40:  MOVFF  03,65B
01B44:  MOVFF  02,65A
01B48:  MOVFF  01,659
01B4C:  MOVFF  00,658
....................    Temperatura3=entero+Temporal; 
01B50:  MOVLB  6
01B52:  CLRF   xA0
01B54:  MOVFF  5BE,69F
01B58:  MOVLB  0
01B5A:  RCALL  138A
01B5C:  BCF    FD8.1
01B5E:  MOVFF  03,6A2
01B62:  MOVFF  02,6A1
01B66:  MOVFF  01,6A0
01B6A:  MOVFF  00,69F
01B6E:  MOVFF  65B,6A6
01B72:  MOVFF  65A,6A5
01B76:  MOVFF  659,6A4
01B7A:  MOVFF  658,6A3
01B7E:  RCALL  151E
01B80:  MOVFF  03,657
01B84:  MOVFF  02,656
01B88:  MOVFF  01,655
01B8C:  MOVFF  00,654
....................    delay_ms(20);    
01B90:  MOVLW  14
01B92:  MOVLB  6
01B94:  MOVWF  x9C
01B96:  MOVLB  0
01B98:  CALL   131C
....................     
....................     
....................    Ganancia=read_eeprom(14); 
01B9C:  MOVFF  FF2,693
01BA0:  BCF    FF2.6
01BA2:  BCF    FF2.7
01BA4:  CLRF   FAA
01BA6:  MOVLW  0E
01BA8:  MOVWF  FA9
01BAA:  BCF    FA6.6
01BAC:  BCF    FA6.7
01BAE:  BSF    FA6.0
01BB0:  MOVF   FA8,W
01BB2:  MOVLB  6
01BB4:  BTFSC  x93.6
01BB6:  BSF    FF2.6
01BB8:  BTFSC  x93.7
01BBA:  BSF    FF2.7
01BBC:  CLRF   xA0
01BBE:  MOVWF  x9F
01BC0:  MOVLB  0
01BC2:  CALL   138A
01BC6:  MOVFF  03,62F
01BCA:  MOVFF  02,62E
01BCE:  MOVFF  01,62D
01BD2:  MOVFF  00,62C
....................    delay_ms(10); 
01BD6:  MOVLW  0A
01BD8:  MOVLB  6
01BDA:  MOVWF  x9C
01BDC:  MOVLB  0
01BDE:  CALL   131C
....................    Integral=read_eeprom(15); 
01BE2:  MOVFF  FF2,693
01BE6:  BCF    FF2.6
01BE8:  BCF    FF2.7
01BEA:  CLRF   FAA
01BEC:  MOVLW  0F
01BEE:  MOVWF  FA9
01BF0:  BCF    FA6.6
01BF2:  BCF    FA6.7
01BF4:  BSF    FA6.0
01BF6:  MOVF   FA8,W
01BF8:  MOVLB  6
01BFA:  BTFSC  x93.6
01BFC:  BSF    FF2.6
01BFE:  BTFSC  x93.7
01C00:  BSF    FF2.7
01C02:  CLRF   xA0
01C04:  MOVWF  x9F
01C06:  MOVLB  0
01C08:  CALL   138A
01C0C:  MOVFF  03,5EF
01C10:  MOVFF  02,5EE
01C14:  MOVFF  01,5ED
01C18:  MOVFF  00,5EC
....................    delay_ms(10); 
01C1C:  MOVLW  0A
01C1E:  MOVLB  6
01C20:  MOVWF  x9C
01C22:  MOVLB  0
01C24:  CALL   131C
....................    Derivativo=read_eeprom(16); 
01C28:  MOVFF  FF2,693
01C2C:  BCF    FF2.6
01C2E:  BCF    FF2.7
01C30:  CLRF   FAA
01C32:  MOVLW  10
01C34:  MOVWF  FA9
01C36:  BCF    FA6.6
01C38:  BCF    FA6.7
01C3A:  BSF    FA6.0
01C3C:  MOVF   FA8,W
01C3E:  MOVLB  6
01C40:  BTFSC  x93.6
01C42:  BSF    FF2.6
01C44:  BTFSC  x93.7
01C46:  BSF    FF2.7
01C48:  CLRF   xA0
01C4A:  MOVWF  x9F
01C4C:  MOVLB  0
01C4E:  CALL   138A
01C52:  MOVFF  03,5F3
01C56:  MOVFF  02,5F2
01C5A:  MOVFF  01,5F1
01C5E:  MOVFF  00,5F0
....................    delay_ms(10); 
01C62:  MOVLW  0A
01C64:  MOVLB  6
01C66:  MOVWF  x9C
01C68:  MOVLB  0
01C6A:  CALL   131C
....................    Tciclo=read_eeprom(17); 
01C6E:  MOVFF  FF2,693
01C72:  BCF    FF2.6
01C74:  BCF    FF2.7
01C76:  CLRF   FAA
01C78:  MOVLW  11
01C7A:  MOVWF  FA9
01C7C:  BCF    FA6.6
01C7E:  BCF    FA6.7
01C80:  BSF    FA6.0
01C82:  MOVF   FA8,W
01C84:  MOVLB  6
01C86:  BTFSC  x93.6
01C88:  BSF    FF2.6
01C8A:  BTFSC  x93.7
01C8C:  BSF    FF2.7
01C8E:  CLRF   xA0
01C90:  MOVWF  x9F
01C92:  MOVLB  0
01C94:  CALL   138A
01C98:  MOVFF  03,617
01C9C:  MOVFF  02,616
01CA0:  MOVFF  01,615
01CA4:  MOVFF  00,614
....................    delay_ms(10); 
01CA8:  MOVLW  0A
01CAA:  MOVLB  6
01CAC:  MOVWF  x9C
01CAE:  MOVLB  0
01CB0:  CALL   131C
....................    Ajuste=read_eeprom(18); 
01CB4:  MOVFF  FF2,693
01CB8:  BCF    FF2.6
01CBA:  BCF    FF2.7
01CBC:  CLRF   FAA
01CBE:  MOVLW  12
01CC0:  MOVWF  FA9
01CC2:  BCF    FA6.6
01CC4:  BCF    FA6.7
01CC6:  BSF    FA6.0
01CC8:  MOVF   FA8,W
01CCA:  MOVLB  6
01CCC:  BTFSC  x93.6
01CCE:  BSF    FF2.6
01CD0:  BTFSC  x93.7
01CD2:  BSF    FF2.7
01CD4:  MOVLB  5
01CD6:  MOVWF  xA3
....................    delay_ms(10); 
01CD8:  MOVLW  0A
01CDA:  MOVLB  6
01CDC:  MOVWF  x9C
01CDE:  MOVLB  0
01CE0:  CALL   131C
....................    Ajusten=read_eeprom(19); 
01CE4:  MOVFF  FF2,693
01CE8:  BCF    FF2.6
01CEA:  BCF    FF2.7
01CEC:  CLRF   FAA
01CEE:  MOVLW  13
01CF0:  MOVWF  FA9
01CF2:  BCF    FA6.6
01CF4:  BCF    FA6.7
01CF6:  BSF    FA6.0
01CF8:  MOVF   FA8,W
01CFA:  MOVLB  6
01CFC:  BTFSC  x93.6
01CFE:  BSF    FF2.6
01D00:  BTFSC  x93.7
01D02:  BSF    FF2.7
01D04:  MOVLB  5
01D06:  MOVWF  xA4
....................    delay_ms(10); 
01D08:  MOVLW  0A
01D0A:  MOVLB  6
01D0C:  MOVWF  x9C
01D0E:  MOVLB  0
01D10:  CALL   131C
....................    //Desvio=read_eeprom(23); 
....................    MediaMovil=read_eeprom(20); 
01D14:  MOVFF  FF2,693
01D18:  BCF    FF2.6
01D1A:  BCF    FF2.7
01D1C:  CLRF   FAA
01D1E:  MOVLW  14
01D20:  MOVWF  FA9
01D22:  BCF    FA6.6
01D24:  BCF    FA6.7
01D26:  BSF    FA6.0
01D28:  MOVF   FA8,W
01D2A:  MOVLB  6
01D2C:  BTFSC  x93.6
01D2E:  BSF    FF2.6
01D30:  BTFSC  x93.7
01D32:  BSF    FF2.7
01D34:  MOVLB  5
01D36:  MOVWF  xA5
....................    delay_ms(10);  
01D38:  MOVLW  0A
01D3A:  MOVLB  6
01D3C:  MOVWF  x9C
01D3E:  MOVLB  0
01D40:  CALL   131C
....................     
....................    Temporal=read_eeprom(22); 
01D44:  MOVFF  FF2,693
01D48:  BCF    FF2.6
01D4A:  BCF    FF2.7
01D4C:  CLRF   FAA
01D4E:  MOVLW  16
01D50:  MOVWF  FA9
01D52:  BCF    FA6.6
01D54:  BCF    FA6.7
01D56:  BSF    FA6.0
01D58:  MOVF   FA8,W
01D5A:  MOVLB  6
01D5C:  BTFSC  x93.6
01D5E:  BSF    FF2.6
01D60:  BTFSC  x93.7
01D62:  BSF    FF2.7
01D64:  CLRF   xA0
01D66:  MOVWF  x9F
01D68:  MOVLB  0
01D6A:  CALL   138A
01D6E:  MOVFF  03,65B
01D72:  MOVFF  02,65A
01D76:  MOVFF  01,659
01D7A:  MOVFF  00,658
....................    Temporal=Temporal/10.0; 
01D7E:  MOVFF  65B,697
01D82:  MOVFF  65A,696
01D86:  MOVFF  659,695
01D8A:  MOVFF  658,694
01D8E:  MOVLB  6
01D90:  CLRF   x9B
01D92:  CLRF   x9A
01D94:  MOVLW  20
01D96:  MOVWF  x99
01D98:  MOVLW  82
01D9A:  MOVWF  x98
01D9C:  MOVLB  0
01D9E:  CALL   13C0
01DA2:  MOVFF  03,65B
01DA6:  MOVFF  02,65A
01DAA:  MOVFF  01,659
01DAE:  MOVFF  00,658
....................    delay_ms(10); 
01DB2:  MOVLW  0A
01DB4:  MOVLB  6
01DB6:  MOVWF  x9C
01DB8:  MOVLB  0
01DBA:  CALL   131C
....................    Gain=read_eeprom(21)+Temporal; 
01DBE:  MOVFF  FF2,693
01DC2:  BCF    FF2.6
01DC4:  BCF    FF2.7
01DC6:  CLRF   FAA
01DC8:  MOVLW  15
01DCA:  MOVWF  FA9
01DCC:  BCF    FA6.6
01DCE:  BCF    FA6.7
01DD0:  BSF    FA6.0
01DD2:  MOVF   FA8,W
01DD4:  MOVLB  6
01DD6:  BTFSC  x93.6
01DD8:  BSF    FF2.6
01DDA:  BTFSC  x93.7
01DDC:  BSF    FF2.7
01DDE:  CLRF   xA0
01DE0:  MOVWF  x9F
01DE2:  MOVLB  0
01DE4:  CALL   138A
01DE8:  BCF    FD8.1
01DEA:  MOVFF  03,6A2
01DEE:  MOVFF  02,6A1
01DF2:  MOVFF  01,6A0
01DF6:  MOVFF  00,69F
01DFA:  MOVFF  65B,6A6
01DFE:  MOVFF  65A,6A5
01E02:  MOVFF  659,6A4
01E06:  MOVFF  658,6A3
01E0A:  CALL   151E
01E0E:  MOVFF  03,5E7
01E12:  MOVFF  02,5E6
01E16:  MOVFF  01,5E5
01E1A:  MOVFF  00,5E4
....................    delay_ms(10); 
01E1E:  MOVLW  0A
01E20:  MOVLB  6
01E22:  MOVWF  x9C
01E24:  MOVLB  0
01E26:  CALL   131C
....................    R1=make16(read_eeprom(24),read_eeprom(23)); 
01E2A:  MOVFF  FF2,693
01E2E:  BCF    FF2.6
01E30:  BCF    FF2.7
01E32:  CLRF   FAA
01E34:  MOVLW  18
01E36:  MOVWF  FA9
01E38:  BCF    FA6.6
01E3A:  BCF    FA6.7
01E3C:  BSF    FA6.0
01E3E:  MOVF   FA8,W
01E40:  MOVLB  6
01E42:  BTFSC  x93.6
01E44:  BSF    FF2.6
01E46:  BTFSC  x93.7
01E48:  BSF    FF2.7
01E4A:  MOVWF  x94
01E4C:  MOVFF  FF2,695
01E50:  BCF    FF2.6
01E52:  BCF    FF2.7
01E54:  CLRF   FAA
01E56:  MOVLW  17
01E58:  MOVWF  FA9
01E5A:  BCF    FA6.6
01E5C:  BCF    FA6.7
01E5E:  BSF    FA6.0
01E60:  MOVF   FA8,W
01E62:  BTFSC  x95.6
01E64:  BSF    FF2.6
01E66:  BTFSC  x95.7
01E68:  BSF    FF2.7
01E6A:  MOVWF  x96
01E6C:  MOVFF  694,03
01E70:  MOVF   x96,W
01E72:  MOVWF  x9F
01E74:  MOVFF  03,6A0
01E78:  MOVLB  0
01E7A:  CALL   138A
01E7E:  MOVFF  03,60F
01E82:  MOVFF  02,60E
01E86:  MOVFF  01,60D
01E8A:  MOVFF  00,60C
....................    delay_ms(10); 
01E8E:  MOVLW  0A
01E90:  MOVLB  6
01E92:  MOVWF  x9C
01E94:  MOVLB  0
01E96:  CALL   131C
....................    Temporal=read_eeprom(26); 
01E9A:  MOVFF  FF2,693
01E9E:  BCF    FF2.6
01EA0:  BCF    FF2.7
01EA2:  CLRF   FAA
01EA4:  MOVLW  1A
01EA6:  MOVWF  FA9
01EA8:  BCF    FA6.6
01EAA:  BCF    FA6.7
01EAC:  BSF    FA6.0
01EAE:  MOVF   FA8,W
01EB0:  MOVLB  6
01EB2:  BTFSC  x93.6
01EB4:  BSF    FF2.6
01EB6:  BTFSC  x93.7
01EB8:  BSF    FF2.7
01EBA:  CLRF   xA0
01EBC:  MOVWF  x9F
01EBE:  MOVLB  0
01EC0:  CALL   138A
01EC4:  MOVFF  03,65B
01EC8:  MOVFF  02,65A
01ECC:  MOVFF  01,659
01ED0:  MOVFF  00,658
....................    Temporal=Temporal/10.0; 
01ED4:  MOVFF  65B,697
01ED8:  MOVFF  65A,696
01EDC:  MOVFF  659,695
01EE0:  MOVFF  658,694
01EE4:  MOVLB  6
01EE6:  CLRF   x9B
01EE8:  CLRF   x9A
01EEA:  MOVLW  20
01EEC:  MOVWF  x99
01EEE:  MOVLW  82
01EF0:  MOVWF  x98
01EF2:  MOVLB  0
01EF4:  CALL   13C0
01EF8:  MOVFF  03,65B
01EFC:  MOVFF  02,65A
01F00:  MOVFF  01,659
01F04:  MOVFF  00,658
....................    delay_ms(10); 
01F08:  MOVLW  0A
01F0A:  MOVLB  6
01F0C:  MOVWF  x9C
01F0E:  MOVLB  0
01F10:  CALL   131C
....................    RPT100=read_eeprom(25)+Temporal; 
01F14:  MOVFF  FF2,693
01F18:  BCF    FF2.6
01F1A:  BCF    FF2.7
01F1C:  CLRF   FAA
01F1E:  MOVLW  19
01F20:  MOVWF  FA9
01F22:  BCF    FA6.6
01F24:  BCF    FA6.7
01F26:  BSF    FA6.0
01F28:  MOVF   FA8,W
01F2A:  MOVLB  6
01F2C:  BTFSC  x93.6
01F2E:  BSF    FF2.6
01F30:  BTFSC  x93.7
01F32:  BSF    FF2.7
01F34:  CLRF   xA0
01F36:  MOVWF  x9F
01F38:  MOVLB  0
01F3A:  CALL   138A
01F3E:  BCF    FD8.1
01F40:  MOVFF  03,6A2
01F44:  MOVFF  02,6A1
01F48:  MOVFF  01,6A0
01F4C:  MOVFF  00,69F
01F50:  MOVFF  65B,6A6
01F54:  MOVFF  65A,6A5
01F58:  MOVFF  659,6A4
01F5C:  MOVFF  658,6A3
01F60:  CALL   151E
01F64:  MOVFF  03,5EB
01F68:  MOVFF  02,5EA
01F6C:  MOVFF  01,5E9
01F70:  MOVFF  00,5E8
....................    delay_ms(10); 
01F74:  MOVLW  0A
01F76:  MOVLB  6
01F78:  MOVWF  x9C
01F7A:  MOVLB  0
01F7C:  CALL   131C
....................    Source=read_eeprom(27); 
01F80:  MOVFF  FF2,693
01F84:  BCF    FF2.6
01F86:  BCF    FF2.7
01F88:  CLRF   FAA
01F8A:  MOVLW  1B
01F8C:  MOVWF  FA9
01F8E:  BCF    FA6.6
01F90:  BCF    FA6.7
01F92:  BSF    FA6.0
01F94:  MOVF   FA8,W
01F96:  MOVLB  6
01F98:  BTFSC  x93.6
01F9A:  BSF    FF2.6
01F9C:  BTFSC  x93.7
01F9E:  BSF    FF2.7
01FA0:  MOVLB  5
01FA2:  MOVWF  xB0
....................    delay_ms(10); 
01FA4:  MOVLW  0A
01FA6:  MOVLB  6
01FA8:  MOVWF  x9C
01FAA:  MOVLB  0
01FAC:  CALL   131C
....................    Vel1=read_eeprom(28); 
01FB0:  MOVFF  FF2,693
01FB4:  BCF    FF2.6
01FB6:  BCF    FF2.7
01FB8:  CLRF   FAA
01FBA:  MOVLW  1C
01FBC:  MOVWF  FA9
01FBE:  BCF    FA6.6
01FC0:  BCF    FA6.7
01FC2:  BSF    FA6.0
01FC4:  MOVF   FA8,W
01FC6:  MOVLB  6
01FC8:  BTFSC  x93.6
01FCA:  BSF    FF2.6
01FCC:  BTFSC  x93.7
01FCE:  BSF    FF2.7
01FD0:  MOVLB  5
01FD2:  MOVWF  xB2
....................    delay_ms(10); 
01FD4:  MOVLW  0A
01FD6:  MOVLB  6
01FD8:  MOVWF  x9C
01FDA:  MOVLB  0
01FDC:  CALL   131C
.................... } 
01FE0:  GOTO   71D8 (RETURN)
....................  
.................... void LimitaValores(){ 
....................    if(Testerilizacionp[0]>9 || Testerilizacionp[0]<0){ 
*
0205E:  MOVLB  5
02060:  BTFSC  xFC.7
02062:  BRA    206A
02064:  MOVF   xFC,W
02066:  SUBLW  09
02068:  BNC   2070
0206A:  BTFSC  xFC.7
0206C:  BRA    2070
0206E:  BRA    20AA
....................       Testerilizacionp[0]=0;write_eeprom(0,0);delay_ms(20); 
02070:  CLRF   xFC
02072:  CLRF   FAA
02074:  CLRF   FA9
02076:  CLRF   FA8
02078:  BCF    FA6.6
0207A:  BCF    FA6.7
0207C:  BSF    FA6.2
0207E:  MOVF   FF2,W
02080:  MOVWF  00
02082:  BCF    FF2.6
02084:  BCF    FF2.7
02086:  MOVLB  F
02088:  MOVLW  55
0208A:  MOVWF  FA7
0208C:  MOVLW  AA
0208E:  MOVWF  FA7
02090:  BSF    FA6.1
02092:  BTFSC  FA6.1
02094:  BRA    2092
02096:  BCF    FA6.2
02098:  MOVF   00,W
0209A:  IORWF  FF2,F
0209C:  MOVLW  14
0209E:  MOVLB  6
020A0:  MOVWF  x9C
020A2:  MOVLB  0
020A4:  CALL   131C
020A8:  MOVLB  5
....................    } 
....................    if(Testerilizacionp[1]>9 || Testerilizacionp[1]<0){ 
020AA:  BTFSC  xFD.7
020AC:  BRA    20B4
020AE:  MOVF   xFD,W
020B0:  SUBLW  09
020B2:  BNC   20BA
020B4:  BTFSC  xFD.7
020B6:  BRA    20BA
020B8:  BRA    20F6
....................       Testerilizacionp[1]=0;write_eeprom(1,0);delay_ms(20); 
020BA:  CLRF   xFD
020BC:  CLRF   FAA
020BE:  MOVLW  01
020C0:  MOVWF  FA9
020C2:  CLRF   FA8
020C4:  BCF    FA6.6
020C6:  BCF    FA6.7
020C8:  BSF    FA6.2
020CA:  MOVF   FF2,W
020CC:  MOVWF  00
020CE:  BCF    FF2.6
020D0:  BCF    FF2.7
020D2:  MOVLB  F
020D4:  MOVLW  55
020D6:  MOVWF  FA7
020D8:  MOVLW  AA
020DA:  MOVWF  FA7
020DC:  BSF    FA6.1
020DE:  BTFSC  FA6.1
020E0:  BRA    20DE
020E2:  BCF    FA6.2
020E4:  MOVF   00,W
020E6:  IORWF  FF2,F
020E8:  MOVLW  14
020EA:  MOVLB  6
020EC:  MOVWF  x9C
020EE:  MOVLB  0
020F0:  CALL   131C
020F4:  MOVLB  5
....................    } 
....................    if(Testerilizacionp[2]>9 || Testerilizacionp[2]<0){ 
020F6:  BTFSC  xFE.7
020F8:  BRA    2100
020FA:  MOVF   xFE,W
020FC:  SUBLW  09
020FE:  BNC   2106
02100:  BTFSC  xFE.7
02102:  BRA    2106
02104:  BRA    2142
....................       Testerilizacionp[2]=0;write_eeprom(2,0);delay_ms(20); 
02106:  CLRF   xFE
02108:  CLRF   FAA
0210A:  MOVLW  02
0210C:  MOVWF  FA9
0210E:  CLRF   FA8
02110:  BCF    FA6.6
02112:  BCF    FA6.7
02114:  BSF    FA6.2
02116:  MOVF   FF2,W
02118:  MOVWF  00
0211A:  BCF    FF2.6
0211C:  BCF    FF2.7
0211E:  MOVLB  F
02120:  MOVLW  55
02122:  MOVWF  FA7
02124:  MOVLW  AA
02126:  MOVWF  FA7
02128:  BSF    FA6.1
0212A:  BTFSC  FA6.1
0212C:  BRA    212A
0212E:  BCF    FA6.2
02130:  MOVF   00,W
02132:  IORWF  FF2,F
02134:  MOVLW  14
02136:  MOVLB  6
02138:  MOVWF  x9C
0213A:  MOVLB  0
0213C:  CALL   131C
02140:  MOVLB  5
....................    } 
....................    if(Testerilizacionp[3]>9 || Testerilizacionp[3]<0){ 
02142:  BTFSC  xFF.7
02144:  BRA    214C
02146:  MOVF   xFF,W
02148:  SUBLW  09
0214A:  BNC   2152
0214C:  BTFSC  xFF.7
0214E:  BRA    2152
02150:  BRA    218C
....................       Testerilizacionp[3]=0;write_eeprom(3,0);delay_ms(20); 
02152:  CLRF   xFF
02154:  CLRF   FAA
02156:  MOVLW  03
02158:  MOVWF  FA9
0215A:  CLRF   FA8
0215C:  BCF    FA6.6
0215E:  BCF    FA6.7
02160:  BSF    FA6.2
02162:  MOVF   FF2,W
02164:  MOVWF  00
02166:  BCF    FF2.6
02168:  BCF    FF2.7
0216A:  MOVLB  F
0216C:  MOVLW  55
0216E:  MOVWF  FA7
02170:  MOVLW  AA
02172:  MOVWF  FA7
02174:  BSF    FA6.1
02176:  BTFSC  FA6.1
02178:  BRA    2176
0217A:  BCF    FA6.2
0217C:  MOVF   00,W
0217E:  IORWF  FF2,F
02180:  MOVLW  14
02182:  MOVLB  6
02184:  MOVWF  x9C
02186:  MOVLB  0
02188:  CALL   131C
....................    } 
....................    if(Password[0]>9 || Password[0]<0){ 
0218C:  MOVLB  6
0218E:  BTFSC  x04.7
02190:  BRA    2198
02192:  MOVF   x04,W
02194:  SUBLW  09
02196:  BNC   219E
02198:  BTFSC  x04.7
0219A:  BRA    219E
0219C:  BRA    21DA
....................       Password[0]=0;write_eeprom(4,0);delay_ms(20); 
0219E:  CLRF   x04
021A0:  CLRF   FAA
021A2:  MOVLW  04
021A4:  MOVWF  FA9
021A6:  CLRF   FA8
021A8:  BCF    FA6.6
021AA:  BCF    FA6.7
021AC:  BSF    FA6.2
021AE:  MOVF   FF2,W
021B0:  MOVWF  00
021B2:  BCF    FF2.6
021B4:  BCF    FF2.7
021B6:  MOVLB  F
021B8:  MOVLW  55
021BA:  MOVWF  FA7
021BC:  MOVLW  AA
021BE:  MOVWF  FA7
021C0:  BSF    FA6.1
021C2:  BTFSC  FA6.1
021C4:  BRA    21C2
021C6:  BCF    FA6.2
021C8:  MOVF   00,W
021CA:  IORWF  FF2,F
021CC:  MOVLW  14
021CE:  MOVLB  6
021D0:  MOVWF  x9C
021D2:  MOVLB  0
021D4:  CALL   131C
021D8:  MOVLB  6
....................    } 
....................    if(Password[1]>9 || Password[1]<0){ 
021DA:  BTFSC  x05.7
021DC:  BRA    21E4
021DE:  MOVF   x05,W
021E0:  SUBLW  09
021E2:  BNC   21EA
021E4:  BTFSC  x05.7
021E6:  BRA    21EA
021E8:  BRA    2226
....................       Password[1]=0;write_eeprom(5,0);delay_ms(20); 
021EA:  CLRF   x05
021EC:  CLRF   FAA
021EE:  MOVLW  05
021F0:  MOVWF  FA9
021F2:  CLRF   FA8
021F4:  BCF    FA6.6
021F6:  BCF    FA6.7
021F8:  BSF    FA6.2
021FA:  MOVF   FF2,W
021FC:  MOVWF  00
021FE:  BCF    FF2.6
02200:  BCF    FF2.7
02202:  MOVLB  F
02204:  MOVLW  55
02206:  MOVWF  FA7
02208:  MOVLW  AA
0220A:  MOVWF  FA7
0220C:  BSF    FA6.1
0220E:  BTFSC  FA6.1
02210:  BRA    220E
02212:  BCF    FA6.2
02214:  MOVF   00,W
02216:  IORWF  FF2,F
02218:  MOVLW  14
0221A:  MOVLB  6
0221C:  MOVWF  x9C
0221E:  MOVLB  0
02220:  CALL   131C
02224:  MOVLB  6
....................    } 
....................    if(Password[2]>9 || Password[2]<0){ 
02226:  BTFSC  x06.7
02228:  BRA    2230
0222A:  MOVF   x06,W
0222C:  SUBLW  09
0222E:  BNC   2236
02230:  BTFSC  x06.7
02232:  BRA    2236
02234:  BRA    2272
....................       Password[2]=0;write_eeprom(6,0);delay_ms(20); 
02236:  CLRF   x06
02238:  CLRF   FAA
0223A:  MOVLW  06
0223C:  MOVWF  FA9
0223E:  CLRF   FA8
02240:  BCF    FA6.6
02242:  BCF    FA6.7
02244:  BSF    FA6.2
02246:  MOVF   FF2,W
02248:  MOVWF  00
0224A:  BCF    FF2.6
0224C:  BCF    FF2.7
0224E:  MOVLB  F
02250:  MOVLW  55
02252:  MOVWF  FA7
02254:  MOVLW  AA
02256:  MOVWF  FA7
02258:  BSF    FA6.1
0225A:  BTFSC  FA6.1
0225C:  BRA    225A
0225E:  BCF    FA6.2
02260:  MOVF   00,W
02262:  IORWF  FF2,F
02264:  MOVLW  14
02266:  MOVLB  6
02268:  MOVWF  x9C
0226A:  MOVLB  0
0226C:  CALL   131C
02270:  MOVLB  6
....................    } 
....................    if(Password[3]>9 || Password[3]<0){ 
02272:  BTFSC  x07.7
02274:  BRA    227C
02276:  MOVF   x07,W
02278:  SUBLW  09
0227A:  BNC   2282
0227C:  BTFSC  x07.7
0227E:  BRA    2282
02280:  BRA    22BE
....................       Password[3]=0;write_eeprom(7,0);delay_ms(20); 
02282:  CLRF   x07
02284:  CLRF   FAA
02286:  MOVLW  07
02288:  MOVWF  FA9
0228A:  CLRF   FA8
0228C:  BCF    FA6.6
0228E:  BCF    FA6.7
02290:  BSF    FA6.2
02292:  MOVF   FF2,W
02294:  MOVWF  00
02296:  BCF    FF2.6
02298:  BCF    FF2.7
0229A:  MOVLB  F
0229C:  MOVLW  55
0229E:  MOVWF  FA7
022A0:  MOVLW  AA
022A2:  MOVWF  FA7
022A4:  BSF    FA6.1
022A6:  BTFSC  FA6.1
022A8:  BRA    22A6
022AA:  BCF    FA6.2
022AC:  MOVF   00,W
022AE:  IORWF  FF2,F
022B0:  MOVLW  14
022B2:  MOVLB  6
022B4:  MOVWF  x9C
022B6:  MOVLB  0
022B8:  CALL   131C
022BC:  MOVLB  6
....................    } 
....................    if(Temperatura1>105.0){ 
022BE:  CLRF   x96
022C0:  CLRF   x95
022C2:  MOVLW  52
022C4:  MOVWF  x94
022C6:  MOVLW  85
022C8:  MOVWF  x93
022CA:  MOVFF  64F,69A
022CE:  MOVFF  64E,699
022D2:  MOVFF  64D,698
022D6:  MOVFF  64C,697
022DA:  MOVLB  0
022DC:  RCALL  1FE4
022DE:  BNC   2360
....................       Temperatura1=30.0;write_eeprom(8,30);delay_ms(20);write_eeprom(9,0);delay_ms(20); 
022E0:  MOVLB  6
022E2:  CLRF   x4F
022E4:  CLRF   x4E
022E6:  MOVLW  70
022E8:  MOVWF  x4D
022EA:  MOVLW  83
022EC:  MOVWF  x4C
022EE:  CLRF   FAA
022F0:  MOVLW  08
022F2:  MOVWF  FA9
022F4:  MOVLW  1E
022F6:  MOVWF  FA8
022F8:  BCF    FA6.6
022FA:  BCF    FA6.7
022FC:  BSF    FA6.2
022FE:  MOVF   FF2,W
02300:  MOVWF  00
02302:  BCF    FF2.6
02304:  BCF    FF2.7
02306:  MOVLB  F
02308:  MOVLW  55
0230A:  MOVWF  FA7
0230C:  MOVLW  AA
0230E:  MOVWF  FA7
02310:  BSF    FA6.1
02312:  BTFSC  FA6.1
02314:  BRA    2312
02316:  BCF    FA6.2
02318:  MOVF   00,W
0231A:  IORWF  FF2,F
0231C:  MOVLW  14
0231E:  MOVLB  6
02320:  MOVWF  x9C
02322:  MOVLB  0
02324:  CALL   131C
02328:  CLRF   FAA
0232A:  MOVLW  09
0232C:  MOVWF  FA9
0232E:  CLRF   FA8
02330:  BCF    FA6.6
02332:  BCF    FA6.7
02334:  BSF    FA6.2
02336:  MOVF   FF2,W
02338:  MOVWF  00
0233A:  BCF    FF2.6
0233C:  BCF    FF2.7
0233E:  MOVLB  F
02340:  MOVLW  55
02342:  MOVWF  FA7
02344:  MOVLW  AA
02346:  MOVWF  FA7
02348:  BSF    FA6.1
0234A:  BTFSC  FA6.1
0234C:  BRA    234A
0234E:  BCF    FA6.2
02350:  MOVF   00,W
02352:  IORWF  FF2,F
02354:  MOVLW  14
02356:  MOVLB  6
02358:  MOVWF  x9C
0235A:  MOVLB  0
0235C:  CALL   131C
....................    } 
....................    if(Temperatura2>105.0){ 
02360:  MOVLB  6
02362:  CLRF   x96
02364:  CLRF   x95
02366:  MOVLW  52
02368:  MOVWF  x94
0236A:  MOVLW  85
0236C:  MOVWF  x93
0236E:  MOVFF  653,69A
02372:  MOVFF  652,699
02376:  MOVFF  651,698
0237A:  MOVFF  650,697
0237E:  MOVLB  0
02380:  RCALL  1FE4
02382:  BNC   2404
....................       Temperatura2=30.0;write_eeprom(10,30);delay_ms(20);write_eeprom(11,0);delay_ms(20); 
02384:  MOVLB  6
02386:  CLRF   x53
02388:  CLRF   x52
0238A:  MOVLW  70
0238C:  MOVWF  x51
0238E:  MOVLW  83
02390:  MOVWF  x50
02392:  CLRF   FAA
02394:  MOVLW  0A
02396:  MOVWF  FA9
02398:  MOVLW  1E
0239A:  MOVWF  FA8
0239C:  BCF    FA6.6
0239E:  BCF    FA6.7
023A0:  BSF    FA6.2
023A2:  MOVF   FF2,W
023A4:  MOVWF  00
023A6:  BCF    FF2.6
023A8:  BCF    FF2.7
023AA:  MOVLB  F
023AC:  MOVLW  55
023AE:  MOVWF  FA7
023B0:  MOVLW  AA
023B2:  MOVWF  FA7
023B4:  BSF    FA6.1
023B6:  BTFSC  FA6.1
023B8:  BRA    23B6
023BA:  BCF    FA6.2
023BC:  MOVF   00,W
023BE:  IORWF  FF2,F
023C0:  MOVLW  14
023C2:  MOVLB  6
023C4:  MOVWF  x9C
023C6:  MOVLB  0
023C8:  CALL   131C
023CC:  CLRF   FAA
023CE:  MOVLW  0B
023D0:  MOVWF  FA9
023D2:  CLRF   FA8
023D4:  BCF    FA6.6
023D6:  BCF    FA6.7
023D8:  BSF    FA6.2
023DA:  MOVF   FF2,W
023DC:  MOVWF  00
023DE:  BCF    FF2.6
023E0:  BCF    FF2.7
023E2:  MOVLB  F
023E4:  MOVLW  55
023E6:  MOVWF  FA7
023E8:  MOVLW  AA
023EA:  MOVWF  FA7
023EC:  BSF    FA6.1
023EE:  BTFSC  FA6.1
023F0:  BRA    23EE
023F2:  BCF    FA6.2
023F4:  MOVF   00,W
023F6:  IORWF  FF2,F
023F8:  MOVLW  14
023FA:  MOVLB  6
023FC:  MOVWF  x9C
023FE:  MOVLB  0
02400:  CALL   131C
....................    } 
....................    if(Temperatura3>105.0){ 
02404:  MOVLB  6
02406:  CLRF   x96
02408:  CLRF   x95
0240A:  MOVLW  52
0240C:  MOVWF  x94
0240E:  MOVLW  85
02410:  MOVWF  x93
02412:  MOVFF  657,69A
02416:  MOVFF  656,699
0241A:  MOVFF  655,698
0241E:  MOVFF  654,697
02422:  MOVLB  0
02424:  RCALL  1FE4
02426:  BNC   24A8
....................       Temperatura3=30.0;write_eeprom(12,30);delay_ms(20);write_eeprom(13,0);delay_ms(20); 
02428:  MOVLB  6
0242A:  CLRF   x57
0242C:  CLRF   x56
0242E:  MOVLW  70
02430:  MOVWF  x55
02432:  MOVLW  83
02434:  MOVWF  x54
02436:  CLRF   FAA
02438:  MOVLW  0C
0243A:  MOVWF  FA9
0243C:  MOVLW  1E
0243E:  MOVWF  FA8
02440:  BCF    FA6.6
02442:  BCF    FA6.7
02444:  BSF    FA6.2
02446:  MOVF   FF2,W
02448:  MOVWF  00
0244A:  BCF    FF2.6
0244C:  BCF    FF2.7
0244E:  MOVLB  F
02450:  MOVLW  55
02452:  MOVWF  FA7
02454:  MOVLW  AA
02456:  MOVWF  FA7
02458:  BSF    FA6.1
0245A:  BTFSC  FA6.1
0245C:  BRA    245A
0245E:  BCF    FA6.2
02460:  MOVF   00,W
02462:  IORWF  FF2,F
02464:  MOVLW  14
02466:  MOVLB  6
02468:  MOVWF  x9C
0246A:  MOVLB  0
0246C:  CALL   131C
02470:  CLRF   FAA
02472:  MOVLW  0D
02474:  MOVWF  FA9
02476:  CLRF   FA8
02478:  BCF    FA6.6
0247A:  BCF    FA6.7
0247C:  BSF    FA6.2
0247E:  MOVF   FF2,W
02480:  MOVWF  00
02482:  BCF    FF2.6
02484:  BCF    FF2.7
02486:  MOVLB  F
02488:  MOVLW  55
0248A:  MOVWF  FA7
0248C:  MOVLW  AA
0248E:  MOVWF  FA7
02490:  BSF    FA6.1
02492:  BTFSC  FA6.1
02494:  BRA    2492
02496:  BCF    FA6.2
02498:  MOVF   00,W
0249A:  IORWF  FF2,F
0249C:  MOVLW  14
0249E:  MOVLB  6
024A0:  MOVWF  x9C
024A2:  MOVLB  0
024A4:  CALL   131C
....................    } 
....................    if(Ganancia>4){ 
024A8:  MOVLB  6
024AA:  CLRF   x96
024AC:  CLRF   x95
024AE:  CLRF   x94
024B0:  MOVLW  81
024B2:  MOVWF  x93
024B4:  MOVFF  62F,69A
024B8:  MOVFF  62E,699
024BC:  MOVFF  62D,698
024C0:  MOVFF  62C,697
024C4:  MOVLB  0
024C6:  RCALL  1FE4
024C8:  BNC   2510
....................       Ganancia=2;write_eeprom(14,2);delay_ms(20); 
024CA:  MOVLB  6
024CC:  CLRF   x2F
024CE:  CLRF   x2E
024D0:  CLRF   x2D
024D2:  MOVLW  80
024D4:  MOVWF  x2C
024D6:  CLRF   FAA
024D8:  MOVLW  0E
024DA:  MOVWF  FA9
024DC:  MOVLW  02
024DE:  MOVWF  FA8
024E0:  BCF    FA6.6
024E2:  BCF    FA6.7
024E4:  BSF    FA6.2
024E6:  MOVF   FF2,W
024E8:  MOVWF  00
024EA:  BCF    FF2.6
024EC:  BCF    FF2.7
024EE:  MOVLB  F
024F0:  MOVLW  55
024F2:  MOVWF  FA7
024F4:  MOVLW  AA
024F6:  MOVWF  FA7
024F8:  BSF    FA6.1
024FA:  BTFSC  FA6.1
024FC:  BRA    24FA
024FE:  BCF    FA6.2
02500:  MOVF   00,W
02502:  IORWF  FF2,F
02504:  MOVLW  14
02506:  MOVLB  6
02508:  MOVWF  x9C
0250A:  MOVLB  0
0250C:  CALL   131C
....................    } 
....................    if(Integral>4){ 
02510:  MOVLB  6
02512:  CLRF   x96
02514:  CLRF   x95
02516:  CLRF   x94
02518:  MOVLW  81
0251A:  MOVWF  x93
0251C:  MOVFF  5EF,69A
02520:  MOVFF  5EE,699
02524:  MOVFF  5ED,698
02528:  MOVFF  5EC,697
0252C:  MOVLB  0
0252E:  RCALL  1FE4
02530:  BNC   2578
....................       Integral=1;write_eeprom(15,1);delay_ms(20); 
02532:  MOVLB  5
02534:  CLRF   xEF
02536:  CLRF   xEE
02538:  CLRF   xED
0253A:  MOVLW  7F
0253C:  MOVWF  xEC
0253E:  CLRF   FAA
02540:  MOVLW  0F
02542:  MOVWF  FA9
02544:  MOVLW  01
02546:  MOVWF  FA8
02548:  BCF    FA6.6
0254A:  BCF    FA6.7
0254C:  BSF    FA6.2
0254E:  MOVF   FF2,W
02550:  MOVWF  00
02552:  BCF    FF2.6
02554:  BCF    FF2.7
02556:  MOVLB  F
02558:  MOVLW  55
0255A:  MOVWF  FA7
0255C:  MOVLW  AA
0255E:  MOVWF  FA7
02560:  BSF    FA6.1
02562:  BTFSC  FA6.1
02564:  BRA    2562
02566:  BCF    FA6.2
02568:  MOVF   00,W
0256A:  IORWF  FF2,F
0256C:  MOVLW  14
0256E:  MOVLB  6
02570:  MOVWF  x9C
02572:  MOVLB  0
02574:  CALL   131C
....................    } 
....................    if(Derivativo>40){ 
02578:  MOVLB  6
0257A:  CLRF   x96
0257C:  CLRF   x95
0257E:  MOVLW  20
02580:  MOVWF  x94
02582:  MOVLW  84
02584:  MOVWF  x93
02586:  MOVFF  5F3,69A
0258A:  MOVFF  5F2,699
0258E:  MOVFF  5F1,698
02592:  MOVFF  5F0,697
02596:  MOVLB  0
02598:  RCALL  1FE4
0259A:  BNC   25E4
....................       Derivativo=20;write_eeprom(16,20);delay_ms(20); 
0259C:  MOVLB  5
0259E:  CLRF   xF3
025A0:  CLRF   xF2
025A2:  MOVLW  20
025A4:  MOVWF  xF1
025A6:  MOVLW  83
025A8:  MOVWF  xF0
025AA:  CLRF   FAA
025AC:  MOVLW  10
025AE:  MOVWF  FA9
025B0:  MOVLW  14
025B2:  MOVWF  FA8
025B4:  BCF    FA6.6
025B6:  BCF    FA6.7
025B8:  BSF    FA6.2
025BA:  MOVF   FF2,W
025BC:  MOVWF  00
025BE:  BCF    FF2.6
025C0:  BCF    FF2.7
025C2:  MOVLB  F
025C4:  MOVLW  55
025C6:  MOVWF  FA7
025C8:  MOVLW  AA
025CA:  MOVWF  FA7
025CC:  BSF    FA6.1
025CE:  BTFSC  FA6.1
025D0:  BRA    25CE
025D2:  BCF    FA6.2
025D4:  MOVF   00,W
025D6:  IORWF  FF2,F
025D8:  MOVLW  14
025DA:  MOVLB  6
025DC:  MOVWF  x9C
025DE:  MOVLB  0
025E0:  CALL   131C
....................    } 
....................    if(Tciclo>10){ 
025E4:  MOVLB  6
025E6:  CLRF   x96
025E8:  CLRF   x95
025EA:  MOVLW  20
025EC:  MOVWF  x94
025EE:  MOVLW  82
025F0:  MOVWF  x93
025F2:  MOVFF  617,69A
025F6:  MOVFF  616,699
025FA:  MOVFF  615,698
025FE:  MOVFF  614,697
02602:  MOVLB  0
02604:  RCALL  1FE4
02606:  BNC   2650
....................       Tciclo=5;write_eeprom(17,5);delay_ms(20); 
02608:  MOVLB  6
0260A:  CLRF   x17
0260C:  CLRF   x16
0260E:  MOVLW  20
02610:  MOVWF  x15
02612:  MOVLW  81
02614:  MOVWF  x14
02616:  CLRF   FAA
02618:  MOVLW  11
0261A:  MOVWF  FA9
0261C:  MOVLW  05
0261E:  MOVWF  FA8
02620:  BCF    FA6.6
02622:  BCF    FA6.7
02624:  BSF    FA6.2
02626:  MOVF   FF2,W
02628:  MOVWF  00
0262A:  BCF    FF2.6
0262C:  BCF    FF2.7
0262E:  MOVLB  F
02630:  MOVLW  55
02632:  MOVWF  FA7
02634:  MOVLW  AA
02636:  MOVWF  FA7
02638:  BSF    FA6.1
0263A:  BTFSC  FA6.1
0263C:  BRA    263A
0263E:  BCF    FA6.2
02640:  MOVF   00,W
02642:  IORWF  FF2,F
02644:  MOVLW  14
02646:  MOVLB  6
02648:  MOVWF  x9C
0264A:  MOVLB  0
0264C:  CALL   131C
....................    } 
....................    if(Ajuste>100){ 
02650:  MOVLB  5
02652:  MOVF   xA3,W
02654:  SUBLW  64
02656:  BC    2694
....................       Ajuste=0;write_eeprom(18,0);delay_ms(20); 
02658:  CLRF   xA3
0265A:  CLRF   FAA
0265C:  MOVLW  12
0265E:  MOVWF  FA9
02660:  CLRF   FA8
02662:  BCF    FA6.6
02664:  BCF    FA6.7
02666:  BSF    FA6.2
02668:  MOVF   FF2,W
0266A:  MOVWF  00
0266C:  BCF    FF2.6
0266E:  BCF    FF2.7
02670:  MOVLB  F
02672:  MOVLW  55
02674:  MOVWF  FA7
02676:  MOVLW  AA
02678:  MOVWF  FA7
0267A:  BSF    FA6.1
0267C:  BTFSC  FA6.1
0267E:  BRA    267C
02680:  BCF    FA6.2
02682:  MOVF   00,W
02684:  IORWF  FF2,F
02686:  MOVLW  14
02688:  MOVLB  6
0268A:  MOVWF  x9C
0268C:  MOVLB  0
0268E:  CALL   131C
02692:  MOVLB  5
....................    } 
....................    if(Ajusten>100){ 
02694:  MOVF   xA4,W
02696:  SUBLW  64
02698:  BC    26D6
....................       Ajusten=0;write_eeprom(19,0);delay_ms(20); 
0269A:  CLRF   xA4
0269C:  CLRF   FAA
0269E:  MOVLW  13
026A0:  MOVWF  FA9
026A2:  CLRF   FA8
026A4:  BCF    FA6.6
026A6:  BCF    FA6.7
026A8:  BSF    FA6.2
026AA:  MOVF   FF2,W
026AC:  MOVWF  00
026AE:  BCF    FF2.6
026B0:  BCF    FF2.7
026B2:  MOVLB  F
026B4:  MOVLW  55
026B6:  MOVWF  FA7
026B8:  MOVLW  AA
026BA:  MOVWF  FA7
026BC:  BSF    FA6.1
026BE:  BTFSC  FA6.1
026C0:  BRA    26BE
026C2:  BCF    FA6.2
026C4:  MOVF   00,W
026C6:  IORWF  FF2,F
026C8:  MOVLW  14
026CA:  MOVLB  6
026CC:  MOVWF  x9C
026CE:  MOVLB  0
026D0:  CALL   131C
026D4:  MOVLB  5
....................    } 
....................    if(MediaMovil>80){ 
026D6:  MOVF   xA5,W
026D8:  SUBLW  50
026DA:  BC    271A
....................       MediaMovil=80;write_eeprom(20,80);delay_ms(20); 
026DC:  MOVLW  50
026DE:  MOVWF  xA5
026E0:  CLRF   FAA
026E2:  MOVLW  14
026E4:  MOVWF  FA9
026E6:  MOVLW  50
026E8:  MOVWF  FA8
026EA:  BCF    FA6.6
026EC:  BCF    FA6.7
026EE:  BSF    FA6.2
026F0:  MOVF   FF2,W
026F2:  MOVWF  00
026F4:  BCF    FF2.6
026F6:  BCF    FF2.7
026F8:  MOVLB  F
026FA:  MOVLW  55
026FC:  MOVWF  FA7
026FE:  MOVLW  AA
02700:  MOVWF  FA7
02702:  BSF    FA6.1
02704:  BTFSC  FA6.1
02706:  BRA    2704
02708:  BCF    FA6.2
0270A:  MOVF   00,W
0270C:  IORWF  FF2,F
0270E:  MOVLW  14
02710:  MOVLB  6
02712:  MOVWF  x9C
02714:  MOVLB  0
02716:  CALL   131C
....................    } 
....................    if(Gain>110 || Gain<100){ 
0271A:  MOVLB  6
0271C:  CLRF   x96
0271E:  CLRF   x95
02720:  MOVLW  5C
02722:  MOVWF  x94
02724:  MOVLW  85
02726:  MOVWF  x93
02728:  MOVFF  5E7,69A
0272C:  MOVFF  5E6,699
02730:  MOVFF  5E5,698
02734:  MOVFF  5E4,697
02738:  MOVLB  0
0273A:  RCALL  1FE4
0273C:  BC    2762
0273E:  MOVFF  5E7,696
02742:  MOVFF  5E6,695
02746:  MOVFF  5E5,694
0274A:  MOVFF  5E4,693
0274E:  MOVLB  6
02750:  CLRF   x9A
02752:  CLRF   x99
02754:  MOVLW  48
02756:  MOVWF  x98
02758:  MOVLW  85
0275A:  MOVWF  x97
0275C:  MOVLB  0
0275E:  RCALL  1FE4
02760:  BNC   27E8
....................       Gain=105.9;write_eeprom(21,105);delay_ms(20);write_eeprom(22,9);delay_ms(20); 
02762:  MOVLW  CD
02764:  MOVLB  5
02766:  MOVWF  xE7
02768:  MOVLW  CC
0276A:  MOVWF  xE6
0276C:  MOVLW  53
0276E:  MOVWF  xE5
02770:  MOVLW  85
02772:  MOVWF  xE4
02774:  CLRF   FAA
02776:  MOVLW  15
02778:  MOVWF  FA9
0277A:  MOVLW  69
0277C:  MOVWF  FA8
0277E:  BCF    FA6.6
02780:  BCF    FA6.7
02782:  BSF    FA6.2
02784:  MOVF   FF2,W
02786:  MOVWF  00
02788:  BCF    FF2.6
0278A:  BCF    FF2.7
0278C:  MOVLB  F
0278E:  MOVLW  55
02790:  MOVWF  FA7
02792:  MOVLW  AA
02794:  MOVWF  FA7
02796:  BSF    FA6.1
02798:  BTFSC  FA6.1
0279A:  BRA    2798
0279C:  BCF    FA6.2
0279E:  MOVF   00,W
027A0:  IORWF  FF2,F
027A2:  MOVLW  14
027A4:  MOVLB  6
027A6:  MOVWF  x9C
027A8:  MOVLB  0
027AA:  CALL   131C
027AE:  CLRF   FAA
027B0:  MOVLW  16
027B2:  MOVWF  FA9
027B4:  MOVLW  09
027B6:  MOVWF  FA8
027B8:  BCF    FA6.6
027BA:  BCF    FA6.7
027BC:  BSF    FA6.2
027BE:  MOVF   FF2,W
027C0:  MOVWF  00
027C2:  BCF    FF2.6
027C4:  BCF    FF2.7
027C6:  MOVLB  F
027C8:  MOVLW  55
027CA:  MOVWF  FA7
027CC:  MOVLW  AA
027CE:  MOVWF  FA7
027D0:  BSF    FA6.1
027D2:  BTFSC  FA6.1
027D4:  BRA    27D2
027D6:  BCF    FA6.2
027D8:  MOVF   00,W
027DA:  IORWF  FF2,F
027DC:  MOVLW  14
027DE:  MOVLB  6
027E0:  MOVWF  x9C
027E2:  MOVLB  0
027E4:  CALL   131C
....................    } 
....................    if(R1>6400){ 
027E8:  MOVLB  6
027EA:  CLRF   x96
027EC:  CLRF   x95
027EE:  MOVLW  48
027F0:  MOVWF  x94
027F2:  MOVLW  8B
027F4:  MOVWF  x93
027F6:  MOVFF  60F,69A
027FA:  MOVFF  60E,699
027FE:  MOVFF  60D,698
02802:  MOVFF  60C,697
02806:  MOVLB  0
02808:  CALL   1FE4
0280C:  BNC   2892
....................       R1=6200;write_eeprom(23,0x18);delay_ms(20);write_eeprom(24,0x38);delay_ms(20); 
0280E:  MOVLB  6
02810:  CLRF   x0F
02812:  MOVLW  C0
02814:  MOVWF  x0E
02816:  MOVLW  41
02818:  MOVWF  x0D
0281A:  MOVLW  8B
0281C:  MOVWF  x0C
0281E:  CLRF   FAA
02820:  MOVLW  17
02822:  MOVWF  FA9
02824:  MOVLW  18
02826:  MOVWF  FA8
02828:  BCF    FA6.6
0282A:  BCF    FA6.7
0282C:  BSF    FA6.2
0282E:  MOVF   FF2,W
02830:  MOVWF  00
02832:  BCF    FF2.6
02834:  BCF    FF2.7
02836:  MOVLB  F
02838:  MOVLW  55
0283A:  MOVWF  FA7
0283C:  MOVLW  AA
0283E:  MOVWF  FA7
02840:  BSF    FA6.1
02842:  BTFSC  FA6.1
02844:  BRA    2842
02846:  BCF    FA6.2
02848:  MOVF   00,W
0284A:  IORWF  FF2,F
0284C:  MOVLW  14
0284E:  MOVLB  6
02850:  MOVWF  x9C
02852:  MOVLB  0
02854:  CALL   131C
02858:  CLRF   FAA
0285A:  MOVLW  18
0285C:  MOVWF  FA9
0285E:  MOVLW  38
02860:  MOVWF  FA8
02862:  BCF    FA6.6
02864:  BCF    FA6.7
02866:  BSF    FA6.2
02868:  MOVF   FF2,W
0286A:  MOVWF  00
0286C:  BCF    FF2.6
0286E:  BCF    FF2.7
02870:  MOVLB  F
02872:  MOVLW  55
02874:  MOVWF  FA7
02876:  MOVLW  AA
02878:  MOVWF  FA7
0287A:  BSF    FA6.1
0287C:  BTFSC  FA6.1
0287E:  BRA    287C
02880:  BCF    FA6.2
02882:  MOVF   00,W
02884:  IORWF  FF2,F
02886:  MOVLW  14
02888:  MOVLB  6
0288A:  MOVWF  x9C
0288C:  MOVLB  0
0288E:  CALL   131C
....................    } 
....................    if(RPT100>2.0){ 
02892:  MOVLB  6
02894:  CLRF   x96
02896:  CLRF   x95
02898:  CLRF   x94
0289A:  MOVLW  80
0289C:  MOVWF  x93
0289E:  MOVFF  5EB,69A
028A2:  MOVFF  5EA,699
028A6:  MOVFF  5E9,698
028AA:  MOVFF  5E8,697
028AE:  MOVLB  0
028B0:  CALL   1FE4
028B4:  BNC   2934
....................       RPT100=0.5;write_eeprom(25,0);delay_ms(20);write_eeprom(26,5);delay_ms(20); 
028B6:  MOVLB  5
028B8:  CLRF   xEB
028BA:  CLRF   xEA
028BC:  CLRF   xE9
028BE:  MOVLW  7E
028C0:  MOVWF  xE8
028C2:  CLRF   FAA
028C4:  MOVLW  19
028C6:  MOVWF  FA9
028C8:  CLRF   FA8
028CA:  BCF    FA6.6
028CC:  BCF    FA6.7
028CE:  BSF    FA6.2
028D0:  MOVF   FF2,W
028D2:  MOVWF  00
028D4:  BCF    FF2.6
028D6:  BCF    FF2.7
028D8:  MOVLB  F
028DA:  MOVLW  55
028DC:  MOVWF  FA7
028DE:  MOVLW  AA
028E0:  MOVWF  FA7
028E2:  BSF    FA6.1
028E4:  BTFSC  FA6.1
028E6:  BRA    28E4
028E8:  BCF    FA6.2
028EA:  MOVF   00,W
028EC:  IORWF  FF2,F
028EE:  MOVLW  14
028F0:  MOVLB  6
028F2:  MOVWF  x9C
028F4:  MOVLB  0
028F6:  CALL   131C
028FA:  CLRF   FAA
028FC:  MOVLW  1A
028FE:  MOVWF  FA9
02900:  MOVLW  05
02902:  MOVWF  FA8
02904:  BCF    FA6.6
02906:  BCF    FA6.7
02908:  BSF    FA6.2
0290A:  MOVF   FF2,W
0290C:  MOVWF  00
0290E:  BCF    FF2.6
02910:  BCF    FF2.7
02912:  MOVLB  F
02914:  MOVLW  55
02916:  MOVWF  FA7
02918:  MOVLW  AA
0291A:  MOVWF  FA7
0291C:  BSF    FA6.1
0291E:  BTFSC  FA6.1
02920:  BRA    291E
02922:  BCF    FA6.2
02924:  MOVF   00,W
02926:  IORWF  FF2,F
02928:  MOVLW  14
0292A:  MOVLB  6
0292C:  MOVWF  x9C
0292E:  MOVLB  0
02930:  CALL   131C
....................    } 
....................    if(Source>1){ 
02934:  MOVLB  5
02936:  MOVF   xB0,W
02938:  SUBLW  01
0293A:  BC    297C
....................       Source=1;write_eeprom(27,1);delay_ms(20); 
0293C:  MOVLW  01
0293E:  MOVWF  xB0
02940:  CLRF   FAA
02942:  MOVLW  1B
02944:  MOVWF  FA9
02946:  MOVLW  01
02948:  MOVWF  FA8
0294A:  BCF    FA6.6
0294C:  BCF    FA6.7
0294E:  BSF    FA6.2
02950:  MOVF   FF2,W
02952:  MOVWF  00
02954:  BCF    FF2.6
02956:  BCF    FF2.7
02958:  MOVLB  F
0295A:  MOVLW  55
0295C:  MOVWF  FA7
0295E:  MOVLW  AA
02960:  MOVWF  FA7
02962:  BSF    FA6.1
02964:  BTFSC  FA6.1
02966:  BRA    2964
02968:  BCF    FA6.2
0296A:  MOVF   00,W
0296C:  IORWF  FF2,F
0296E:  MOVLW  14
02970:  MOVLB  6
02972:  MOVWF  x9C
02974:  MOVLB  0
02976:  CALL   131C
0297A:  MOVLB  5
....................    } 
....................    if(Vel1>10){ 
0297C:  MOVF   xB2,W
0297E:  SUBLW  0A
02980:  BC    29C2
....................       Vel1=10;write_eeprom(28,10);delay_ms(20); 
02982:  MOVLW  0A
02984:  MOVWF  xB2
02986:  CLRF   FAA
02988:  MOVLW  1C
0298A:  MOVWF  FA9
0298C:  MOVLW  0A
0298E:  MOVWF  FA8
02990:  BCF    FA6.6
02992:  BCF    FA6.7
02994:  BSF    FA6.2
02996:  MOVF   FF2,W
02998:  MOVWF  00
0299A:  BCF    FF2.6
0299C:  BCF    FF2.7
0299E:  MOVLB  F
029A0:  MOVLW  55
029A2:  MOVWF  FA7
029A4:  MOVLW  AA
029A6:  MOVWF  FA7
029A8:  BSF    FA6.1
029AA:  BTFSC  FA6.1
029AC:  BRA    29AA
029AE:  BCF    FA6.2
029B0:  MOVF   00,W
029B2:  IORWF  FF2,F
029B4:  MOVLW  14
029B6:  MOVLB  6
029B8:  MOVWF  x9C
029BA:  MOVLB  0
029BC:  CALL   131C
029C0:  MOVLB  5
....................    } 
....................    gananciaAnt=Ganancia; 
029C2:  MOVFF  62F,63B
029C6:  MOVFF  62E,63A
029CA:  MOVFF  62D,639
029CE:  MOVFF  62C,638
.................... } 
029D2:  MOVLB  0
029D4:  GOTO   71DC (RETURN)
....................  
.................... void DelayPuls(){ 
....................    delay_ms(2); 
*
03C96:  MOVLW  02
03C98:  MOVLB  6
03C9A:  MOVWF  x9C
03C9C:  MOVLB  0
03C9E:  CALL   131C
.................... } 
03CA2:  RETLW  00
....................  
.................... short PidePassword(int8 MenuAnt, int8 MenuActual, int8 MenuPost, int8 clave0,int8 clave1, int8 clave2,int8 clave3,short cambia){ 
....................       if(n==0) 
*
03D5E:  MOVLB  5
03D60:  MOVF   xAB,F
03D62:  BTFSS  FD8.2
03D64:  BRA    3E5A
....................       { 
....................          displayContrasena(Contrasena[0],20,30,1);displayContrasena(Contrasena[1],40,30,0); 
03D66:  MOVFF  600,69D
03D6A:  MOVLW  14
03D6C:  MOVLB  6
03D6E:  MOVWF  x9E
03D70:  MOVLW  1E
03D72:  MOVWF  x9F
03D74:  MOVLW  01
03D76:  MOVWF  xA0
03D78:  MOVLB  0
03D7A:  RCALL  3BD8
03D7C:  MOVFF  601,69D
03D80:  MOVLW  28
03D82:  MOVLB  6
03D84:  MOVWF  x9E
03D86:  MOVLW  1E
03D88:  MOVWF  x9F
03D8A:  CLRF   xA0
03D8C:  MOVLB  0
03D8E:  RCALL  3BD8
....................          displayContrasena(Contrasena[2],60,30,0);displayContrasena(Contrasena[0],80,30,0); 
03D90:  MOVFF  602,69D
03D94:  MOVLW  3C
03D96:  MOVLB  6
03D98:  MOVWF  x9E
03D9A:  MOVLW  1E
03D9C:  MOVWF  x9F
03D9E:  CLRF   xA0
03DA0:  MOVLB  0
03DA2:  RCALL  3BD8
03DA4:  MOVFF  600,69D
03DA8:  MOVLW  50
03DAA:  MOVLB  6
03DAC:  MOVWF  x9E
03DAE:  MOVLW  1E
03DB0:  MOVWF  x9F
03DB2:  CLRF   xA0
03DB4:  MOVLB  0
03DB6:  RCALL  3BD8
....................          if(!cambia){ 
03DB8:  MOVLB  6
03DBA:  MOVF   x9A,F
03DBC:  BNZ   3E0C
....................             strcpy(Menus.Letra,"Clave"); 
03DBE:  MOVLW  06
03DC0:  MOVWF  FEA
03DC2:  MOVLW  73
03DC4:  MOVWF  FE9
03DC6:  MOVFF  FF2,69B
03DCA:  BCF    FF2.6
03DCC:  BCF    FF2.7
03DCE:  MOVLW  00
03DD0:  MOVLB  0
03DD2:  CALL   08DC
03DD6:  TBLRD*-
03DD8:  TBLRD*+
03DDA:  MOVF   FF5,W
03DDC:  MOVWF  FEE
03DDE:  IORLW  00
03DE0:  BNZ   3DD8
03DE2:  MOVLB  6
03DE4:  BTFSC  x9B.6
03DE6:  BSF    FF2.6
03DE8:  BTFSC  x9B.7
03DEA:  BSF    FF2.7
....................             displayMenu(Menus.Letra,20,0,1,3); 
03DEC:  MOVLW  06
03DEE:  MOVWF  x9C
03DF0:  MOVLW  73
03DF2:  MOVWF  x9B
03DF4:  MOVLW  14
03DF6:  MOVWF  x9D
03DF8:  CLRF   x9E
03DFA:  MOVLW  01
03DFC:  MOVWF  x9F
03DFE:  MOVLW  03
03E00:  MOVWF  xA0
03E02:  MOVLB  0
03E04:  CALL   3048
....................          }else{ 
03E08:  BRA    3E54
03E0A:  MOVLB  6
....................             strcpy(Menus.Letra,"Clave Nueva"); 
03E0C:  MOVLW  06
03E0E:  MOVWF  FEA
03E10:  MOVLW  73
03E12:  MOVWF  FE9
03E14:  MOVFF  FF2,69B
03E18:  BCF    FF2.6
03E1A:  BCF    FF2.7
03E1C:  MOVLW  00
03E1E:  MOVLB  0
03E20:  CALL   0906
03E24:  TBLRD*-
03E26:  TBLRD*+
03E28:  MOVF   FF5,W
03E2A:  MOVWF  FEE
03E2C:  IORLW  00
03E2E:  BNZ   3E26
03E30:  MOVLB  6
03E32:  BTFSC  x9B.6
03E34:  BSF    FF2.6
03E36:  BTFSC  x9B.7
03E38:  BSF    FF2.7
....................             displayMenu(Menus.Letra,0,0,1,2);   
03E3A:  MOVLW  06
03E3C:  MOVWF  x9C
03E3E:  MOVLW  73
03E40:  MOVWF  x9B
03E42:  CLRF   x9D
03E44:  CLRF   x9E
03E46:  MOVLW  01
03E48:  MOVWF  x9F
03E4A:  MOVLW  02
03E4C:  MOVWF  xA0
03E4E:  MOVLB  0
03E50:  CALL   3048
....................          } 
....................          n=1; 
03E54:  MOVLW  01
03E56:  MOVLB  5
03E58:  MOVWF  xAB
....................       } 
....................        
....................       if(UP){ 
03E5A:  BSF    F92.5
03E5C:  BTFSC  F80.5
03E5E:  BRA    3F32
....................          if(Flanco == 0){ 
03E60:  BTFSC  xA0.7
03E62:  BRA    3F30
....................             Flanco = 1;DelayPuls(); 
03E64:  BSF    xA0.7
03E66:  MOVLB  0
03E68:  RCALL  3C96
....................             Buzzer_on; 
03E6A:  BSF    F8B.7
03E6C:  BCF    F94.7
....................             delay_ms(50); 
03E6E:  MOVLW  32
03E70:  MOVLB  6
03E72:  MOVWF  x9C
03E74:  MOVLB  0
03E76:  CALL   131C
....................             Buzzer_off; 
03E7A:  BCF    F8B.7
03E7C:  BCF    F94.7
....................             for(i=1;i<=4;i++){ 
03E7E:  MOVLW  01
03E80:  MOVLB  5
03E82:  MOVWF  xB5
03E84:  MOVF   xB5,W
03E86:  SUBLW  04
03E88:  BNC   3F30
....................                if(unidad==i){ 
03E8A:  MOVF   xB5,W
03E8C:  SUBWF  xB4,W
03E8E:  BNZ   3EFC
....................                   Contrasena[i-1]++; 
03E90:  MOVLW  01
03E92:  SUBWF  xB5,W
03E94:  CLRF   03
03E96:  MOVWF  FE9
03E98:  MOVLW  06
03E9A:  ADDWF  03,W
03E9C:  MOVWF  FEA
03E9E:  INCF   FEF,F
....................                   if(Contrasena[i-1]>9){ 
03EA0:  MOVLW  01
03EA2:  SUBWF  xB5,W
03EA4:  CLRF   03
03EA6:  MOVWF  FE9
03EA8:  MOVLW  06
03EAA:  ADDWF  03,W
03EAC:  MOVWF  FEA
03EAE:  BTFSC  FEF.7
03EB0:  BRA    3EC8
03EB2:  MOVF   FEF,W
03EB4:  SUBLW  09
03EB6:  BC    3EC8
....................                      Contrasena[i-1]=0; 
03EB8:  MOVLW  01
03EBA:  SUBWF  xB5,W
03EBC:  CLRF   03
03EBE:  MOVWF  FE9
03EC0:  MOVLW  06
03EC2:  ADDWF  03,W
03EC4:  MOVWF  FEA
03EC6:  CLRF   FEF
....................                   } 
....................                   displayContrasena(Contrasena[i-1],i*20,30,1); 
03EC8:  MOVLW  01
03ECA:  SUBWF  xB5,W
03ECC:  CLRF   03
03ECE:  MOVWF  FE9
03ED0:  MOVLW  06
03ED2:  ADDWF  03,W
03ED4:  MOVWF  FEA
03ED6:  MOVFF  FEF,69B
03EDA:  MOVF   xB5,W
03EDC:  MULLW  14
03EDE:  MOVFF  FF3,69C
03EE2:  MOVLB  6
03EE4:  MOVFF  69B,69D
03EE8:  MOVFF  69C,69E
03EEC:  MOVLW  1E
03EEE:  MOVWF  x9F
03EF0:  MOVLW  01
03EF2:  MOVWF  xA0
03EF4:  MOVLB  0
03EF6:  RCALL  3BD8
....................                }else{ 
03EF8:  BRA    3F2A
03EFA:  MOVLB  5
....................                   displayContrasena(Contrasena[i-1],i*20,30,0); 
03EFC:  MOVLW  01
03EFE:  SUBWF  xB5,W
03F00:  CLRF   03
03F02:  MOVWF  FE9
03F04:  MOVLW  06
03F06:  ADDWF  03,W
03F08:  MOVWF  FEA
03F0A:  MOVFF  FEF,69B
03F0E:  MOVF   xB5,W
03F10:  MULLW  14
03F12:  MOVFF  FF3,69C
03F16:  MOVLB  6
03F18:  MOVFF  69B,69D
03F1C:  MOVFF  69C,69E
03F20:  MOVLW  1E
03F22:  MOVWF  x9F
03F24:  CLRF   xA0
03F26:  MOVLB  0
03F28:  RCALL  3BD8
....................                } 
....................             } 
03F2A:  MOVLB  5
03F2C:  INCF   xB5,F
03F2E:  BRA    3E84
....................          } 
....................       }else{ 
03F30:  BRA    3F34
....................          Flanco = 0; 
03F32:  BCF    xA0.7
....................       } 
....................              
....................       if(DOWN){ 
03F34:  BSF    F96.0
03F36:  BTFSC  F84.0
03F38:  BRA    400A
....................          if(Flanco2 == 0){ 
03F3A:  BTFSC  xAC.1
03F3C:  BRA    4008
....................             Flanco2 = 1;DelayPuls(); 
03F3E:  BSF    xAC.1
03F40:  MOVLB  0
03F42:  RCALL  3C96
....................             Buzzer_on; 
03F44:  BSF    F8B.7
03F46:  BCF    F94.7
....................             delay_ms(50); 
03F48:  MOVLW  32
03F4A:  MOVLB  6
03F4C:  MOVWF  x9C
03F4E:  MOVLB  0
03F50:  CALL   131C
....................             Buzzer_off; 
03F54:  BCF    F8B.7
03F56:  BCF    F94.7
....................             for(i=1;i<=4;i++){ 
03F58:  MOVLW  01
03F5A:  MOVLB  5
03F5C:  MOVWF  xB5
03F5E:  MOVF   xB5,W
03F60:  SUBLW  04
03F62:  BNC   4008
....................                if(unidad==i){ 
03F64:  MOVF   xB5,W
03F66:  SUBWF  xB4,W
03F68:  BNZ   3FD4
....................                   Contrasena[i-1]--; 
03F6A:  MOVLW  01
03F6C:  SUBWF  xB5,W
03F6E:  CLRF   03
03F70:  MOVWF  FE9
03F72:  MOVLW  06
03F74:  ADDWF  03,W
03F76:  MOVWF  FEA
03F78:  DECF   FEF,F
....................                   if(Contrasena[i-1]<0){ 
03F7A:  MOVLW  01
03F7C:  SUBWF  xB5,W
03F7E:  CLRF   03
03F80:  MOVWF  FE9
03F82:  MOVLW  06
03F84:  ADDWF  03,W
03F86:  MOVWF  FEA
03F88:  BTFSC  FEF.7
03F8A:  BRA    3F8E
03F8C:  BRA    3FA0
....................                      Contrasena[i-1]=9; 
03F8E:  MOVLW  01
03F90:  SUBWF  xB5,W
03F92:  CLRF   03
03F94:  MOVWF  FE9
03F96:  MOVLW  06
03F98:  ADDWF  03,W
03F9A:  MOVWF  FEA
03F9C:  MOVLW  09
03F9E:  MOVWF  FEF
....................                   } 
....................                   displayContrasena(Contrasena[i-1],i*20,30,1); 
03FA0:  MOVLW  01
03FA2:  SUBWF  xB5,W
03FA4:  CLRF   03
03FA6:  MOVWF  FE9
03FA8:  MOVLW  06
03FAA:  ADDWF  03,W
03FAC:  MOVWF  FEA
03FAE:  MOVFF  FEF,69B
03FB2:  MOVF   xB5,W
03FB4:  MULLW  14
03FB6:  MOVFF  FF3,69C
03FBA:  MOVLB  6
03FBC:  MOVFF  69B,69D
03FC0:  MOVFF  69C,69E
03FC4:  MOVLW  1E
03FC6:  MOVWF  x9F
03FC8:  MOVLW  01
03FCA:  MOVWF  xA0
03FCC:  MOVLB  0
03FCE:  RCALL  3BD8
....................                }else{ 
03FD0:  BRA    4002
03FD2:  MOVLB  5
....................                   displayContrasena(Contrasena[i-1],i*20,30,0); 
03FD4:  MOVLW  01
03FD6:  SUBWF  xB5,W
03FD8:  CLRF   03
03FDA:  MOVWF  FE9
03FDC:  MOVLW  06
03FDE:  ADDWF  03,W
03FE0:  MOVWF  FEA
03FE2:  MOVFF  FEF,69B
03FE6:  MOVF   xB5,W
03FE8:  MULLW  14
03FEA:  MOVFF  FF3,69C
03FEE:  MOVLB  6
03FF0:  MOVFF  69B,69D
03FF4:  MOVFF  69C,69E
03FF8:  MOVLW  1E
03FFA:  MOVWF  x9F
03FFC:  CLRF   xA0
03FFE:  MOVLB  0
04000:  RCALL  3BD8
....................                } 
....................             }       
04002:  MOVLB  5
04004:  INCF   xB5,F
04006:  BRA    3F5E
....................          }      
....................       }else{ 
04008:  BRA    400C
....................          Flanco2 = 0; 
0400A:  BCF    xAC.1
....................       } 
....................              
....................       if(RIGHT){ 
0400C:  BSF    F96.1
0400E:  BTFSC  F84.1
04010:  BRA    40B0
....................          if(Flanco1 == 0){ 
04012:  BTFSC  xAC.0
04014:  BRA    40AE
....................             Flanco1 = 1;DelayPuls();unidad++; 
04016:  BSF    xAC.0
04018:  MOVLB  0
0401A:  RCALL  3C96
0401C:  MOVLB  5
0401E:  INCF   xB4,F
....................             Buzzer_on; 
04020:  BSF    F8B.7
04022:  BCF    F94.7
....................             delay_ms(50); 
04024:  MOVLW  32
04026:  MOVLB  6
04028:  MOVWF  x9C
0402A:  MOVLB  0
0402C:  CALL   131C
....................             Buzzer_off; 
04030:  BCF    F8B.7
04032:  BCF    F94.7
....................             for(i=1;i<=4;i++){ 
04034:  MOVLW  01
04036:  MOVLB  5
04038:  MOVWF  xB5
0403A:  MOVF   xB5,W
0403C:  SUBLW  04
0403E:  BNC   40AE
....................                if(unidad==i){ 
04040:  MOVF   xB5,W
04042:  SUBWF  xB4,W
04044:  BNZ   407A
....................                   displayContrasena(Contrasena[i-1],i*20,30,1); 
04046:  MOVLW  01
04048:  SUBWF  xB5,W
0404A:  CLRF   03
0404C:  MOVWF  FE9
0404E:  MOVLW  06
04050:  ADDWF  03,W
04052:  MOVWF  FEA
04054:  MOVFF  FEF,69B
04058:  MOVF   xB5,W
0405A:  MULLW  14
0405C:  MOVFF  FF3,69C
04060:  MOVLB  6
04062:  MOVFF  69B,69D
04066:  MOVFF  69C,69E
0406A:  MOVLW  1E
0406C:  MOVWF  x9F
0406E:  MOVLW  01
04070:  MOVWF  xA0
04072:  MOVLB  0
04074:  RCALL  3BD8
....................                }else{ 
04076:  BRA    40A8
04078:  MOVLB  5
....................                   displayContrasena(Contrasena[i-1],i*20,30,0); 
0407A:  MOVLW  01
0407C:  SUBWF  xB5,W
0407E:  CLRF   03
04080:  MOVWF  FE9
04082:  MOVLW  06
04084:  ADDWF  03,W
04086:  MOVWF  FEA
04088:  MOVFF  FEF,69B
0408C:  MOVF   xB5,W
0408E:  MULLW  14
04090:  MOVFF  FF3,69C
04094:  MOVLB  6
04096:  MOVFF  69B,69D
0409A:  MOVFF  69C,69E
0409E:  MOVLW  1E
040A0:  MOVWF  x9F
040A2:  CLRF   xA0
040A4:  MOVLB  0
040A6:  RCALL  3BD8
....................                } 
....................             } 
040A8:  MOVLB  5
040AA:  INCF   xB5,F
040AC:  BRA    403A
....................          } 
....................       }else{ 
040AE:  BRA    40B2
....................          Flanco1 = 0; 
040B0:  BCF    xAC.0
....................       } 
....................        
....................       if(LEFT){ 
040B2:  BSF    F96.2
040B4:  BTFSC  F84.2
040B6:  BRA    4114
....................          delay_ms(100); 
040B8:  MOVLW  64
040BA:  MOVLB  6
040BC:  MOVWF  x9C
040BE:  MOVLB  0
040C0:  CALL   131C
....................          if(LEFT){ 
040C4:  BSF    F96.2
040C6:  BTFSC  F84.2
040C8:  BRA    4112
....................             Buzzer_on; 
040CA:  BSF    F8B.7
040CC:  BCF    F94.7
....................             delay_ms(50); 
040CE:  MOVLW  32
040D0:  MOVLB  6
040D2:  MOVWF  x9C
040D4:  MOVLB  0
040D6:  CALL   131C
....................             Buzzer_off; 
040DA:  BCF    F8B.7
040DC:  BCF    F94.7
....................             Menu=MenuAnt;glcd_fillScreen(OFF);n=0;Opcion=1;unidad=1; 
040DE:  MOVFF  693,5B3
040E2:  MOVLB  6
040E4:  CLRF   x9B
040E6:  MOVLB  0
040E8:  CALL   2A0E
040EC:  MOVLB  5
040EE:  CLRF   xAB
040F0:  MOVLW  01
040F2:  MOVWF  xBA
040F4:  MOVWF  xB4
....................             Contrasena[0]=0;Contrasena[1]=0;Contrasena[2]=0;Contrasena[3]=0; 
040F6:  MOVLB  6
040F8:  CLRF   x00
040FA:  CLRF   x01
040FC:  CLRF   x02
040FE:  CLRF   x03
....................             glcd_fillScreen(OFF);glcd_update(); 
04100:  CLRF   x9B
04102:  MOVLB  0
04104:  CALL   2A0E
04108:  CALL   2A68
....................             return 1; 
0410C:  MOVLW  01
0410E:  MOVWF  01
04110:  BRA    45EA
04112:  MOVLB  5
....................          } 
....................       } 
....................      
....................       if(unidad>4){ 
04114:  MOVF   xB4,W
04116:  SUBLW  04
04118:  BTFSC  FD8.0
0411A:  BRA    45EC
....................          glcd_fillScreen(OFF);unidad=1; 
0411C:  MOVLB  6
0411E:  CLRF   x9B
04120:  MOVLB  0
04122:  CALL   2A0E
04126:  MOVLW  01
04128:  MOVLB  5
0412A:  MOVWF  xB4
....................           
....................          if(!cambia){ 
0412C:  MOVLB  6
0412E:  MOVF   x9A,F
04130:  BTFSS  FD8.2
04132:  BRA    44CA
....................             if(Contrasena[0]==3&&Contrasena[1]==8&&Contrasena[2]==9&&Contrasena[3]==2 && MenuActual==0){ // Si Ingresa clave para reset general del sistema. 
04134:  MOVF   x00,W
04136:  SUBLW  03
04138:  BTFSS  FD8.2
0413A:  BRA    423A
0413C:  MOVF   x01,W
0413E:  SUBLW  08
04140:  BTFSS  FD8.2
04142:  BRA    423A
04144:  MOVF   x02,W
04146:  SUBLW  09
04148:  BTFSS  FD8.2
0414A:  BRA    423A
0414C:  MOVF   x03,W
0414E:  SUBLW  02
04150:  BNZ   423A
04152:  MOVF   x94,F
04154:  BNZ   423A
....................                write_eeprom(4,0);delay_ms(20);write_eeprom(5,0);delay_ms(20);// Reestablece a contrasea de Fabrica y reinicia Programa. 
04156:  CLRF   FAA
04158:  MOVLW  04
0415A:  MOVWF  FA9
0415C:  CLRF   FA8
0415E:  BCF    FA6.6
04160:  BCF    FA6.7
04162:  BSF    FA6.2
04164:  MOVF   FF2,W
04166:  MOVWF  00
04168:  BCF    FF2.6
0416A:  BCF    FF2.7
0416C:  MOVLB  F
0416E:  MOVLW  55
04170:  MOVWF  FA7
04172:  MOVLW  AA
04174:  MOVWF  FA7
04176:  BSF    FA6.1
04178:  BTFSC  FA6.1
0417A:  BRA    4178
0417C:  BCF    FA6.2
0417E:  MOVF   00,W
04180:  IORWF  FF2,F
04182:  MOVLW  14
04184:  MOVLB  6
04186:  MOVWF  x9C
04188:  MOVLB  0
0418A:  CALL   131C
0418E:  CLRF   FAA
04190:  MOVLW  05
04192:  MOVWF  FA9
04194:  CLRF   FA8
04196:  BCF    FA6.6
04198:  BCF    FA6.7
0419A:  BSF    FA6.2
0419C:  MOVF   FF2,W
0419E:  MOVWF  00
041A0:  BCF    FF2.6
041A2:  BCF    FF2.7
041A4:  MOVLB  F
041A6:  MOVLW  55
041A8:  MOVWF  FA7
041AA:  MOVLW  AA
041AC:  MOVWF  FA7
041AE:  BSF    FA6.1
041B0:  BTFSC  FA6.1
041B2:  BRA    41B0
041B4:  BCF    FA6.2
041B6:  MOVF   00,W
041B8:  IORWF  FF2,F
041BA:  MOVLW  14
041BC:  MOVLB  6
041BE:  MOVWF  x9C
041C0:  MOVLB  0
041C2:  CALL   131C
....................                write_eeprom(6,0);delay_ms(20);write_eeprom(7,0);delay_ms(20); 
041C6:  CLRF   FAA
041C8:  MOVLW  06
041CA:  MOVWF  FA9
041CC:  CLRF   FA8
041CE:  BCF    FA6.6
041D0:  BCF    FA6.7
041D2:  BSF    FA6.2
041D4:  MOVF   FF2,W
041D6:  MOVWF  00
041D8:  BCF    FF2.6
041DA:  BCF    FF2.7
041DC:  MOVLB  F
041DE:  MOVLW  55
041E0:  MOVWF  FA7
041E2:  MOVLW  AA
041E4:  MOVWF  FA7
041E6:  BSF    FA6.1
041E8:  BTFSC  FA6.1
041EA:  BRA    41E8
041EC:  BCF    FA6.2
041EE:  MOVF   00,W
041F0:  IORWF  FF2,F
041F2:  MOVLW  14
041F4:  MOVLB  6
041F6:  MOVWF  x9C
041F8:  MOVLB  0
041FA:  CALL   131C
041FE:  CLRF   FAA
04200:  MOVLW  07
04202:  MOVWF  FA9
04204:  CLRF   FA8
04206:  BCF    FA6.6
04208:  BCF    FA6.7
0420A:  BSF    FA6.2
0420C:  MOVF   FF2,W
0420E:  MOVWF  00
04210:  BCF    FF2.6
04212:  BCF    FF2.7
04214:  MOVLB  F
04216:  MOVLW  55
04218:  MOVWF  FA7
0421A:  MOVLW  AA
0421C:  MOVWF  FA7
0421E:  BSF    FA6.1
04220:  BTFSC  FA6.1
04222:  BRA    4220
04224:  BCF    FA6.2
04226:  MOVF   00,W
04228:  IORWF  FF2,F
0422A:  MOVLW  14
0422C:  MOVLB  6
0422E:  MOVWF  x9C
04230:  MOVLB  0
04232:  CALL   131C
....................                reset_cpu(); 
04236:  RESET
04238:  MOVLB  6
....................             } 
....................           
....................             if((Contrasena[0]==clave0)&&(Contrasena[1]==clave1)&&(Contrasena[2]==clave2)&&(Contrasena[3]==clave3)){ 
0423A:  MOVF   x96,W
0423C:  SUBWF  x00,W
0423E:  BTFSS  FD8.2
04240:  BRA    432A
04242:  MOVF   x97,W
04244:  SUBWF  x01,W
04246:  BNZ   432A
04248:  MOVF   x98,W
0424A:  SUBWF  x02,W
0424C:  BNZ   432A
0424E:  MOVF   x99,W
04250:  SUBWF  x03,W
04252:  BNZ   432A
....................                glcd_fillScreen(OFF); 
04254:  CLRF   x9B
04256:  MOVLB  0
04258:  CALL   2A0E
....................                strcpy(Menus.Letra,"Clave"); 
0425C:  MOVLW  06
0425E:  MOVWF  FEA
04260:  MOVLW  73
04262:  MOVWF  FE9
04264:  MOVFF  FF2,69B
04268:  BCF    FF2.6
0426A:  BCF    FF2.7
0426C:  MOVLW  00
0426E:  CALL   08DC
04272:  TBLRD*-
04274:  TBLRD*+
04276:  MOVF   FF5,W
04278:  MOVWF  FEE
0427A:  IORLW  00
0427C:  BNZ   4274
0427E:  MOVLB  6
04280:  BTFSC  x9B.6
04282:  BSF    FF2.6
04284:  BTFSC  x9B.7
04286:  BSF    FF2.7
....................                displayMenu(Menus.Letra,30,0,0,2); 
04288:  MOVLW  06
0428A:  MOVWF  x9C
0428C:  MOVLW  73
0428E:  MOVWF  x9B
04290:  MOVLW  1E
04292:  MOVWF  x9D
04294:  CLRF   x9E
04296:  CLRF   x9F
04298:  MOVLW  02
0429A:  MOVWF  xA0
0429C:  MOVLB  0
0429E:  CALL   3048
....................                strcpy(Menus.Letra,"Correcta"); 
042A2:  MOVLW  06
042A4:  MOVWF  FEA
042A6:  MOVLW  73
042A8:  MOVWF  FE9
042AA:  MOVFF  FF2,69B
042AE:  BCF    FF2.6
042B0:  BCF    FF2.7
042B2:  MOVLW  00
042B4:  CALL   0936
042B8:  TBLRD*-
042BA:  TBLRD*+
042BC:  MOVF   FF5,W
042BE:  MOVWF  FEE
042C0:  IORLW  00
042C2:  BNZ   42BA
042C4:  MOVLB  6
042C6:  BTFSC  x9B.6
042C8:  BSF    FF2.6
042CA:  BTFSC  x9B.7
042CC:  BSF    FF2.7
....................                displayMenu(Menus.Letra,15,30,0,2); 
042CE:  MOVLW  06
042D0:  MOVWF  x9C
042D2:  MOVLW  73
042D4:  MOVWF  x9B
042D6:  MOVLW  0F
042D8:  MOVWF  x9D
042DA:  MOVLW  1E
042DC:  MOVWF  x9E
042DE:  CLRF   x9F
042E0:  MOVLW  02
042E2:  MOVWF  xA0
042E4:  MOVLB  0
042E6:  CALL   3048
....................                Menu=MenuPost;glcd_update();delay_ms(1000);glcd_fillScreen(OFF); 
042EA:  MOVFF  695,5B3
042EE:  CALL   2A68
042F2:  MOVLW  04
042F4:  MOVLB  6
042F6:  MOVWF  x9B
042F8:  MOVLW  FA
042FA:  MOVWF  x9C
042FC:  MOVLB  0
042FE:  CALL   131C
04302:  MOVLB  6
04304:  DECFSZ x9B,F
04306:  BRA    42F8
04308:  CLRF   x9B
0430A:  MOVLB  0
0430C:  CALL   2A0E
....................                Contrasena[0]=0;Contrasena[1]=0;Contrasena[2]=0;Contrasena[3]=0; 
04310:  MOVLB  6
04312:  CLRF   x00
04314:  CLRF   x01
04316:  CLRF   x02
04318:  CLRF   x03
....................                n=0; 
0431A:  MOVLB  5
0431C:  CLRF   xAB
....................                return 1; 
0431E:  MOVLW  01
04320:  MOVWF  01
04322:  MOVLB  0
04324:  BRA    45EA
....................             }else{ 
04326:  BRA    44C6
04328:  MOVLB  6
....................                glcd_fillScreen(OFF); 
0432A:  CLRF   x9B
0432C:  MOVLB  0
0432E:  CALL   2A0E
....................                strcpy(Menus.Letra,"Clave"); 
04332:  MOVLW  06
04334:  MOVWF  FEA
04336:  MOVLW  73
04338:  MOVWF  FE9
0433A:  MOVFF  FF2,69B
0433E:  BCF    FF2.6
04340:  BCF    FF2.7
04342:  MOVLW  00
04344:  CALL   08DC
04348:  TBLRD*-
0434A:  TBLRD*+
0434C:  MOVF   FF5,W
0434E:  MOVWF  FEE
04350:  IORLW  00
04352:  BNZ   434A
04354:  MOVLB  6
04356:  BTFSC  x9B.6
04358:  BSF    FF2.6
0435A:  BTFSC  x9B.7
0435C:  BSF    FF2.7
....................                displayMenu(Menus.Letra,30,0,0,2); 
0435E:  MOVLW  06
04360:  MOVWF  x9C
04362:  MOVLW  73
04364:  MOVWF  x9B
04366:  MOVLW  1E
04368:  MOVWF  x9D
0436A:  CLRF   x9E
0436C:  CLRF   x9F
0436E:  MOVLW  02
04370:  MOVWF  xA0
04372:  MOVLB  0
04374:  CALL   3048
....................                strcpy(Menus.Letra,"Incorrecta"); 
04378:  MOVLW  06
0437A:  MOVWF  FEA
0437C:  MOVLW  73
0437E:  MOVWF  FE9
04380:  MOVFF  FF2,69B
04384:  BCF    FF2.6
04386:  BCF    FF2.7
04388:  MOVLW  00
0438A:  CALL   0964
0438E:  TBLRD*-
04390:  TBLRD*+
04392:  MOVF   FF5,W
04394:  MOVWF  FEE
04396:  IORLW  00
04398:  BNZ   4390
0439A:  MOVLB  6
0439C:  BTFSC  x9B.6
0439E:  BSF    FF2.6
043A0:  BTFSC  x9B.7
043A2:  BSF    FF2.7
....................                displayMenu(Menus.Letra,0,30,0,2); 
043A4:  MOVLW  06
043A6:  MOVWF  x9C
043A8:  MOVLW  73
043AA:  MOVWF  x9B
043AC:  CLRF   x9D
043AE:  MOVLW  1E
043B0:  MOVWF  x9E
043B2:  CLRF   x9F
043B4:  MOVLW  02
043B6:  MOVWF  xA0
043B8:  MOVLB  0
043BA:  CALL   3048
....................                unidad=1;glcd_update();delay_ms(1000);Contrasena[0]=0;Contrasena[1]=0;Contrasena[2]=0;Contrasena[3]=0;glcd_fillScreen(OFF); 
043BE:  MOVLW  01
043C0:  MOVLB  5
043C2:  MOVWF  xB4
043C4:  MOVLB  0
043C6:  CALL   2A68
043CA:  MOVLW  04
043CC:  MOVLB  6
043CE:  MOVWF  x9B
043D0:  MOVLW  FA
043D2:  MOVWF  x9C
043D4:  MOVLB  0
043D6:  CALL   131C
043DA:  MOVLB  6
043DC:  DECFSZ x9B,F
043DE:  BRA    43D0
043E0:  CLRF   x00
043E2:  CLRF   x01
043E4:  CLRF   x02
043E6:  CLRF   x03
043E8:  CLRF   x9B
043EA:  MOVLB  0
043EC:  CALL   2A0E
....................                glcd_rect(0, 0, 127, 25, YES, ON);strcpy(Menus.Letra,"Clave");glcd_text57(25, 1, Menus.Letra, 3, OFF);displayContrasena(Contrasena[0],20,30,1); 
043F0:  MOVLB  6
043F2:  CLRF   xAC
043F4:  CLRF   xAD
043F6:  MOVLW  7F
043F8:  MOVWF  xAE
043FA:  MOVLW  19
043FC:  MOVWF  xAF
043FE:  MOVLW  01
04400:  MOVWF  xB0
04402:  MOVWF  xB1
04404:  MOVLB  0
04406:  CALL   2F86
0440A:  MOVLW  06
0440C:  MOVWF  FEA
0440E:  MOVLW  73
04410:  MOVWF  FE9
04412:  MOVFF  FF2,69B
04416:  BCF    FF2.6
04418:  BCF    FF2.7
0441A:  MOVLW  00
0441C:  CALL   08DC
04420:  TBLRD*-
04422:  TBLRD*+
04424:  MOVF   FF5,W
04426:  MOVWF  FEE
04428:  IORLW  00
0442A:  BNZ   4422
0442C:  MOVLB  6
0442E:  BTFSC  x9B.6
04430:  BSF    FF2.6
04432:  BTFSC  x9B.7
04434:  BSF    FF2.7
04436:  MOVLW  19
04438:  MOVWF  xAC
0443A:  MOVLW  01
0443C:  MOVWF  xAD
0443E:  MOVLW  06
04440:  MOVWF  xAF
04442:  MOVLW  73
04444:  MOVWF  xAE
04446:  MOVLW  03
04448:  MOVWF  xB0
0444A:  CLRF   xB1
0444C:  MOVLB  0
0444E:  CALL   2C84
04452:  MOVFF  600,69D
04456:  MOVLW  14
04458:  MOVLB  6
0445A:  MOVWF  x9E
0445C:  MOVLW  1E
0445E:  MOVWF  x9F
04460:  MOVLW  01
04462:  MOVWF  xA0
04464:  MOVLB  0
04466:  CALL   3BD8
....................                displayContrasena(Contrasena[1],40,30,0);displayContrasena(Contrasena[2],60,30,0);displayContrasena(Contrasena[0],80,30,0); 
0446A:  MOVFF  601,69D
0446E:  MOVLW  28
04470:  MOVLB  6
04472:  MOVWF  x9E
04474:  MOVLW  1E
04476:  MOVWF  x9F
04478:  CLRF   xA0
0447A:  MOVLB  0
0447C:  CALL   3BD8
04480:  MOVFF  602,69D
04484:  MOVLW  3C
04486:  MOVLB  6
04488:  MOVWF  x9E
0448A:  MOVLW  1E
0448C:  MOVWF  x9F
0448E:  CLRF   xA0
04490:  MOVLB  0
04492:  CALL   3BD8
04496:  MOVFF  600,69D
0449A:  MOVLW  50
0449C:  MOVLB  6
0449E:  MOVWF  x9E
044A0:  MOVLW  1E
044A2:  MOVWF  x9F
044A4:  CLRF   xA0
044A6:  MOVLB  0
044A8:  CALL   3BD8
....................                Menu=MenuAnt;glcd_fillScreen(OFF);n=0; 
044AC:  MOVFF  693,5B3
044B0:  MOVLB  6
044B2:  CLRF   x9B
044B4:  MOVLB  0
044B6:  CALL   2A0E
044BA:  MOVLB  5
044BC:  CLRF   xAB
....................                return 0; 
044BE:  MOVLW  00
044C0:  MOVWF  01
044C2:  MOVLB  0
044C4:  BRA    45EA
....................             } 
....................          }else{ 
044C6:  BRA    45EA
044C8:  MOVLB  6
....................             Opcion=1;unidad=1; 
044CA:  MOVLW  01
044CC:  MOVLB  5
044CE:  MOVWF  xBA
044D0:  MOVWF  xB4
....................             write_eeprom(4,Contrasena[0]); 
044D2:  CLRF   FAA
044D4:  MOVLW  04
044D6:  MOVWF  FA9
044D8:  MOVFF  600,FA8
044DC:  BCF    FA6.6
044DE:  BCF    FA6.7
044E0:  BSF    FA6.2
044E2:  MOVF   FF2,W
044E4:  MOVWF  00
044E6:  BCF    FF2.6
044E8:  BCF    FF2.7
044EA:  MOVLB  F
044EC:  MOVLW  55
044EE:  MOVWF  FA7
044F0:  MOVLW  AA
044F2:  MOVWF  FA7
044F4:  BSF    FA6.1
044F6:  BTFSC  FA6.1
044F8:  BRA    44F6
044FA:  BCF    FA6.2
044FC:  MOVF   00,W
044FE:  IORWF  FF2,F
....................             delay_ms(50);    
04500:  MOVLW  32
04502:  MOVLB  6
04504:  MOVWF  x9C
04506:  MOVLB  0
04508:  CALL   131C
....................             write_eeprom(5,Contrasena[1]); 
0450C:  CLRF   FAA
0450E:  MOVLW  05
04510:  MOVWF  FA9
04512:  MOVFF  601,FA8
04516:  BCF    FA6.6
04518:  BCF    FA6.7
0451A:  BSF    FA6.2
0451C:  MOVF   FF2,W
0451E:  MOVWF  00
04520:  BCF    FF2.6
04522:  BCF    FF2.7
04524:  MOVLB  F
04526:  MOVLW  55
04528:  MOVWF  FA7
0452A:  MOVLW  AA
0452C:  MOVWF  FA7
0452E:  BSF    FA6.1
04530:  BTFSC  FA6.1
04532:  BRA    4530
04534:  BCF    FA6.2
04536:  MOVF   00,W
04538:  IORWF  FF2,F
....................             delay_ms(50);    
0453A:  MOVLW  32
0453C:  MOVLB  6
0453E:  MOVWF  x9C
04540:  MOVLB  0
04542:  CALL   131C
....................             write_eeprom(6,Contrasena[2]); 
04546:  CLRF   FAA
04548:  MOVLW  06
0454A:  MOVWF  FA9
0454C:  MOVFF  602,FA8
04550:  BCF    FA6.6
04552:  BCF    FA6.7
04554:  BSF    FA6.2
04556:  MOVF   FF2,W
04558:  MOVWF  00
0455A:  BCF    FF2.6
0455C:  BCF    FF2.7
0455E:  MOVLB  F
04560:  MOVLW  55
04562:  MOVWF  FA7
04564:  MOVLW  AA
04566:  MOVWF  FA7
04568:  BSF    FA6.1
0456A:  BTFSC  FA6.1
0456C:  BRA    456A
0456E:  BCF    FA6.2
04570:  MOVF   00,W
04572:  IORWF  FF2,F
....................             delay_ms(50);    
04574:  MOVLW  32
04576:  MOVLB  6
04578:  MOVWF  x9C
0457A:  MOVLB  0
0457C:  CALL   131C
....................             write_eeprom(7,Contrasena[3]); 
04580:  CLRF   FAA
04582:  MOVLW  07
04584:  MOVWF  FA9
04586:  MOVFF  603,FA8
0458A:  BCF    FA6.6
0458C:  BCF    FA6.7
0458E:  BSF    FA6.2
04590:  MOVF   FF2,W
04592:  MOVWF  00
04594:  BCF    FF2.6
04596:  BCF    FF2.7
04598:  MOVLB  F
0459A:  MOVLW  55
0459C:  MOVWF  FA7
0459E:  MOVLW  AA
045A0:  MOVWF  FA7
045A2:  BSF    FA6.1
045A4:  BTFSC  FA6.1
045A6:  BRA    45A4
045A8:  BCF    FA6.2
045AA:  MOVF   00,W
045AC:  IORWF  FF2,F
....................             delay_ms(1000);glcd_fillScreen(OFF);Menu=MenuAnt; 
045AE:  MOVLW  04
045B0:  MOVLB  6
045B2:  MOVWF  x9B
045B4:  MOVLW  FA
045B6:  MOVWF  x9C
045B8:  MOVLB  0
045BA:  CALL   131C
045BE:  MOVLB  6
045C0:  DECFSZ x9B,F
045C2:  BRA    45B4
045C4:  CLRF   x9B
045C6:  MOVLB  0
045C8:  CALL   2A0E
045CC:  MOVFF  693,5B3
....................             n=0; 
045D0:  MOVLB  5
045D2:  CLRF   xAB
....................             Contrasena[0]=0;Contrasena[1]=0;Contrasena[2]=0;Contrasena[3]=0; 
045D4:  MOVLB  6
045D6:  CLRF   x00
045D8:  CLRF   x01
045DA:  CLRF   x02
045DC:  CLRF   x03
....................             MensajeAlmacenado(); 
045DE:  MOVLB  0
045E0:  CALL   3CA4
....................             return 0; 
045E4:  MOVLW  00
045E6:  MOVWF  01
045E8:  BRA    45EA
045EA:  MOVLB  5
....................          } 
....................       } 
.................... } 
045EC:  MOVLB  0
045EE:  RETLW  00
....................  
.................... void CuentaTiempo(){ 
....................       if(tinicio>=60) 
*
06BF0:  MOVLB  5
06BF2:  MOVF   xC7,F
06BF4:  BNZ   6BFC
06BF6:  MOVF   xC6,W
06BF8:  SUBLW  3B
06BFA:  BC    6C38
....................       { 
....................          tinicio=0; 
06BFC:  CLRF   xC7
06BFE:  CLRF   xC6
....................          Testerilizacion[0]++; 
06C00:  INCF   xF8,F
....................          if(Testerilizacion[0]>9) 
06C02:  BTFSC  xF8.7
06C04:  BRA    6C10
06C06:  MOVF   xF8,W
06C08:  SUBLW  09
06C0A:  BC    6C10
....................          { 
....................             Testerilizacion[0]=0; 
06C0C:  CLRF   xF8
....................             Testerilizacion[1]++; 
06C0E:  INCF   xF9,F
....................          } 
....................          if(Testerilizacion[1]>5) 
06C10:  BTFSC  xF9.7
06C12:  BRA    6C1E
06C14:  MOVF   xF9,W
06C16:  SUBLW  05
06C18:  BC    6C1E
....................          { 
....................             Testerilizacion[1]=0; 
06C1A:  CLRF   xF9
....................             Testerilizacion[2]++; 
06C1C:  INCF   xFA,F
....................          } 
....................          if(Testerilizacion[2]>9) 
06C1E:  BTFSC  xFA.7
06C20:  BRA    6C2C
06C22:  MOVF   xFA,W
06C24:  SUBLW  09
06C26:  BC    6C2C
....................          { 
....................             Testerilizacion[2]=0; 
06C28:  CLRF   xFA
....................             Testerilizacion[3]++; 
06C2A:  INCF   xFB,F
....................          } 
....................          if(Testerilizacion[3]>9) 
06C2C:  BTFSC  xFB.7
06C2E:  BRA    6C38
06C30:  MOVF   xFB,W
06C32:  SUBLW  09
06C34:  BC    6C38
....................          { 
....................             Testerilizacion[3]=0; 
06C36:  CLRF   xFB
....................          } 
....................       } 
.................... } 
06C38:  MOVLB  0
06C3A:  GOTO   99A2 (RETURN)
....................  
....................  
.................... int8 extraeDecimal(float data){ 
*
0395E:  MOVLB  6
03960:  CLRF   x9A
03962:  CLRF   x99
03964:  CLRF   x98
03966:  CLRF   x97
03968:  CLRF   x9E
0396A:  CLRF   x9D
0396C:  CLRF   x9C
0396E:  CLRF   x9B
....................    float entero=0; 
....................    float tmp=0.0; 
....................     
....................    entero=(int8)data; 
03970:  MOVFF  696,6A2
03974:  MOVFF  695,6A1
03978:  MOVFF  694,6A0
0397C:  MOVFF  693,69F
03980:  MOVLB  0
03982:  RCALL  3854
03984:  MOVLB  6
03986:  CLRF   xA0
03988:  MOVFF  01,69F
0398C:  MOVLB  0
0398E:  CALL   138A
03992:  MOVFF  03,69A
03996:  MOVFF  02,699
0399A:  MOVFF  01,698
0399E:  MOVFF  00,697
....................    tmp=(data-entero)*10; 
039A2:  BSF    FD8.1
039A4:  MOVFF  696,6A2
039A8:  MOVFF  695,6A1
039AC:  MOVFF  694,6A0
039B0:  MOVFF  693,69F
039B4:  MOVFF  69A,6A6
039B8:  MOVFF  699,6A5
039BC:  MOVFF  698,6A4
039C0:  MOVFF  697,6A3
039C4:  CALL   151E
039C8:  MOVFF  00,69F
039CC:  MOVFF  01,6A0
039D0:  MOVFF  02,6A1
039D4:  MOVFF  03,6A2
039D8:  MOVFF  03,6B6
039DC:  MOVFF  02,6B5
039E0:  MOVFF  01,6B4
039E4:  MOVFF  00,6B3
039E8:  MOVLB  6
039EA:  CLRF   xBA
039EC:  CLRF   xB9
039EE:  MOVLW  20
039F0:  MOVWF  xB8
039F2:  MOVLW  82
039F4:  MOVWF  xB7
039F6:  MOVLB  0
039F8:  CALL   31BE
039FC:  MOVFF  03,69E
03A00:  MOVFF  02,69D
03A04:  MOVFF  01,69C
03A08:  MOVFF  00,69B
....................    return (int8)tmp; 
03A0C:  MOVFF  69E,6A2
03A10:  MOVFF  69D,6A1
03A14:  MOVFF  69C,6A0
03A18:  MOVFF  69B,69F
03A1C:  RCALL  3854
03A1E:  MOVF   01,W
.................... } 
03A20:  GOTO   3A5C (RETURN)
....................  
.................... void Envio_I2C(direccion, posicion, dato){ 
....................  
....................    i2c_start();            // Comienzo comunicacin 
*
03906:  BSF    F94.4
03908:  MOVLW  05
0390A:  MOVWF  00
0390C:  DECFSZ 00,F
0390E:  BRA    390C
03910:  BSF    F94.3
03912:  MOVLW  06
03914:  MOVWF  00
03916:  DECFSZ 00,F
03918:  BRA    3916
0391A:  BCF    F8B.4
0391C:  BCF    F94.4
0391E:  MOVLW  05
03920:  MOVWF  00
03922:  DECFSZ 00,F
03924:  BRA    3922
03926:  BCF    F8B.3
03928:  BCF    F94.3
....................    i2c_write(direccion);   // Direccin del esclavo en el bus I2C 
0392A:  MOVFF  694,697
0392E:  RCALL  3890
....................    i2c_write(posicion);    // Posicin donde se guardara el dato transmitido 
03930:  MOVFF  695,697
03934:  RCALL  3890
....................    i2c_write(dato);        // Dato a transmitir 
03936:  MOVFF  696,697
0393A:  RCALL  3890
....................    i2c_stop();             // Fin comunicacin 
0393C:  BCF    F94.4
0393E:  NOP   
03940:  BSF    F94.3
03942:  BTFSS  F82.3
03944:  BRA    3942
03946:  MOVLW  05
03948:  MOVWF  00
0394A:  DECFSZ 00,F
0394C:  BRA    394A
0394E:  BRA    3950
03950:  NOP   
03952:  BSF    F94.4
03954:  MOVLW  05
03956:  MOVWF  00
03958:  DECFSZ 00,F
0395A:  BRA    3958
.................... } 
0395C:  RETLW  00
....................  
.................... void Envio_Esclavos(void){ 
....................    Envio_I2C(0xA0,0,(int8)Temperatura); 
*
03A24:  MOVFF  643,6A2
03A28:  MOVFF  642,6A1
03A2C:  MOVFF  641,6A0
03A30:  MOVFF  640,69F
03A34:  RCALL  3854
03A36:  MOVFF  01,693
03A3A:  MOVLW  A0
03A3C:  MOVLB  6
03A3E:  MOVWF  x94
03A40:  CLRF   x95
03A42:  MOVFF  01,696
03A46:  MOVLB  0
03A48:  RCALL  3906
....................    Envio_I2C(0xA0,1,extraeDecimal(Temperatura)); 
03A4A:  MOVFF  643,696
03A4E:  MOVFF  642,695
03A52:  MOVFF  641,694
03A56:  MOVFF  640,693
03A5A:  BRA    395E
03A5C:  MOVFF  01,693
03A60:  MOVLW  A0
03A62:  MOVLB  6
03A64:  MOVWF  x94
03A66:  MOVLW  01
03A68:  MOVWF  x95
03A6A:  MOVFF  01,696
03A6E:  MOVLB  0
03A70:  RCALL  3906
....................    Envio_I2C(0xA0,2,255); 
03A72:  MOVLW  A0
03A74:  MOVLB  6
03A76:  MOVWF  x94
03A78:  MOVLW  02
03A7A:  MOVWF  x95
03A7C:  MOVLW  FF
03A7E:  MOVWF  x96
03A80:  MOVLB  0
03A82:  RCALL  3906
....................    Envio_I2C(0xA0,3,255); 
03A84:  MOVLW  A0
03A86:  MOVLB  6
03A88:  MOVWF  x94
03A8A:  MOVLW  03
03A8C:  MOVWF  x95
03A8E:  MOVLW  FF
03A90:  MOVWF  x96
03A92:  MOVLB  0
03A94:  RCALL  3906
....................    Envio_I2C(0xA0,4,128); 
03A96:  MOVLW  A0
03A98:  MOVLB  6
03A9A:  MOVWF  x94
03A9C:  MOVLW  04
03A9E:  MOVWF  x95
03AA0:  MOVLW  80
03AA2:  MOVWF  x96
03AA4:  MOVLB  0
03AA6:  RCALL  3906
.................... } 
03AA8:  GOTO   7294 (RETURN)
....................  
.................... #int_EXT HIGH 
.................... void ext0() {   
....................    Cruce=ON; 
*
01154:  MOVLB  5
01156:  BSF    xA0.5
....................     
....................    if(VelMotor==9){ 
01158:  MOVF   xB1,W
0115A:  SUBLW  09
0115C:  BNZ   116A
....................       set_timer0(190); // Cada cuenta del timer0 es 51.2us y timer1 es 1.59us 
0115E:  CLRF   FD7
01160:  MOVLW  BE
01162:  MOVWF  FD6
....................       Motor1_off;  
01164:  BCF    F8B.0
01166:  BCF    F94.0
....................    }else if(VelMotor==8){ 
01168:  BRA    11F6
0116A:  MOVF   xB1,W
0116C:  SUBLW  08
0116E:  BNZ   117C
....................       set_timer0(180);       
01170:  CLRF   FD7
01172:  MOVLW  B4
01174:  MOVWF  FD6
....................       Motor1_off;  
01176:  BCF    F8B.0
01178:  BCF    F94.0
....................    }else if(VelMotor==7){ 
0117A:  BRA    11F6
0117C:  MOVF   xB1,W
0117E:  SUBLW  07
01180:  BNZ   118E
....................       set_timer0(175); 
01182:  CLRF   FD7
01184:  MOVLW  AF
01186:  MOVWF  FD6
....................       Motor1_off;  
01188:  BCF    F8B.0
0118A:  BCF    F94.0
....................    }else if(VelMotor==6){ 
0118C:  BRA    11F6
0118E:  MOVF   xB1,W
01190:  SUBLW  06
01192:  BNZ   11A0
....................       set_timer0(172); 
01194:  CLRF   FD7
01196:  MOVLW  AC
01198:  MOVWF  FD6
....................       Motor1_off;  
0119A:  BCF    F8B.0
0119C:  BCF    F94.0
....................    }else if(VelMotor==5){ 
0119E:  BRA    11F6
011A0:  MOVF   xB1,W
011A2:  SUBLW  05
011A4:  BNZ   11B2
....................       set_timer0(169); 
011A6:  CLRF   FD7
011A8:  MOVLW  A9
011AA:  MOVWF  FD6
....................       Motor1_off;  
011AC:  BCF    F8B.0
011AE:  BCF    F94.0
....................    }else if(VelMotor==4){ 
011B0:  BRA    11F6
011B2:  MOVF   xB1,W
011B4:  SUBLW  04
011B6:  BNZ   11C4
....................       set_timer0(166); 
011B8:  CLRF   FD7
011BA:  MOVLW  A6
011BC:  MOVWF  FD6
....................       Motor1_off;  
011BE:  BCF    F8B.0
011C0:  BCF    F94.0
....................    }else if(VelMotor==3){ 
011C2:  BRA    11F6
011C4:  MOVF   xB1,W
011C6:  SUBLW  03
011C8:  BNZ   11D6
....................       set_timer0(163); 
011CA:  CLRF   FD7
011CC:  MOVLW  A3
011CE:  MOVWF  FD6
....................       Motor1_off;  
011D0:  BCF    F8B.0
011D2:  BCF    F94.0
....................    }else if(VelMotor==2){ 
011D4:  BRA    11F6
011D6:  MOVF   xB1,W
011D8:  SUBLW  02
011DA:  BNZ   11E8
....................       set_timer0(160); 
011DC:  CLRF   FD7
011DE:  MOVLW  A0
011E0:  MOVWF  FD6
....................       Motor1_off;  
011E2:  BCF    F8B.0
011E4:  BCF    F94.0
....................    }else if(VelMotor==1){ 
011E6:  BRA    11F6
011E8:  DECFSZ xB1,W
011EA:  BRA    11F6
....................       set_timer0(158); 
011EC:  CLRF   FD7
011EE:  MOVLW  9E
011F0:  MOVWF  FD6
....................       Motor1_off;  
011F2:  BCF    F8B.0
011F4:  BCF    F94.0
....................    }                
....................    pulsos++;  
011F6:  INCF   xB9,F
.................... } 
....................  
011F8:  BCF    FF2.1
011FA:  MOVLB  0
011FC:  GOTO   010A
.................... #int_TIMER0 HIGH 
.................... void temp0s(void){ 
....................    if(VelMotor>0 && VelMotor<10){ 
01200:  MOVLB  5
01202:  MOVF   xB1,F
01204:  BZ    1226
01206:  MOVF   xB1,W
01208:  SUBLW  09
0120A:  BNC   1226
....................    if(Cruce){         //If the triac pin is low we change the state and prepare the timer 
0120C:  BTFSS  xA0.5
0120E:  BRA    121E
....................       Motor1_on; 
01210:  BSF    F8B.0
01212:  BCF    F94.0
....................       set_timer0(253);         // Next timer overflow will clear the triac pin 
01214:  CLRF   FD7
01216:  MOVLW  FD
01218:  MOVWF  FD6
....................       Cruce=OFF;         // Flag now signals that we need to turn off the triac output pin 
0121A:  BCF    xA0.5
....................    } else {            //The triac has been triggered, cut the pulse 
0121C:  BRA    1226
....................       Motor1_off; 
0121E:  BCF    F8B.0
01220:  BCF    F94.0
....................       set_timer0(0);         //Set timer period to maximum, timer should not overflow untill next zero cross interrupt 
01222:  CLRF   FD7
01224:  CLRF   FD6
....................    } 
....................    } 
.................... } 
....................  
01226:  BCF    FF2.2
01228:  MOVLB  0
0122A:  GOTO   010A
.................... #int_TIMER1  
.................... void temp1s(void){ 
....................    set_timer1(40536);//5ms 
0122E:  MOVLW  9E
01230:  MOVWF  FCF
01232:  MOVLW  58
01234:  MOVWF  FCE
....................    //set_timer1(65036);//100us 
....................    tiempos++; 
01236:  MOVLB  5
01238:  INCF   xC0,F
0123A:  BTFSC  FD8.2
0123C:  INCF   xC1,F
....................    tiempos3++; 
0123E:  INCF   xC2,F
01240:  BTFSC  FD8.2
01242:  INCF   xC3,F
....................    tiempoctrl++; 
01244:  INCF   xC4,F
01246:  BTFSC  FD8.2
01248:  INCF   xC5,F
....................     
....................    if(VelMotor==10){ 
0124A:  MOVF   xB1,W
0124C:  SUBLW  0A
0124E:  BNZ   1258
....................       Motor1_on; 
01250:  BSF    F8B.0
01252:  BCF    F94.0
....................       set_timer0(0); 
01254:  CLRF   FD7
01256:  CLRF   FD6
....................    } 
....................    if(VelMotor==0){ 
01258:  MOVF   xB1,F
0125A:  BNZ   1264
....................       Motor1_off; 
0125C:  BCF    F8B.0
0125E:  BCF    F94.0
....................       set_timer0(0); 
01260:  CLRF   FD7
01262:  CLRF   FD6
....................    } 
....................     
....................    if(tiempos3>=200){ 
01264:  MOVF   xC3,F
01266:  BNZ   126E
01268:  MOVF   xC2,W
0126A:  SUBLW  C7
0126C:  BC    1276
....................       Lectura2=1; 
0126E:  MOVLW  01
01270:  MOVWF  xA8
....................       tiempos3=0; 
01272:  CLRF   xC3
01274:  CLRF   xC2
....................    } 
....................     
....................    if(Controlando==1){ 
01276:  DECFSZ xA9,W
01278:  BRA    12BC
....................       if(tiempoctrl<Tp){ // Si el tiempo es menor o igual al tiempo de control se enciende la resistencia de lo contrario se apaga. 
0127A:  MOVF   xC5,W
0127C:  SUBWF  xCD,W
0127E:  BNC   12A2
01280:  BNZ   1288
01282:  MOVF   xCC,W
01284:  SUBWF  xC4,W
01286:  BC    12A2
....................          if(VelMotor>5){ 
01288:  MOVF   xB1,W
0128A:  SUBLW  05
0128C:  BC    1298
....................             SSR_on; 
0128E:  BSF    F8B.2
01290:  BCF    F94.2
....................             SSR2_off; 
01292:  BCF    F8B.1
01294:  BCF    F94.1
....................          }else{ 
01296:  BRA    12A0
....................             SSR2_off; 
01298:  BCF    F8B.1
0129A:  BCF    F94.1
....................             SSR_on; 
0129C:  BSF    F8B.2
0129E:  BCF    F94.2
....................          } 
....................       }else{          
012A0:  BRA    12AA
....................          SSR_off; 
012A2:  BCF    F8B.2
012A4:  BCF    F94.2
....................          SSR2_off; 
012A6:  BCF    F8B.1
012A8:  BCF    F94.1
....................       } 
....................        
....................       if(tiempoctrl>=Tc) // Si el tiempo de control es mayor al tiempo de ciclo se reinicia tiempo de control 
012AA:  MOVF   xCF,W
012AC:  SUBWF  xC5,W
012AE:  BNC   12BC
012B0:  BNZ   12B8
012B2:  MOVF   xCE,W
012B4:  SUBWF  xC4,W
012B6:  BNC   12BC
....................          tiempoctrl=0; // tiempoctrl incrementa una unidad cada 5ms, por eso se dividen los tiempos por 0.005. 
012B8:  CLRF   xC5
012BA:  CLRF   xC4
....................    } 
....................      
....................    if(tiempos>=200){  // 12000 para que incremente cada minuto, 200para que incremente cada segundo. 
012BC:  MOVF   xC1,F
012BE:  BNZ   12C6
012C0:  MOVF   xC0,W
012C2:  SUBLW  C7
012C4:  BC    1314
....................       tiempos=0;Lectura=1;tiemporeset++;TiempoControl++;tiemporecta++; 
012C6:  CLRF   xC1
012C8:  CLRF   xC0
012CA:  BSF    xAC.3
012CC:  INCF   xAF,F
012CE:  INCF   xD0,F
012D0:  BTFSC  FD8.2
012D2:  INCF   xD1,F
012D4:  INCF   xA6,F
....................        
....................       if(flagup) 
012D6:  BTFSS  xA0.2
012D8:  BRA    12DC
....................          tiempoup++; 
012DA:  INCF   xB7,F
....................       if(flagdn) 
012DC:  BTFSS  xA0.3
012DE:  BRA    12E2
....................          tiempodn++;  
012E0:  INCF   xB8,F
....................        
....................       if(abrio) 
012E2:  BTFSS  xAD.0
012E4:  BRA    12EC
....................          tiempoApertura++; 
012E6:  INCF   xD2,F
012E8:  BTFSC  FD8.2
012EA:  INCF   xD3,F
....................           
....................       if(flag_setpoint==1) 
012EC:  BTFSS  xAD.5
012EE:  BRA    12F6
....................          tiemposetpoint++; 
012F0:  INCF   xCA,F
012F2:  BTFSC  FD8.2
012F4:  INCF   xCB,F
....................           
....................       if(tiempo_esterilizacion==1)    
012F6:  DECFSZ xBB,W
012F8:  BRA    1300
....................          tinicio++; 
012FA:  INCF   xC6,F
012FC:  BTFSC  FD8.2
012FE:  INCF   xC7,F
....................        
....................       if(flag_tiempocalentamiento==1) 
01300:  BTFSS  xAD.3
01302:  BRA    130A
....................          tiempocalentamiento++; 
01304:  INCF   xC8,F
01306:  BTFSC  FD8.2
01308:  INCF   xC9,F
....................           
....................       if(sobrepaso==1) 
0130A:  BTFSS  xAD.7
0130C:  BRA    1314
....................          tSobrepaso++; 
0130E:  INCF   xD4,F
01310:  BTFSC  FD8.2
01312:  INCF   xD5,F
....................    }         
.................... } 
....................  
01314:  BCF    F9E.0
01316:  MOVLB  0
01318:  GOTO   0068
.................... void main() 
.................... { 
*
06CBA:  CLRF   FF8
06CBC:  BSF    FF1.2
06CBE:  BCF    F9F.0
06CC0:  BSF    FD0.7
06CC2:  BSF    07.7
06CC4:  CLRF   FEA
06CC6:  CLRF   FE9
06CC8:  MOVLB  5
06CCA:  BCF    xA0.0
06CCC:  BCF    xA0.1
06CCE:  BCF    xA0.2
06CD0:  BCF    xA0.3
06CD2:  BCF    xA0.4
06CD4:  BCF    xA0.5
06CD6:  BCF    xA0.6
06CD8:  CLRF   xA1
06CDA:  CLRF   xA2
06CDC:  CLRF   xA3
06CDE:  CLRF   xA4
06CE0:  MOVLW  0A
06CE2:  MOVWF  xA5
06CE4:  CLRF   xA6
06CE6:  CLRF   xA7
06CE8:  CLRF   xA8
06CEA:  CLRF   xA9
06CEC:  MOVWF  xAA
06CEE:  CLRF   xAB
06CF0:  BCF    xA0.7
06CF2:  BCF    xAC.0
06CF4:  BCF    xAC.1
06CF6:  BSF    xAC.2
06CF8:  BCF    xAC.3
06CFA:  BCF    xAC.4
06CFC:  BCF    xAC.5
06CFE:  BCF    xAC.6
06D00:  BCF    xAC.7
06D02:  BCF    xAD.0
06D04:  BCF    xAD.1
06D06:  BCF    xAD.2
06D08:  BCF    xAD.3
06D0A:  BCF    xAD.4
06D0C:  BCF    xAD.5
06D0E:  BCF    xAD.6
06D10:  BCF    xAD.7
06D12:  CLRF   xAE
06D14:  CLRF   xAF
06D16:  MOVLW  01
06D18:  MOVWF  xB0
06D1A:  CLRF   xB1
06D1C:  MOVLW  0A
06D1E:  MOVWF  xB2
06D20:  CLRF   xB3
06D22:  MOVLW  01
06D24:  MOVWF  xB4
06D26:  CLRF   xB5
06D28:  CLRF   xB6
06D2A:  CLRF   xB7
06D2C:  CLRF   xB8
06D2E:  CLRF   xB9
06D30:  MOVWF  xBA
06D32:  CLRF   xBB
06D34:  CLRF   xBC
06D36:  CLRF   xBD
06D38:  CLRF   xBE
06D3A:  CLRF   xBF
06D3C:  CLRF   xC1
06D3E:  CLRF   xC0
06D40:  CLRF   xC3
06D42:  CLRF   xC2
06D44:  CLRF   xC5
06D46:  CLRF   xC4
06D48:  CLRF   xC7
06D4A:  CLRF   xC6
06D4C:  CLRF   xC9
06D4E:  CLRF   xC8
06D50:  CLRF   xCB
06D52:  CLRF   xCA
06D54:  CLRF   xCD
06D56:  CLRF   xCC
06D58:  CLRF   xCF
06D5A:  CLRF   xCE
06D5C:  CLRF   xD1
06D5E:  CLRF   xD0
06D60:  CLRF   xD3
06D62:  CLRF   xD2
06D64:  CLRF   xD5
06D66:  CLRF   xD4
06D68:  CLRF   xD7
06D6A:  CLRF   xD6
06D6C:  CLRF   xDB
06D6E:  CLRF   xDA
06D70:  CLRF   xD9
06D72:  CLRF   xD8
06D74:  CLRF   xDF
06D76:  CLRF   xDE
06D78:  CLRF   xDD
06D7A:  CLRF   xDC
06D7C:  CLRF   xE3
06D7E:  CLRF   xE2
06D80:  CLRF   xE1
06D82:  CLRF   xE0
06D84:  CLRF   xE7
06D86:  CLRF   xE6
06D88:  CLRF   xE5
06D8A:  CLRF   xE4
06D8C:  CLRF   xEB
06D8E:  CLRF   xEA
06D90:  CLRF   xE9
06D92:  CLRF   xE8
06D94:  CLRF   xEF
06D96:  CLRF   xEE
06D98:  CLRF   xED
06D9A:  CLRF   xEC
06D9C:  CLRF   xF3
06D9E:  CLRF   xF2
06DA0:  CLRF   xF1
06DA2:  CLRF   xF0
06DA4:  CLRF   xF7
06DA6:  CLRF   xF6
06DA8:  CLRF   xF5
06DAA:  CLRF   xF4
06DAC:  MOVLB  6
06DAE:  CLRF   x0B
06DB0:  CLRF   x0A
06DB2:  CLRF   x09
06DB4:  CLRF   x08
06DB6:  CLRF   x0F
06DB8:  MOVLW  40
06DBA:  MOVWF  x0E
06DBC:  MOVLW  1C
06DBE:  MOVWF  x0D
06DC0:  MOVLW  8C
06DC2:  MOVWF  x0C
06DC4:  CLRF   x17
06DC6:  CLRF   x16
06DC8:  MOVLW  20
06DCA:  MOVWF  x15
06DCC:  MOVLW  82
06DCE:  MOVWF  x14
06DD0:  CLRF   x1B
06DD2:  CLRF   x1A
06DD4:  CLRF   x19
06DD6:  CLRF   x18
06DD8:  CLRF   x1F
06DDA:  CLRF   x1E
06DDC:  CLRF   x1D
06DDE:  CLRF   x1C
06DE0:  CLRF   x23
06DE2:  CLRF   x22
06DE4:  CLRF   x21
06DE6:  CLRF   x20
06DE8:  CLRF   x27
06DEA:  CLRF   x26
06DEC:  CLRF   x25
06DEE:  CLRF   x24
06DF0:  CLRF   x2B
06DF2:  CLRF   x2A
06DF4:  CLRF   x29
06DF6:  CLRF   x28
06DF8:  CLRF   x2F
06DFA:  CLRF   x2E
06DFC:  CLRF   x2D
06DFE:  MOVLW  80
06E00:  MOVWF  x2C
06E02:  CLRF   x33
06E04:  CLRF   x32
06E06:  CLRF   x31
06E08:  MOVLW  7E
06E0A:  MOVWF  x30
06E0C:  CLRF   x37
06E0E:  CLRF   x36
06E10:  MOVLW  32
06E12:  MOVWF  x35
06E14:  MOVLW  84
06E16:  MOVWF  x34
06E18:  CLRF   x3B
06E1A:  CLRF   x3A
06E1C:  CLRF   x39
06E1E:  CLRF   x38
06E20:  CLRF   x3F
06E22:  CLRF   x3E
06E24:  CLRF   x3D
06E26:  CLRF   x3C
06E28:  CLRF   x43
06E2A:  CLRF   x42
06E2C:  CLRF   x41
06E2E:  CLRF   x40
06E30:  CLRF   x47
06E32:  CLRF   x46
06E34:  CLRF   x45
06E36:  CLRF   x44
06E38:  CLRF   x4B
06E3A:  CLRF   x4A
06E3C:  CLRF   x49
06E3E:  CLRF   x48
06E40:  CLRF   x4F
06E42:  CLRF   x4E
06E44:  CLRF   x4D
06E46:  CLRF   x4C
06E48:  CLRF   x53
06E4A:  CLRF   x52
06E4C:  CLRF   x51
06E4E:  CLRF   x50
06E50:  CLRF   x57
06E52:  CLRF   x56
06E54:  CLRF   x55
06E56:  CLRF   x54
06E58:  CLRF   x5B
06E5A:  CLRF   x5A
06E5C:  CLRF   x59
06E5E:  CLRF   x58
06E60:  CLRF   x5F
06E62:  CLRF   x5E
06E64:  CLRF   x5D
06E66:  CLRF   x5C
06E68:  CLRF   x63
06E6A:  CLRF   x62
06E6C:  CLRF   x61
06E6E:  CLRF   x60
06E70:  MOVLW  E0
06E72:  MOVWF  x67
06E74:  MOVLW  2D
06E76:  MOVWF  x66
06E78:  MOVLW  10
06E7A:  MOVWF  x65
06E7C:  MOVLW  75
06E7E:  MOVWF  x64
06E80:  MOVLW  FF
06E82:  MOVWF  x6B
06E84:  MOVLW  21
06E86:  MOVWF  x6A
06E88:  MOVLW  15
06E8A:  MOVWF  x69
06E8C:  MOVLW  80
06E8E:  MOVWF  x68
06E90:  MOVLW  82
06E92:  MOVWF  x6F
06E94:  MOVLW  12
06E96:  MOVWF  x6E
06E98:  MOVLW  F4
06E9A:  MOVWF  x6D
06E9C:  MOVLW  86
06E9E:  MOVWF  x6C
06EA0:  CLRF   x70
06EA2:  CLRF   x71
06EA4:  CLRF   x72
06EA6:  MOVF   FC1,W
06EA8:  ANDLW  C0
06EAA:  IORLW  0F
06EAC:  MOVWF  FC1
06EAE:  MOVLW  07
06EB0:  MOVWF  FB4
06EB2:  MOVLB  4
06EB4:  CLRF   x2A
06EB6:  CLRF   x2B
06EB8:  CLRF   x30
06EBA:  CLRF   x31
06EBC:  CLRF   x32
06EBE:  CLRF   x33
06EC0:  CLRF   x34
06EC2:  CLRF   x35
06EC4:  CLRF   x36
06EC6:  CLRF   x37
06EC8:  CLRF   x38
06ECA:  CLRF   x39
06ECC:  CLRF   x3A
06ECE:  CLRF   x3B
06ED0:  CLRF   x3C
06ED2:  CLRF   x3D
06ED4:  CLRF   x3E
06ED6:  CLRF   x3F
06ED8:  CLRF   x40
06EDA:  CLRF   x41
06EDC:  CLRF   x42
06EDE:  CLRF   x43
06EE0:  CLRF   x44
06EE2:  CLRF   x45
06EE4:  CLRF   x46
06EE6:  CLRF   x47
06EE8:  CLRF   x48
06EEA:  CLRF   x49
06EEC:  CLRF   x4A
06EEE:  CLRF   x4B
06EF0:  CLRF   x4C
06EF2:  CLRF   x4D
06EF4:  CLRF   x4E
06EF6:  CLRF   x4F
06EF8:  CLRF   x50
06EFA:  CLRF   x51
06EFC:  CLRF   x52
06EFE:  CLRF   x53
06F00:  CLRF   x54
06F02:  CLRF   x55
06F04:  CLRF   x56
06F06:  CLRF   x57
06F08:  CLRF   x58
06F0A:  CLRF   x59
06F0C:  CLRF   x5A
06F0E:  CLRF   x5B
06F10:  CLRF   x5C
06F12:  CLRF   x5D
06F14:  CLRF   x5E
06F16:  CLRF   x5F
06F18:  CLRF   x60
06F1A:  CLRF   x61
06F1C:  CLRF   x62
06F1E:  CLRF   x63
06F20:  CLRF   x64
06F22:  CLRF   x65
06F24:  CLRF   x66
06F26:  CLRF   x67
06F28:  CLRF   x68
06F2A:  CLRF   x69
06F2C:  CLRF   x6A
06F2E:  CLRF   x6B
06F30:  CLRF   x6C
06F32:  CLRF   x6D
06F34:  CLRF   x6E
06F36:  CLRF   x6F
06F38:  CLRF   x70
06F3A:  CLRF   x71
06F3C:  CLRF   x72
06F3E:  CLRF   x73
06F40:  CLRF   x74
06F42:  CLRF   x75
06F44:  CLRF   x76
06F46:  CLRF   x77
06F48:  CLRF   x78
06F4A:  CLRF   x79
06F4C:  CLRF   x7A
06F4E:  CLRF   x7B
06F50:  CLRF   x7C
06F52:  CLRF   x7D
06F54:  CLRF   x7E
06F56:  CLRF   x7F
06F58:  CLRF   x80
06F5A:  CLRF   x81
06F5C:  CLRF   x82
06F5E:  CLRF   x83
06F60:  CLRF   x84
06F62:  CLRF   x85
06F64:  CLRF   x86
06F66:  CLRF   x87
06F68:  CLRF   x88
06F6A:  CLRF   x89
06F6C:  CLRF   x8A
06F6E:  CLRF   x8B
06F70:  CLRF   x8C
06F72:  CLRF   x8D
06F74:  CLRF   x8E
06F76:  CLRF   x8F
06F78:  CLRF   x90
06F7A:  CLRF   x91
06F7C:  CLRF   x92
06F7E:  CLRF   x93
06F80:  CLRF   x94
06F82:  CLRF   x95
06F84:  CLRF   x96
06F86:  CLRF   x97
06F88:  CLRF   x98
06F8A:  CLRF   x99
06F8C:  CLRF   x9A
06F8E:  CLRF   x9B
06F90:  CLRF   x9C
06F92:  CLRF   x9D
06F94:  CLRF   x9E
06F96:  CLRF   x9F
06F98:  CLRF   xA0
06F9A:  CLRF   xA1
06F9C:  CLRF   xA2
06F9E:  CLRF   xA3
06FA0:  CLRF   xA4
06FA2:  CLRF   xA5
06FA4:  CLRF   xA6
06FA6:  CLRF   xA7
06FA8:  CLRF   xA8
06FAA:  CLRF   xA9
06FAC:  CLRF   xAA
06FAE:  CLRF   xAB
06FB0:  CLRF   xAC
06FB2:  CLRF   xAD
06FB4:  CLRF   xAE
06FB6:  CLRF   xAF
06FB8:  CLRF   xB0
06FBA:  CLRF   xB1
06FBC:  CLRF   xB2
06FBE:  CLRF   xB3
06FC0:  CLRF   xB4
06FC2:  CLRF   xB5
06FC4:  CLRF   xB6
06FC6:  CLRF   xB7
06FC8:  CLRF   xB8
06FCA:  CLRF   xB9
06FCC:  CLRF   xBA
06FCE:  CLRF   xBB
06FD0:  CLRF   xBC
06FD2:  CLRF   xBD
06FD4:  CLRF   xBE
06FD6:  CLRF   xBF
06FD8:  CLRF   xC0
06FDA:  CLRF   xC1
06FDC:  CLRF   xC2
06FDE:  CLRF   xC3
06FE0:  CLRF   xC4
06FE2:  CLRF   xC5
06FE4:  CLRF   xC6
06FE6:  CLRF   xC7
06FE8:  CLRF   xC8
06FEA:  CLRF   xC9
06FEC:  CLRF   xCA
06FEE:  CLRF   xCB
06FF0:  CLRF   xCC
06FF2:  CLRF   xCD
06FF4:  CLRF   xCE
06FF6:  CLRF   xCF
06FF8:  CLRF   xD0
06FFA:  CLRF   xD1
06FFC:  CLRF   xD2
06FFE:  CLRF   xD3
07000:  CLRF   xD4
07002:  CLRF   xD5
07004:  CLRF   xD6
07006:  CLRF   xD7
07008:  CLRF   xD8
0700A:  CLRF   xD9
0700C:  CLRF   xDA
0700E:  CLRF   xDB
07010:  CLRF   xDC
07012:  CLRF   xDD
07014:  CLRF   xDE
07016:  CLRF   xDF
07018:  CLRF   xE0
0701A:  CLRF   xE1
0701C:  CLRF   xE2
0701E:  CLRF   xE3
07020:  CLRF   xE4
07022:  CLRF   xE5
07024:  CLRF   xE6
07026:  CLRF   xE7
07028:  CLRF   xE8
0702A:  CLRF   xE9
0702C:  CLRF   xEA
0702E:  CLRF   xEB
07030:  CLRF   xEC
07032:  CLRF   xED
07034:  CLRF   xEE
07036:  CLRF   xEF
07038:  CLRF   xF0
0703A:  CLRF   xF1
0703C:  CLRF   xF2
0703E:  CLRF   xF3
07040:  CLRF   xF4
07042:  CLRF   xF5
07044:  CLRF   xF6
07046:  CLRF   xF7
07048:  CLRF   xF8
0704A:  CLRF   xF9
0704C:  CLRF   xFA
0704E:  CLRF   xFB
07050:  CLRF   xFC
07052:  CLRF   xFD
07054:  CLRF   xFE
07056:  CLRF   xFF
07058:  MOVLB  5
0705A:  CLRF   x00
0705C:  CLRF   x01
0705E:  CLRF   x02
07060:  CLRF   x03
07062:  CLRF   x04
07064:  CLRF   x05
07066:  CLRF   x06
07068:  CLRF   x07
0706A:  CLRF   x08
0706C:  CLRF   x09
0706E:  CLRF   x0A
07070:  CLRF   x0B
07072:  CLRF   x0C
07074:  CLRF   x0D
07076:  CLRF   x0E
07078:  CLRF   x0F
0707A:  CLRF   x10
0707C:  CLRF   x11
0707E:  CLRF   x12
07080:  CLRF   x13
07082:  CLRF   x14
07084:  CLRF   x15
07086:  CLRF   x16
07088:  CLRF   x17
0708A:  CLRF   x18
0708C:  CLRF   x19
0708E:  CLRF   x1A
07090:  CLRF   x1B
07092:  CLRF   x1C
07094:  CLRF   x1D
07096:  CLRF   x1E
07098:  CLRF   x1F
0709A:  CLRF   x20
0709C:  CLRF   x21
0709E:  CLRF   x22
070A0:  CLRF   x23
070A2:  CLRF   x24
070A4:  CLRF   x25
070A6:  CLRF   x26
070A8:  CLRF   x27
070AA:  CLRF   x28
070AC:  CLRF   x29
070AE:  CLRF   x2A
070B0:  CLRF   x2B
070B2:  CLRF   x2C
070B4:  CLRF   x2D
070B6:  CLRF   x2E
070B8:  CLRF   x2F
070BA:  CLRF   x30
070BC:  CLRF   x31
070BE:  CLRF   x32
070C0:  CLRF   x33
070C2:  CLRF   x34
070C4:  CLRF   x35
070C6:  CLRF   x36
070C8:  CLRF   x37
070CA:  CLRF   x38
070CC:  CLRF   x39
070CE:  CLRF   x3A
070D0:  CLRF   x3B
070D2:  CLRF   x3C
070D4:  CLRF   x3D
070D6:  CLRF   x3E
070D8:  CLRF   x3F
070DA:  CLRF   x40
070DC:  CLRF   x41
070DE:  CLRF   x42
070E0:  CLRF   x43
070E2:  CLRF   x44
070E4:  CLRF   x45
070E6:  CLRF   x46
070E8:  CLRF   x47
070EA:  CLRF   x48
070EC:  CLRF   x49
070EE:  CLRF   x4A
070F0:  CLRF   x4B
070F2:  CLRF   x4C
070F4:  CLRF   x4D
070F6:  CLRF   x4E
070F8:  CLRF   x4F
070FA:  CLRF   x50
070FC:  CLRF   x51
070FE:  CLRF   x52
07100:  CLRF   x53
07102:  CLRF   x54
07104:  CLRF   x55
07106:  CLRF   x56
07108:  CLRF   x57
0710A:  CLRF   x58
0710C:  CLRF   x59
0710E:  CLRF   x5A
07110:  CLRF   x5B
07112:  CLRF   x5C
07114:  CLRF   x5D
07116:  CLRF   x5E
07118:  CLRF   x5F
0711A:  CLRF   x60
0711C:  CLRF   x61
0711E:  CLRF   x62
07120:  CLRF   x63
07122:  CLRF   x64
07124:  CLRF   x65
07126:  CLRF   x66
07128:  CLRF   x67
0712A:  CLRF   x68
0712C:  CLRF   x69
0712E:  CLRF   x6A
07130:  CLRF   x6B
07132:  CLRF   x6C
07134:  CLRF   x6D
07136:  CLRF   x6E
07138:  CLRF   x6F
0713A:  CLRF   x70
0713C:  CLRF   x71
0713E:  CLRF   x72
07140:  CLRF   x73
07142:  CLRF   x74
07144:  CLRF   x75
07146:  CLRF   x76
07148:  CLRF   x77
0714A:  CLRF   x78
0714C:  CLRF   x79
0714E:  CLRF   x7A
07150:  CLRF   x7B
07152:  CLRF   x7C
07154:  CLRF   x7D
07156:  CLRF   x7E
07158:  CLRF   x7F
0715A:  CLRF   x80
0715C:  CLRF   x81
0715E:  CLRF   x82
07160:  CLRF   x83
07162:  CLRF   x84
07164:  CLRF   x85
07166:  CLRF   x86
07168:  CLRF   x87
0716A:  CLRF   x88
0716C:  CLRF   x89
0716E:  CLRF   x8A
07170:  CLRF   x8B
07172:  CLRF   x8C
07174:  CLRF   x8D
07176:  CLRF   x8E
07178:  CLRF   x8F
0717A:  CLRF   x90
0717C:  CLRF   x91
0717E:  CLRF   x92
07180:  CLRF   x93
07182:  CLRF   x94
07184:  CLRF   x95
07186:  CLRF   x96
07188:  CLRF   x97
0718A:  CLRF   x98
0718C:  CLRF   x99
0718E:  CLRF   x9A
07190:  CLRF   x9B
07192:  CLRF   x9C
07194:  CLRF   x9D
07196:  CLRF   x9E
07198:  CLRF   x9F
0719A:  CLRF   xF8
0719C:  CLRF   xF9
0719E:  CLRF   xFA
071A0:  CLRF   xFB
071A2:  CLRF   xFC
071A4:  CLRF   xFD
071A6:  CLRF   xFE
071A8:  CLRF   xFF
071AA:  MOVLB  6
071AC:  CLRF   x00
071AE:  CLRF   x01
071B0:  CLRF   x02
071B2:  CLRF   x03
071B4:  CLRF   x04
071B6:  CLRF   x05
071B8:  CLRF   x06
071BA:  CLRF   x07
071BC:  CLRF   x91
071BE:  CLRF   x92
....................    Motor1_off; 
071C0:  BCF    F8B.0
071C2:  BCF    F94.0
....................    SSR_off; 
071C4:  BCF    F8B.2
071C6:  BCF    F94.2
....................    SSR2_off; 
071C8:  BCF    F8B.1
071CA:  BCF    F94.1
....................    setup_wdt(WDT_ON); 
071CC:  BSF    FD1.0
....................    ConfiguraInterrupciones(); 
071CE:  MOVLB  0
071D0:  GOTO   1344
....................    LeeEEPROM(); 
071D4:  GOTO   1796
....................    LimitaValores(); 
071D8:  GOTO   205E
....................    MensajeBienvenida(); 
071DC:  GOTO   36E4
....................    derivativo_ant=Derivativo; 
071E0:  MOVFF  5F3,5F7
071E4:  MOVFF  5F2,5F6
071E8:  MOVFF  5F1,5F5
071EC:  MOVFF  5F0,5F4
....................     
....................    if(UP && DOWN) 
071F0:  BSF    F92.5
071F2:  BTFSC  F80.5
071F4:  BRA    7280
071F6:  BSF    F96.0
071F8:  BTFSC  F84.0
071FA:  BRA    7280
....................    { 
....................       delay_ms(500); 
071FC:  MOVLW  02
071FE:  MOVLB  6
07200:  MOVWF  x93
07202:  MOVLW  FA
07204:  MOVWF  x9C
07206:  MOVLB  0
07208:  CALL   131C
0720C:  MOVLB  6
0720E:  DECFSZ x93,F
07210:  BRA    7202
....................       strcpy(Menus.Letra,"Cargando.."); 
07212:  MOVLW  06
07214:  MOVWF  FEA
07216:  MOVLW  73
07218:  MOVWF  FE9
0721A:  MOVFF  FF2,693
0721E:  BCF    FF2.6
07220:  BCF    FF2.7
07222:  MOVLW  00
07224:  MOVLB  0
07226:  CALL   0994
0722A:  TBLRD*-
0722C:  TBLRD*+
0722E:  MOVF   FF5,W
07230:  MOVWF  FEE
07232:  IORLW  00
07234:  BNZ   722C
07236:  MOVLB  6
07238:  BTFSC  x93.6
0723A:  BSF    FF2.6
0723C:  BTFSC  x93.7
0723E:  BSF    FF2.7
....................       displayMenu(Menus.Letra,0,30,1,1); 
07240:  MOVLW  06
07242:  MOVWF  x9C
07244:  MOVLW  73
07246:  MOVWF  x9B
07248:  CLRF   x9D
0724A:  MOVLW  1E
0724C:  MOVWF  x9E
0724E:  MOVLW  01
07250:  MOVWF  x9F
07252:  MOVWF  xA0
07254:  MOVLB  0
07256:  CALL   3048
....................       delay_ms(2000); 
0725A:  MOVLW  08
0725C:  MOVLB  6
0725E:  MOVWF  x93
07260:  MOVLW  FA
07262:  MOVWF  x9C
07264:  MOVLB  0
07266:  CALL   131C
0726A:  MOVLB  6
0726C:  DECFSZ x93,F
0726E:  BRA    7260
....................       Menu=100; 
07270:  MOVLW  64
07272:  MOVLB  5
07274:  MOVWF  xB3
....................       glcd_fillScreen(OFF); 
07276:  MOVLB  6
07278:  CLRF   x9B
0727A:  MOVLB  0
0727C:  CALL   2A0E
....................    } 
....................     
.................... while(true) 
.................... { 
....................    if(Menu!=20){ 
07280:  MOVLB  5
07282:  MOVF   xB3,W
07284:  SUBLW  14
07286:  BZ    728C
....................       TiempoControl=0; 
07288:  CLRF   xD1
0728A:  CLRF   xD0
....................    } 
....................    restart_wdt(); 
0728C:  CLRWDT
....................    Envio_Esclavos(); 
0728E:  MOVLB  0
07290:  GOTO   3A24
....................  
....................       if(Lectura2==1){ 
07294:  MOVLB  5
07296:  DECFSZ xA8,W
07298:  BRA    72B8
....................          Temperatura=Leer_Sensor(MediaMovil); 
0729A:  MOVFF  5A5,693
0729E:  MOVLB  0
072A0:  CALL   32B4
072A4:  MOVFF  03,643
072A8:  MOVFF  02,642
072AC:  MOVFF  01,641
072B0:  MOVFF  00,640
....................          Lectura2=0; 
072B4:  MOVLB  5
072B6:  CLRF   xA8
....................       } 
....................        
....................       glcd_update();             
072B8:  MOVLB  0
072BA:  CALL   2A68
.................... //_-------------------------------------------------------------------------------------------------------------------------------------------------------- 
....................       if(Menu==0){ //Menu de Contrasea. 
072BE:  MOVLB  5
072C0:  MOVF   xB3,F
072C2:  BNZ   72E8
....................          PidePassword(0,0,1,Password[0],Password[1],Password[2],Password[3],0); 
072C4:  MOVLB  6
072C6:  CLRF   x93
072C8:  CLRF   x94
072CA:  MOVLW  01
072CC:  MOVWF  x95
072CE:  MOVFF  604,696
072D2:  MOVFF  605,697
072D6:  MOVFF  606,698
072DA:  MOVFF  607,699
072DE:  CLRF   x9A
072E0:  MOVLB  0
072E2:  CALL   3D5E
072E6:  MOVLB  5
....................       } 
.................... //_--------------------------------------------------------------------------------------------------------------------------------------------------------        
....................  
.................... //_-------------------------------------------------------------------------------------------------------------------------------------------------------- 
....................       if(Menu==1){ //Menu Principal.       
072E8:  DECFSZ xB3,W
072EA:  BRA    77B6
....................        
....................          if(Opcion>5) 
072EC:  MOVF   xBA,W
072EE:  SUBLW  05
072F0:  BC    72F6
....................             Opcion=1; 
072F2:  MOVLW  01
072F4:  MOVWF  xBA
....................              
....................          if(Opcion<1) 
072F6:  MOVF   xBA,F
072F8:  BNZ   72FE
....................             Opcion=5; 
072FA:  MOVLW  05
072FC:  MOVWF  xBA
....................           
....................          strcpy(Menus.Letra,"Menu"); 
072FE:  MOVLW  06
07300:  MOVWF  FEA
07302:  MOVLW  73
07304:  MOVWF  FE9
07306:  MOVFF  FF2,693
0730A:  BCF    FF2.6
0730C:  BCF    FF2.7
0730E:  MOVLW  00
07310:  MOVLB  0
07312:  CALL   09C4
07316:  TBLRD*-
07318:  TBLRD*+
0731A:  MOVF   FF5,W
0731C:  MOVWF  FEE
0731E:  IORLW  00
07320:  BNZ   7318
07322:  MOVLB  6
07324:  BTFSC  x93.6
07326:  BSF    FF2.6
07328:  BTFSC  x93.7
0732A:  BSF    FF2.7
....................          displayMenu(Menus.Letra,30,0,1,2); 
0732C:  MOVLW  06
0732E:  MOVWF  x9C
07330:  MOVLW  73
07332:  MOVWF  x9B
07334:  MOVLW  1E
07336:  MOVWF  x9D
07338:  CLRF   x9E
0733A:  MOVLW  01
0733C:  MOVWF  x9F
0733E:  MOVLW  02
07340:  MOVWF  xA0
07342:  MOVLB  0
07344:  CALL   3048
....................        
....................          if(Opcion<5){ 
07348:  MOVLB  5
0734A:  MOVF   xBA,W
0734C:  SUBLW  04
0734E:  BTFSS  FD8.0
07350:  BRA    75C2
....................             if(Opcion==1)    
07352:  DECFSZ xBA,W
07354:  BRA    73A2
....................                {strcpy(Menus.Letra,"Iniciar Proceso"); 
07356:  MOVLW  06
07358:  MOVWF  FEA
0735A:  MOVLW  73
0735C:  MOVWF  FE9
0735E:  MOVFF  FF2,693
07362:  BCF    FF2.6
07364:  BCF    FF2.7
07366:  MOVLW  00
07368:  MOVLB  0
0736A:  CALL   09EE
0736E:  TBLRD*-
07370:  TBLRD*+
07372:  MOVF   FF5,W
07374:  MOVWF  FEE
07376:  IORLW  00
07378:  BNZ   7370
0737A:  MOVLB  6
0737C:  BTFSC  x93.6
0737E:  BSF    FF2.6
07380:  BTFSC  x93.7
07382:  BSF    FF2.7
....................                displayMenu(Menus.Letra,0,20,1,1);} 
07384:  MOVLW  06
07386:  MOVWF  x9C
07388:  MOVLW  73
0738A:  MOVWF  x9B
0738C:  CLRF   x9D
0738E:  MOVLW  14
07390:  MOVWF  x9E
07392:  MOVLW  01
07394:  MOVWF  x9F
07396:  MOVWF  xA0
07398:  MOVLB  0
0739A:  CALL   3048
....................             else 
0739E:  BRA    73EA
073A0:  MOVLB  5
....................                {strcpy(Menus.Letra,"Iniciar Proceso"); 
073A2:  MOVLW  06
073A4:  MOVWF  FEA
073A6:  MOVLW  73
073A8:  MOVWF  FE9
073AA:  MOVFF  FF2,693
073AE:  BCF    FF2.6
073B0:  BCF    FF2.7
073B2:  MOVLW  00
073B4:  MOVLB  0
073B6:  CALL   09EE
073BA:  TBLRD*-
073BC:  TBLRD*+
073BE:  MOVF   FF5,W
073C0:  MOVWF  FEE
073C2:  IORLW  00
073C4:  BNZ   73BC
073C6:  MOVLB  6
073C8:  BTFSC  x93.6
073CA:  BSF    FF2.6
073CC:  BTFSC  x93.7
073CE:  BSF    FF2.7
....................                displayMenu(Menus.Letra,0,20,0,1);} 
073D0:  MOVLW  06
073D2:  MOVWF  x9C
073D4:  MOVLW  73
073D6:  MOVWF  x9B
073D8:  CLRF   x9D
073DA:  MOVLW  14
073DC:  MOVWF  x9E
073DE:  CLRF   x9F
073E0:  MOVLW  01
073E2:  MOVWF  xA0
073E4:  MOVLB  0
073E6:  CALL   3048
....................              
....................             if(Opcion==2)    
073EA:  MOVLB  5
073EC:  MOVF   xBA,W
073EE:  SUBLW  02
073F0:  BNZ   743E
....................                {strcpy(Menus.Letra,"Seleccion Temperatura"); 
073F2:  MOVLW  06
073F4:  MOVWF  FEA
073F6:  MOVLW  73
073F8:  MOVWF  FE9
073FA:  MOVFF  FF2,693
073FE:  BCF    FF2.6
07400:  BCF    FF2.7
07402:  MOVLW  00
07404:  MOVLB  0
07406:  CALL   0A22
0740A:  TBLRD*-
0740C:  TBLRD*+
0740E:  MOVF   FF5,W
07410:  MOVWF  FEE
07412:  IORLW  00
07414:  BNZ   740C
07416:  MOVLB  6
07418:  BTFSC  x93.6
0741A:  BSF    FF2.6
0741C:  BTFSC  x93.7
0741E:  BSF    FF2.7
....................                displayMenu(Menus.Letra,0,30,1,1);} 
07420:  MOVLW  06
07422:  MOVWF  x9C
07424:  MOVLW  73
07426:  MOVWF  x9B
07428:  CLRF   x9D
0742A:  MOVLW  1E
0742C:  MOVWF  x9E
0742E:  MOVLW  01
07430:  MOVWF  x9F
07432:  MOVWF  xA0
07434:  MOVLB  0
07436:  CALL   3048
....................             else 
0743A:  BRA    7486
0743C:  MOVLB  5
....................                {strcpy(Menus.Letra,"Seleccion Temperatura"); 
0743E:  MOVLW  06
07440:  MOVWF  FEA
07442:  MOVLW  73
07444:  MOVWF  FE9
07446:  MOVFF  FF2,693
0744A:  BCF    FF2.6
0744C:  BCF    FF2.7
0744E:  MOVLW  00
07450:  MOVLB  0
07452:  CALL   0A22
07456:  TBLRD*-
07458:  TBLRD*+
0745A:  MOVF   FF5,W
0745C:  MOVWF  FEE
0745E:  IORLW  00
07460:  BNZ   7458
07462:  MOVLB  6
07464:  BTFSC  x93.6
07466:  BSF    FF2.6
07468:  BTFSC  x93.7
0746A:  BSF    FF2.7
....................                displayMenu(Menus.Letra,0,30,0,1);} 
0746C:  MOVLW  06
0746E:  MOVWF  x9C
07470:  MOVLW  73
07472:  MOVWF  x9B
07474:  CLRF   x9D
07476:  MOVLW  1E
07478:  MOVWF  x9E
0747A:  CLRF   x9F
0747C:  MOVLW  01
0747E:  MOVWF  xA0
07480:  MOVLB  0
07482:  CALL   3048
....................                 
....................             if(Opcion==3)    
07486:  MOVLB  5
07488:  MOVF   xBA,W
0748A:  SUBLW  03
0748C:  BNZ   74DA
....................                {strcpy(Menus.Letra,"Temporizador"); 
0748E:  MOVLW  06
07490:  MOVWF  FEA
07492:  MOVLW  73
07494:  MOVWF  FE9
07496:  MOVFF  FF2,693
0749A:  BCF    FF2.6
0749C:  BCF    FF2.7
0749E:  MOVLW  00
074A0:  MOVLB  0
074A2:  CALL   0A5C
074A6:  TBLRD*-
074A8:  TBLRD*+
074AA:  MOVF   FF5,W
074AC:  MOVWF  FEE
074AE:  IORLW  00
074B0:  BNZ   74A8
074B2:  MOVLB  6
074B4:  BTFSC  x93.6
074B6:  BSF    FF2.6
074B8:  BTFSC  x93.7
074BA:  BSF    FF2.7
....................                displayMenu(Menus.Letra,0,40,1,1);} 
074BC:  MOVLW  06
074BE:  MOVWF  x9C
074C0:  MOVLW  73
074C2:  MOVWF  x9B
074C4:  CLRF   x9D
074C6:  MOVLW  28
074C8:  MOVWF  x9E
074CA:  MOVLW  01
074CC:  MOVWF  x9F
074CE:  MOVWF  xA0
074D0:  MOVLB  0
074D2:  CALL   3048
....................             else 
074D6:  BRA    7522
074D8:  MOVLB  5
....................                {strcpy(Menus.Letra,"Temporizador"); 
074DA:  MOVLW  06
074DC:  MOVWF  FEA
074DE:  MOVLW  73
074E0:  MOVWF  FE9
074E2:  MOVFF  FF2,693
074E6:  BCF    FF2.6
074E8:  BCF    FF2.7
074EA:  MOVLW  00
074EC:  MOVLB  0
074EE:  CALL   0A5C
074F2:  TBLRD*-
074F4:  TBLRD*+
074F6:  MOVF   FF5,W
074F8:  MOVWF  FEE
074FA:  IORLW  00
074FC:  BNZ   74F4
074FE:  MOVLB  6
07500:  BTFSC  x93.6
07502:  BSF    FF2.6
07504:  BTFSC  x93.7
07506:  BSF    FF2.7
....................                displayMenu(Menus.Letra,0,40,0,1);}    
07508:  MOVLW  06
0750A:  MOVWF  x9C
0750C:  MOVLW  73
0750E:  MOVWF  x9B
07510:  CLRF   x9D
07512:  MOVLW  28
07514:  MOVWF  x9E
07516:  CLRF   x9F
07518:  MOVLW  01
0751A:  MOVWF  xA0
0751C:  MOVLB  0
0751E:  CALL   3048
....................                             
....................             if(Opcion==4)    
07522:  MOVLB  5
07524:  MOVF   xBA,W
07526:  SUBLW  04
07528:  BNZ   7576
....................                {strcpy(Menus.Letra,"Cambio Clave"); 
0752A:  MOVLW  06
0752C:  MOVWF  FEA
0752E:  MOVLW  73
07530:  MOVWF  FE9
07532:  MOVFF  FF2,693
07536:  BCF    FF2.6
07538:  BCF    FF2.7
0753A:  MOVLW  00
0753C:  MOVLB  0
0753E:  CALL   0A8E
07542:  TBLRD*-
07544:  TBLRD*+
07546:  MOVF   FF5,W
07548:  MOVWF  FEE
0754A:  IORLW  00
0754C:  BNZ   7544
0754E:  MOVLB  6
07550:  BTFSC  x93.6
07552:  BSF    FF2.6
07554:  BTFSC  x93.7
07556:  BSF    FF2.7
....................                displayMenu(Menus.Letra,0,50,1,1);} 
07558:  MOVLW  06
0755A:  MOVWF  x9C
0755C:  MOVLW  73
0755E:  MOVWF  x9B
07560:  CLRF   x9D
07562:  MOVLW  32
07564:  MOVWF  x9E
07566:  MOVLW  01
07568:  MOVWF  x9F
0756A:  MOVWF  xA0
0756C:  MOVLB  0
0756E:  CALL   3048
....................             else 
07572:  BRA    75BE
07574:  MOVLB  5
....................                {strcpy(Menus.Letra,"Cambio Clave"); 
07576:  MOVLW  06
07578:  MOVWF  FEA
0757A:  MOVLW  73
0757C:  MOVWF  FE9
0757E:  MOVFF  FF2,693
07582:  BCF    FF2.6
07584:  BCF    FF2.7
07586:  MOVLW  00
07588:  MOVLB  0
0758A:  CALL   0A8E
0758E:  TBLRD*-
07590:  TBLRD*+
07592:  MOVF   FF5,W
07594:  MOVWF  FEE
07596:  IORLW  00
07598:  BNZ   7590
0759A:  MOVLB  6
0759C:  BTFSC  x93.6
0759E:  BSF    FF2.6
075A0:  BTFSC  x93.7
075A2:  BSF    FF2.7
....................                displayMenu(Menus.Letra,0,50,0,1);}      
075A4:  MOVLW  06
075A6:  MOVWF  x9C
075A8:  MOVLW  73
075AA:  MOVWF  x9B
075AC:  CLRF   x9D
075AE:  MOVLW  32
075B0:  MOVWF  x9E
075B2:  CLRF   x9F
075B4:  MOVLW  01
075B6:  MOVWF  xA0
075B8:  MOVLB  0
075BA:  CALL   3048
....................          }else{  
075BE:  BRA    772E
075C0:  MOVLB  5
....................             if(Opcion==5)    
075C2:  MOVF   xBA,W
075C4:  SUBLW  05
075C6:  BNZ   7614
....................                {strcpy(Menus.Letra,"Velocidad   "); 
075C8:  MOVLW  06
075CA:  MOVWF  FEA
075CC:  MOVLW  73
075CE:  MOVWF  FE9
075D0:  MOVFF  FF2,693
075D4:  BCF    FF2.6
075D6:  BCF    FF2.7
075D8:  MOVLW  00
075DA:  MOVLB  0
075DC:  CALL   0AC0
075E0:  TBLRD*-
075E2:  TBLRD*+
075E4:  MOVF   FF5,W
075E6:  MOVWF  FEE
075E8:  IORLW  00
075EA:  BNZ   75E2
075EC:  MOVLB  6
075EE:  BTFSC  x93.6
075F0:  BSF    FF2.6
075F2:  BTFSC  x93.7
075F4:  BSF    FF2.7
....................                displayMenu(Menus.Letra,0,20,1,1);} 
075F6:  MOVLW  06
075F8:  MOVWF  x9C
075FA:  MOVLW  73
075FC:  MOVWF  x9B
075FE:  CLRF   x9D
07600:  MOVLW  14
07602:  MOVWF  x9E
07604:  MOVLW  01
07606:  MOVWF  x9F
07608:  MOVWF  xA0
0760A:  MOVLB  0
0760C:  CALL   3048
....................             else 
07610:  BRA    765C
07612:  MOVLB  5
....................                {strcpy(Menus.Letra,"Velocidad   "); 
07614:  MOVLW  06
07616:  MOVWF  FEA
07618:  MOVLW  73
0761A:  MOVWF  FE9
0761C:  MOVFF  FF2,693
07620:  BCF    FF2.6
07622:  BCF    FF2.7
07624:  MOVLW  00
07626:  MOVLB  0
07628:  CALL   0AC0
0762C:  TBLRD*-
0762E:  TBLRD*+
07630:  MOVF   FF5,W
07632:  MOVWF  FEE
07634:  IORLW  00
07636:  BNZ   762E
07638:  MOVLB  6
0763A:  BTFSC  x93.6
0763C:  BSF    FF2.6
0763E:  BTFSC  x93.7
07640:  BSF    FF2.7
....................                displayMenu(Menus.Letra,0,20,0,1);}      
07642:  MOVLW  06
07644:  MOVWF  x9C
07646:  MOVLW  73
07648:  MOVWF  x9B
0764A:  CLRF   x9D
0764C:  MOVLW  14
0764E:  MOVWF  x9E
07650:  CLRF   x9F
07652:  MOVLW  01
07654:  MOVWF  xA0
07656:  MOVLB  0
07658:  CALL   3048
....................              
....................             strcpy(Menus.Letra,"              "); 
0765C:  MOVLW  06
0765E:  MOVWF  FEA
07660:  MOVLW  73
07662:  MOVWF  FE9
07664:  MOVFF  FF2,693
07668:  BCF    FF2.6
0766A:  BCF    FF2.7
0766C:  MOVLW  00
0766E:  CALL   0AF2
07672:  TBLRD*-
07674:  TBLRD*+
07676:  MOVF   FF5,W
07678:  MOVWF  FEE
0767A:  IORLW  00
0767C:  BNZ   7674
0767E:  MOVLB  6
07680:  BTFSC  x93.6
07682:  BSF    FF2.6
07684:  BTFSC  x93.7
07686:  BSF    FF2.7
....................             displayMenu(Menus.Letra,0,30,0,1); 
07688:  MOVLW  06
0768A:  MOVWF  x9C
0768C:  MOVLW  73
0768E:  MOVWF  x9B
07690:  CLRF   x9D
07692:  MOVLW  1E
07694:  MOVWF  x9E
07696:  CLRF   x9F
07698:  MOVLW  01
0769A:  MOVWF  xA0
0769C:  MOVLB  0
0769E:  CALL   3048
....................              
....................             strcpy(Menus.Letra,"              "); 
076A2:  MOVLW  06
076A4:  MOVWF  FEA
076A6:  MOVLW  73
076A8:  MOVWF  FE9
076AA:  MOVFF  FF2,693
076AE:  BCF    FF2.6
076B0:  BCF    FF2.7
076B2:  MOVLW  00
076B4:  CALL   0AF2
076B8:  TBLRD*-
076BA:  TBLRD*+
076BC:  MOVF   FF5,W
076BE:  MOVWF  FEE
076C0:  IORLW  00
076C2:  BNZ   76BA
076C4:  MOVLB  6
076C6:  BTFSC  x93.6
076C8:  BSF    FF2.6
076CA:  BTFSC  x93.7
076CC:  BSF    FF2.7
....................             displayMenu(Menus.Letra,0,40,0,1); 
076CE:  MOVLW  06
076D0:  MOVWF  x9C
076D2:  MOVLW  73
076D4:  MOVWF  x9B
076D6:  CLRF   x9D
076D8:  MOVLW  28
076DA:  MOVWF  x9E
076DC:  CLRF   x9F
076DE:  MOVLW  01
076E0:  MOVWF  xA0
076E2:  MOVLB  0
076E4:  CALL   3048
....................              
....................             strcpy(Menus.Letra,"              "); 
076E8:  MOVLW  06
076EA:  MOVWF  FEA
076EC:  MOVLW  73
076EE:  MOVWF  FE9
076F0:  MOVFF  FF2,693
076F4:  BCF    FF2.6
076F6:  BCF    FF2.7
076F8:  MOVLW  00
076FA:  CALL   0AF2
076FE:  TBLRD*-
07700:  TBLRD*+
07702:  MOVF   FF5,W
07704:  MOVWF  FEE
07706:  IORLW  00
07708:  BNZ   7700
0770A:  MOVLB  6
0770C:  BTFSC  x93.6
0770E:  BSF    FF2.6
07710:  BTFSC  x93.7
07712:  BSF    FF2.7
....................             displayMenu(Menus.Letra,0,50,0,1); 
07714:  MOVLW  06
07716:  MOVWF  x9C
07718:  MOVLW  73
0771A:  MOVWF  x9B
0771C:  CLRF   x9D
0771E:  MOVLW  32
07720:  MOVWF  x9E
07722:  CLRF   x9F
07724:  MOVLW  01
07726:  MOVWF  xA0
07728:  MOVLB  0
0772A:  CALL   3048
....................          } 
....................              
....................          if(UP){ 
0772E:  BSF    F92.5
07730:  BTFSC  F80.5
07732:  BRA    7752
....................             DelayPuls();Opcion--;visual=1; 
07734:  CALL   3C96
07738:  MOVLB  5
0773A:  DECF   xBA,F
0773C:  BSF    xAC.2
....................             Buzzer_on; 
0773E:  BSF    F8B.7
07740:  BCF    F94.7
....................             delay_ms(50); 
07742:  MOVLW  32
07744:  MOVLB  6
07746:  MOVWF  x9C
07748:  MOVLB  0
0774A:  CALL   131C
....................             Buzzer_off; 
0774E:  BCF    F8B.7
07750:  BCF    F94.7
....................          } 
....................                    
....................          if(DOWN){ 
07752:  BSF    F96.0
07754:  BTFSC  F84.0
07756:  BRA    7776
....................             DelayPuls();Opcion++;visual=1;    
07758:  CALL   3C96
0775C:  MOVLB  5
0775E:  INCF   xBA,F
07760:  BSF    xAC.2
....................             Buzzer_on; 
07762:  BSF    F8B.7
07764:  BCF    F94.7
....................             delay_ms(50); 
07766:  MOVLW  32
07768:  MOVLB  6
0776A:  MOVWF  x9C
0776C:  MOVLB  0
0776E:  CALL   131C
....................             Buzzer_off; 
07772:  BCF    F8B.7
07774:  BCF    F94.7
....................          } 
....................                 
....................          if(RIGHT){  
07776:  BSF    F96.1
07778:  BTFSC  F84.1
0777A:  BRA    77B8
....................             Buzzer_on; 
0777C:  BSF    F8B.7
0777E:  BCF    F94.7
....................             delay_ms(50); 
07780:  MOVLW  32
07782:  MOVLB  6
07784:  MOVWF  x9C
07786:  MOVLB  0
07788:  CALL   131C
....................             Buzzer_off; 
0778C:  BCF    F8B.7
0778E:  BCF    F94.7
....................             delay_ms(200);Menu=Opcion+3;Opcion=1;glcd_fillscreen(OFF);visual=1; 
07790:  MOVLW  C8
07792:  MOVLB  6
07794:  MOVWF  x9C
07796:  MOVLB  0
07798:  CALL   131C
0779C:  MOVLW  03
0779E:  MOVLB  5
077A0:  ADDWF  xBA,W
077A2:  MOVWF  xB3
077A4:  MOVLW  01
077A6:  MOVWF  xBA
077A8:  MOVLB  6
077AA:  CLRF   x9B
077AC:  MOVLB  0
077AE:  CALL   2A0E
077B2:  MOVLB  5
077B4:  BSF    xAC.2
077B6:  MOVLB  0
....................          } 
....................       } 
.................... //_--------------------------------------------------------------------------------------------------------------------------------------------------------        
.................... //-Sub-Menus de seleccin de proceso. 
....................  
.................... //_-------------------------------------------------------------------------------------------------------------------------------------------------------- 
....................       if(Menu==4){ //Menu de Continuar 
077B8:  MOVLB  5
077BA:  MOVF   xB3,W
077BC:  SUBLW  04
077BE:  BTFSS  FD8.2
077C0:  BRA    7BF8
....................        
....................       if(Opcion>3) 
077C2:  MOVF   xBA,W
077C4:  SUBLW  03
077C6:  BC    77CC
....................          Opcion=1; 
077C8:  MOVLW  01
077CA:  MOVWF  xBA
....................           
....................       if(Opcion<1) 
077CC:  MOVF   xBA,F
077CE:  BNZ   77D4
....................          Opcion=3; 
077D0:  MOVLW  03
077D2:  MOVWF  xBA
....................        
....................          strcpy(Menus.Letra,"Seleccione"); 
077D4:  MOVLW  06
077D6:  MOVWF  FEA
077D8:  MOVLW  73
077DA:  MOVWF  FE9
077DC:  MOVFF  FF2,693
077E0:  BCF    FF2.6
077E2:  BCF    FF2.7
077E4:  MOVLW  00
077E6:  MOVLB  0
077E8:  CALL   0B26
077EC:  TBLRD*-
077EE:  TBLRD*+
077F0:  MOVF   FF5,W
077F2:  MOVWF  FEE
077F4:  IORLW  00
077F6:  BNZ   77EE
077F8:  MOVLB  6
077FA:  BTFSC  x93.6
077FC:  BSF    FF2.6
077FE:  BTFSC  x93.7
07800:  BSF    FF2.7
....................          displayMenu(Menus.Letra,0,0,1,2); 
07802:  MOVLW  06
07804:  MOVWF  x9C
07806:  MOVLW  73
07808:  MOVWF  x9B
0780A:  CLRF   x9D
0780C:  CLRF   x9E
0780E:  MOVLW  01
07810:  MOVWF  x9F
07812:  MOVLW  02
07814:  MOVWF  xA0
07816:  MOVLB  0
07818:  CALL   3048
....................           
....................          strcpy(Menus.Letra,"Temperatura"); 
0781C:  MOVLW  06
0781E:  MOVWF  FEA
07820:  MOVLW  73
07822:  MOVWF  FE9
07824:  MOVFF  FF2,693
07828:  BCF    FF2.6
0782A:  BCF    FF2.7
0782C:  MOVLW  00
0782E:  CALL   0B56
07832:  TBLRD*-
07834:  TBLRD*+
07836:  MOVF   FF5,W
07838:  MOVWF  FEE
0783A:  IORLW  00
0783C:  BNZ   7834
0783E:  MOVLB  6
07840:  BTFSC  x93.6
07842:  BSF    FF2.6
07844:  BTFSC  x93.7
07846:  BSF    FF2.7
....................          displayMenu(Menus.Letra,0,16,1,2); 
07848:  MOVLW  06
0784A:  MOVWF  x9C
0784C:  MOVLW  73
0784E:  MOVWF  x9B
07850:  CLRF   x9D
07852:  MOVLW  10
07854:  MOVWF  x9E
07856:  MOVLW  01
07858:  MOVWF  x9F
0785A:  MOVLW  02
0785C:  MOVWF  xA0
0785E:  MOVLB  0
07860:  CALL   3048
....................           
....................          displayContrasena(Opcion,10,38,1); 
07864:  MOVFF  5BA,69D
07868:  MOVLW  0A
0786A:  MOVLB  6
0786C:  MOVWF  x9E
0786E:  MOVLW  26
07870:  MOVWF  x9F
07872:  MOVLW  01
07874:  MOVWF  xA0
07876:  MOVLB  0
07878:  CALL   3BD8
....................          glcd_circle(90,38,2,NO,ON); 
0787C:  MOVLW  5A
0787E:  MOVLB  6
07880:  MOVWF  xA8
07882:  MOVLW  26
07884:  MOVWF  xA9
07886:  MOVLW  02
07888:  MOVWF  xAA
0788A:  CLRF   xAB
0788C:  MOVLW  01
0788E:  MOVWF  xAC
07890:  MOVLB  0
07892:  CALL   463E
....................          strcpy(Menus.Letra,"C");displayMenu(Menus.Letra,97,35,2,2);          
07896:  MOVLW  06
07898:  MOVWF  FEA
0789A:  MOVLW  73
0789C:  MOVWF  FE9
0789E:  MOVFF  FF2,693
078A2:  BCF    FF2.6
078A4:  BCF    FF2.7
078A6:  MOVLW  00
078A8:  CALL   0796
078AC:  TBLRD*-
078AE:  TBLRD*+
078B0:  MOVF   FF5,W
078B2:  MOVWF  FEE
078B4:  IORLW  00
078B6:  BNZ   78AE
078B8:  MOVLB  6
078BA:  BTFSC  x93.6
078BC:  BSF    FF2.6
078BE:  BTFSC  x93.7
078C0:  BSF    FF2.7
078C2:  MOVLW  06
078C4:  MOVWF  x9C
078C6:  MOVLW  73
078C8:  MOVWF  x9B
078CA:  MOVLW  61
078CC:  MOVWF  x9D
078CE:  MOVLW  23
078D0:  MOVWF  x9E
078D2:  MOVLW  02
078D4:  MOVWF  x9F
078D6:  MOVWF  xA0
078D8:  MOVLB  0
078DA:  CALL   3048
....................           
....................          if(Opcion==1) 
078DE:  MOVLB  5
078E0:  DECFSZ xBA,W
078E2:  BRA    7924
....................             displayTemperatura(Temperatura1,50,38,0,2); 
078E4:  MOVFF  64F,6A2
078E8:  MOVFF  64E,6A1
078EC:  MOVFF  64D,6A0
078F0:  MOVFF  64C,69F
078F4:  MOVLB  0
078F6:  CALL   3854
078FA:  MOVFF  02,694
078FE:  MOVFF  01,693
07902:  MOVFF  02,696
07906:  MOVFF  01,695
0790A:  MOVLW  32
0790C:  MOVLB  6
0790E:  MOVWF  x97
07910:  MOVLW  26
07912:  MOVWF  x98
07914:  CLRF   x99
07916:  MOVLW  02
07918:  MOVWF  x9A
0791A:  MOVLB  0
0791C:  CALL   4926
....................          else if(Opcion==2) 
07920:  BRA    79AC
07922:  MOVLB  5
07924:  MOVF   xBA,W
07926:  SUBLW  02
07928:  BNZ   796A
....................             displayTemperatura(Temperatura2,50,38,0,2);  
0792A:  MOVFF  653,6A2
0792E:  MOVFF  652,6A1
07932:  MOVFF  651,6A0
07936:  MOVFF  650,69F
0793A:  MOVLB  0
0793C:  CALL   3854
07940:  MOVFF  02,694
07944:  MOVFF  01,693
07948:  MOVFF  02,696
0794C:  MOVFF  01,695
07950:  MOVLW  32
07952:  MOVLB  6
07954:  MOVWF  x97
07956:  MOVLW  26
07958:  MOVWF  x98
0795A:  CLRF   x99
0795C:  MOVLW  02
0795E:  MOVWF  x9A
07960:  MOVLB  0
07962:  CALL   4926
....................          else if(Opcion==3) 
07966:  BRA    79AC
07968:  MOVLB  5
0796A:  MOVF   xBA,W
0796C:  SUBLW  03
0796E:  BNZ   79AE
....................             displayTemperatura(Temperatura3,50,38,0,2);  
07970:  MOVFF  657,6A2
07974:  MOVFF  656,6A1
07978:  MOVFF  655,6A0
0797C:  MOVFF  654,69F
07980:  MOVLB  0
07982:  CALL   3854
07986:  MOVFF  02,694
0798A:  MOVFF  01,693
0798E:  MOVFF  02,696
07992:  MOVFF  01,695
07996:  MOVLW  32
07998:  MOVLB  6
0799A:  MOVWF  x97
0799C:  MOVLW  26
0799E:  MOVWF  x98
079A0:  CLRF   x99
079A2:  MOVLW  02
079A4:  MOVWF  x9A
079A6:  MOVLB  0
079A8:  CALL   4926
079AC:  MOVLB  5
....................          
....................       if(UP){ 
079AE:  BSF    F92.5
079B0:  BTFSC  F80.5
079B2:  BRA    79FE
....................          delay_ms(50); 
079B4:  MOVLW  32
079B6:  MOVLB  6
079B8:  MOVWF  x9C
079BA:  MOVLB  0
079BC:  CALL   131C
....................          if(UP){ 
079C0:  BSF    F92.5
079C2:  BTFSC  F80.5
079C4:  BRA    79FC
....................             Buzzer_on; 
079C6:  BSF    F8B.7
079C8:  BCF    F94.7
....................             delay_ms(50); 
079CA:  MOVLW  32
079CC:  MOVLB  6
079CE:  MOVWF  x9C
079D0:  MOVLB  0
079D2:  CALL   131C
....................             Buzzer_off; 
079D6:  BCF    F8B.7
079D8:  BCF    F94.7
....................             Opcion++; 
079DA:  MOVLB  5
079DC:  INCF   xBA,F
....................             glcd_rect(40, 35, 85, 60, YES, OFF); 
079DE:  MOVLW  28
079E0:  MOVLB  6
079E2:  MOVWF  xAC
079E4:  MOVLW  23
079E6:  MOVWF  xAD
079E8:  MOVLW  55
079EA:  MOVWF  xAE
079EC:  MOVLW  3C
079EE:  MOVWF  xAF
079F0:  MOVLW  01
079F2:  MOVWF  xB0
079F4:  CLRF   xB1
079F6:  MOVLB  0
079F8:  CALL   2F86
079FC:  MOVLB  5
....................          } 
....................       } 
....................              
....................       if(DOWN){   
079FE:  BSF    F96.0
07A00:  BTFSC  F84.0
07A02:  BRA    7A4E
....................          delay_ms(50); 
07A04:  MOVLW  32
07A06:  MOVLB  6
07A08:  MOVWF  x9C
07A0A:  MOVLB  0
07A0C:  CALL   131C
....................          if(DOWN){ 
07A10:  BSF    F96.0
07A12:  BTFSC  F84.0
07A14:  BRA    7A4C
....................             Buzzer_on; 
07A16:  BSF    F8B.7
07A18:  BCF    F94.7
....................             delay_ms(50); 
07A1A:  MOVLW  32
07A1C:  MOVLB  6
07A1E:  MOVWF  x9C
07A20:  MOVLB  0
07A22:  CALL   131C
....................             Buzzer_off; 
07A26:  BCF    F8B.7
07A28:  BCF    F94.7
....................             Opcion--;   
07A2A:  MOVLB  5
07A2C:  DECF   xBA,F
....................             glcd_rect(40, 35, 85, 60, YES, OFF); 
07A2E:  MOVLW  28
07A30:  MOVLB  6
07A32:  MOVWF  xAC
07A34:  MOVLW  23
07A36:  MOVWF  xAD
07A38:  MOVLW  55
07A3A:  MOVWF  xAE
07A3C:  MOVLW  3C
07A3E:  MOVWF  xAF
07A40:  MOVLW  01
07A42:  MOVWF  xB0
07A44:  CLRF   xB1
07A46:  MOVLB  0
07A48:  CALL   2F86
07A4C:  MOVLB  5
....................          } 
....................       } 
....................              
....................       if(RIGHT){   
07A4E:  BSF    F96.1
07A50:  BTFSC  F84.1
07A52:  BRA    7B9C
....................          delay_ms(50); 
07A54:  MOVLW  32
07A56:  MOVLB  6
07A58:  MOVWF  x9C
07A5A:  MOVLB  0
07A5C:  CALL   131C
....................          if(RIGHT){ 
07A60:  BSF    F96.1
07A62:  BTFSC  F84.1
07A64:  BRA    7B9E
....................             Buzzer_on; 
07A66:  BSF    F8B.7
07A68:  BCF    F94.7
....................             delay_ms(50); 
07A6A:  MOVLW  32
07A6C:  MOVLB  6
07A6E:  MOVWF  x9C
07A70:  MOVLB  0
07A72:  CALL   131C
....................             Buzzer_off; 
07A76:  BCF    F8B.7
07A78:  BCF    F94.7
....................             if(Opcion==1) 
07A7A:  MOVLB  5
07A7C:  DECFSZ xBA,W
07A7E:  BRA    7A92
....................                Setpoint=Temperatura1;           
07A80:  MOVFF  64F,64B
07A84:  MOVFF  64E,64A
07A88:  MOVFF  64D,649
07A8C:  MOVFF  64C,648
....................             else if(Opcion==2) 
07A90:  BRA    7AC0
07A92:  MOVF   xBA,W
07A94:  SUBLW  02
07A96:  BNZ   7AAA
....................                Setpoint=Temperatura2;  
07A98:  MOVFF  653,64B
07A9C:  MOVFF  652,64A
07AA0:  MOVFF  651,649
07AA4:  MOVFF  650,648
....................             else if(Opcion==3) 
07AA8:  BRA    7AC0
07AAA:  MOVF   xBA,W
07AAC:  SUBLW  03
07AAE:  BNZ   7AC0
....................                Setpoint=Temperatura3; 
07AB0:  MOVFF  657,64B
07AB4:  MOVFF  656,64A
07AB8:  MOVFF  655,649
07ABC:  MOVFF  654,648
....................              
....................             Ganancia=gananciaAnt*(Setpoint/150.0); 
07AC0:  MOVFF  64B,697
07AC4:  MOVFF  64A,696
07AC8:  MOVFF  649,695
07ACC:  MOVFF  648,694
07AD0:  MOVLB  6
07AD2:  CLRF   x9B
07AD4:  CLRF   x9A
07AD6:  MOVLW  16
07AD8:  MOVWF  x99
07ADA:  MOVLW  86
07ADC:  MOVWF  x98
07ADE:  MOVLB  0
07AE0:  CALL   13C0
07AE4:  MOVFF  63B,6B6
07AE8:  MOVFF  63A,6B5
07AEC:  MOVFF  639,6B4
07AF0:  MOVFF  638,6B3
07AF4:  MOVFF  03,6BA
07AF8:  MOVFF  02,6B9
07AFC:  MOVFF  01,6B8
07B00:  MOVFF  00,6B7
07B04:  CALL   31BE
07B08:  MOVFF  03,62F
07B0C:  MOVFF  02,62E
07B10:  MOVFF  01,62D
07B14:  MOVFF  00,62C
....................             Gananciamax=(0.27)*Setpoint;  
07B18:  MOVLW  71
07B1A:  MOVLB  6
07B1C:  MOVWF  xB6
07B1E:  MOVLW  3D
07B20:  MOVWF  xB5
07B22:  MOVLW  0A
07B24:  MOVWF  xB4
07B26:  MOVLW  7D
07B28:  MOVWF  xB3
07B2A:  MOVFF  64B,6BA
07B2E:  MOVFF  64A,6B9
07B32:  MOVFF  649,6B8
07B36:  MOVFF  648,6B7
07B3A:  MOVLB  0
07B3C:  CALL   31BE
07B40:  MOVFF  03,5E3
07B44:  MOVFF  02,5E2
07B48:  MOVFF  01,5E1
07B4C:  MOVFF  00,5E0
....................             //Tpulsomin=((Setpoint*0.24)/100)*Tciclo; 
....................             //Tpulsomin=((Setpoint*0.16)/100)*Tciclo; 
....................             //Tpulsomax=0.35*Setpoint; 
....................             Menu=20;glcd_rect(15, 18, 30, 53, NO, ON);tiempo_secado=0;glcd_fillScreen(OFF);pausa=0;         
07B50:  MOVLW  14
07B52:  MOVLB  5
07B54:  MOVWF  xB3
07B56:  MOVLW  0F
07B58:  MOVLB  6
07B5A:  MOVWF  xAC
07B5C:  MOVLW  12
07B5E:  MOVWF  xAD
07B60:  MOVLW  1E
07B62:  MOVWF  xAE
07B64:  MOVLW  35
07B66:  MOVWF  xAF
07B68:  CLRF   xB0
07B6A:  MOVLW  01
07B6C:  MOVWF  xB1
07B6E:  MOVLB  0
07B70:  CALL   2F86
07B74:  MOVLB  5
07B76:  CLRF   xBC
07B78:  MOVLB  6
07B7A:  CLRF   x9B
07B7C:  MOVLB  0
07B7E:  CALL   2A0E
07B82:  MOVLB  5
07B84:  CLRF   xB6
....................              
....................             if((Testerilizacionp[0]==0)&&(Testerilizacionp[1]==0)&&(Testerilizacionp[2]==0)&&(Testerilizacionp[3]==0)) 
07B86:  MOVF   xFC,F
07B88:  BNZ   7B9A
07B8A:  MOVF   xFD,F
07B8C:  BNZ   7B9A
07B8E:  MOVF   xFE,F
07B90:  BNZ   7B9A
07B92:  MOVF   xFF,F
07B94:  BNZ   7B9A
....................                Infinito=1; 
07B96:  BSF    xAC.7
....................             else 
07B98:  BRA    7B9C
....................                Infinito=0; 
07B9A:  BCF    xAC.7
07B9C:  MOVLB  0
....................          } 
....................       }  
....................                    
....................       if(LEFT){ 
07B9E:  BSF    F96.2
07BA0:  BTFSC  F84.2
07BA2:  BRA    7BFA
....................          delay_ms(50); 
07BA4:  MOVLW  32
07BA6:  MOVLB  6
07BA8:  MOVWF  x9C
07BAA:  MOVLB  0
07BAC:  CALL   131C
....................          if(LEFT){ 
07BB0:  BSF    F96.2
07BB2:  BTFSC  F84.2
07BB4:  BRA    7BFA
....................             Buzzer_on; 
07BB6:  BSF    F8B.7
07BB8:  BCF    F94.7
....................             delay_ms(50); 
07BBA:  MOVLW  32
07BBC:  MOVLB  6
07BBE:  MOVWF  x9C
07BC0:  MOVLB  0
07BC2:  CALL   131C
....................             Buzzer_off; 
07BC6:  BCF    F8B.7
07BC8:  BCF    F94.7
....................             delay_ms(300);Menu=1;glcd_fillscreen(OFF);Opcion=1;visual=1; 
07BCA:  MOVLW  02
07BCC:  MOVLB  6
07BCE:  MOVWF  x93
07BD0:  MOVLW  96
07BD2:  MOVWF  x9C
07BD4:  MOVLB  0
07BD6:  CALL   131C
07BDA:  MOVLB  6
07BDC:  DECFSZ x93,F
07BDE:  BRA    7BD0
07BE0:  MOVLW  01
07BE2:  MOVLB  5
07BE4:  MOVWF  xB3
07BE6:  MOVLB  6
07BE8:  CLRF   x9B
07BEA:  MOVLB  0
07BEC:  CALL   2A0E
07BF0:  MOVLW  01
07BF2:  MOVLB  5
07BF4:  MOVWF  xBA
07BF6:  BSF    xAC.2
07BF8:  MOVLB  0
....................          } 
....................       }  
....................     } 
.................... //_--------------------------------------------------------------------------------------------------------------------------------------------------------        
....................  
.................... //_--------------------------------------------------------------------------------------------------------------------------------------------------------       
....................       if(Menu==5){ // Menu de Temperatura 
07BFA:  MOVLB  5
07BFC:  MOVF   xB3,W
07BFE:  SUBLW  05
07C00:  BTFSS  FD8.2
07C02:  GOTO   86FA
....................       
....................          if(Opcion>3) 
07C06:  MOVF   xBA,W
07C08:  SUBLW  03
07C0A:  BC    7C10
....................             Opcion=1; 
07C0C:  MOVLW  01
07C0E:  MOVWF  xBA
....................          if(Opcion<1) 
07C10:  MOVF   xBA,F
07C12:  BNZ   7C18
....................             Opcion=3; 
07C14:  MOVLW  03
07C16:  MOVWF  xBA
....................           
....................          if(Opcion==1)   { 
07C18:  DECFSZ xBA,W
07C1A:  BRA    7C78
....................             strcpy(Menus.Letra,"Temperatura 1:"); 
07C1C:  MOVLW  06
07C1E:  MOVWF  FEA
07C20:  MOVLW  73
07C22:  MOVWF  FE9
07C24:  MOVFF  FF2,693
07C28:  BCF    FF2.6
07C2A:  BCF    FF2.7
07C2C:  MOVLW  00
07C2E:  MOVLB  0
07C30:  CALL   0B86
07C34:  TBLRD*-
07C36:  TBLRD*+
07C38:  MOVF   FF5,W
07C3A:  MOVWF  FEE
07C3C:  IORLW  00
07C3E:  BNZ   7C36
07C40:  MOVLB  6
07C42:  BTFSC  x93.6
07C44:  BSF    FF2.6
07C46:  BTFSC  x93.7
07C48:  BSF    FF2.7
....................             displayTemps(Menus.Letra,Temperatura1,0,20,1,1); 
07C4A:  MOVLW  06
07C4C:  MOVWF  x94
07C4E:  MOVLW  73
07C50:  MOVWF  x93
07C52:  MOVFF  64F,698
07C56:  MOVFF  64E,697
07C5A:  MOVFF  64D,696
07C5E:  MOVFF  64C,695
07C62:  CLRF   x99
07C64:  MOVLW  14
07C66:  MOVWF  x9A
07C68:  MOVLW  01
07C6A:  MOVWF  x9B
07C6C:  MOVWF  x9C
07C6E:  MOVLB  0
07C70:  CALL   4D56
....................          }else{ 
07C74:  BRA    7CD0
07C76:  MOVLB  5
....................             strcpy(Menus.Letra,"Temperatura 1:"); 
07C78:  MOVLW  06
07C7A:  MOVWF  FEA
07C7C:  MOVLW  73
07C7E:  MOVWF  FE9
07C80:  MOVFF  FF2,693
07C84:  BCF    FF2.6
07C86:  BCF    FF2.7
07C88:  MOVLW  00
07C8A:  MOVLB  0
07C8C:  CALL   0B86
07C90:  TBLRD*-
07C92:  TBLRD*+
07C94:  MOVF   FF5,W
07C96:  MOVWF  FEE
07C98:  IORLW  00
07C9A:  BNZ   7C92
07C9C:  MOVLB  6
07C9E:  BTFSC  x93.6
07CA0:  BSF    FF2.6
07CA2:  BTFSC  x93.7
07CA4:  BSF    FF2.7
....................             displayTemps(Menus.Letra,Temperatura1,0,20,0,1); 
07CA6:  MOVLW  06
07CA8:  MOVWF  x94
07CAA:  MOVLW  73
07CAC:  MOVWF  x93
07CAE:  MOVFF  64F,698
07CB2:  MOVFF  64E,697
07CB6:  MOVFF  64D,696
07CBA:  MOVFF  64C,695
07CBE:  CLRF   x99
07CC0:  MOVLW  14
07CC2:  MOVWF  x9A
07CC4:  CLRF   x9B
07CC6:  MOVLW  01
07CC8:  MOVWF  x9C
07CCA:  MOVLB  0
07CCC:  CALL   4D56
....................          } 
....................           
....................          if(Opcion==2)   { 
07CD0:  MOVLB  5
07CD2:  MOVF   xBA,W
07CD4:  SUBLW  02
07CD6:  BNZ   7D34
....................             strcpy(Menus.Letra,"Temperatura 2:"); 
07CD8:  MOVLW  06
07CDA:  MOVWF  FEA
07CDC:  MOVLW  73
07CDE:  MOVWF  FE9
07CE0:  MOVFF  FF2,693
07CE4:  BCF    FF2.6
07CE6:  BCF    FF2.7
07CE8:  MOVLW  00
07CEA:  MOVLB  0
07CEC:  CALL   0BBA
07CF0:  TBLRD*-
07CF2:  TBLRD*+
07CF4:  MOVF   FF5,W
07CF6:  MOVWF  FEE
07CF8:  IORLW  00
07CFA:  BNZ   7CF2
07CFC:  MOVLB  6
07CFE:  BTFSC  x93.6
07D00:  BSF    FF2.6
07D02:  BTFSC  x93.7
07D04:  BSF    FF2.7
....................             displayTemps(Menus.Letra,Temperatura2,0,35,1,1); 
07D06:  MOVLW  06
07D08:  MOVWF  x94
07D0A:  MOVLW  73
07D0C:  MOVWF  x93
07D0E:  MOVFF  653,698
07D12:  MOVFF  652,697
07D16:  MOVFF  651,696
07D1A:  MOVFF  650,695
07D1E:  CLRF   x99
07D20:  MOVLW  23
07D22:  MOVWF  x9A
07D24:  MOVLW  01
07D26:  MOVWF  x9B
07D28:  MOVWF  x9C
07D2A:  MOVLB  0
07D2C:  CALL   4D56
....................          }else{ 
07D30:  BRA    7D8C
07D32:  MOVLB  5
....................             strcpy(Menus.Letra,"Temperatura 2:"); 
07D34:  MOVLW  06
07D36:  MOVWF  FEA
07D38:  MOVLW  73
07D3A:  MOVWF  FE9
07D3C:  MOVFF  FF2,693
07D40:  BCF    FF2.6
07D42:  BCF    FF2.7
07D44:  MOVLW  00
07D46:  MOVLB  0
07D48:  CALL   0BBA
07D4C:  TBLRD*-
07D4E:  TBLRD*+
07D50:  MOVF   FF5,W
07D52:  MOVWF  FEE
07D54:  IORLW  00
07D56:  BNZ   7D4E
07D58:  MOVLB  6
07D5A:  BTFSC  x93.6
07D5C:  BSF    FF2.6
07D5E:  BTFSC  x93.7
07D60:  BSF    FF2.7
....................             displayTemps(Menus.Letra,Temperatura2,0,35,0,1); 
07D62:  MOVLW  06
07D64:  MOVWF  x94
07D66:  MOVLW  73
07D68:  MOVWF  x93
07D6A:  MOVFF  653,698
07D6E:  MOVFF  652,697
07D72:  MOVFF  651,696
07D76:  MOVFF  650,695
07D7A:  CLRF   x99
07D7C:  MOVLW  23
07D7E:  MOVWF  x9A
07D80:  CLRF   x9B
07D82:  MOVLW  01
07D84:  MOVWF  x9C
07D86:  MOVLB  0
07D88:  CALL   4D56
....................          } 
....................              
....................          if(Opcion==3)   { 
07D8C:  MOVLB  5
07D8E:  MOVF   xBA,W
07D90:  SUBLW  03
07D92:  BNZ   7DF0
....................             strcpy(Menus.Letra,"Temperatura 3:"); 
07D94:  MOVLW  06
07D96:  MOVWF  FEA
07D98:  MOVLW  73
07D9A:  MOVWF  FE9
07D9C:  MOVFF  FF2,693
07DA0:  BCF    FF2.6
07DA2:  BCF    FF2.7
07DA4:  MOVLW  00
07DA6:  MOVLB  0
07DA8:  CALL   0BEE
07DAC:  TBLRD*-
07DAE:  TBLRD*+
07DB0:  MOVF   FF5,W
07DB2:  MOVWF  FEE
07DB4:  IORLW  00
07DB6:  BNZ   7DAE
07DB8:  MOVLB  6
07DBA:  BTFSC  x93.6
07DBC:  BSF    FF2.6
07DBE:  BTFSC  x93.7
07DC0:  BSF    FF2.7
....................             displayTemps(Menus.Letra,Temperatura3,0,50,1,1); 
07DC2:  MOVLW  06
07DC4:  MOVWF  x94
07DC6:  MOVLW  73
07DC8:  MOVWF  x93
07DCA:  MOVFF  657,698
07DCE:  MOVFF  656,697
07DD2:  MOVFF  655,696
07DD6:  MOVFF  654,695
07DDA:  CLRF   x99
07DDC:  MOVLW  32
07DDE:  MOVWF  x9A
07DE0:  MOVLW  01
07DE2:  MOVWF  x9B
07DE4:  MOVWF  x9C
07DE6:  MOVLB  0
07DE8:  CALL   4D56
....................          }else{ 
07DEC:  BRA    7E48
07DEE:  MOVLB  5
....................             strcpy(Menus.Letra,"Temperatura 3:"); 
07DF0:  MOVLW  06
07DF2:  MOVWF  FEA
07DF4:  MOVLW  73
07DF6:  MOVWF  FE9
07DF8:  MOVFF  FF2,693
07DFC:  BCF    FF2.6
07DFE:  BCF    FF2.7
07E00:  MOVLW  00
07E02:  MOVLB  0
07E04:  CALL   0BEE
07E08:  TBLRD*-
07E0A:  TBLRD*+
07E0C:  MOVF   FF5,W
07E0E:  MOVWF  FEE
07E10:  IORLW  00
07E12:  BNZ   7E0A
07E14:  MOVLB  6
07E16:  BTFSC  x93.6
07E18:  BSF    FF2.6
07E1A:  BTFSC  x93.7
07E1C:  BSF    FF2.7
....................             displayTemps(Menus.Letra,Temperatura3,0,50,0,1); 
07E1E:  MOVLW  06
07E20:  MOVWF  x94
07E22:  MOVLW  73
07E24:  MOVWF  x93
07E26:  MOVFF  657,698
07E2A:  MOVFF  656,697
07E2E:  MOVFF  655,696
07E32:  MOVFF  654,695
07E36:  CLRF   x99
07E38:  MOVLW  32
07E3A:  MOVWF  x9A
07E3C:  CLRF   x9B
07E3E:  MOVLW  01
07E40:  MOVWF  x9C
07E42:  MOVLB  0
07E44:  CALL   4D56
....................          } 
....................                
....................                 
....................          if(RIGHT){//Si oprime SET          
07E48:  BSF    F96.1
07E4A:  BTFSC  F84.1
07E4C:  BRA    7E78
....................             delay_ms(50); 
07E4E:  MOVLW  32
07E50:  MOVLB  6
07E52:  MOVWF  x9C
07E54:  MOVLB  0
07E56:  CALL   131C
....................             if(RIGHT){ 
07E5A:  BSF    F96.1
07E5C:  BTFSC  F84.1
07E5E:  BRA    7E78
....................                Opcion++;   
07E60:  MOVLB  5
07E62:  INCF   xBA,F
....................                Buzzer_on; 
07E64:  BSF    F8B.7
07E66:  BCF    F94.7
....................                delay_ms(50); 
07E68:  MOVLW  32
07E6A:  MOVLB  6
07E6C:  MOVWF  x9C
07E6E:  MOVLB  0
07E70:  CALL   131C
....................                Buzzer_off; 
07E74:  BCF    F8B.7
07E76:  BCF    F94.7
....................             } 
....................          } 
....................        
....................          strcpy(Menus.Letra,"Temperatura"); 
07E78:  MOVLW  06
07E7A:  MOVWF  FEA
07E7C:  MOVLW  73
07E7E:  MOVWF  FE9
07E80:  MOVFF  FF2,693
07E84:  BCF    FF2.6
07E86:  BCF    FF2.7
07E88:  MOVLW  00
07E8A:  CALL   0B56
07E8E:  TBLRD*-
07E90:  TBLRD*+
07E92:  MOVF   FF5,W
07E94:  MOVWF  FEE
07E96:  IORLW  00
07E98:  BNZ   7E90
07E9A:  MOVLB  6
07E9C:  BTFSC  x93.6
07E9E:  BSF    FF2.6
07EA0:  BTFSC  x93.7
07EA2:  BSF    FF2.7
....................          displayMenu(Menus.Letra,0,0,1,2); 
07EA4:  MOVLW  06
07EA6:  MOVWF  x9C
07EA8:  MOVLW  73
07EAA:  MOVWF  x9B
07EAC:  CLRF   x9D
07EAE:  CLRF   x9E
07EB0:  MOVLW  01
07EB2:  MOVWF  x9F
07EB4:  MOVLW  02
07EB6:  MOVWF  xA0
07EB8:  MOVLB  0
07EBA:  CALL   3048
....................           
....................        
....................          if(UP){   
07EBE:  BSF    F92.5
07EC0:  BTFSC  F80.5
07EC2:  BRA    807A
....................             delay_ms(10); 
07EC4:  MOVLW  0A
07EC6:  MOVLB  6
07EC8:  MOVWF  x9C
07ECA:  MOVLB  0
07ECC:  CALL   131C
....................             if(UP){ 
07ED0:  BSF    F92.5
07ED2:  BTFSC  F80.5
07ED4:  BRA    8074
....................                Buzzer_on; 
07ED6:  BSF    F8B.7
07ED8:  BCF    F94.7
....................                delay_ms(50); 
07EDA:  MOVLW  32
07EDC:  MOVLB  6
07EDE:  MOVWF  x9C
07EE0:  MOVLB  0
07EE2:  CALL   131C
....................                Buzzer_off; 
07EE6:  BCF    F8B.7
07EE8:  BCF    F94.7
....................                if(Opcion==1){ 
07EEA:  MOVLB  5
07EEC:  DECFSZ xBA,W
07EEE:  BRA    7F6E
....................                   if(tiempoup<4){ 
07EF0:  MOVF   xB7,W
07EF2:  SUBLW  03
07EF4:  BNC   7F36
....................                      flagup=1; 
07EF6:  BSF    xA0.2
....................                      Temperatura1+=0.1;  
07EF8:  BCF    FD8.1
07EFA:  MOVFF  64F,6A2
07EFE:  MOVFF  64E,6A1
07F02:  MOVFF  64D,6A0
07F06:  MOVFF  64C,69F
07F0A:  MOVLW  CD
07F0C:  MOVLB  6
07F0E:  MOVWF  xA6
07F10:  MOVLW  CC
07F12:  MOVWF  xA5
07F14:  MOVLW  4C
07F16:  MOVWF  xA4
07F18:  MOVLW  7B
07F1A:  MOVWF  xA3
07F1C:  MOVLB  0
07F1E:  CALL   151E
07F22:  MOVFF  03,64F
07F26:  MOVFF  02,64E
07F2A:  MOVFF  01,64D
07F2E:  MOVFF  00,64C
....................                   } 
....................                   else{ 
07F32:  BRA    7F6C
07F34:  MOVLB  5
....................                      flagup=0; 
07F36:  BCF    xA0.2
....................                      Temperatura1+=2; 
07F38:  BCF    FD8.1
07F3A:  MOVFF  64F,6A2
07F3E:  MOVFF  64E,6A1
07F42:  MOVFF  64D,6A0
07F46:  MOVFF  64C,69F
07F4A:  MOVLB  6
07F4C:  CLRF   xA6
07F4E:  CLRF   xA5
07F50:  CLRF   xA4
07F52:  MOVLW  80
07F54:  MOVWF  xA3
07F56:  MOVLB  0
07F58:  CALL   151E
07F5C:  MOVFF  03,64F
07F60:  MOVFF  02,64E
07F64:  MOVFF  01,64D
07F68:  MOVFF  00,64C
07F6C:  MOVLB  5
....................                   } 
....................                } 
....................                 
....................                if(Opcion==2){ 
07F6E:  MOVF   xBA,W
07F70:  SUBLW  02
07F72:  BNZ   7FF2
....................                   if(tiempoup<4){ 
07F74:  MOVF   xB7,W
07F76:  SUBLW  03
07F78:  BNC   7FBA
....................                      flagup=1; 
07F7A:  BSF    xA0.2
....................                      Temperatura2+=0.1;  
07F7C:  BCF    FD8.1
07F7E:  MOVFF  653,6A2
07F82:  MOVFF  652,6A1
07F86:  MOVFF  651,6A0
07F8A:  MOVFF  650,69F
07F8E:  MOVLW  CD
07F90:  MOVLB  6
07F92:  MOVWF  xA6
07F94:  MOVLW  CC
07F96:  MOVWF  xA5
07F98:  MOVLW  4C
07F9A:  MOVWF  xA4
07F9C:  MOVLW  7B
07F9E:  MOVWF  xA3
07FA0:  MOVLB  0
07FA2:  CALL   151E
07FA6:  MOVFF  03,653
07FAA:  MOVFF  02,652
07FAE:  MOVFF  01,651
07FB2:  MOVFF  00,650
....................                   } 
....................                   else{ 
07FB6:  BRA    7FF0
07FB8:  MOVLB  5
....................                      flagup=0; 
07FBA:  BCF    xA0.2
....................                      Temperatura2+=2; 
07FBC:  BCF    FD8.1
07FBE:  MOVFF  653,6A2
07FC2:  MOVFF  652,6A1
07FC6:  MOVFF  651,6A0
07FCA:  MOVFF  650,69F
07FCE:  MOVLB  6
07FD0:  CLRF   xA6
07FD2:  CLRF   xA5
07FD4:  CLRF   xA4
07FD6:  MOVLW  80
07FD8:  MOVWF  xA3
07FDA:  MOVLB  0
07FDC:  CALL   151E
07FE0:  MOVFF  03,653
07FE4:  MOVFF  02,652
07FE8:  MOVFF  01,651
07FEC:  MOVFF  00,650
07FF0:  MOVLB  5
....................                   } 
....................                } 
....................                    
....................                if(Opcion==3) 
07FF2:  MOVF   xBA,W
07FF4:  SUBLW  03
07FF6:  BNZ   8076
....................                   if(tiempoup<4){ 
07FF8:  MOVF   xB7,W
07FFA:  SUBLW  03
07FFC:  BNC   803E
....................                      flagup=1; 
07FFE:  BSF    xA0.2
....................                      Temperatura3+=0.1;  
08000:  BCF    FD8.1
08002:  MOVFF  657,6A2
08006:  MOVFF  656,6A1
0800A:  MOVFF  655,6A0
0800E:  MOVFF  654,69F
08012:  MOVLW  CD
08014:  MOVLB  6
08016:  MOVWF  xA6
08018:  MOVLW  CC
0801A:  MOVWF  xA5
0801C:  MOVLW  4C
0801E:  MOVWF  xA4
08020:  MOVLW  7B
08022:  MOVWF  xA3
08024:  MOVLB  0
08026:  CALL   151E
0802A:  MOVFF  03,657
0802E:  MOVFF  02,656
08032:  MOVFF  01,655
08036:  MOVFF  00,654
....................                   } 
....................                   else{ 
0803A:  BRA    8074
0803C:  MOVLB  5
....................                      flagup=0; 
0803E:  BCF    xA0.2
....................                      Temperatura3+=2; 
08040:  BCF    FD8.1
08042:  MOVFF  657,6A2
08046:  MOVFF  656,6A1
0804A:  MOVFF  655,6A0
0804E:  MOVFF  654,69F
08052:  MOVLB  6
08054:  CLRF   xA6
08056:  CLRF   xA5
08058:  CLRF   xA4
0805A:  MOVLW  80
0805C:  MOVWF  xA3
0805E:  MOVLB  0
08060:  CALL   151E
08064:  MOVFF  03,657
08068:  MOVFF  02,656
0806C:  MOVFF  01,655
08070:  MOVFF  00,654
08074:  MOVLB  5
....................                   } 
....................             } 
....................          }else{ 
08076:  BRA    807E
08078:  MOVLB  0
....................             tiempoup=0; 
0807A:  MOVLB  5
0807C:  CLRF   xB7
....................          } 
....................                 
....................          if(DOWN){  
0807E:  BSF    F96.0
08080:  BTFSC  F84.0
08082:  BRA    8238
....................             delay_ms(10); 
08084:  MOVLW  0A
08086:  MOVLB  6
08088:  MOVWF  x9C
0808A:  MOVLB  0
0808C:  CALL   131C
....................             if(DOWN){ 
08090:  BSF    F96.0
08092:  BTFSC  F84.0
08094:  BRA    8234
....................                Buzzer_on; 
08096:  BSF    F8B.7
08098:  BCF    F94.7
....................                delay_ms(50); 
0809A:  MOVLW  32
0809C:  MOVLB  6
0809E:  MOVWF  x9C
080A0:  MOVLB  0
080A2:  CALL   131C
....................                Buzzer_off; 
080A6:  BCF    F8B.7
080A8:  BCF    F94.7
....................                if(Opcion==1){ 
080AA:  MOVLB  5
080AC:  DECFSZ xBA,W
080AE:  BRA    812E
....................                   if(tiempodn<4){ 
080B0:  MOVF   xB8,W
080B2:  SUBLW  03
080B4:  BNC   80F6
....................                      flagdn=1; 
080B6:  BSF    xA0.3
....................                      Temperatura1-=0.1;  
080B8:  BSF    FD8.1
080BA:  MOVFF  64F,6A2
080BE:  MOVFF  64E,6A1
080C2:  MOVFF  64D,6A0
080C6:  MOVFF  64C,69F
080CA:  MOVLW  CD
080CC:  MOVLB  6
080CE:  MOVWF  xA6
080D0:  MOVLW  CC
080D2:  MOVWF  xA5
080D4:  MOVLW  4C
080D6:  MOVWF  xA4
080D8:  MOVLW  7B
080DA:  MOVWF  xA3
080DC:  MOVLB  0
080DE:  CALL   151E
080E2:  MOVFF  03,64F
080E6:  MOVFF  02,64E
080EA:  MOVFF  01,64D
080EE:  MOVFF  00,64C
....................                   } 
....................                   else{ 
080F2:  BRA    812C
080F4:  MOVLB  5
....................                      flagdn=0; 
080F6:  BCF    xA0.3
....................                      Temperatura1-=2; 
080F8:  BSF    FD8.1
080FA:  MOVFF  64F,6A2
080FE:  MOVFF  64E,6A1
08102:  MOVFF  64D,6A0
08106:  MOVFF  64C,69F
0810A:  MOVLB  6
0810C:  CLRF   xA6
0810E:  CLRF   xA5
08110:  CLRF   xA4
08112:  MOVLW  80
08114:  MOVWF  xA3
08116:  MOVLB  0
08118:  CALL   151E
0811C:  MOVFF  03,64F
08120:  MOVFF  02,64E
08124:  MOVFF  01,64D
08128:  MOVFF  00,64C
0812C:  MOVLB  5
....................                   } 
....................                } 
....................                 
....................                if(Opcion==2){ 
0812E:  MOVF   xBA,W
08130:  SUBLW  02
08132:  BNZ   81B2
....................                   if(tiempodn<4){ 
08134:  MOVF   xB8,W
08136:  SUBLW  03
08138:  BNC   817A
....................                      flagdn=1; 
0813A:  BSF    xA0.3
....................                      Temperatura2-=0.1;  
0813C:  BSF    FD8.1
0813E:  MOVFF  653,6A2
08142:  MOVFF  652,6A1
08146:  MOVFF  651,6A0
0814A:  MOVFF  650,69F
0814E:  MOVLW  CD
08150:  MOVLB  6
08152:  MOVWF  xA6
08154:  MOVLW  CC
08156:  MOVWF  xA5
08158:  MOVLW  4C
0815A:  MOVWF  xA4
0815C:  MOVLW  7B
0815E:  MOVWF  xA3
08160:  MOVLB  0
08162:  CALL   151E
08166:  MOVFF  03,653
0816A:  MOVFF  02,652
0816E:  MOVFF  01,651
08172:  MOVFF  00,650
....................                   } 
....................                   else{ 
08176:  BRA    81B0
08178:  MOVLB  5
....................                      flagdn=0; 
0817A:  BCF    xA0.3
....................                      Temperatura2-=2; 
0817C:  BSF    FD8.1
0817E:  MOVFF  653,6A2
08182:  MOVFF  652,6A1
08186:  MOVFF  651,6A0
0818A:  MOVFF  650,69F
0818E:  MOVLB  6
08190:  CLRF   xA6
08192:  CLRF   xA5
08194:  CLRF   xA4
08196:  MOVLW  80
08198:  MOVWF  xA3
0819A:  MOVLB  0
0819C:  CALL   151E
081A0:  MOVFF  03,653
081A4:  MOVFF  02,652
081A8:  MOVFF  01,651
081AC:  MOVFF  00,650
081B0:  MOVLB  5
....................                   } 
....................                } 
....................                    
....................                if(Opcion==3){ 
081B2:  MOVF   xBA,W
081B4:  SUBLW  03
081B6:  BNZ   8236
....................                   if(tiempodn<4){ 
081B8:  MOVF   xB8,W
081BA:  SUBLW  03
081BC:  BNC   81FE
....................                      flagdn=1; 
081BE:  BSF    xA0.3
....................                      Temperatura3-=0.1;  
081C0:  BSF    FD8.1
081C2:  MOVFF  657,6A2
081C6:  MOVFF  656,6A1
081CA:  MOVFF  655,6A0
081CE:  MOVFF  654,69F
081D2:  MOVLW  CD
081D4:  MOVLB  6
081D6:  MOVWF  xA6
081D8:  MOVLW  CC
081DA:  MOVWF  xA5
081DC:  MOVLW  4C
081DE:  MOVWF  xA4
081E0:  MOVLW  7B
081E2:  MOVWF  xA3
081E4:  MOVLB  0
081E6:  CALL   151E
081EA:  MOVFF  03,657
081EE:  MOVFF  02,656
081F2:  MOVFF  01,655
081F6:  MOVFF  00,654
....................                   } 
....................                   else{ 
081FA:  BRA    8234
081FC:  MOVLB  5
....................                      flagdn=0; 
081FE:  BCF    xA0.3
....................                      Temperatura3-=2; 
08200:  BSF    FD8.1
08202:  MOVFF  657,6A2
08206:  MOVFF  656,6A1
0820A:  MOVFF  655,6A0
0820E:  MOVFF  654,69F
08212:  MOVLB  6
08214:  CLRF   xA6
08216:  CLRF   xA5
08218:  CLRF   xA4
0821A:  MOVLW  80
0821C:  MOVWF  xA3
0821E:  MOVLB  0
08220:  CALL   151E
08224:  MOVFF  03,657
08228:  MOVFF  02,656
0822C:  MOVFF  01,655
08230:  MOVFF  00,654
08234:  MOVLB  5
....................                   } 
....................                } 
....................             } 
....................          }else{ 
08236:  BRA    823A
....................             tiempodn=0; 
08238:  CLRF   xB8
....................          } 
....................                            
....................          if(LEFT){ 
0823A:  BSF    F96.2
0823C:  BTFSC  F84.2
0823E:  BRA    85BE
....................             delay_ms(50); 
08240:  MOVLW  32
08242:  MOVLB  6
08244:  MOVWF  x9C
08246:  MOVLB  0
08248:  CALL   131C
....................             if(LEFT){ 
0824C:  BSF    F96.2
0824E:  BTFSC  F84.2
08250:  BRA    85BE
....................                Buzzer_on; 
08252:  BSF    F8B.7
08254:  BCF    F94.7
....................                delay_ms(50); 
08256:  MOVLW  32
08258:  MOVLB  6
0825A:  MOVWF  x9C
0825C:  MOVLB  0
0825E:  CALL   131C
....................                Buzzer_off; 
08262:  BCF    F8B.7
08264:  BCF    F94.7
....................                delay_ms(700);Menu=1;glcd_fillscreen(OFF);Opcion=1;visual=1; 
08266:  MOVLW  04
08268:  MOVLB  6
0826A:  MOVWF  x93
0826C:  MOVLW  AF
0826E:  MOVWF  x9C
08270:  MOVLB  0
08272:  CALL   131C
08276:  MOVLB  6
08278:  DECFSZ x93,F
0827A:  BRA    826C
0827C:  MOVLW  01
0827E:  MOVLB  5
08280:  MOVWF  xB3
08282:  MOVLB  6
08284:  CLRF   x9B
08286:  MOVLB  0
08288:  CALL   2A0E
0828C:  MOVLW  01
0828E:  MOVLB  5
08290:  MOVWF  xBA
08292:  BSF    xAC.2
....................                 
....................                entero=(int8)Temperatura1; 
08294:  MOVFF  64F,6A2
08298:  MOVFF  64E,6A1
0829C:  MOVFF  64D,6A0
082A0:  MOVFF  64C,69F
082A4:  MOVLB  0
082A6:  CALL   3854
082AA:  MOVFF  01,5BE
....................                decimal=(Temperatura1-entero)*10; 
082AE:  MOVLB  6
082B0:  CLRF   xA0
082B2:  MOVFF  5BE,69F
082B6:  MOVLB  0
082B8:  CALL   138A
082BC:  BSF    FD8.1
082BE:  MOVFF  64F,6A2
082C2:  MOVFF  64E,6A1
082C6:  MOVFF  64D,6A0
082CA:  MOVFF  64C,69F
082CE:  MOVFF  03,6A6
082D2:  MOVFF  02,6A5
082D6:  MOVFF  01,6A4
082DA:  MOVFF  00,6A3
082DE:  CALL   151E
082E2:  MOVFF  00,693
082E6:  MOVFF  01,694
082EA:  MOVFF  02,695
082EE:  MOVFF  03,696
082F2:  MOVFF  03,6B6
082F6:  MOVFF  02,6B5
082FA:  MOVFF  01,6B4
082FE:  MOVFF  00,6B3
08302:  MOVLB  6
08304:  CLRF   xBA
08306:  CLRF   xB9
08308:  MOVLW  20
0830A:  MOVWF  xB8
0830C:  MOVLW  82
0830E:  MOVWF  xB7
08310:  MOVLB  0
08312:  CALL   31BE
08316:  MOVFF  03,6A2
0831A:  MOVFF  02,6A1
0831E:  MOVFF  01,6A0
08322:  MOVFF  00,69F
08326:  CALL   3854
0832A:  MOVFF  01,5BD
....................                write_eeprom(8,entero); 
0832E:  CLRF   FAA
08330:  MOVLW  08
08332:  MOVWF  FA9
08334:  MOVFF  5BE,FA8
08338:  BCF    FA6.6
0833A:  BCF    FA6.7
0833C:  BSF    FA6.2
0833E:  MOVF   FF2,W
08340:  MOVWF  00
08342:  BCF    FF2.6
08344:  BCF    FF2.7
08346:  MOVLB  F
08348:  MOVLW  55
0834A:  MOVWF  FA7
0834C:  MOVLW  AA
0834E:  MOVWF  FA7
08350:  BSF    FA6.1
08352:  BTFSC  FA6.1
08354:  BRA    8352
08356:  BCF    FA6.2
08358:  MOVF   00,W
0835A:  IORWF  FF2,F
....................                delay_ms(50);    
0835C:  MOVLW  32
0835E:  MOVLB  6
08360:  MOVWF  x9C
08362:  MOVLB  0
08364:  CALL   131C
....................                write_eeprom(9,decimal);//Guardar valor de Setpoint en eeprom 
08368:  CLRF   FAA
0836A:  MOVLW  09
0836C:  MOVWF  FA9
0836E:  MOVFF  5BD,FA8
08372:  BCF    FA6.6
08374:  BCF    FA6.7
08376:  BSF    FA6.2
08378:  MOVF   FF2,W
0837A:  MOVWF  00
0837C:  BCF    FF2.6
0837E:  BCF    FF2.7
08380:  MOVLB  F
08382:  MOVLW  55
08384:  MOVWF  FA7
08386:  MOVLW  AA
08388:  MOVWF  FA7
0838A:  BSF    FA6.1
0838C:  BTFSC  FA6.1
0838E:  BRA    838C
08390:  BCF    FA6.2
08392:  MOVF   00,W
08394:  IORWF  FF2,F
....................                delay_ms(50);   
08396:  MOVLW  32
08398:  MOVLB  6
0839A:  MOVWF  x9C
0839C:  MOVLB  0
0839E:  CALL   131C
....................                 
....................                entero=(int8)Temperatura2; 
083A2:  MOVFF  653,6A2
083A6:  MOVFF  652,6A1
083AA:  MOVFF  651,6A0
083AE:  MOVFF  650,69F
083B2:  CALL   3854
083B6:  MOVFF  01,5BE
....................                decimal=(Temperatura2-entero)*10; 
083BA:  MOVLB  6
083BC:  CLRF   xA0
083BE:  MOVFF  5BE,69F
083C2:  MOVLB  0
083C4:  CALL   138A
083C8:  BSF    FD8.1
083CA:  MOVFF  653,6A2
083CE:  MOVFF  652,6A1
083D2:  MOVFF  651,6A0
083D6:  MOVFF  650,69F
083DA:  MOVFF  03,6A6
083DE:  MOVFF  02,6A5
083E2:  MOVFF  01,6A4
083E6:  MOVFF  00,6A3
083EA:  CALL   151E
083EE:  MOVFF  00,693
083F2:  MOVFF  01,694
083F6:  MOVFF  02,695
083FA:  MOVFF  03,696
083FE:  MOVFF  03,6B6
08402:  MOVFF  02,6B5
08406:  MOVFF  01,6B4
0840A:  MOVFF  00,6B3
0840E:  MOVLB  6
08410:  CLRF   xBA
08412:  CLRF   xB9
08414:  MOVLW  20
08416:  MOVWF  xB8
08418:  MOVLW  82
0841A:  MOVWF  xB7
0841C:  MOVLB  0
0841E:  CALL   31BE
08422:  MOVFF  03,6A2
08426:  MOVFF  02,6A1
0842A:  MOVFF  01,6A0
0842E:  MOVFF  00,69F
08432:  CALL   3854
08436:  MOVFF  01,5BD
....................                write_eeprom(10,entero); 
0843A:  CLRF   FAA
0843C:  MOVLW  0A
0843E:  MOVWF  FA9
08440:  MOVFF  5BE,FA8
08444:  BCF    FA6.6
08446:  BCF    FA6.7
08448:  BSF    FA6.2
0844A:  MOVF   FF2,W
0844C:  MOVWF  00
0844E:  BCF    FF2.6
08450:  BCF    FF2.7
08452:  MOVLB  F
08454:  MOVLW  55
08456:  MOVWF  FA7
08458:  MOVLW  AA
0845A:  MOVWF  FA7
0845C:  BSF    FA6.1
0845E:  BTFSC  FA6.1
08460:  BRA    845E
08462:  BCF    FA6.2
08464:  MOVF   00,W
08466:  IORWF  FF2,F
....................                delay_ms(50);    
08468:  MOVLW  32
0846A:  MOVLB  6
0846C:  MOVWF  x9C
0846E:  MOVLB  0
08470:  CALL   131C
....................                write_eeprom(11,decimal);//Guardar valor de Setpoint en eeprom 
08474:  CLRF   FAA
08476:  MOVLW  0B
08478:  MOVWF  FA9
0847A:  MOVFF  5BD,FA8
0847E:  BCF    FA6.6
08480:  BCF    FA6.7
08482:  BSF    FA6.2
08484:  MOVF   FF2,W
08486:  MOVWF  00
08488:  BCF    FF2.6
0848A:  BCF    FF2.7
0848C:  MOVLB  F
0848E:  MOVLW  55
08490:  MOVWF  FA7
08492:  MOVLW  AA
08494:  MOVWF  FA7
08496:  BSF    FA6.1
08498:  BTFSC  FA6.1
0849A:  BRA    8498
0849C:  BCF    FA6.2
0849E:  MOVF   00,W
084A0:  IORWF  FF2,F
....................                delay_ms(50);    
084A2:  MOVLW  32
084A4:  MOVLB  6
084A6:  MOVWF  x9C
084A8:  MOVLB  0
084AA:  CALL   131C
....................                 
....................                entero=(int8)Temperatura3; 
084AE:  MOVFF  657,6A2
084B2:  MOVFF  656,6A1
084B6:  MOVFF  655,6A0
084BA:  MOVFF  654,69F
084BE:  CALL   3854
084C2:  MOVFF  01,5BE
....................                decimal=(Temperatura3-entero)*10; 
084C6:  MOVLB  6
084C8:  CLRF   xA0
084CA:  MOVFF  5BE,69F
084CE:  MOVLB  0
084D0:  CALL   138A
084D4:  BSF    FD8.1
084D6:  MOVFF  657,6A2
084DA:  MOVFF  656,6A1
084DE:  MOVFF  655,6A0
084E2:  MOVFF  654,69F
084E6:  MOVFF  03,6A6
084EA:  MOVFF  02,6A5
084EE:  MOVFF  01,6A4
084F2:  MOVFF  00,6A3
084F6:  CALL   151E
084FA:  MOVFF  00,693
084FE:  MOVFF  01,694
08502:  MOVFF  02,695
08506:  MOVFF  03,696
0850A:  MOVFF  03,6B6
0850E:  MOVFF  02,6B5
08512:  MOVFF  01,6B4
08516:  MOVFF  00,6B3
0851A:  MOVLB  6
0851C:  CLRF   xBA
0851E:  CLRF   xB9
08520:  MOVLW  20
08522:  MOVWF  xB8
08524:  MOVLW  82
08526:  MOVWF  xB7
08528:  MOVLB  0
0852A:  CALL   31BE
0852E:  MOVFF  03,6A2
08532:  MOVFF  02,6A1
08536:  MOVFF  01,6A0
0853A:  MOVFF  00,69F
0853E:  CALL   3854
08542:  MOVFF  01,5BD
....................                write_eeprom(12,entero); 
08546:  CLRF   FAA
08548:  MOVLW  0C
0854A:  MOVWF  FA9
0854C:  MOVFF  5BE,FA8
08550:  BCF    FA6.6
08552:  BCF    FA6.7
08554:  BSF    FA6.2
08556:  MOVF   FF2,W
08558:  MOVWF  00
0855A:  BCF    FF2.6
0855C:  BCF    FF2.7
0855E:  MOVLB  F
08560:  MOVLW  55
08562:  MOVWF  FA7
08564:  MOVLW  AA
08566:  MOVWF  FA7
08568:  BSF    FA6.1
0856A:  BTFSC  FA6.1
0856C:  BRA    856A
0856E:  BCF    FA6.2
08570:  MOVF   00,W
08572:  IORWF  FF2,F
....................                delay_ms(50);    
08574:  MOVLW  32
08576:  MOVLB  6
08578:  MOVWF  x9C
0857A:  MOVLB  0
0857C:  CALL   131C
....................                write_eeprom(13,decimal);//Guardar valor de Setpoint en eeprom 
08580:  CLRF   FAA
08582:  MOVLW  0D
08584:  MOVWF  FA9
08586:  MOVFF  5BD,FA8
0858A:  BCF    FA6.6
0858C:  BCF    FA6.7
0858E:  BSF    FA6.2
08590:  MOVF   FF2,W
08592:  MOVWF  00
08594:  BCF    FF2.6
08596:  BCF    FF2.7
08598:  MOVLB  F
0859A:  MOVLW  55
0859C:  MOVWF  FA7
0859E:  MOVLW  AA
085A0:  MOVWF  FA7
085A2:  BSF    FA6.1
085A4:  BTFSC  FA6.1
085A6:  BRA    85A4
085A8:  BCF    FA6.2
085AA:  MOVF   00,W
085AC:  IORWF  FF2,F
....................                delay_ms(50);  
085AE:  MOVLW  32
085B0:  MOVLB  6
085B2:  MOVWF  x9C
085B4:  MOVLB  0
085B6:  CALL   131C
....................                MensajeAlmacenado(); 
085BA:  CALL   3CA4
....................             } 
....................          } 
....................           
....................          if(Temperatura1<30) 
085BE:  MOVFF  64F,696
085C2:  MOVFF  64E,695
085C6:  MOVFF  64D,694
085CA:  MOVFF  64C,693
085CE:  MOVLB  6
085D0:  CLRF   x9A
085D2:  CLRF   x99
085D4:  MOVLW  70
085D6:  MOVWF  x98
085D8:  MOVLW  83
085DA:  MOVWF  x97
085DC:  MOVLB  0
085DE:  CALL   1FE4
085E2:  BNC   85F2
....................             Temperatura1=105; 
085E4:  MOVLB  6
085E6:  CLRF   x4F
085E8:  CLRF   x4E
085EA:  MOVLW  52
085EC:  MOVWF  x4D
085EE:  MOVLW  85
085F0:  MOVWF  x4C
....................              
....................          if(Temperatura2<30) 
085F2:  MOVFF  653,696
085F6:  MOVFF  652,695
085FA:  MOVFF  651,694
085FE:  MOVFF  650,693
08602:  MOVLB  6
08604:  CLRF   x9A
08606:  CLRF   x99
08608:  MOVLW  70
0860A:  MOVWF  x98
0860C:  MOVLW  83
0860E:  MOVWF  x97
08610:  MOVLB  0
08612:  CALL   1FE4
08616:  BNC   8626
....................             Temperatura2=105; 
08618:  MOVLB  6
0861A:  CLRF   x53
0861C:  CLRF   x52
0861E:  MOVLW  52
08620:  MOVWF  x51
08622:  MOVLW  85
08624:  MOVWF  x50
....................              
....................          if(Temperatura3<30) 
08626:  MOVFF  657,696
0862A:  MOVFF  656,695
0862E:  MOVFF  655,694
08632:  MOVFF  654,693
08636:  MOVLB  6
08638:  CLRF   x9A
0863A:  CLRF   x99
0863C:  MOVLW  70
0863E:  MOVWF  x98
08640:  MOVLW  83
08642:  MOVWF  x97
08644:  MOVLB  0
08646:  CALL   1FE4
0864A:  BNC   865A
....................             Temperatura3=105; 
0864C:  MOVLB  6
0864E:  CLRF   x57
08650:  CLRF   x56
08652:  MOVLW  52
08654:  MOVWF  x55
08656:  MOVLW  85
08658:  MOVWF  x54
....................              
....................          if(Temperatura1>105) 
0865A:  MOVLB  6
0865C:  CLRF   x96
0865E:  CLRF   x95
08660:  MOVLW  52
08662:  MOVWF  x94
08664:  MOVLW  85
08666:  MOVWF  x93
08668:  MOVFF  64F,69A
0866C:  MOVFF  64E,699
08670:  MOVFF  64D,698
08674:  MOVFF  64C,697
08678:  MOVLB  0
0867A:  CALL   1FE4
0867E:  BNC   868E
....................             Temperatura1=30;    
08680:  MOVLB  6
08682:  CLRF   x4F
08684:  CLRF   x4E
08686:  MOVLW  70
08688:  MOVWF  x4D
0868A:  MOVLW  83
0868C:  MOVWF  x4C
....................              
....................          if(Temperatura2>105) 
0868E:  MOVLB  6
08690:  CLRF   x96
08692:  CLRF   x95
08694:  MOVLW  52
08696:  MOVWF  x94
08698:  MOVLW  85
0869A:  MOVWF  x93
0869C:  MOVFF  653,69A
086A0:  MOVFF  652,699
086A4:  MOVFF  651,698
086A8:  MOVFF  650,697
086AC:  MOVLB  0
086AE:  CALL   1FE4
086B2:  BNC   86C2
....................             Temperatura2=30;    
086B4:  MOVLB  6
086B6:  CLRF   x53
086B8:  CLRF   x52
086BA:  MOVLW  70
086BC:  MOVWF  x51
086BE:  MOVLW  83
086C0:  MOVWF  x50
....................              
....................          if(Temperatura3>105) 
086C2:  MOVLB  6
086C4:  CLRF   x96
086C6:  CLRF   x95
086C8:  MOVLW  52
086CA:  MOVWF  x94
086CC:  MOVLW  85
086CE:  MOVWF  x93
086D0:  MOVFF  657,69A
086D4:  MOVFF  656,699
086D8:  MOVFF  655,698
086DC:  MOVFF  654,697
086E0:  MOVLB  0
086E2:  CALL   1FE4
086E6:  BNC   86F8
....................             Temperatura3=30;    
086E8:  MOVLB  6
086EA:  CLRF   x57
086EC:  CLRF   x56
086EE:  MOVLW  70
086F0:  MOVWF  x55
086F2:  MOVLW  83
086F4:  MOVWF  x54
086F6:  MOVLB  0
086F8:  MOVLB  5
....................      } 
.................... //_--------------------------------------------------------------------------------------------------------------------------------------------------------     
....................  
.................... //_--------------------------------------------------------------------------------------------------------------------------------------------------------       
....................       if(Menu==6){ // Menu de Temporizador 
086FA:  MOVF   xB3,W
086FC:  SUBLW  06
086FE:  BTFSS  FD8.2
08700:  BRA    8B22
....................       
....................          if(unidad<1) 
08702:  MOVF   xB4,F
08704:  BNZ   870A
....................             unidad=4; 
08706:  MOVLW  04
08708:  MOVWF  xB4
....................           
....................          strcpy(Menus.Letra,"Tiempo"); 
0870A:  MOVLW  06
0870C:  MOVWF  FEA
0870E:  MOVLW  73
08710:  MOVWF  FE9
08712:  MOVFF  FF2,693
08716:  BCF    FF2.6
08718:  BCF    FF2.7
0871A:  MOVLW  00
0871C:  MOVLB  0
0871E:  CALL   0C22
08722:  TBLRD*-
08724:  TBLRD*+
08726:  MOVF   FF5,W
08728:  MOVWF  FEE
0872A:  IORLW  00
0872C:  BNZ   8724
0872E:  MOVLB  6
08730:  BTFSC  x93.6
08732:  BSF    FF2.6
08734:  BTFSC  x93.7
08736:  BSF    FF2.7
....................          displayMenu(Menus.Letra,10,0,1,2); 
08738:  MOVLW  06
0873A:  MOVWF  x9C
0873C:  MOVLW  73
0873E:  MOVWF  x9B
08740:  MOVLW  0A
08742:  MOVWF  x9D
08744:  CLRF   x9E
08746:  MOVLW  01
08748:  MOVWF  x9F
0874A:  MOVLW  02
0874C:  MOVWF  xA0
0874E:  MOVLB  0
08750:  CALL   3048
....................           
....................          if(unidad==4) 
08754:  MOVLB  5
08756:  MOVF   xB4,W
08758:  SUBLW  04
0875A:  BNZ   877A
....................          {displayTiempo(Testerilizacionp[3],20,40,1,2);} 
0875C:  MOVFF  5FF,694
08760:  MOVLW  14
08762:  MOVLB  6
08764:  MOVWF  x95
08766:  MOVLW  28
08768:  MOVWF  x96
0876A:  MOVLW  01
0876C:  MOVWF  x97
0876E:  MOVLW  02
08770:  MOVWF  x98
08772:  MOVLB  0
08774:  CALL   5070
....................          else 
08778:  BRA    8794
....................          {displayTiempo(Testerilizacionp[3],20,40,0,2);} 
0877A:  MOVFF  5FF,694
0877E:  MOVLW  14
08780:  MOVLB  6
08782:  MOVWF  x95
08784:  MOVLW  28
08786:  MOVWF  x96
08788:  CLRF   x97
0878A:  MOVLW  02
0878C:  MOVWF  x98
0878E:  MOVLB  0
08790:  CALL   5070
....................           
....................          if(unidad==3) 
08794:  MOVLB  5
08796:  MOVF   xB4,W
08798:  SUBLW  03
0879A:  BNZ   87B8
....................          {displayTiempo(Testerilizacionp[2],40,40,1,2);} 
0879C:  MOVFF  5FE,694
087A0:  MOVLW  28
087A2:  MOVLB  6
087A4:  MOVWF  x95
087A6:  MOVWF  x96
087A8:  MOVLW  01
087AA:  MOVWF  x97
087AC:  MOVLW  02
087AE:  MOVWF  x98
087B0:  MOVLB  0
087B2:  CALL   5070
....................          else 
087B6:  BRA    87D0
....................          {displayTiempo(Testerilizacionp[2],40,40,0,2);} 
087B8:  MOVFF  5FE,694
087BC:  MOVLW  28
087BE:  MOVLB  6
087C0:  MOVWF  x95
087C2:  MOVWF  x96
087C4:  CLRF   x97
087C6:  MOVLW  02
087C8:  MOVWF  x98
087CA:  MOVLB  0
087CC:  CALL   5070
....................           
....................          if(unidad==2) 
087D0:  MOVLB  5
087D2:  MOVF   xB4,W
087D4:  SUBLW  02
087D6:  BNZ   87F6
....................          {displayTiempo(Testerilizacionp[1],70,40,1,2);} 
087D8:  MOVFF  5FD,694
087DC:  MOVLW  46
087DE:  MOVLB  6
087E0:  MOVWF  x95
087E2:  MOVLW  28
087E4:  MOVWF  x96
087E6:  MOVLW  01
087E8:  MOVWF  x97
087EA:  MOVLW  02
087EC:  MOVWF  x98
087EE:  MOVLB  0
087F0:  CALL   5070
....................          else 
087F4:  BRA    8810
....................          {displayTiempo(Testerilizacionp[1],70,40,0,2);} 
087F6:  MOVFF  5FD,694
087FA:  MOVLW  46
087FC:  MOVLB  6
087FE:  MOVWF  x95
08800:  MOVLW  28
08802:  MOVWF  x96
08804:  CLRF   x97
08806:  MOVLW  02
08808:  MOVWF  x98
0880A:  MOVLB  0
0880C:  CALL   5070
....................           
....................          if(unidad==1) 
08810:  MOVLB  5
08812:  DECFSZ xB4,W
08814:  BRA    8834
....................          {displayTiempo(Testerilizacionp[0],90,40,1,2);} 
08816:  MOVFF  5FC,694
0881A:  MOVLW  5A
0881C:  MOVLB  6
0881E:  MOVWF  x95
08820:  MOVLW  28
08822:  MOVWF  x96
08824:  MOVLW  01
08826:  MOVWF  x97
08828:  MOVLW  02
0882A:  MOVWF  x98
0882C:  MOVLB  0
0882E:  CALL   5070
....................          else 
08832:  BRA    884E
....................          {displayTiempo(Testerilizacionp[0],90,40,0,2);} 
08834:  MOVFF  5FC,694
08838:  MOVLW  5A
0883A:  MOVLB  6
0883C:  MOVWF  x95
0883E:  MOVLW  28
08840:  MOVWF  x96
08842:  CLRF   x97
08844:  MOVLW  02
08846:  MOVWF  x98
08848:  MOVLB  0
0884A:  CALL   5070
....................           
....................          strcpy(Menus.Letra,":"); 
0884E:  MOVLW  06
08850:  MOVWF  FEA
08852:  MOVLW  73
08854:  MOVWF  FE9
08856:  MOVFF  FF2,693
0885A:  BCF    FF2.6
0885C:  BCF    FF2.7
0885E:  MOVLW  00
08860:  CALL   0C4E
08864:  TBLRD*-
08866:  TBLRD*+
08868:  MOVF   FF5,W
0886A:  MOVWF  FEE
0886C:  IORLW  00
0886E:  BNZ   8866
08870:  MOVLB  6
08872:  BTFSC  x93.6
08874:  BSF    FF2.6
08876:  BTFSC  x93.7
08878:  BSF    FF2.7
....................          displayMenu(Menus.Letra,60,42,2,2);            
0887A:  MOVLW  06
0887C:  MOVWF  x9C
0887E:  MOVLW  73
08880:  MOVWF  x9B
08882:  MOVLW  3C
08884:  MOVWF  x9D
08886:  MOVLW  2A
08888:  MOVWF  x9E
0888A:  MOVLW  02
0888C:  MOVWF  x9F
0888E:  MOVWF  xA0
08890:  MOVLB  0
08892:  CALL   3048
....................        
....................          if(UP){   
08896:  BSF    F92.5
08898:  BTFSC  F80.5
0889A:  BRA    893A
....................             delay_ms(50); 
0889C:  MOVLW  32
0889E:  MOVLB  6
088A0:  MOVWF  x9C
088A2:  MOVLB  0
088A4:  CALL   131C
....................             if(UP){ 
088A8:  BSF    F92.5
088AA:  BTFSC  F80.5
088AC:  BRA    893A
....................                Buzzer_on; 
088AE:  BSF    F8B.7
088B0:  BCF    F94.7
....................                delay_ms(50); 
088B2:  MOVLW  32
088B4:  MOVLB  6
088B6:  MOVWF  x9C
088B8:  MOVLB  0
088BA:  CALL   131C
....................                Buzzer_off; 
088BE:  BCF    F8B.7
088C0:  BCF    F94.7
....................                if(unidad==2){ 
088C2:  MOVLB  5
088C4:  MOVF   xB4,W
088C6:  SUBLW  02
088C8:  BNZ   8902
....................                   if(Testerilizacionp[unidad-1]<5){ 
088CA:  MOVLW  01
088CC:  SUBWF  xB4,W
088CE:  CLRF   03
088D0:  ADDLW  FC
088D2:  MOVWF  FE9
088D4:  MOVLW  05
088D6:  ADDWFC 03,W
088D8:  MOVWF  FEA
088DA:  BTFSC  FEF.7
088DC:  BRA    88E4
088DE:  MOVF   FEF,W
088E0:  SUBLW  04
088E2:  BNC   8900
....................                      DelayPuls();Testerilizacionp[unidad-1]++;visual=1; 
088E4:  MOVLB  0
088E6:  CALL   3C96
088EA:  MOVLW  01
088EC:  MOVLB  5
088EE:  SUBWF  xB4,W
088F0:  CLRF   03
088F2:  ADDLW  FC
088F4:  MOVWF  FE9
088F6:  MOVLW  05
088F8:  ADDWFC 03,W
088FA:  MOVWF  FEA
088FC:  INCF   FEF,F
088FE:  BSF    xAC.2
....................                   } 
....................                }else{ 
08900:  BRA    8938
....................                   if(Testerilizacionp[unidad-1]<9){ 
08902:  MOVLW  01
08904:  SUBWF  xB4,W
08906:  CLRF   03
08908:  ADDLW  FC
0890A:  MOVWF  FE9
0890C:  MOVLW  05
0890E:  ADDWFC 03,W
08910:  MOVWF  FEA
08912:  BTFSC  FEF.7
08914:  BRA    891C
08916:  MOVF   FEF,W
08918:  SUBLW  08
0891A:  BNC   8938
....................                      DelayPuls();Testerilizacionp[unidad-1]++;visual=1; 
0891C:  MOVLB  0
0891E:  CALL   3C96
08922:  MOVLW  01
08924:  MOVLB  5
08926:  SUBWF  xB4,W
08928:  CLRF   03
0892A:  ADDLW  FC
0892C:  MOVWF  FE9
0892E:  MOVLW  05
08930:  ADDWFC 03,W
08932:  MOVWF  FEA
08934:  INCF   FEF,F
08936:  BSF    xAC.2
08938:  MOVLB  0
....................                   } 
....................                } 
....................             } 
....................          } 
....................                 
....................          if(DOWN){  
0893A:  BSF    F96.0
0893C:  BTFSC  F84.0
0893E:  BRA    89A0
....................             delay_ms(50); 
08940:  MOVLW  32
08942:  MOVLB  6
08944:  MOVWF  x9C
08946:  MOVLB  0
08948:  CALL   131C
....................             if(DOWN){ 
0894C:  BSF    F96.0
0894E:  BTFSC  F84.0
08950:  BRA    89A0
....................                Buzzer_on; 
08952:  BSF    F8B.7
08954:  BCF    F94.7
....................                delay_ms(50); 
08956:  MOVLW  32
08958:  MOVLB  6
0895A:  MOVWF  x9C
0895C:  MOVLB  0
0895E:  CALL   131C
....................                Buzzer_off; 
08962:  BCF    F8B.7
08964:  BCF    F94.7
....................                if(Testerilizacionp[unidad-1]>0){ 
08966:  MOVLW  01
08968:  MOVLB  5
0896A:  SUBWF  xB4,W
0896C:  CLRF   03
0896E:  ADDLW  FC
08970:  MOVWF  FE9
08972:  MOVLW  05
08974:  ADDWFC 03,W
08976:  MOVWF  FEA
08978:  BTFSC  FEF.7
0897A:  BRA    899E
0897C:  MOVF   FEF,W
0897E:  SUBLW  00
08980:  BC    899E
....................                   DelayPuls();Testerilizacionp[unidad-1]--;visual=1;      
08982:  MOVLB  0
08984:  CALL   3C96
08988:  MOVLW  01
0898A:  MOVLB  5
0898C:  SUBWF  xB4,W
0898E:  CLRF   03
08990:  ADDLW  FC
08992:  MOVWF  FE9
08994:  MOVLW  05
08996:  ADDWFC 03,W
08998:  MOVWF  FEA
0899A:  DECF   FEF,F
0899C:  BSF    xAC.2
0899E:  MOVLB  0
....................                } 
....................             } 
....................          } 
....................                 
....................          if(RIGHT){   
089A0:  BSF    F96.1
089A2:  BTFSC  F84.1
089A4:  BRA    89C6
....................             Buzzer_on; 
089A6:  BSF    F8B.7
089A8:  BCF    F94.7
....................             delay_ms(50); 
089AA:  MOVLW  32
089AC:  MOVLB  6
089AE:  MOVWF  x9C
089B0:  MOVLB  0
089B2:  CALL   131C
....................             Buzzer_off; 
089B6:  BCF    F8B.7
089B8:  BCF    F94.7
....................             DelayPuls();unidad--;visual=1; 
089BA:  CALL   3C96
089BE:  MOVLB  5
089C0:  DECF   xB4,F
089C2:  BSF    xAC.2
089C4:  MOVLB  0
....................          }  
....................                    
....................          if(LEFT){ 
089C6:  BSF    F96.2
089C8:  BTFSC  F84.2
089CA:  BRA    8B24
....................             delay_ms(50); 
089CC:  MOVLW  32
089CE:  MOVLB  6
089D0:  MOVWF  x9C
089D2:  MOVLB  0
089D4:  CALL   131C
....................             if(LEFT){ 
089D8:  BSF    F96.2
089DA:  BTFSC  F84.2
089DC:  BRA    8B24
....................                Buzzer_on; 
089DE:  BSF    F8B.7
089E0:  BCF    F94.7
....................                delay_ms(50); 
089E2:  MOVLW  32
089E4:  MOVLB  6
089E6:  MOVWF  x9C
089E8:  MOVLB  0
089EA:  CALL   131C
....................                Buzzer_off; 
089EE:  BCF    F8B.7
089F0:  BCF    F94.7
....................                delay_ms(700);Menu=1;glcd_fillscreen(OFF);Opcion=1;visual=1; 
089F2:  MOVLW  04
089F4:  MOVLB  6
089F6:  MOVWF  x93
089F8:  MOVLW  AF
089FA:  MOVWF  x9C
089FC:  MOVLB  0
089FE:  CALL   131C
08A02:  MOVLB  6
08A04:  DECFSZ x93,F
08A06:  BRA    89F8
08A08:  MOVLW  01
08A0A:  MOVLB  5
08A0C:  MOVWF  xB3
08A0E:  MOVLB  6
08A10:  CLRF   x9B
08A12:  MOVLB  0
08A14:  CALL   2A0E
08A18:  MOVLW  01
08A1A:  MOVLB  5
08A1C:  MOVWF  xBA
08A1E:  BSF    xAC.2
....................                write_eeprom(0,Testerilizacionp[0]); 
08A20:  CLRF   FAA
08A22:  CLRF   FA9
08A24:  MOVFF  5FC,FA8
08A28:  BCF    FA6.6
08A2A:  BCF    FA6.7
08A2C:  BSF    FA6.2
08A2E:  MOVF   FF2,W
08A30:  MOVWF  00
08A32:  BCF    FF2.6
08A34:  BCF    FF2.7
08A36:  MOVLB  F
08A38:  MOVLW  55
08A3A:  MOVWF  FA7
08A3C:  MOVLW  AA
08A3E:  MOVWF  FA7
08A40:  BSF    FA6.1
08A42:  BTFSC  FA6.1
08A44:  BRA    8A42
08A46:  BCF    FA6.2
08A48:  MOVF   00,W
08A4A:  IORWF  FF2,F
....................                delay_ms(50);    
08A4C:  MOVLW  32
08A4E:  MOVLB  6
08A50:  MOVWF  x9C
08A52:  MOVLB  0
08A54:  CALL   131C
....................                write_eeprom(1,Testerilizacionp[1]); 
08A58:  CLRF   FAA
08A5A:  MOVLW  01
08A5C:  MOVWF  FA9
08A5E:  MOVFF  5FD,FA8
08A62:  BCF    FA6.6
08A64:  BCF    FA6.7
08A66:  BSF    FA6.2
08A68:  MOVF   FF2,W
08A6A:  MOVWF  00
08A6C:  BCF    FF2.6
08A6E:  BCF    FF2.7
08A70:  MOVLB  F
08A72:  MOVLW  55
08A74:  MOVWF  FA7
08A76:  MOVLW  AA
08A78:  MOVWF  FA7
08A7A:  BSF    FA6.1
08A7C:  BTFSC  FA6.1
08A7E:  BRA    8A7C
08A80:  BCF    FA6.2
08A82:  MOVF   00,W
08A84:  IORWF  FF2,F
....................                delay_ms(50);    
08A86:  MOVLW  32
08A88:  MOVLB  6
08A8A:  MOVWF  x9C
08A8C:  MOVLB  0
08A8E:  CALL   131C
....................                write_eeprom(2,Testerilizacionp[2]); 
08A92:  CLRF   FAA
08A94:  MOVLW  02
08A96:  MOVWF  FA9
08A98:  MOVFF  5FE,FA8
08A9C:  BCF    FA6.6
08A9E:  BCF    FA6.7
08AA0:  BSF    FA6.2
08AA2:  MOVF   FF2,W
08AA4:  MOVWF  00
08AA6:  BCF    FF2.6
08AA8:  BCF    FF2.7
08AAA:  MOVLB  F
08AAC:  MOVLW  55
08AAE:  MOVWF  FA7
08AB0:  MOVLW  AA
08AB2:  MOVWF  FA7
08AB4:  BSF    FA6.1
08AB6:  BTFSC  FA6.1
08AB8:  BRA    8AB6
08ABA:  BCF    FA6.2
08ABC:  MOVF   00,W
08ABE:  IORWF  FF2,F
....................                delay_ms(50);    
08AC0:  MOVLW  32
08AC2:  MOVLB  6
08AC4:  MOVWF  x9C
08AC6:  MOVLB  0
08AC8:  CALL   131C
....................                write_eeprom(3,Testerilizacionp[3]); 
08ACC:  CLRF   FAA
08ACE:  MOVLW  03
08AD0:  MOVWF  FA9
08AD2:  MOVFF  5FF,FA8
08AD6:  BCF    FA6.6
08AD8:  BCF    FA6.7
08ADA:  BSF    FA6.2
08ADC:  MOVF   FF2,W
08ADE:  MOVWF  00
08AE0:  BCF    FF2.6
08AE2:  BCF    FF2.7
08AE4:  MOVLB  F
08AE6:  MOVLW  55
08AE8:  MOVWF  FA7
08AEA:  MOVLW  AA
08AEC:  MOVWF  FA7
08AEE:  BSF    FA6.1
08AF0:  BTFSC  FA6.1
08AF2:  BRA    8AF0
08AF4:  BCF    FA6.2
08AF6:  MOVF   00,W
08AF8:  IORWF  FF2,F
....................                delay_ms(50);    
08AFA:  MOVLW  32
08AFC:  MOVLB  6
08AFE:  MOVWF  x9C
08B00:  MOVLB  0
08B02:  CALL   131C
....................                MensajeAlmacenado(); 
08B06:  CALL   3CA4
....................                if((Testerilizacionp[0]==0)&&(Testerilizacionp[1]==0)&&(Testerilizacionp[2]==0)&&(Testerilizacionp[3]==0)) 
08B0A:  MOVLB  5
08B0C:  MOVF   xFC,F
08B0E:  BNZ   8B20
08B10:  MOVF   xFD,F
08B12:  BNZ   8B20
08B14:  MOVF   xFE,F
08B16:  BNZ   8B20
08B18:  MOVF   xFF,F
08B1A:  BNZ   8B20
....................                   Infinito=1; 
08B1C:  BSF    xAC.7
....................                else 
08B1E:  BRA    8B22
....................                   Infinito=0; 
08B20:  BCF    xAC.7
08B22:  MOVLB  0
....................             } 
....................          } 
....................      } 
.................... //_--------------------------------------------------------------------------------------------------------------------------------------------------------     
....................  
.................... //_--------------------------------------------------------------------------------------------------------------------------------------------------------       
....................       if(Menu==7){ // Menu de Cambio de Contrasea 
08B24:  MOVLB  5
08B26:  MOVF   xB3,W
08B28:  SUBLW  07
08B2A:  BNZ   8B54
....................          PidePassword(1,7,91,Password[0],Password[1],Password[2],Password[3],0); 
08B2C:  MOVLW  01
08B2E:  MOVLB  6
08B30:  MOVWF  x93
08B32:  MOVLW  07
08B34:  MOVWF  x94
08B36:  MOVLW  5B
08B38:  MOVWF  x95
08B3A:  MOVFF  604,696
08B3E:  MOVFF  605,697
08B42:  MOVFF  606,698
08B46:  MOVFF  607,699
08B4A:  CLRF   x9A
08B4C:  MOVLB  0
08B4E:  CALL   3D5E
08B52:  MOVLB  5
....................       }     
.................... //_--------------------------------------------------------------------------------------------------------------------------------------------------------     
....................  
.................... //_--------------------------------------------------------------------------------------------------------------------------------------------------------       
....................       if(Menu==91){ // Menu de Cambio de Contrasea 
08B54:  MOVF   xB3,W
08B56:  SUBLW  5B
08B58:  BNZ   8B82
....................        PidePassword(1,91,91,Password[0],Password[1],Password[2],Password[3],1); 
08B5A:  MOVLW  01
08B5C:  MOVLB  6
08B5E:  MOVWF  x93
08B60:  MOVLW  5B
08B62:  MOVWF  x94
08B64:  MOVWF  x95
08B66:  MOVFF  604,696
08B6A:  MOVFF  605,697
08B6E:  MOVFF  606,698
08B72:  MOVFF  607,699
08B76:  MOVLW  01
08B78:  MOVWF  x9A
08B7A:  MOVLB  0
08B7C:  CALL   3D5E
08B80:  MOVLB  5
....................     }     
.................... //_--------------------------------------------------------------------------------------------------------------------------------------------------------     
....................  
.................... //_--------------------------------------------------------------------------------------------------------------------------------------------------------       
....................       if(Menu==8){ // Menu de Ajuste de Velocidad de Ventilador 
08B82:  MOVF   xB3,W
08B84:  SUBLW  08
08B86:  BTFSS  FD8.2
08B88:  BRA    8D5A
....................        
....................          if(Vel1>10) 
08B8A:  MOVF   xB2,W
08B8C:  SUBLW  0A
08B8E:  BC    8B94
....................             Vel1=10; 
08B90:  MOVLW  0A
08B92:  MOVWF  xB2
....................        
....................          if(visual==1){ 
08B94:  BTFSS  xAC.2
08B96:  BRA    8C58
....................             glcd_fillScreen(OFF); 
08B98:  MOVLB  6
08B9A:  CLRF   x9B
08B9C:  MOVLB  0
08B9E:  CALL   2A0E
....................             strcpy(Menus.Letra,"Velocidad"); 
08BA2:  MOVLW  06
08BA4:  MOVWF  FEA
08BA6:  MOVLW  73
08BA8:  MOVWF  FE9
08BAA:  MOVFF  FF2,693
08BAE:  BCF    FF2.6
08BB0:  BCF    FF2.7
08BB2:  MOVLW  00
08BB4:  CALL   0C74
08BB8:  TBLRD*-
08BBA:  TBLRD*+
08BBC:  MOVF   FF5,W
08BBE:  MOVWF  FEE
08BC0:  IORLW  00
08BC2:  BNZ   8BBA
08BC4:  MOVLB  6
08BC6:  BTFSC  x93.6
08BC8:  BSF    FF2.6
08BCA:  BTFSC  x93.7
08BCC:  BSF    FF2.7
....................             displayMenu(Menus.Letra,0,0,1,2); 
08BCE:  MOVLW  06
08BD0:  MOVWF  x9C
08BD2:  MOVLW  73
08BD4:  MOVWF  x9B
08BD6:  CLRF   x9D
08BD8:  CLRF   x9E
08BDA:  MOVLW  01
08BDC:  MOVWF  x9F
08BDE:  MOVLW  02
08BE0:  MOVWF  xA0
08BE2:  MOVLB  0
08BE4:  CALL   3048
....................             displayTemperatura(Vel1*10,30,30,0,3); 
08BE8:  MOVLB  5
08BEA:  MOVF   xB2,W
08BEC:  MULLW  0A
08BEE:  MOVFF  FF3,693
08BF2:  MOVLB  6
08BF4:  CLRF   x96
08BF6:  MOVFF  693,695
08BFA:  MOVLW  1E
08BFC:  MOVWF  x97
08BFE:  MOVWF  x98
08C00:  CLRF   x99
08C02:  MOVLW  03
08C04:  MOVWF  x9A
08C06:  MOVLB  0
08C08:  CALL   4926
....................             strcpy(Menus.Letra,"%");displayMenu(Menus.Letra,90,35,2,2); 
08C0C:  MOVLW  06
08C0E:  MOVWF  FEA
08C10:  MOVLW  73
08C12:  MOVWF  FE9
08C14:  MOVFF  FF2,693
08C18:  BCF    FF2.6
08C1A:  BCF    FF2.7
08C1C:  MOVLW  00
08C1E:  CALL   0CA2
08C22:  TBLRD*-
08C24:  TBLRD*+
08C26:  MOVF   FF5,W
08C28:  MOVWF  FEE
08C2A:  IORLW  00
08C2C:  BNZ   8C24
08C2E:  MOVLB  6
08C30:  BTFSC  x93.6
08C32:  BSF    FF2.6
08C34:  BTFSC  x93.7
08C36:  BSF    FF2.7
08C38:  MOVLW  06
08C3A:  MOVWF  x9C
08C3C:  MOVLW  73
08C3E:  MOVWF  x9B
08C40:  MOVLW  5A
08C42:  MOVWF  x9D
08C44:  MOVLW  23
08C46:  MOVWF  x9E
08C48:  MOVLW  02
08C4A:  MOVWF  x9F
08C4C:  MOVWF  xA0
08C4E:  MOVLB  0
08C50:  CALL   3048
....................             visual=0; 
08C54:  MOVLB  5
08C56:  BCF    xAC.2
....................          } 
....................        
....................          if(UP){   
08C58:  BSF    F92.5
08C5A:  BTFSC  F80.5
08C5C:  BRA    8C80
....................             DelayPuls();Vel1++;visual=1; 
08C5E:  MOVLB  0
08C60:  CALL   3C96
08C64:  MOVLB  5
08C66:  INCF   xB2,F
08C68:  BSF    xAC.2
....................             Buzzer_on; 
08C6A:  BSF    F8B.7
08C6C:  BCF    F94.7
....................             delay_ms(50); 
08C6E:  MOVLW  32
08C70:  MOVLB  6
08C72:  MOVWF  x9C
08C74:  MOVLB  0
08C76:  CALL   131C
....................             Buzzer_off; 
08C7A:  BCF    F8B.7
08C7C:  BCF    F94.7
08C7E:  MOVLB  5
....................          } 
....................                 
....................          if(DOWN && Vel1>0){   
08C80:  BSF    F96.0
08C82:  BTFSC  F84.0
08C84:  BRA    8CAC
08C86:  MOVF   xB2,F
08C88:  BZ    8CAC
....................             DelayPuls();Vel1--;visual=1;  
08C8A:  MOVLB  0
08C8C:  CALL   3C96
08C90:  MOVLB  5
08C92:  DECF   xB2,F
08C94:  BSF    xAC.2
....................             Buzzer_on; 
08C96:  BSF    F8B.7
08C98:  BCF    F94.7
....................             delay_ms(50); 
08C9A:  MOVLW  32
08C9C:  MOVLB  6
08C9E:  MOVWF  x9C
08CA0:  MOVLB  0
08CA2:  CALL   131C
....................             Buzzer_off; 
08CA6:  BCF    F8B.7
08CA8:  BCF    F94.7
08CAA:  MOVLB  5
....................          } 
....................                 
....................          if(RIGHT){ 
08CAC:  BSF    F96.1
08CAE:  BTFSC  F84.1
08CB0:  BRA    8CCA
....................             visual=1; 
08CB2:  BSF    xAC.2
....................             Buzzer_on; 
08CB4:  BSF    F8B.7
08CB6:  BCF    F94.7
....................             delay_ms(50); 
08CB8:  MOVLW  32
08CBA:  MOVLB  6
08CBC:  MOVWF  x9C
08CBE:  MOVLB  0
08CC0:  CALL   131C
....................             Buzzer_off; 
08CC4:  BCF    F8B.7
08CC6:  BCF    F94.7
08CC8:  MOVLB  5
....................          } 
....................                    
....................          if(LEFT){ 
08CCA:  BSF    F96.2
08CCC:  BTFSC  F84.2
08CCE:  BRA    8D5A
....................             Buzzer_on; 
08CD0:  BSF    F8B.7
08CD2:  BCF    F94.7
....................             delay_ms(50); 
08CD4:  MOVLW  32
08CD6:  MOVLB  6
08CD8:  MOVWF  x9C
08CDA:  MOVLB  0
08CDC:  CALL   131C
....................             Buzzer_off; 
08CE0:  BCF    F8B.7
08CE2:  BCF    F94.7
....................             delay_ms(10); 
08CE4:  MOVLW  0A
08CE6:  MOVLB  6
08CE8:  MOVWF  x9C
08CEA:  MOVLB  0
08CEC:  CALL   131C
....................             delay_ms(700);Menu=1;glcd_fillscreen(OFF);Opcion=1;visual=1; 
08CF0:  MOVLW  04
08CF2:  MOVLB  6
08CF4:  MOVWF  x93
08CF6:  MOVLW  AF
08CF8:  MOVWF  x9C
08CFA:  MOVLB  0
08CFC:  CALL   131C
08D00:  MOVLB  6
08D02:  DECFSZ x93,F
08D04:  BRA    8CF6
08D06:  MOVLW  01
08D08:  MOVLB  5
08D0A:  MOVWF  xB3
08D0C:  MOVLB  6
08D0E:  CLRF   x9B
08D10:  MOVLB  0
08D12:  CALL   2A0E
08D16:  MOVLW  01
08D18:  MOVLB  5
08D1A:  MOVWF  xBA
08D1C:  BSF    xAC.2
....................             write_eeprom(28,Vel1);delay_ms(20); 
08D1E:  CLRF   FAA
08D20:  MOVLW  1C
08D22:  MOVWF  FA9
08D24:  MOVFF  5B2,FA8
08D28:  BCF    FA6.6
08D2A:  BCF    FA6.7
08D2C:  BSF    FA6.2
08D2E:  MOVF   FF2,W
08D30:  MOVWF  00
08D32:  BCF    FF2.6
08D34:  BCF    FF2.7
08D36:  MOVLB  F
08D38:  MOVLW  55
08D3A:  MOVWF  FA7
08D3C:  MOVLW  AA
08D3E:  MOVWF  FA7
08D40:  BSF    FA6.1
08D42:  BTFSC  FA6.1
08D44:  BRA    8D42
08D46:  BCF    FA6.2
08D48:  MOVF   00,W
08D4A:  IORWF  FF2,F
08D4C:  MOVLW  14
08D4E:  MOVLB  6
08D50:  MOVWF  x9C
08D52:  MOVLB  0
08D54:  CALL   131C
08D58:  MOVLB  5
....................          } 
....................      } 
.................... //_-------------------------------------------------------------------------------------------------------------------------------------------------------- 
....................  
.................... //_-------------------------------------------------------------------------------------------------------------------------------------------------------- 
....................       if(Menu==20){ //Menu de Funcionamiento 
08D5A:  MOVF   xB3,W
08D5C:  SUBLW  14
08D5E:  BTFSS  FD8.2
08D60:  GOTO   99A4
....................        
....................       // Muestra imagen de fondo en Display GLCD 
....................       glcd_imagen(5); 
08D64:  MOVLW  05
08D66:  MOVLB  6
08D68:  MOVWF  x93
08D6A:  MOVLB  0
08D6C:  GOTO   5236
....................        
....................       if(UP && DOWN){ 
08D70:  BSF    F92.5
08D72:  BTFSC  F80.5
08D74:  BRA    8D8C
08D76:  BSF    F96.0
08D78:  BTFSC  F84.0
08D7A:  BRA    8D8C
....................          glcd_init(ON);flag_display=!flag_display; 
08D7C:  MOVLW  01
08D7E:  MOVLB  6
08D80:  MOVWF  x93
08D82:  MOVLB  0
08D84:  CALL   2B20
08D88:  MOVLB  5
08D8A:  BTG    xAD.4
....................       } 
....................       /* 
....................       if(UP){ 
....................          delay_ms(50); 
....................          if(UP){ 
....................             Buzzer_on; 
....................             delay_ms(50); 
....................             Buzzer_off; 
....................             Vel1++;  
....................             Ganancia=gananciaAnt*(Setpoint/150.0); 
....................             flagMotor=OFF; 
....................          } 
....................       } 
....................        
....................       if(DOWN){ 
....................          delay_ms(50); 
....................          if(DOWN){ 
....................             if(Vel1>0){ 
....................                Buzzer_on; 
....................                delay_ms(50); 
....................                Buzzer_off; 
....................                Vel1--; 
....................                Ganancia=gananciaAnt*(Setpoint/150.0); 
....................                flagMotor=OFF; 
....................             } 
....................          } 
....................       } 
....................       */ 
....................       if(Vel1>10)Vel1=10; 
08D8C:  MOVLB  5
08D8E:  MOVF   xB2,W
08D90:  SUBLW  0A
08D92:  BC    8D98
08D94:  MOVLW  0A
08D96:  MOVWF  xB2
....................        
....................       if(Temperatura>=Setpoint-0.5) 
08D98:  BSF    FD8.1
08D9A:  MOVFF  64B,6A2
08D9E:  MOVFF  64A,6A1
08DA2:  MOVFF  649,6A0
08DA6:  MOVFF  648,69F
08DAA:  MOVLB  6
08DAC:  CLRF   xA6
08DAE:  CLRF   xA5
08DB0:  CLRF   xA4
08DB2:  MOVLW  7E
08DB4:  MOVWF  xA3
08DB6:  MOVLB  0
08DB8:  CALL   151E
08DBC:  MOVFF  03,696
08DC0:  MOVFF  02,695
08DC4:  MOVFF  01,694
08DC8:  MOVFF  00,693
08DCC:  MOVFF  643,69A
08DD0:  MOVFF  642,699
08DD4:  MOVFF  641,698
08DD8:  MOVFF  640,697
08DDC:  CALL   1FE4
08DE0:  BC    8DE4
08DE2:  BNZ   8DEA
....................          flag_setpoint=1; 
08DE4:  MOVLB  5
08DE6:  BSF    xAD.5
08DE8:  MOVLB  0
....................       if(!TERM && !DOOR && !Finalizo){ 
08DEA:  BSF    F92.3
08DEC:  BTFSC  F80.3
08DEE:  BRA    8F8E
08DF0:  BSF    F92.4
08DF2:  BTFSC  F80.4
08DF4:  BRA    8F8E
08DF6:  MOVLB  5
08DF8:  BTFSS  xAD.6
08DFA:  BRA    8E00
08DFC:  MOVLB  0
08DFE:  BRA    8F8E
....................           
....................          if(!flagMotor && Vel1<=3){ 
08E00:  BTFSC  xA0.6
08E02:  BRA    8E2C
08E04:  MOVF   xB2,W
08E06:  SUBLW  03
08E08:  BNC   8E2C
....................             VelMotor=10; 
08E0A:  MOVLW  0A
08E0C:  MOVWF  xB1
....................             delay_ms(2000); 
08E0E:  MOVLW  08
08E10:  MOVLB  6
08E12:  MOVWF  x93
08E14:  MOVLW  FA
08E16:  MOVWF  x9C
08E18:  MOVLB  0
08E1A:  CALL   131C
08E1E:  MOVLB  6
08E20:  DECFSZ x93,F
08E22:  BRA    8E14
....................             VelMotor=Vel1; 
08E24:  MOVFF  5B2,5B1
....................             flagMotor=ON; 
08E28:  MOVLB  5
08E2A:  BSF    xA0.6
....................          } 
....................           
....................          VelMotor=Vel1; 
08E2C:  MOVFF  5B2,5B1
....................          if(Temperatura>=Setpoint-1.0){ 
08E30:  BSF    FD8.1
08E32:  MOVFF  64B,6A2
08E36:  MOVFF  64A,6A1
08E3A:  MOVFF  649,6A0
08E3E:  MOVFF  648,69F
08E42:  MOVLB  6
08E44:  CLRF   xA6
08E46:  CLRF   xA5
08E48:  CLRF   xA4
08E4A:  MOVLW  7F
08E4C:  MOVWF  xA3
08E4E:  MOVLB  0
08E50:  CALL   151E
08E54:  MOVFF  03,696
08E58:  MOVFF  02,695
08E5C:  MOVFF  01,694
08E60:  MOVFF  00,693
08E64:  MOVFF  643,69A
08E68:  MOVFF  642,699
08E6C:  MOVFF  641,698
08E70:  MOVFF  640,697
08E74:  CALL   1FE4
08E78:  BC    8E7C
08E7A:  BNZ   8F08
....................             glcd_rect(0, 55, 127, 63, YES, OFF); 
08E7C:  MOVLB  6
08E7E:  CLRF   xAC
08E80:  MOVLW  37
08E82:  MOVWF  xAD
08E84:  MOVLW  7F
08E86:  MOVWF  xAE
08E88:  MOVLW  3F
08E8A:  MOVWF  xAF
08E8C:  MOVLW  01
08E8E:  MOVWF  xB0
08E90:  CLRF   xB1
08E92:  MOVLB  0
08E94:  CALL   2F86
....................             strcpy(Menus.Letra,"Status:Controlando "); 
08E98:  MOVLW  06
08E9A:  MOVWF  FEA
08E9C:  MOVLW  73
08E9E:  MOVWF  FE9
08EA0:  MOVFF  FF2,693
08EA4:  BCF    FF2.6
08EA6:  BCF    FF2.7
08EA8:  MOVLW  00
08EAA:  CALL   0CC8
08EAE:  TBLRD*-
08EB0:  TBLRD*+
08EB2:  MOVF   FF5,W
08EB4:  MOVWF  FEE
08EB6:  IORLW  00
08EB8:  BNZ   8EB0
08EBA:  MOVLB  6
08EBC:  BTFSC  x93.6
08EBE:  BSF    FF2.6
08EC0:  BTFSC  x93.7
08EC2:  BSF    FF2.7
....................             displayMenu(Menus.Letra,0,55,2,1); 
08EC4:  MOVLW  06
08EC6:  MOVWF  x9C
08EC8:  MOVLW  73
08ECA:  MOVWF  x9B
08ECC:  CLRF   x9D
08ECE:  MOVLW  37
08ED0:  MOVWF  x9E
08ED2:  MOVLW  02
08ED4:  MOVWF  x9F
08ED6:  MOVLW  01
08ED8:  MOVWF  xA0
08EDA:  MOVLB  0
08EDC:  CALL   3048
....................             if(!Infinito) 
08EE0:  MOVLB  5
08EE2:  BTFSC  xAC.7
08EE4:  BRA    8EEA
....................                tiempo_esterilizacion=1; 
08EE6:  MOVLW  01
08EE8:  MOVWF  xBB
....................              
....................             if(VelMotor>5){ 
08EEA:  MOVF   xB1,W
08EEC:  SUBLW  05
08EEE:  BC    8EFA
....................                ControlaForzada(); 
08EF0:  MOVLB  0
08EF2:  CALL   535A
....................             }else{ 
08EF6:  BRA    8F00
08EF8:  MOVLB  5
....................                ControlaNatural(); 
08EFA:  MOVLB  0
08EFC:  CALL   5DC6
....................             } 
....................                 
....................             flag_tiempocalentamiento=0; 
08F00:  MOVLB  5
08F02:  BCF    xAD.3
....................          }else{ 
08F04:  BRA    8F90
08F06:  MOVLB  0
....................             flag_tiempocalentamiento=1; 
08F08:  MOVLB  5
08F0A:  BSF    xAD.3
....................             glcd_rect(0, 55, 127, 63, YES, OFF); 
08F0C:  MOVLB  6
08F0E:  CLRF   xAC
08F10:  MOVLW  37
08F12:  MOVWF  xAD
08F14:  MOVLW  7F
08F16:  MOVWF  xAE
08F18:  MOVLW  3F
08F1A:  MOVWF  xAF
08F1C:  MOVLW  01
08F1E:  MOVWF  xB0
08F20:  CLRF   xB1
08F22:  MOVLB  0
08F24:  CALL   2F86
....................             tiempo_esterilizacion=0; 
08F28:  MOVLB  5
08F2A:  CLRF   xBB
....................             strcpy(Menus.Letra,"Status:Calentando "); 
08F2C:  MOVLW  06
08F2E:  MOVWF  FEA
08F30:  MOVLW  73
08F32:  MOVWF  FE9
08F34:  MOVFF  FF2,693
08F38:  BCF    FF2.6
08F3A:  BCF    FF2.7
08F3C:  MOVLW  00
08F3E:  MOVLB  0
08F40:  CALL   0D00
08F44:  TBLRD*-
08F46:  TBLRD*+
08F48:  MOVF   FF5,W
08F4A:  MOVWF  FEE
08F4C:  IORLW  00
08F4E:  BNZ   8F46
08F50:  MOVLB  6
08F52:  BTFSC  x93.6
08F54:  BSF    FF2.6
08F56:  BTFSC  x93.7
08F58:  BSF    FF2.7
....................             displayMenu(Menus.Letra,0,55,2,1); 
08F5A:  MOVLW  06
08F5C:  MOVWF  x9C
08F5E:  MOVLW  73
08F60:  MOVWF  x9B
08F62:  CLRF   x9D
08F64:  MOVLW  37
08F66:  MOVWF  x9E
08F68:  MOVLW  02
08F6A:  MOVWF  x9F
08F6C:  MOVLW  01
08F6E:  MOVWF  xA0
08F70:  MOVLB  0
08F72:  CALL   3048
....................             if(VelMotor>5){ 
08F76:  MOVLB  5
08F78:  MOVF   xB1,W
08F7A:  SUBLW  05
08F7C:  BC    8F88
....................                ControlaForzada(); 
08F7E:  MOVLB  0
08F80:  CALL   535A
....................             }else{ 
08F84:  BRA    8F8E
08F86:  MOVLB  5
....................                ControlaNatural(); 
08F88:  MOVLB  0
08F8A:  CALL   5DC6
08F8E:  MOVLB  5
....................             } 
....................          } 
....................       } 
....................           
....................       if(DOOR){ 
08F90:  BSF    F92.4
08F92:  BTFSS  F80.4
08F94:  BRA    908A
....................          flag_controlando=0; 
08F96:  BCF    xA0.4
....................          TiempoControl=0; 
08F98:  CLRF   xD1
08F9A:  CLRF   xD0
....................          Controlando=0; 
08F9C:  CLRF   xA9
....................          VelMotor=0; 
08F9E:  CLRF   xB1
....................          Motor1_off; 
08FA0:  BCF    F8B.0
08FA2:  BCF    F94.0
....................          flagMotor=OFF; 
08FA4:  BCF    xA0.6
....................          flag_tiempocalentamiento=0; 
08FA6:  BCF    xAD.3
....................          if(flag_clear2==0){ 
08FA8:  BTFSC  xAD.1
08FAA:  BRA    9004
....................             Ganancia=gananciaAnt*(Setpoint/150); 
08FAC:  MOVFF  64B,697
08FB0:  MOVFF  64A,696
08FB4:  MOVFF  649,695
08FB8:  MOVFF  648,694
08FBC:  MOVLB  6
08FBE:  CLRF   x9B
08FC0:  CLRF   x9A
08FC2:  MOVLW  16
08FC4:  MOVWF  x99
08FC6:  MOVLW  86
08FC8:  MOVWF  x98
08FCA:  MOVLB  0
08FCC:  CALL   13C0
08FD0:  MOVFF  63B,6B6
08FD4:  MOVFF  63A,6B5
08FD8:  MOVFF  639,6B4
08FDC:  MOVFF  638,6B3
08FE0:  MOVFF  03,6BA
08FE4:  MOVFF  02,6B9
08FE8:  MOVFF  01,6B8
08FEC:  MOVFF  00,6B7
08FF0:  CALL   31BE
08FF4:  MOVFF  03,62F
08FF8:  MOVFF  02,62E
08FFC:  MOVFF  01,62D
09000:  MOVFF  00,62C
....................          } 
....................          glcd_rect(0, 55, 127, 63, YES, OFF); 
09004:  MOVLB  6
09006:  CLRF   xAC
09008:  MOVLW  37
0900A:  MOVWF  xAD
0900C:  MOVLW  7F
0900E:  MOVWF  xAE
09010:  MOVLW  3F
09012:  MOVWF  xAF
09014:  MOVLW  01
09016:  MOVWF  xB0
09018:  CLRF   xB1
0901A:  MOVLB  0
0901C:  CALL   2F86
....................          tiempo_esterilizacion=0; 
09020:  MOVLB  5
09022:  CLRF   xBB
....................          SSR_off; 
09024:  BCF    F8B.2
09026:  BCF    F94.2
....................          SSR2_off; 
09028:  BCF    F8B.1
0902A:  BCF    F94.1
....................          Tpulso=0.0; 
0902C:  MOVLB  6
0902E:  CLRF   x1B
09030:  CLRF   x1A
09032:  CLRF   x19
09034:  CLRF   x18
....................          flag_clear2=1; 
09036:  MOVLB  5
09038:  BSF    xAD.1
....................          flag_ganancia=0; 
0903A:  CLRF   xA7
....................          strcpy(Menus.Letra,"Status:Puerta Abierta"); 
0903C:  MOVLW  06
0903E:  MOVWF  FEA
09040:  MOVLW  73
09042:  MOVWF  FE9
09044:  MOVFF  FF2,693
09048:  BCF    FF2.6
0904A:  BCF    FF2.7
0904C:  MOVLW  00
0904E:  MOVLB  0
09050:  CALL   0D38
09054:  TBLRD*-
09056:  TBLRD*+
09058:  MOVF   FF5,W
0905A:  MOVWF  FEE
0905C:  IORLW  00
0905E:  BNZ   9056
09060:  MOVLB  6
09062:  BTFSC  x93.6
09064:  BSF    FF2.6
09066:  BTFSC  x93.7
09068:  BSF    FF2.7
....................          displayMenu(Menus.Letra,0,55,2,1); 
0906A:  MOVLW  06
0906C:  MOVWF  x9C
0906E:  MOVLW  73
09070:  MOVWF  x9B
09072:  CLRF   x9D
09074:  MOVLW  37
09076:  MOVWF  x9E
09078:  MOVLW  02
0907A:  MOVWF  x9F
0907C:  MOVLW  01
0907E:  MOVWF  xA0
09080:  MOVLB  0
09082:  CALL   3048
....................       }else{ 
09086:  BRA    90B4
09088:  MOVLB  5
....................          if(flag_clear2==1){ 
0908A:  BTFSS  xAD.1
0908C:  BRA    90AE
....................             glcd_rect(0, 55, 127, 63, YES, OFF); 
0908E:  MOVLB  6
09090:  CLRF   xAC
09092:  MOVLW  37
09094:  MOVWF  xAD
09096:  MOVLW  7F
09098:  MOVWF  xAE
0909A:  MOVLW  3F
0909C:  MOVWF  xAF
0909E:  MOVLW  01
090A0:  MOVWF  xB0
090A2:  CLRF   xB1
090A4:  MOVLB  0
090A6:  CALL   2F86
....................             flag_clear2=0; 
090AA:  MOVLB  5
090AC:  BCF    xAD.1
....................          } 
....................          tiempoApertura=0; 
090AE:  CLRF   xD3
090B0:  CLRF   xD2
090B2:  MOVLB  0
....................       } 
....................        
....................       if(TERM){ 
090B4:  BSF    F92.3
090B6:  BTFSS  F80.3
090B8:  BRA    91AE
....................          TiempoControl=0; 
090BA:  MOVLB  5
090BC:  CLRF   xD1
090BE:  CLRF   xD0
....................          Alarma=1; 
090C0:  BSF    xA0.1
....................          Controlando=0; 
090C2:  CLRF   xA9
....................          VelMotor=0; 
090C4:  CLRF   xB1
....................          Motor1_off; 
090C6:  BCF    F8B.0
090C8:  BCF    F94.0
....................          flagMotor=OFF; 
090CA:  BCF    xA0.6
....................          flag_tiempocalentamiento=0; 
090CC:  BCF    xAD.3
....................          if(flag_clear3==0){ 
090CE:  BTFSC  xAD.2
090D0:  BRA    910A
....................             glcd_rect(0, 55, 127, 63, YES, OFF); 
090D2:  MOVLB  6
090D4:  CLRF   xAC
090D6:  MOVLW  37
090D8:  MOVWF  xAD
090DA:  MOVLW  7F
090DC:  MOVWF  xAE
090DE:  MOVLW  3F
090E0:  MOVWF  xAF
090E2:  MOVLW  01
090E4:  MOVWF  xB0
090E6:  CLRF   xB1
090E8:  MOVLB  0
090EA:  CALL   2F86
....................             tiempo_esterilizacion=0; 
090EE:  MOVLB  5
090F0:  CLRF   xBB
....................             SSR_off; 
090F2:  BCF    F8B.2
090F4:  BCF    F94.2
....................             SSR2_off; 
090F6:  BCF    F8B.1
090F8:  BCF    F94.1
....................             Tpulso=0.0; 
090FA:  MOVLB  6
090FC:  CLRF   x1B
090FE:  CLRF   x1A
09100:  CLRF   x19
09102:  CLRF   x18
....................             flag_clear3=1; 
09104:  MOVLB  5
09106:  BSF    xAD.2
....................             flag_ganancia=0; 
09108:  CLRF   xA7
....................          } 
....................          strcpy(Menus.Letra,"Status:Alarma 01"); 
0910A:  MOVLW  06
0910C:  MOVWF  FEA
0910E:  MOVLW  73
09110:  MOVWF  FE9
09112:  MOVFF  FF2,693
09116:  BCF    FF2.6
09118:  BCF    FF2.7
0911A:  MOVLW  00
0911C:  MOVLB  0
0911E:  CALL   0D72
09122:  TBLRD*-
09124:  TBLRD*+
09126:  MOVF   FF5,W
09128:  MOVWF  FEE
0912A:  IORLW  00
0912C:  BNZ   9124
0912E:  MOVLB  6
09130:  BTFSC  x93.6
09132:  BSF    FF2.6
09134:  BTFSC  x93.7
09136:  BSF    FF2.7
....................          displayMenu(Menus.Letra,0,55,2,1);  
09138:  MOVLW  06
0913A:  MOVWF  x9C
0913C:  MOVLW  73
0913E:  MOVWF  x9B
09140:  CLRF   x9D
09142:  MOVLW  37
09144:  MOVWF  x9E
09146:  MOVLW  02
09148:  MOVWF  x9F
0914A:  MOVLW  01
0914C:  MOVWF  xA0
0914E:  MOVLB  0
09150:  CALL   3048
....................          Ganancia=gananciaAnt*(Setpoint/150); 
09154:  MOVFF  64B,697
09158:  MOVFF  64A,696
0915C:  MOVFF  649,695
09160:  MOVFF  648,694
09164:  MOVLB  6
09166:  CLRF   x9B
09168:  CLRF   x9A
0916A:  MOVLW  16
0916C:  MOVWF  x99
0916E:  MOVLW  86
09170:  MOVWF  x98
09172:  MOVLB  0
09174:  CALL   13C0
09178:  MOVFF  63B,6B6
0917C:  MOVFF  63A,6B5
09180:  MOVFF  639,6B4
09184:  MOVFF  638,6B3
09188:  MOVFF  03,6BA
0918C:  MOVFF  02,6B9
09190:  MOVFF  01,6B8
09194:  MOVFF  00,6B7
09198:  CALL   31BE
0919C:  MOVFF  03,62F
091A0:  MOVFF  02,62E
091A4:  MOVFF  01,62D
091A8:  MOVFF  00,62C
....................       }else{ 
091AC:  BRA    91D6
....................          Alarma=0; 
091AE:  MOVLB  5
091B0:  BCF    xA0.1
....................          if(flag_clear3==1){ 
091B2:  BTFSS  xAD.2
091B4:  BRA    91D6
....................             glcd_rect(0, 55, 127, 63, YES, OFF); 
091B6:  MOVLB  6
091B8:  CLRF   xAC
091BA:  MOVLW  37
091BC:  MOVWF  xAD
091BE:  MOVLW  7F
091C0:  MOVWF  xAE
091C2:  MOVLW  3F
091C4:  MOVWF  xAF
091C6:  MOVLW  01
091C8:  MOVWF  xB0
091CA:  CLRF   xB1
091CC:  MOVLB  0
091CE:  CALL   2F86
....................             flag_clear3=0; 
091D2:  MOVLB  5
091D4:  BCF    xAD.2
....................          } 
....................       }    
....................          
....................       if(Lectura==1){  
091D6:  MOVLB  5
091D8:  BTFSS  xAC.3
091DA:  BRA    97E4
....................          if(Alarma) 
091DC:  BTFSS  xA0.1
091DE:  BRA    91E6
....................             output_toggle(PIN_C7); 
091E0:  BCF    F94.7
091E2:  BTG    F8B.7
....................          else 
091E4:  BRA    91EA
....................             output_bit(PIN_C7,0); 
091E6:  BCF    F8B.7
091E8:  BCF    F94.7
....................          Lectura=0; 
091EA:  BCF    xAC.3
....................          Potencia=(100.0/Tciclo)*Tpulso; 
091EC:  MOVLB  6
091EE:  CLRF   x97
091F0:  CLRF   x96
091F2:  MOVLW  48
091F4:  MOVWF  x95
091F6:  MOVLW  85
091F8:  MOVWF  x94
091FA:  MOVFF  617,69B
091FE:  MOVFF  616,69A
09202:  MOVFF  615,699
09206:  MOVFF  614,698
0920A:  MOVLB  0
0920C:  CALL   13C0
09210:  MOVFF  00,693
09214:  MOVFF  01,694
09218:  MOVFF  02,695
0921C:  MOVFF  03,696
09220:  MOVFF  03,6B6
09224:  MOVFF  02,6B5
09228:  MOVFF  01,6B4
0922C:  MOVFF  00,6B3
09230:  MOVFF  61B,6BA
09234:  MOVFF  61A,6B9
09238:  MOVFF  619,6B8
0923C:  MOVFF  618,6B7
09240:  CALL   31BE
09244:  MOVFF  03,5DB
09248:  MOVFF  02,5DA
0924C:  MOVFF  01,5D9
09250:  MOVFF  00,5D8
....................           
....................  //----------------Muestra Temperatura-------------------------- 
....................             if((Pt<100 || Pt>230)){ 
09254:  MOVFF  613,696
09258:  MOVFF  612,695
0925C:  MOVFF  611,694
09260:  MOVFF  610,693
09264:  MOVLB  6
09266:  CLRF   x9A
09268:  CLRF   x99
0926A:  MOVLW  48
0926C:  MOVWF  x98
0926E:  MOVLW  85
09270:  MOVWF  x97
09272:  MOVLB  0
09274:  CALL   1FE4
09278:  BC    92A0
0927A:  MOVLB  6
0927C:  CLRF   x96
0927E:  CLRF   x95
09280:  MOVLW  66
09282:  MOVWF  x94
09284:  MOVLW  86
09286:  MOVWF  x93
09288:  MOVFF  613,69A
0928C:  MOVFF  612,699
09290:  MOVFF  611,698
09294:  MOVFF  610,697
09298:  MOVLB  0
0929A:  CALL   1FE4
0929E:  BNC   930E
....................                glcd_rect(15, 29, 69, 45, YES, OFF); 
092A0:  MOVLW  0F
092A2:  MOVLB  6
092A4:  MOVWF  xAC
092A6:  MOVLW  1D
092A8:  MOVWF  xAD
092AA:  MOVLW  45
092AC:  MOVWF  xAE
092AE:  MOVLW  2D
092B0:  MOVWF  xAF
092B2:  MOVLW  01
092B4:  MOVWF  xB0
092B6:  CLRF   xB1
092B8:  MOVLB  0
092BA:  CALL   2F86
....................                strcpy(Menus.Letra,"-----");displayMenu(Menus.Letra,15,29,2,2); 
092BE:  MOVLW  06
092C0:  MOVWF  FEA
092C2:  MOVLW  73
092C4:  MOVWF  FE9
092C6:  MOVFF  FF2,693
092CA:  BCF    FF2.6
092CC:  BCF    FF2.7
092CE:  MOVLW  00
092D0:  CALL   0DA8
092D4:  TBLRD*-
092D6:  TBLRD*+
092D8:  MOVF   FF5,W
092DA:  MOVWF  FEE
092DC:  IORLW  00
092DE:  BNZ   92D6
092E0:  MOVLB  6
092E2:  BTFSC  x93.6
092E4:  BSF    FF2.6
092E6:  BTFSC  x93.7
092E8:  BSF    FF2.7
092EA:  MOVLW  06
092EC:  MOVWF  x9C
092EE:  MOVLW  73
092F0:  MOVWF  x9B
092F2:  MOVLW  0F
092F4:  MOVWF  x9D
092F6:  MOVLW  1D
092F8:  MOVWF  x9E
092FA:  MOVLW  02
092FC:  MOVWF  x9F
092FE:  MOVWF  xA0
09300:  MOVLB  0
09302:  CALL   3048
....................                Desconectado=1; 
09306:  MOVLB  5
09308:  BSF    xA0.0
....................             }else{ 
0930A:  BRA    937C
0930C:  MOVLB  0
....................                if(Desconectado==1){ 
0930E:  MOVLB  5
09310:  BTFSS  xA0.0
09312:  BRA    9358
....................                   Desconectado=0; 
09314:  BCF    xA0.0
....................                   delay_ms(2000); 
09316:  MOVLW  08
09318:  MOVLB  6
0931A:  MOVWF  x93
0931C:  MOVLW  FA
0931E:  MOVWF  x9C
09320:  MOVLB  0
09322:  CALL   131C
09326:  MOVLB  6
09328:  DECFSZ x93,F
0932A:  BRA    931C
....................                   for(i=0;i<80;i++){ 
0932C:  MOVLB  5
0932E:  CLRF   xB5
09330:  MOVF   xB5,W
09332:  SUBLW  4F
09334:  BNC   9358
....................                      Temperatura=Leer_Sensor(80); 
09336:  MOVLW  50
09338:  MOVLB  6
0933A:  MOVWF  x93
0933C:  MOVLB  0
0933E:  CALL   32B4
09342:  MOVFF  03,643
09346:  MOVFF  02,642
0934A:  MOVFF  01,641
0934E:  MOVFF  00,640
....................                   } 
09352:  MOVLB  5
09354:  INCF   xB5,F
09356:  BRA    9330
....................                } 
....................                displayT(Temperatura,15,29,2); 
09358:  MOVFF  643,696
0935C:  MOVFF  642,695
09360:  MOVFF  641,694
09364:  MOVFF  640,693
09368:  MOVLW  0F
0936A:  MOVLB  6
0936C:  MOVWF  x97
0936E:  MOVLW  1D
09370:  MOVWF  x98
09372:  MOVLW  02
09374:  MOVWF  x99
09376:  MOVLB  0
09378:  CALL   6B76
....................             } 
....................          glcd_circle(74,30,2,NO,ON); 
0937C:  MOVLW  4A
0937E:  MOVLB  6
09380:  MOVWF  xA8
09382:  MOVLW  1E
09384:  MOVWF  xA9
09386:  MOVLW  02
09388:  MOVWF  xAA
0938A:  CLRF   xAB
0938C:  MOVLW  01
0938E:  MOVWF  xAC
09390:  MOVLB  0
09392:  CALL   463E
....................          strcpy(Menus.Letra,"C");displayMenu(Menus.Letra,75,30,2,2); 
09396:  MOVLW  06
09398:  MOVWF  FEA
0939A:  MOVLW  73
0939C:  MOVWF  FE9
0939E:  MOVFF  FF2,693
093A2:  BCF    FF2.6
093A4:  BCF    FF2.7
093A6:  MOVLW  00
093A8:  CALL   0796
093AC:  TBLRD*-
093AE:  TBLRD*+
093B0:  MOVF   FF5,W
093B2:  MOVWF  FEE
093B4:  IORLW  00
093B6:  BNZ   93AE
093B8:  MOVLB  6
093BA:  BTFSC  x93.6
093BC:  BSF    FF2.6
093BE:  BTFSC  x93.7
093C0:  BSF    FF2.7
093C2:  MOVLW  06
093C4:  MOVWF  x9C
093C6:  MOVLW  73
093C8:  MOVWF  x9B
093CA:  MOVLW  4B
093CC:  MOVWF  x9D
093CE:  MOVLW  1E
093D0:  MOVWF  x9E
093D2:  MOVLW  02
093D4:  MOVWF  x9F
093D6:  MOVWF  xA0
093D8:  MOVLB  0
093DA:  CALL   3048
....................           
....................          displayT(Setpoint,30,46,1); 
093DE:  MOVFF  64B,696
093E2:  MOVFF  64A,695
093E6:  MOVFF  649,694
093EA:  MOVFF  648,693
093EE:  MOVLW  1E
093F0:  MOVLB  6
093F2:  MOVWF  x97
093F4:  MOVLW  2E
093F6:  MOVWF  x98
093F8:  MOVLW  01
093FA:  MOVWF  x99
093FC:  MOVLB  0
093FE:  CALL   6B76
....................          //displayT(TiempoControl,30,46,1); 
....................          glcd_circle(65,47,1,NO,ON); 
09402:  MOVLW  41
09404:  MOVLB  6
09406:  MOVWF  xA8
09408:  MOVLW  2F
0940A:  MOVWF  xA9
0940C:  MOVLW  01
0940E:  MOVWF  xAA
09410:  CLRF   xAB
09412:  MOVWF  xAC
09414:  MOVLB  0
09416:  CALL   463E
....................          strcpy(Menus.Letra,"C");displayMenu(Menus.Letra,68,45,2,1); 
0941A:  MOVLW  06
0941C:  MOVWF  FEA
0941E:  MOVLW  73
09420:  MOVWF  FE9
09422:  MOVFF  FF2,693
09426:  BCF    FF2.6
09428:  BCF    FF2.7
0942A:  MOVLW  00
0942C:  CALL   0796
09430:  TBLRD*-
09432:  TBLRD*+
09434:  MOVF   FF5,W
09436:  MOVWF  FEE
09438:  IORLW  00
0943A:  BNZ   9432
0943C:  MOVLB  6
0943E:  BTFSC  x93.6
09440:  BSF    FF2.6
09442:  BTFSC  x93.7
09444:  BSF    FF2.7
09446:  MOVLW  06
09448:  MOVWF  x9C
0944A:  MOVLW  73
0944C:  MOVWF  x9B
0944E:  MOVLW  44
09450:  MOVWF  x9D
09452:  MOVLW  2D
09454:  MOVWF  x9E
09456:  MOVLW  02
09458:  MOVWF  x9F
0945A:  MOVLW  01
0945C:  MOVWF  xA0
0945E:  MOVLB  0
09460:  CALL   3048
....................          strcpy(Menus.Letra,"Temp:");displayMenu(Menus.Letra,0,45,2,1);  
09464:  MOVLW  06
09466:  MOVWF  FEA
09468:  MOVLW  73
0946A:  MOVWF  FE9
0946C:  MOVFF  FF2,693
09470:  BCF    FF2.6
09472:  BCF    FF2.7
09474:  MOVLW  00
09476:  CALL   0DD2
0947A:  TBLRD*-
0947C:  TBLRD*+
0947E:  MOVF   FF5,W
09480:  MOVWF  FEE
09482:  IORLW  00
09484:  BNZ   947C
09486:  MOVLB  6
09488:  BTFSC  x93.6
0948A:  BSF    FF2.6
0948C:  BTFSC  x93.7
0948E:  BSF    FF2.7
09490:  MOVLW  06
09492:  MOVWF  x9C
09494:  MOVLW  73
09496:  MOVWF  x9B
09498:  CLRF   x9D
0949A:  MOVLW  2D
0949C:  MOVWF  x9E
0949E:  MOVLW  02
094A0:  MOVWF  x9F
094A2:  MOVLW  01
094A4:  MOVWF  xA0
094A6:  MOVLB  0
094A8:  CALL   3048
....................           
....................          displayTiempo(Potencia,97,42,3,1);strcpy(Menus.Letra,"%");displayMenu(Menus.Letra,115,42,2,1); 
094AC:  MOVFF  5DB,6A2
094B0:  MOVFF  5DA,6A1
094B4:  MOVFF  5D9,6A0
094B8:  MOVFF  5D8,69F
094BC:  CALL   3854
094C0:  MOVFF  01,693
094C4:  MOVFF  01,694
094C8:  MOVLW  61
094CA:  MOVLB  6
094CC:  MOVWF  x95
094CE:  MOVLW  2A
094D0:  MOVWF  x96
094D2:  MOVLW  03
094D4:  MOVWF  x97
094D6:  MOVLW  01
094D8:  MOVWF  x98
094DA:  MOVLB  0
094DC:  CALL   5070
094E0:  MOVLW  06
094E2:  MOVWF  FEA
094E4:  MOVLW  73
094E6:  MOVWF  FE9
094E8:  MOVFF  FF2,693
094EC:  BCF    FF2.6
094EE:  BCF    FF2.7
094F0:  MOVLW  00
094F2:  CALL   0CA2
094F6:  TBLRD*-
094F8:  TBLRD*+
094FA:  MOVF   FF5,W
094FC:  MOVWF  FEE
094FE:  IORLW  00
09500:  BNZ   94F8
09502:  MOVLB  6
09504:  BTFSC  x93.6
09506:  BSF    FF2.6
09508:  BTFSC  x93.7
0950A:  BSF    FF2.7
0950C:  MOVLW  06
0950E:  MOVWF  x9C
09510:  MOVLW  73
09512:  MOVWF  x9B
09514:  MOVWF  x9D
09516:  MOVLW  2A
09518:  MOVWF  x9E
0951A:  MOVLW  02
0951C:  MOVWF  x9F
0951E:  MOVLW  01
09520:  MOVWF  xA0
09522:  MOVLB  0
09524:  CALL   3048
....................           
....................          
....................          if(flag_display==1){ 
09528:  MOVLB  5
0952A:  BTFSS  xAD.4
0952C:  BRA    9556
....................             displayT(Ganancia,97,13,1); 
0952E:  MOVFF  62F,696
09532:  MOVFF  62E,695
09536:  MOVFF  62D,694
0953A:  MOVFF  62C,693
0953E:  MOVLW  61
09540:  MOVLB  6
09542:  MOVWF  x97
09544:  MOVLW  0D
09546:  MOVWF  x98
09548:  MOVLW  01
0954A:  MOVWF  x99
0954C:  MOVLB  0
0954E:  CALL   6B76
....................          }else{ 
09552:  BRA    95C2
09554:  MOVLB  5
....................             displayTiempo(VelMotor*10,97,13,3,1); 
09556:  MOVF   xB1,W
09558:  MULLW  0A
0955A:  MOVFF  FF3,693
0955E:  MOVLB  6
09560:  MOVFF  693,694
09564:  MOVLW  61
09566:  MOVWF  x95
09568:  MOVLW  0D
0956A:  MOVWF  x96
0956C:  MOVLW  03
0956E:  MOVWF  x97
09570:  MOVLW  01
09572:  MOVWF  x98
09574:  MOVLB  0
09576:  CALL   5070
....................             strcpy(Menus.Letra,"%");displayMenu(Menus.Letra,115,13,2,1); 
0957A:  MOVLW  06
0957C:  MOVWF  FEA
0957E:  MOVLW  73
09580:  MOVWF  FE9
09582:  MOVFF  FF2,693
09586:  BCF    FF2.6
09588:  BCF    FF2.7
0958A:  MOVLW  00
0958C:  CALL   0CA2
09590:  TBLRD*-
09592:  TBLRD*+
09594:  MOVF   FF5,W
09596:  MOVWF  FEE
09598:  IORLW  00
0959A:  BNZ   9592
0959C:  MOVLB  6
0959E:  BTFSC  x93.6
095A0:  BSF    FF2.6
095A2:  BTFSC  x93.7
095A4:  BSF    FF2.7
095A6:  MOVLW  06
095A8:  MOVWF  x9C
095AA:  MOVLW  73
095AC:  MOVWF  x9B
095AE:  MOVWF  x9D
095B0:  MOVLW  0D
095B2:  MOVWF  x9E
095B4:  MOVLW  02
095B6:  MOVWF  x9F
095B8:  MOVLW  01
095BA:  MOVWF  xA0
095BC:  MOVLB  0
095BE:  CALL   3048
....................          } 
....................           
....................          // Muestra Valor de esterilizacion Programado. 
....................          displayTiempo(Testerilizacion[3],20,2,0,2);displayTiempo(Testerilizacion[2],33,2,0,2); 
095C2:  MOVFF  5FB,694
095C6:  MOVLW  14
095C8:  MOVLB  6
095CA:  MOVWF  x95
095CC:  MOVLW  02
095CE:  MOVWF  x96
095D0:  CLRF   x97
095D2:  MOVWF  x98
095D4:  MOVLB  0
095D6:  CALL   5070
095DA:  MOVFF  5FA,694
095DE:  MOVLW  21
095E0:  MOVLB  6
095E2:  MOVWF  x95
095E4:  MOVLW  02
095E6:  MOVWF  x96
095E8:  CLRF   x97
095EA:  MOVWF  x98
095EC:  MOVLB  0
095EE:  CALL   5070
....................          strcpy(Menus.Letra,":");displayMenu(Menus.Letra,46,2,2,2);  
095F2:  MOVLW  06
095F4:  MOVWF  FEA
095F6:  MOVLW  73
095F8:  MOVWF  FE9
095FA:  MOVFF  FF2,693
095FE:  BCF    FF2.6
09600:  BCF    FF2.7
09602:  MOVLW  00
09604:  CALL   0C4E
09608:  TBLRD*-
0960A:  TBLRD*+
0960C:  MOVF   FF5,W
0960E:  MOVWF  FEE
09610:  IORLW  00
09612:  BNZ   960A
09614:  MOVLB  6
09616:  BTFSC  x93.6
09618:  BSF    FF2.6
0961A:  BTFSC  x93.7
0961C:  BSF    FF2.7
0961E:  MOVLW  06
09620:  MOVWF  x9C
09622:  MOVLW  73
09624:  MOVWF  x9B
09626:  MOVLW  2E
09628:  MOVWF  x9D
0962A:  MOVLW  02
0962C:  MOVWF  x9E
0962E:  MOVWF  x9F
09630:  MOVWF  xA0
09632:  MOVLB  0
09634:  CALL   3048
....................          displayTiempo(Testerilizacion[1],55,2,0,2);displayTiempo(Testerilizacion[0],68,2,0,2); 
09638:  MOVFF  5F9,694
0963C:  MOVLW  37
0963E:  MOVLB  6
09640:  MOVWF  x95
09642:  MOVLW  02
09644:  MOVWF  x96
09646:  CLRF   x97
09648:  MOVWF  x98
0964A:  MOVLB  0
0964C:  CALL   5070
09650:  MOVFF  5F8,694
09654:  MOVLW  44
09656:  MOVLB  6
09658:  MOVWF  x95
0965A:  MOVLW  02
0965C:  MOVWF  x96
0965E:  CLRF   x97
09660:  MOVWF  x98
09662:  MOVLB  0
09664:  CALL   5070
....................           
....................          // Muestra Valor de esterilizacion actual. 
....................          strcpy(Menus.Letra,"Time:");displayMenu(Menus.Letra,0,18,2,1);  
09668:  MOVLW  06
0966A:  MOVWF  FEA
0966C:  MOVLW  73
0966E:  MOVWF  FE9
09670:  MOVFF  FF2,693
09674:  BCF    FF2.6
09676:  BCF    FF2.7
09678:  MOVLW  00
0967A:  CALL   0DFC
0967E:  TBLRD*-
09680:  TBLRD*+
09682:  MOVF   FF5,W
09684:  MOVWF  FEE
09686:  IORLW  00
09688:  BNZ   9680
0968A:  MOVLB  6
0968C:  BTFSC  x93.6
0968E:  BSF    FF2.6
09690:  BTFSC  x93.7
09692:  BSF    FF2.7
09694:  MOVLW  06
09696:  MOVWF  x9C
09698:  MOVLW  73
0969A:  MOVWF  x9B
0969C:  CLRF   x9D
0969E:  MOVLW  12
096A0:  MOVWF  x9E
096A2:  MOVLW  02
096A4:  MOVWF  x9F
096A6:  MOVLW  01
096A8:  MOVWF  xA0
096AA:  MOVLB  0
096AC:  CALL   3048
....................          displayTiempo(Testerilizacionp[3],30,18,0,1);displayTiempo(Testerilizacionp[2],36,18,0,1); 
096B0:  MOVFF  5FF,694
096B4:  MOVLW  1E
096B6:  MOVLB  6
096B8:  MOVWF  x95
096BA:  MOVLW  12
096BC:  MOVWF  x96
096BE:  CLRF   x97
096C0:  MOVLW  01
096C2:  MOVWF  x98
096C4:  MOVLB  0
096C6:  CALL   5070
096CA:  MOVFF  5FE,694
096CE:  MOVLW  24
096D0:  MOVLB  6
096D2:  MOVWF  x95
096D4:  MOVLW  12
096D6:  MOVWF  x96
096D8:  CLRF   x97
096DA:  MOVLW  01
096DC:  MOVWF  x98
096DE:  MOVLB  0
096E0:  CALL   5070
....................          strcpy(Menus.Letra,":");displayMenu(Menus.Letra,42,18,2,1);  
096E4:  MOVLW  06
096E6:  MOVWF  FEA
096E8:  MOVLW  73
096EA:  MOVWF  FE9
096EC:  MOVFF  FF2,693
096F0:  BCF    FF2.6
096F2:  BCF    FF2.7
096F4:  MOVLW  00
096F6:  CALL   0C4E
096FA:  TBLRD*-
096FC:  TBLRD*+
096FE:  MOVF   FF5,W
09700:  MOVWF  FEE
09702:  IORLW  00
09704:  BNZ   96FC
09706:  MOVLB  6
09708:  BTFSC  x93.6
0970A:  BSF    FF2.6
0970C:  BTFSC  x93.7
0970E:  BSF    FF2.7
09710:  MOVLW  06
09712:  MOVWF  x9C
09714:  MOVLW  73
09716:  MOVWF  x9B
09718:  MOVLW  2A
0971A:  MOVWF  x9D
0971C:  MOVLW  12
0971E:  MOVWF  x9E
09720:  MOVLW  02
09722:  MOVWF  x9F
09724:  MOVLW  01
09726:  MOVWF  xA0
09728:  MOVLB  0
0972A:  CALL   3048
....................          displayTiempo(Testerilizacionp[1],48,18,0,1);displayTiempo(Testerilizacionp[0],54,18,0,1); 
0972E:  MOVFF  5FD,694
09732:  MOVLW  30
09734:  MOVLB  6
09736:  MOVWF  x95
09738:  MOVLW  12
0973A:  MOVWF  x96
0973C:  CLRF   x97
0973E:  MOVLW  01
09740:  MOVWF  x98
09742:  MOVLB  0
09744:  CALL   5070
09748:  MOVFF  5FC,694
0974C:  MOVLW  36
0974E:  MOVLB  6
09750:  MOVWF  x95
09752:  MOVLW  12
09754:  MOVWF  x96
09756:  CLRF   x97
09758:  MOVLW  01
0975A:  MOVWF  x98
0975C:  MOVLB  0
0975E:  CALL   5070
....................          strcpy(Menus.Letra,"(H:M)");displayMenu(Menus.Letra,60,18,2,1);  
09762:  MOVLW  06
09764:  MOVWF  FEA
09766:  MOVLW  73
09768:  MOVWF  FE9
0976A:  MOVFF  FF2,693
0976E:  BCF    FF2.6
09770:  BCF    FF2.7
09772:  MOVLW  00
09774:  CALL   0E26
09778:  TBLRD*-
0977A:  TBLRD*+
0977C:  MOVF   FF5,W
0977E:  MOVWF  FEE
09780:  IORLW  00
09782:  BNZ   977A
09784:  MOVLB  6
09786:  BTFSC  x93.6
09788:  BSF    FF2.6
0978A:  BTFSC  x93.7
0978C:  BSF    FF2.7
0978E:  MOVLW  06
09790:  MOVWF  x9C
09792:  MOVLW  73
09794:  MOVWF  x9B
09796:  MOVLW  3C
09798:  MOVWF  x9D
0979A:  MOVLW  12
0979C:  MOVWF  x9E
0979E:  MOVLW  02
097A0:  MOVWF  x9F
097A2:  MOVLW  01
097A4:  MOVWF  xA0
097A6:  MOVLB  0
097A8:  CALL   3048
....................           
....................          glcd_rect(0, 0, 89, 27, NO, ON); 
097AC:  MOVLB  6
097AE:  CLRF   xAC
097B0:  CLRF   xAD
097B2:  MOVLW  59
097B4:  MOVWF  xAE
097B6:  MOVLW  1B
097B8:  MOVWF  xAF
097BA:  CLRF   xB0
097BC:  MOVLW  01
097BE:  MOVWF  xB1
097C0:  MOVLB  0
097C2:  CALL   2F86
....................          glcd_rect(0, 27, 89, 54, NO, ON); 
097C6:  MOVLB  6
097C8:  CLRF   xAC
097CA:  MOVLW  1B
097CC:  MOVWF  xAD
097CE:  MOVLW  59
097D0:  MOVWF  xAE
097D2:  MOVLW  36
097D4:  MOVWF  xAF
097D6:  CLRF   xB0
097D8:  MOVLW  01
097DA:  MOVWF  xB1
097DC:  MOVLB  0
097DE:  CALL   2F86
097E2:  MOVLB  5
....................       }  
....................        
....................       // Si cumplio el tiempo de esterilizacin, Muestre ciclo finalizado y detenga control de temperatura. 
....................       if((Testerilizacionp[0]>0)||(Testerilizacionp[1]>0)||(Testerilizacionp[2]>0)||(Testerilizacionp[3]>0)){ 
097E4:  BTFSC  xFC.7
097E6:  BRA    97EE
097E8:  MOVF   xFC,W
097EA:  SUBLW  00
097EC:  BNC   980E
097EE:  BTFSC  xFD.7
097F0:  BRA    97F8
097F2:  MOVF   xFD,W
097F4:  SUBLW  00
097F6:  BNC   980E
097F8:  BTFSC  xFE.7
097FA:  BRA    9802
097FC:  MOVF   xFE,W
097FE:  SUBLW  00
09800:  BNC   980E
09802:  BTFSC  xFF.7
09804:  BRA    9932
09806:  MOVF   xFF,W
09808:  SUBLW  00
0980A:  BTFSC  FD8.0
0980C:  BRA    9932
....................          if((Testerilizacion[0]>=Testerilizacionp[0])&&(Testerilizacion[1]>=Testerilizacionp[1])&&(Testerilizacion[2]>=Testerilizacionp[2])&&(Testerilizacion[3]>=Testerilizacionp[3]) && tiempo_esterilizacion==1){ 
0980E:  MOVF   xFC,W
09810:  XORLW  80
09812:  MOVWF  00
09814:  MOVF   xF8,W
09816:  XORLW  80
09818:  SUBWF  00,W
0981A:  BZ    9820
0981C:  BTFSC  FD8.0
0981E:  BRA    9932
09820:  MOVF   xFD,W
09822:  XORLW  80
09824:  MOVWF  00
09826:  MOVF   xF9,W
09828:  XORLW  80
0982A:  SUBWF  00,W
0982C:  BZ    9832
0982E:  BTFSC  FD8.0
09830:  BRA    9932
09832:  MOVF   xFE,W
09834:  XORLW  80
09836:  MOVWF  00
09838:  MOVF   xFA,W
0983A:  XORLW  80
0983C:  SUBWF  00,W
0983E:  BZ    9844
09840:  BTFSC  FD8.0
09842:  BRA    9932
09844:  MOVF   xFF,W
09846:  XORLW  80
09848:  MOVWF  00
0984A:  MOVF   xFB,W
0984C:  XORLW  80
0984E:  SUBWF  00,W
09850:  BZ    9854
09852:  BC    9932
09854:  DECFSZ xBB,W
09856:  BRA    9932
....................             if(flag_clear==0){ 
09858:  BTFSC  xAC.6
0985A:  BRA    9932
....................                glcd_fillScreen(OFF); 
0985C:  MOVLB  6
0985E:  CLRF   x9B
09860:  MOVLB  0
09862:  CALL   2A0E
....................                glcd_rect(0, 55, 127, 63, YES, OFF); 
09866:  MOVLB  6
09868:  CLRF   xAC
0986A:  MOVLW  37
0986C:  MOVWF  xAD
0986E:  MOVLW  7F
09870:  MOVWF  xAE
09872:  MOVLW  3F
09874:  MOVWF  xAF
09876:  MOVLW  01
09878:  MOVWF  xB0
0987A:  CLRF   xB1
0987C:  MOVLB  0
0987E:  CALL   2F86
....................                strcpy(Menus.Letra,"Status:Finalizado"); 
09882:  MOVLW  06
09884:  MOVWF  FEA
09886:  MOVLW  73
09888:  MOVWF  FE9
0988A:  MOVFF  FF2,693
0988E:  BCF    FF2.6
09890:  BCF    FF2.7
09892:  MOVLW  00
09894:  CALL   0E50
09898:  TBLRD*-
0989A:  TBLRD*+
0989C:  MOVF   FF5,W
0989E:  MOVWF  FEE
098A0:  IORLW  00
098A2:  BNZ   989A
098A4:  MOVLB  6
098A6:  BTFSC  x93.6
098A8:  BSF    FF2.6
098AA:  BTFSC  x93.7
098AC:  BSF    FF2.7
....................                displayMenu(Menus.Letra,0,55,2,1); 
098AE:  MOVLW  06
098B0:  MOVWF  x9C
098B2:  MOVLW  73
098B4:  MOVWF  x9B
098B6:  CLRF   x9D
098B8:  MOVLW  37
098BA:  MOVWF  x9E
098BC:  MOVLW  02
098BE:  MOVWF  x9F
098C0:  MOVLW  01
098C2:  MOVWF  xA0
098C4:  MOVLB  0
098C6:  CALL   3048
....................                tiempo_esterilizacion=0; 
098CA:  MOVLB  5
098CC:  CLRF   xBB
....................                Pausa=2; 
098CE:  MOVLW  02
098D0:  MOVWF  xB6
....................                flag_clear=1; 
098D2:  BSF    xAC.6
....................                SSR_off; 
098D4:  BCF    F8B.2
098D6:  BCF    F94.2
....................                SSR2_off; 
098D8:  BCF    F8B.1
098DA:  BCF    F94.1
....................                Motor1_off; 
098DC:  BCF    F8B.0
098DE:  BCF    F94.0
....................                Controlando=0; 
098E0:  CLRF   xA9
....................                Tpulso=0.0; 
098E2:  MOVLB  6
098E4:  CLRF   x1B
098E6:  CLRF   x1A
098E8:  CLRF   x19
098EA:  CLRF   x18
....................                flag_ganancia=0; 
098EC:  MOVLB  5
098EE:  CLRF   xA7
....................                Finalizo=1; 
098F0:  BSF    xAD.6
....................                for(i=0;i<10;i++){ 
098F2:  CLRF   xB5
098F4:  MOVF   xB5,W
098F6:  SUBLW  09
098F8:  BNC   9932
....................                   output_bit(PIN_C7,1); 
098FA:  BSF    F8B.7
098FC:  BCF    F94.7
....................                   delay_ms(800); 
098FE:  MOVLW  04
09900:  MOVLB  6
09902:  MOVWF  x93
09904:  MOVLW  C8
09906:  MOVWF  x9C
09908:  MOVLB  0
0990A:  CALL   131C
0990E:  MOVLB  6
09910:  DECFSZ x93,F
09912:  BRA    9904
....................                   output_bit(PIN_C7,0); 
09914:  BCF    F8B.7
09916:  BCF    F94.7
....................                   delay_ms(800); 
09918:  MOVLW  04
0991A:  MOVWF  x93
0991C:  MOVLW  C8
0991E:  MOVWF  x9C
09920:  MOVLB  0
09922:  CALL   131C
09926:  MOVLB  6
09928:  DECFSZ x93,F
0992A:  BRA    991C
....................                } 
0992C:  MOVLB  5
0992E:  INCF   xB5,F
09930:  BRA    98F4
....................             } 
....................          } 
....................       } 
....................         
....................       if(Finalizo){ 
09932:  BTFSS  xAD.6
09934:  BRA    999C
....................          strcpy(Menus.Letra,"Status:Finalizado"); 
09936:  MOVLW  06
09938:  MOVWF  FEA
0993A:  MOVLW  73
0993C:  MOVWF  FE9
0993E:  MOVFF  FF2,693
09942:  BCF    FF2.6
09944:  BCF    FF2.7
09946:  MOVLW  00
09948:  MOVLB  0
0994A:  CALL   0E50
0994E:  TBLRD*-
09950:  TBLRD*+
09952:  MOVF   FF5,W
09954:  MOVWF  FEE
09956:  IORLW  00
09958:  BNZ   9950
0995A:  MOVLB  6
0995C:  BTFSC  x93.6
0995E:  BSF    FF2.6
09960:  BTFSC  x93.7
09962:  BSF    FF2.7
....................          displayMenu(Menus.Letra,0,55,2,1); 
09964:  MOVLW  06
09966:  MOVWF  x9C
09968:  MOVLW  73
0996A:  MOVWF  x9B
0996C:  CLRF   x9D
0996E:  MOVLW  37
09970:  MOVWF  x9E
09972:  MOVLW  02
09974:  MOVWF  x9F
09976:  MOVLW  01
09978:  MOVWF  xA0
0997A:  MOVLB  0
0997C:  CALL   3048
....................          SSR_off; 
09980:  BCF    F8B.2
09982:  BCF    F94.2
....................          SSR2_off; 
09984:  BCF    F8B.1
09986:  BCF    F94.1
....................          VelMotor=0; 
09988:  MOVLB  5
0998A:  CLRF   xB1
....................          Controlando=0; 
0998C:  CLRF   xA9
....................          Tpulso=0.0; 
0998E:  MOVLB  6
09990:  CLRF   x1B
09992:  CLRF   x1A
09994:  CLRF   x19
09996:  CLRF   x18
....................          tiempo_esterilizacion=0; 
09998:  MOVLB  5
0999A:  CLRF   xBB
....................       } 
....................        
....................       CuentaTiempo(); 
0999C:  MOVLB  0
0999E:  GOTO   6BF0
099A2:  MOVLB  5
....................       /*if(LEFT)//Si oprime boton de Toma. 
....................       { 
....................          if(Pausa!=2) 
....................          { 
....................             delay_ms(500);Menu=30;glcd_fillscreen(OFF);Opcion=1;visual=1;Pausa=1; 
....................          } 
....................          LEFT=0; 
....................       }*/         
....................     } 
.................... //_--------------------------------------------------------------------------------------------------------------------------------------------------------        
....................  
.................... //_-------------------------------------------------------------------------------------------------------------------------------------------------------- 
....................       if(Menu==100){ //Menu de Configuracin de Parametros de Control 
099A4:  MOVF   xB3,W
099A6:  SUBLW  64
099A8:  BTFSS  FD8.2
099AA:  BRA    A086
....................        
....................       if(Opcion>8) 
099AC:  MOVF   xBA,W
099AE:  SUBLW  08
099B0:  BC    99B6
....................       {Opcion=1;} 
099B2:  MOVLW  01
099B4:  MOVWF  xBA
....................       if(Opcion<1) 
099B6:  MOVF   xBA,F
099B8:  BNZ   99BE
....................       {Opcion=8;} 
099BA:  MOVLW  08
099BC:  MOVWF  xBA
....................        
....................       if(Opcion<=6){ 
099BE:  MOVF   xBA,W
099C0:  SUBLW  06
099C2:  BTFSS  FD8.0
099C4:  BRA    9D6A
....................          if(Opcion==1)    
099C6:  DECFSZ xBA,W
099C8:  BRA    9A14
....................             {strcpy(Menus.Letra,"Proporcional"); 
099CA:  MOVLW  06
099CC:  MOVWF  FEA
099CE:  MOVLW  73
099D0:  MOVWF  FE9
099D2:  MOVFF  FF2,693
099D6:  BCF    FF2.6
099D8:  BCF    FF2.7
099DA:  MOVLW  00
099DC:  MOVLB  0
099DE:  CALL   0E86
099E2:  TBLRD*-
099E4:  TBLRD*+
099E6:  MOVF   FF5,W
099E8:  MOVWF  FEE
099EA:  IORLW  00
099EC:  BNZ   99E4
099EE:  MOVLB  6
099F0:  BTFSC  x93.6
099F2:  BSF    FF2.6
099F4:  BTFSC  x93.7
099F6:  BSF    FF2.7
....................             displayMenu(Menus.Letra,0,0,1,1);} 
099F8:  MOVLW  06
099FA:  MOVWF  x9C
099FC:  MOVLW  73
099FE:  MOVWF  x9B
09A00:  CLRF   x9D
09A02:  CLRF   x9E
09A04:  MOVLW  01
09A06:  MOVWF  x9F
09A08:  MOVWF  xA0
09A0A:  MOVLB  0
09A0C:  CALL   3048
....................          else 
09A10:  BRA    9A5A
09A12:  MOVLB  5
....................             {strcpy(Menus.Letra,"Proporcional"); 
09A14:  MOVLW  06
09A16:  MOVWF  FEA
09A18:  MOVLW  73
09A1A:  MOVWF  FE9
09A1C:  MOVFF  FF2,693
09A20:  BCF    FF2.6
09A22:  BCF    FF2.7
09A24:  MOVLW  00
09A26:  MOVLB  0
09A28:  CALL   0E86
09A2C:  TBLRD*-
09A2E:  TBLRD*+
09A30:  MOVF   FF5,W
09A32:  MOVWF  FEE
09A34:  IORLW  00
09A36:  BNZ   9A2E
09A38:  MOVLB  6
09A3A:  BTFSC  x93.6
09A3C:  BSF    FF2.6
09A3E:  BTFSC  x93.7
09A40:  BSF    FF2.7
....................             displayMenu(Menus.Letra,0,0,0,1);} 
09A42:  MOVLW  06
09A44:  MOVWF  x9C
09A46:  MOVLW  73
09A48:  MOVWF  x9B
09A4A:  CLRF   x9D
09A4C:  CLRF   x9E
09A4E:  CLRF   x9F
09A50:  MOVLW  01
09A52:  MOVWF  xA0
09A54:  MOVLB  0
09A56:  CALL   3048
....................           
....................          if(Opcion==2)    
09A5A:  MOVLB  5
09A5C:  MOVF   xBA,W
09A5E:  SUBLW  02
09A60:  BNZ   9AAE
....................             {strcpy(Menus.Letra,"Integral"); 
09A62:  MOVLW  06
09A64:  MOVWF  FEA
09A66:  MOVLW  73
09A68:  MOVWF  FE9
09A6A:  MOVFF  FF2,693
09A6E:  BCF    FF2.6
09A70:  BCF    FF2.7
09A72:  MOVLW  00
09A74:  MOVLB  0
09A76:  CALL   0EB8
09A7A:  TBLRD*-
09A7C:  TBLRD*+
09A7E:  MOVF   FF5,W
09A80:  MOVWF  FEE
09A82:  IORLW  00
09A84:  BNZ   9A7C
09A86:  MOVLB  6
09A88:  BTFSC  x93.6
09A8A:  BSF    FF2.6
09A8C:  BTFSC  x93.7
09A8E:  BSF    FF2.7
....................             displayMenu(Menus.Letra,0,9,1,1);} 
09A90:  MOVLW  06
09A92:  MOVWF  x9C
09A94:  MOVLW  73
09A96:  MOVWF  x9B
09A98:  CLRF   x9D
09A9A:  MOVLW  09
09A9C:  MOVWF  x9E
09A9E:  MOVLW  01
09AA0:  MOVWF  x9F
09AA2:  MOVWF  xA0
09AA4:  MOVLB  0
09AA6:  CALL   3048
....................          else 
09AAA:  BRA    9AF6
09AAC:  MOVLB  5
....................             {strcpy(Menus.Letra,"Integral"); 
09AAE:  MOVLW  06
09AB0:  MOVWF  FEA
09AB2:  MOVLW  73
09AB4:  MOVWF  FE9
09AB6:  MOVFF  FF2,693
09ABA:  BCF    FF2.6
09ABC:  BCF    FF2.7
09ABE:  MOVLW  00
09AC0:  MOVLB  0
09AC2:  CALL   0EB8
09AC6:  TBLRD*-
09AC8:  TBLRD*+
09ACA:  MOVF   FF5,W
09ACC:  MOVWF  FEE
09ACE:  IORLW  00
09AD0:  BNZ   9AC8
09AD2:  MOVLB  6
09AD4:  BTFSC  x93.6
09AD6:  BSF    FF2.6
09AD8:  BTFSC  x93.7
09ADA:  BSF    FF2.7
....................             displayMenu(Menus.Letra,0,9,0,1);} 
09ADC:  MOVLW  06
09ADE:  MOVWF  x9C
09AE0:  MOVLW  73
09AE2:  MOVWF  x9B
09AE4:  CLRF   x9D
09AE6:  MOVLW  09
09AE8:  MOVWF  x9E
09AEA:  CLRF   x9F
09AEC:  MOVLW  01
09AEE:  MOVWF  xA0
09AF0:  MOVLB  0
09AF2:  CALL   3048
....................              
....................          if(Opcion==3)    
09AF6:  MOVLB  5
09AF8:  MOVF   xBA,W
09AFA:  SUBLW  03
09AFC:  BNZ   9B4A
....................             {strcpy(Menus.Letra,"Derivativo"); 
09AFE:  MOVLW  06
09B00:  MOVWF  FEA
09B02:  MOVLW  73
09B04:  MOVWF  FE9
09B06:  MOVFF  FF2,693
09B0A:  BCF    FF2.6
09B0C:  BCF    FF2.7
09B0E:  MOVLW  00
09B10:  MOVLB  0
09B12:  CALL   0EE6
09B16:  TBLRD*-
09B18:  TBLRD*+
09B1A:  MOVF   FF5,W
09B1C:  MOVWF  FEE
09B1E:  IORLW  00
09B20:  BNZ   9B18
09B22:  MOVLB  6
09B24:  BTFSC  x93.6
09B26:  BSF    FF2.6
09B28:  BTFSC  x93.7
09B2A:  BSF    FF2.7
....................             displayMenu(Menus.Letra,0,18,1,1);} 
09B2C:  MOVLW  06
09B2E:  MOVWF  x9C
09B30:  MOVLW  73
09B32:  MOVWF  x9B
09B34:  CLRF   x9D
09B36:  MOVLW  12
09B38:  MOVWF  x9E
09B3A:  MOVLW  01
09B3C:  MOVWF  x9F
09B3E:  MOVWF  xA0
09B40:  MOVLB  0
09B42:  CALL   3048
....................          else 
09B46:  BRA    9B92
09B48:  MOVLB  5
....................             {strcpy(Menus.Letra,"Derivativo"); 
09B4A:  MOVLW  06
09B4C:  MOVWF  FEA
09B4E:  MOVLW  73
09B50:  MOVWF  FE9
09B52:  MOVFF  FF2,693
09B56:  BCF    FF2.6
09B58:  BCF    FF2.7
09B5A:  MOVLW  00
09B5C:  MOVLB  0
09B5E:  CALL   0EE6
09B62:  TBLRD*-
09B64:  TBLRD*+
09B66:  MOVF   FF5,W
09B68:  MOVWF  FEE
09B6A:  IORLW  00
09B6C:  BNZ   9B64
09B6E:  MOVLB  6
09B70:  BTFSC  x93.6
09B72:  BSF    FF2.6
09B74:  BTFSC  x93.7
09B76:  BSF    FF2.7
....................             displayMenu(Menus.Letra,0,18,0,1);}    
09B78:  MOVLW  06
09B7A:  MOVWF  x9C
09B7C:  MOVLW  73
09B7E:  MOVWF  x9B
09B80:  CLRF   x9D
09B82:  MOVLW  12
09B84:  MOVWF  x9E
09B86:  CLRF   x9F
09B88:  MOVLW  01
09B8A:  MOVWF  xA0
09B8C:  MOVLB  0
09B8E:  CALL   3048
....................           
....................          if(Opcion==4)    
09B92:  MOVLB  5
09B94:  MOVF   xBA,W
09B96:  SUBLW  04
09B98:  BNZ   9BE6
....................             {strcpy(Menus.Letra,"Tciclo"); 
09B9A:  MOVLW  06
09B9C:  MOVWF  FEA
09B9E:  MOVLW  73
09BA0:  MOVWF  FE9
09BA2:  MOVFF  FF2,693
09BA6:  BCF    FF2.6
09BA8:  BCF    FF2.7
09BAA:  MOVLW  00
09BAC:  MOVLB  0
09BAE:  CALL   0F16
09BB2:  TBLRD*-
09BB4:  TBLRD*+
09BB6:  MOVF   FF5,W
09BB8:  MOVWF  FEE
09BBA:  IORLW  00
09BBC:  BNZ   9BB4
09BBE:  MOVLB  6
09BC0:  BTFSC  x93.6
09BC2:  BSF    FF2.6
09BC4:  BTFSC  x93.7
09BC6:  BSF    FF2.7
....................             displayMenu(Menus.Letra,0,27,1,1);} 
09BC8:  MOVLW  06
09BCA:  MOVWF  x9C
09BCC:  MOVLW  73
09BCE:  MOVWF  x9B
09BD0:  CLRF   x9D
09BD2:  MOVLW  1B
09BD4:  MOVWF  x9E
09BD6:  MOVLW  01
09BD8:  MOVWF  x9F
09BDA:  MOVWF  xA0
09BDC:  MOVLB  0
09BDE:  CALL   3048
....................          else 
09BE2:  BRA    9C2E
09BE4:  MOVLB  5
....................             {strcpy(Menus.Letra,"Tciclo"); 
09BE6:  MOVLW  06
09BE8:  MOVWF  FEA
09BEA:  MOVLW  73
09BEC:  MOVWF  FE9
09BEE:  MOVFF  FF2,693
09BF2:  BCF    FF2.6
09BF4:  BCF    FF2.7
09BF6:  MOVLW  00
09BF8:  MOVLB  0
09BFA:  CALL   0F16
09BFE:  TBLRD*-
09C00:  TBLRD*+
09C02:  MOVF   FF5,W
09C04:  MOVWF  FEE
09C06:  IORLW  00
09C08:  BNZ   9C00
09C0A:  MOVLB  6
09C0C:  BTFSC  x93.6
09C0E:  BSF    FF2.6
09C10:  BTFSC  x93.7
09C12:  BSF    FF2.7
....................             displayMenu(Menus.Letra,0,27,0,1);} 
09C14:  MOVLW  06
09C16:  MOVWF  x9C
09C18:  MOVLW  73
09C1A:  MOVWF  x9B
09C1C:  CLRF   x9D
09C1E:  MOVLW  1B
09C20:  MOVWF  x9E
09C22:  CLRF   x9F
09C24:  MOVLW  01
09C26:  MOVWF  xA0
09C28:  MOVLB  0
09C2A:  CALL   3048
....................              
....................          if(Opcion==5)    
09C2E:  MOVLB  5
09C30:  MOVF   xBA,W
09C32:  SUBLW  05
09C34:  BNZ   9C82
....................             {strcpy(Menus.Letra,"Ajuste +"); 
09C36:  MOVLW  06
09C38:  MOVWF  FEA
09C3A:  MOVLW  73
09C3C:  MOVWF  FE9
09C3E:  MOVFF  FF2,693
09C42:  BCF    FF2.6
09C44:  BCF    FF2.7
09C46:  MOVLW  00
09C48:  MOVLB  0
09C4A:  CALL   0F42
09C4E:  TBLRD*-
09C50:  TBLRD*+
09C52:  MOVF   FF5,W
09C54:  MOVWF  FEE
09C56:  IORLW  00
09C58:  BNZ   9C50
09C5A:  MOVLB  6
09C5C:  BTFSC  x93.6
09C5E:  BSF    FF2.6
09C60:  BTFSC  x93.7
09C62:  BSF    FF2.7
....................             displayMenu(Menus.Letra,0,36,1,1);} 
09C64:  MOVLW  06
09C66:  MOVWF  x9C
09C68:  MOVLW  73
09C6A:  MOVWF  x9B
09C6C:  CLRF   x9D
09C6E:  MOVLW  24
09C70:  MOVWF  x9E
09C72:  MOVLW  01
09C74:  MOVWF  x9F
09C76:  MOVWF  xA0
09C78:  MOVLB  0
09C7A:  CALL   3048
....................          else 
09C7E:  BRA    9CCA
09C80:  MOVLB  5
....................             {strcpy(Menus.Letra,"Ajuste +"); 
09C82:  MOVLW  06
09C84:  MOVWF  FEA
09C86:  MOVLW  73
09C88:  MOVWF  FE9
09C8A:  MOVFF  FF2,693
09C8E:  BCF    FF2.6
09C90:  BCF    FF2.7
09C92:  MOVLW  00
09C94:  MOVLB  0
09C96:  CALL   0F42
09C9A:  TBLRD*-
09C9C:  TBLRD*+
09C9E:  MOVF   FF5,W
09CA0:  MOVWF  FEE
09CA2:  IORLW  00
09CA4:  BNZ   9C9C
09CA6:  MOVLB  6
09CA8:  BTFSC  x93.6
09CAA:  BSF    FF2.6
09CAC:  BTFSC  x93.7
09CAE:  BSF    FF2.7
....................             displayMenu(Menus.Letra,0,36,0,1);}    
09CB0:  MOVLW  06
09CB2:  MOVWF  x9C
09CB4:  MOVLW  73
09CB6:  MOVWF  x9B
09CB8:  CLRF   x9D
09CBA:  MOVLW  24
09CBC:  MOVWF  x9E
09CBE:  CLRF   x9F
09CC0:  MOVLW  01
09CC2:  MOVWF  xA0
09CC4:  MOVLB  0
09CC6:  CALL   3048
....................                          
....................          if(Opcion==6)    
09CCA:  MOVLB  5
09CCC:  MOVF   xBA,W
09CCE:  SUBLW  06
09CD0:  BNZ   9D1E
....................             {strcpy(Menus.Letra,"Ajuste -"); 
09CD2:  MOVLW  06
09CD4:  MOVWF  FEA
09CD6:  MOVLW  73
09CD8:  MOVWF  FE9
09CDA:  MOVFF  FF2,693
09CDE:  BCF    FF2.6
09CE0:  BCF    FF2.7
09CE2:  MOVLW  00
09CE4:  MOVLB  0
09CE6:  CALL   0F70
09CEA:  TBLRD*-
09CEC:  TBLRD*+
09CEE:  MOVF   FF5,W
09CF0:  MOVWF  FEE
09CF2:  IORLW  00
09CF4:  BNZ   9CEC
09CF6:  MOVLB  6
09CF8:  BTFSC  x93.6
09CFA:  BSF    FF2.6
09CFC:  BTFSC  x93.7
09CFE:  BSF    FF2.7
....................             displayMenu(Menus.Letra,0,45,1,1);} 
09D00:  MOVLW  06
09D02:  MOVWF  x9C
09D04:  MOVLW  73
09D06:  MOVWF  x9B
09D08:  CLRF   x9D
09D0A:  MOVLW  2D
09D0C:  MOVWF  x9E
09D0E:  MOVLW  01
09D10:  MOVWF  x9F
09D12:  MOVWF  xA0
09D14:  MOVLB  0
09D16:  CALL   3048
....................          else 
09D1A:  BRA    9D66
09D1C:  MOVLB  5
....................             {strcpy(Menus.Letra,"Ajuste -"); 
09D1E:  MOVLW  06
09D20:  MOVWF  FEA
09D22:  MOVLW  73
09D24:  MOVWF  FE9
09D26:  MOVFF  FF2,693
09D2A:  BCF    FF2.6
09D2C:  BCF    FF2.7
09D2E:  MOVLW  00
09D30:  MOVLB  0
09D32:  CALL   0F70
09D36:  TBLRD*-
09D38:  TBLRD*+
09D3A:  MOVF   FF5,W
09D3C:  MOVWF  FEE
09D3E:  IORLW  00
09D40:  BNZ   9D38
09D42:  MOVLB  6
09D44:  BTFSC  x93.6
09D46:  BSF    FF2.6
09D48:  BTFSC  x93.7
09D4A:  BSF    FF2.7
....................             displayMenu(Menus.Letra,0,45,0,1);}      
09D4C:  MOVLW  06
09D4E:  MOVWF  x9C
09D50:  MOVLW  73
09D52:  MOVWF  x9B
09D54:  CLRF   x9D
09D56:  MOVLW  2D
09D58:  MOVWF  x9E
09D5A:  CLRF   x9F
09D5C:  MOVLW  01
09D5E:  MOVWF  xA0
09D60:  MOVLB  0
09D62:  CALL   3048
....................       } 
....................       else{ 
09D66:  BRA    9FB4
09D68:  MOVLB  5
....................          if(Opcion==7)    
09D6A:  MOVF   xBA,W
09D6C:  SUBLW  07
09D6E:  BNZ   9DBA
....................             {strcpy(Menus.Letra,"Media Movil"); 
09D70:  MOVLW  06
09D72:  MOVWF  FEA
09D74:  MOVLW  73
09D76:  MOVWF  FE9
09D78:  MOVFF  FF2,693
09D7C:  BCF    FF2.6
09D7E:  BCF    FF2.7
09D80:  MOVLW  00
09D82:  MOVLB  0
09D84:  CALL   0F9E
09D88:  TBLRD*-
09D8A:  TBLRD*+
09D8C:  MOVF   FF5,W
09D8E:  MOVWF  FEE
09D90:  IORLW  00
09D92:  BNZ   9D8A
09D94:  MOVLB  6
09D96:  BTFSC  x93.6
09D98:  BSF    FF2.6
09D9A:  BTFSC  x93.7
09D9C:  BSF    FF2.7
....................             displayMenu(Menus.Letra,0,0,1,1);} 
09D9E:  MOVLW  06
09DA0:  MOVWF  x9C
09DA2:  MOVLW  73
09DA4:  MOVWF  x9B
09DA6:  CLRF   x9D
09DA8:  CLRF   x9E
09DAA:  MOVLW  01
09DAC:  MOVWF  x9F
09DAE:  MOVWF  xA0
09DB0:  MOVLB  0
09DB2:  CALL   3048
....................          else 
09DB6:  BRA    9E00
09DB8:  MOVLB  5
....................             {strcpy(Menus.Letra,"Media Movil"); 
09DBA:  MOVLW  06
09DBC:  MOVWF  FEA
09DBE:  MOVLW  73
09DC0:  MOVWF  FE9
09DC2:  MOVFF  FF2,693
09DC6:  BCF    FF2.6
09DC8:  BCF    FF2.7
09DCA:  MOVLW  00
09DCC:  MOVLB  0
09DCE:  CALL   0F9E
09DD2:  TBLRD*-
09DD4:  TBLRD*+
09DD6:  MOVF   FF5,W
09DD8:  MOVWF  FEE
09DDA:  IORLW  00
09DDC:  BNZ   9DD4
09DDE:  MOVLB  6
09DE0:  BTFSC  x93.6
09DE2:  BSF    FF2.6
09DE4:  BTFSC  x93.7
09DE6:  BSF    FF2.7
....................             displayMenu(Menus.Letra,0,0,0,1);}      
09DE8:  MOVLW  06
09DEA:  MOVWF  x9C
09DEC:  MOVLW  73
09DEE:  MOVWF  x9B
09DF0:  CLRF   x9D
09DF2:  CLRF   x9E
09DF4:  CLRF   x9F
09DF6:  MOVLW  01
09DF8:  MOVWF  xA0
09DFA:  MOVLB  0
09DFC:  CALL   3048
....................              
....................          if(Opcion==8)    
09E00:  MOVLB  5
09E02:  MOVF   xBA,W
09E04:  SUBLW  08
09E06:  BNZ   9E54
....................             {strcpy(Menus.Letra,"Ganancia    "); 
09E08:  MOVLW  06
09E0A:  MOVWF  FEA
09E0C:  MOVLW  73
09E0E:  MOVWF  FE9
09E10:  MOVFF  FF2,693
09E14:  BCF    FF2.6
09E16:  BCF    FF2.7
09E18:  MOVLW  00
09E1A:  MOVLB  0
09E1C:  CALL   0FCE
09E20:  TBLRD*-
09E22:  TBLRD*+
09E24:  MOVF   FF5,W
09E26:  MOVWF  FEE
09E28:  IORLW  00
09E2A:  BNZ   9E22
09E2C:  MOVLB  6
09E2E:  BTFSC  x93.6
09E30:  BSF    FF2.6
09E32:  BTFSC  x93.7
09E34:  BSF    FF2.7
....................             displayMenu(Menus.Letra,0,9,1,1);} 
09E36:  MOVLW  06
09E38:  MOVWF  x9C
09E3A:  MOVLW  73
09E3C:  MOVWF  x9B
09E3E:  CLRF   x9D
09E40:  MOVLW  09
09E42:  MOVWF  x9E
09E44:  MOVLW  01
09E46:  MOVWF  x9F
09E48:  MOVWF  xA0
09E4A:  MOVLB  0
09E4C:  CALL   3048
....................          else 
09E50:  BRA    9E9C
09E52:  MOVLB  5
....................             {strcpy(Menus.Letra,"Ganancia    "); 
09E54:  MOVLW  06
09E56:  MOVWF  FEA
09E58:  MOVLW  73
09E5A:  MOVWF  FE9
09E5C:  MOVFF  FF2,693
09E60:  BCF    FF2.6
09E62:  BCF    FF2.7
09E64:  MOVLW  00
09E66:  MOVLB  0
09E68:  CALL   0FCE
09E6C:  TBLRD*-
09E6E:  TBLRD*+
09E70:  MOVF   FF5,W
09E72:  MOVWF  FEE
09E74:  IORLW  00
09E76:  BNZ   9E6E
09E78:  MOVLB  6
09E7A:  BTFSC  x93.6
09E7C:  BSF    FF2.6
09E7E:  BTFSC  x93.7
09E80:  BSF    FF2.7
....................             displayMenu(Menus.Letra,0,9,0,1);}   
09E82:  MOVLW  06
09E84:  MOVWF  x9C
09E86:  MOVLW  73
09E88:  MOVWF  x9B
09E8A:  CLRF   x9D
09E8C:  MOVLW  09
09E8E:  MOVWF  x9E
09E90:  CLRF   x9F
09E92:  MOVLW  01
09E94:  MOVWF  xA0
09E96:  MOVLB  0
09E98:  CALL   3048
....................              
....................              
....................             strcpy(Menus.Letra,"            "); 
09E9C:  MOVLW  06
09E9E:  MOVWF  FEA
09EA0:  MOVLW  73
09EA2:  MOVWF  FE9
09EA4:  MOVFF  FF2,693
09EA8:  BCF    FF2.6
09EAA:  BCF    FF2.7
09EAC:  MOVLW  00
09EAE:  CALL   1000
09EB2:  TBLRD*-
09EB4:  TBLRD*+
09EB6:  MOVF   FF5,W
09EB8:  MOVWF  FEE
09EBA:  IORLW  00
09EBC:  BNZ   9EB4
09EBE:  MOVLB  6
09EC0:  BTFSC  x93.6
09EC2:  BSF    FF2.6
09EC4:  BTFSC  x93.7
09EC6:  BSF    FF2.7
....................             displayMenu(Menus.Letra,0,18,0,1); 
09EC8:  MOVLW  06
09ECA:  MOVWF  x9C
09ECC:  MOVLW  73
09ECE:  MOVWF  x9B
09ED0:  CLRF   x9D
09ED2:  MOVLW  12
09ED4:  MOVWF  x9E
09ED6:  CLRF   x9F
09ED8:  MOVLW  01
09EDA:  MOVWF  xA0
09EDC:  MOVLB  0
09EDE:  CALL   3048
....................              
....................             strcpy(Menus.Letra,"            "); 
09EE2:  MOVLW  06
09EE4:  MOVWF  FEA
09EE6:  MOVLW  73
09EE8:  MOVWF  FE9
09EEA:  MOVFF  FF2,693
09EEE:  BCF    FF2.6
09EF0:  BCF    FF2.7
09EF2:  MOVLW  00
09EF4:  CALL   1000
09EF8:  TBLRD*-
09EFA:  TBLRD*+
09EFC:  MOVF   FF5,W
09EFE:  MOVWF  FEE
09F00:  IORLW  00
09F02:  BNZ   9EFA
09F04:  MOVLB  6
09F06:  BTFSC  x93.6
09F08:  BSF    FF2.6
09F0A:  BTFSC  x93.7
09F0C:  BSF    FF2.7
....................             displayMenu(Menus.Letra,0,27,0,1); 
09F0E:  MOVLW  06
09F10:  MOVWF  x9C
09F12:  MOVLW  73
09F14:  MOVWF  x9B
09F16:  CLRF   x9D
09F18:  MOVLW  1B
09F1A:  MOVWF  x9E
09F1C:  CLRF   x9F
09F1E:  MOVLW  01
09F20:  MOVWF  xA0
09F22:  MOVLB  0
09F24:  CALL   3048
....................              
....................             strcpy(Menus.Letra,"            "); 
09F28:  MOVLW  06
09F2A:  MOVWF  FEA
09F2C:  MOVLW  73
09F2E:  MOVWF  FE9
09F30:  MOVFF  FF2,693
09F34:  BCF    FF2.6
09F36:  BCF    FF2.7
09F38:  MOVLW  00
09F3A:  CALL   1000
09F3E:  TBLRD*-
09F40:  TBLRD*+
09F42:  MOVF   FF5,W
09F44:  MOVWF  FEE
09F46:  IORLW  00
09F48:  BNZ   9F40
09F4A:  MOVLB  6
09F4C:  BTFSC  x93.6
09F4E:  BSF    FF2.6
09F50:  BTFSC  x93.7
09F52:  BSF    FF2.7
....................             displayMenu(Menus.Letra,0,36,0,1); 
09F54:  MOVLW  06
09F56:  MOVWF  x9C
09F58:  MOVLW  73
09F5A:  MOVWF  x9B
09F5C:  CLRF   x9D
09F5E:  MOVLW  24
09F60:  MOVWF  x9E
09F62:  CLRF   x9F
09F64:  MOVLW  01
09F66:  MOVWF  xA0
09F68:  MOVLB  0
09F6A:  CALL   3048
....................              
....................             strcpy(Menus.Letra,"            "); 
09F6E:  MOVLW  06
09F70:  MOVWF  FEA
09F72:  MOVLW  73
09F74:  MOVWF  FE9
09F76:  MOVFF  FF2,693
09F7A:  BCF    FF2.6
09F7C:  BCF    FF2.7
09F7E:  MOVLW  00
09F80:  CALL   1000
09F84:  TBLRD*-
09F86:  TBLRD*+
09F88:  MOVF   FF5,W
09F8A:  MOVWF  FEE
09F8C:  IORLW  00
09F8E:  BNZ   9F86
09F90:  MOVLB  6
09F92:  BTFSC  x93.6
09F94:  BSF    FF2.6
09F96:  BTFSC  x93.7
09F98:  BSF    FF2.7
....................             displayMenu(Menus.Letra,0,45,0,1); 
09F9A:  MOVLW  06
09F9C:  MOVWF  x9C
09F9E:  MOVLW  73
09FA0:  MOVWF  x9B
09FA2:  CLRF   x9D
09FA4:  MOVLW  2D
09FA6:  MOVWF  x9E
09FA8:  CLRF   x9F
09FAA:  MOVLW  01
09FAC:  MOVWF  xA0
09FAE:  MOVLB  0
09FB0:  CALL   3048
....................       }    
....................        
....................          if(UP)//Si oprime hacia arriba 
09FB4:  BSF    F92.5
09FB6:  BTFSC  F80.5
09FB8:  BRA    9FE2
....................          { 
....................             delay_ms(10); 
09FBA:  MOVLW  0A
09FBC:  MOVLB  6
09FBE:  MOVWF  x9C
09FC0:  MOVLB  0
09FC2:  CALL   131C
....................             if(Flanco == 0) 
09FC6:  MOVLB  5
09FC8:  BTFSC  xA0.7
09FCA:  BRA    9FE0
....................                {Flanco = 1;delay_ms(30);Opcion--;visual=1; 
09FCC:  BSF    xA0.7
09FCE:  MOVLW  1E
09FD0:  MOVLB  6
09FD2:  MOVWF  x9C
09FD4:  MOVLB  0
09FD6:  CALL   131C
09FDA:  MOVLB  5
09FDC:  DECF   xBA,F
09FDE:  BSF    xAC.2
....................                } 
....................          } 
....................             else 
09FE0:  BRA    9FE6
....................                {Flanco = 0;} 
09FE2:  MOVLB  5
09FE4:  BCF    xA0.7
....................                    
....................          if(DOWN)//Si oprime hacia abajo 
09FE6:  BSF    F96.0
09FE8:  BTFSC  F84.0
09FEA:  BRA    A014
....................          { 
....................             delay_ms(10); 
09FEC:  MOVLW  0A
09FEE:  MOVLB  6
09FF0:  MOVWF  x9C
09FF2:  MOVLB  0
09FF4:  CALL   131C
....................             if(Flanco2 == 0) 
09FF8:  MOVLB  5
09FFA:  BTFSC  xAC.1
09FFC:  BRA    A012
....................                {Flanco2 = 1;delay_ms(30);Opcion++;visual=1; 
09FFE:  BSF    xAC.1
0A000:  MOVLW  1E
0A002:  MOVLB  6
0A004:  MOVWF  x9C
0A006:  MOVLB  0
0A008:  CALL   131C
0A00C:  MOVLB  5
0A00E:  INCF   xBA,F
0A010:  BSF    xAC.2
....................                }      
....................          } 
....................             else 
0A012:  BRA    A016
....................                {Flanco2 = 0;}   
0A014:  BCF    xAC.1
....................                 
....................          if(RIGHT)//Si oprime SET 
0A016:  BSF    F96.1
0A018:  BTFSC  F84.1
0A01A:  BRA    A058
....................          {   
....................             delay_ms(10); 
0A01C:  MOVLW  0A
0A01E:  MOVLB  6
0A020:  MOVWF  x9C
0A022:  MOVLB  0
0A024:  CALL   131C
....................             if(Flanco1 == 0) 
0A028:  MOVLB  5
0A02A:  BTFSC  xAC.0
0A02C:  BRA    A056
....................                {Flanco1 = 1;delay_ms(30);Menu=Opcion+100;Opcion=1;glcd_fillscreen(OFF);visual=1; 
0A02E:  BSF    xAC.0
0A030:  MOVLW  1E
0A032:  MOVLB  6
0A034:  MOVWF  x9C
0A036:  MOVLB  0
0A038:  CALL   131C
0A03C:  MOVLW  64
0A03E:  MOVLB  5
0A040:  ADDWF  xBA,W
0A042:  MOVWF  xB3
0A044:  MOVLW  01
0A046:  MOVWF  xBA
0A048:  MOVLB  6
0A04A:  CLRF   x9B
0A04C:  MOVLB  0
0A04E:  CALL   2A0E
0A052:  MOVLB  5
0A054:  BSF    xAC.2
....................                } 
....................          } 
....................             else 
0A056:  BRA    A05A
....................                {Flanco1 = 0;}  
0A058:  BCF    xAC.0
....................                 
....................          if(LEFT)//Si oprime boton de Toma. 
0A05A:  BSF    F96.2
0A05C:  BTFSC  F84.2
0A05E:  BRA    A086
....................          { 
....................             delay_ms(10); 
0A060:  MOVLW  0A
0A062:  MOVLB  6
0A064:  MOVWF  x9C
0A066:  MOVLB  0
0A068:  CALL   131C
....................             delay_ms(700);reset_cpu();          
0A06C:  MOVLW  04
0A06E:  MOVLB  6
0A070:  MOVWF  x93
0A072:  MOVLW  AF
0A074:  MOVWF  x9C
0A076:  MOVLB  0
0A078:  CALL   131C
0A07C:  MOVLB  6
0A07E:  DECFSZ x93,F
0A080:  BRA    A072
0A082:  RESET
0A084:  MOVLB  5
....................          }       
....................          
....................     } 
.................... //_--------------------------------------------------------------------------------------------------------------------------------------------------------        
....................  
.................... //_--------------------------------------------------------------------------------------------------------------------------------------------------------       
....................       if(Menu==101){ // Menu de Ajuste de Ganancia 
0A086:  MOVF   xB3,W
0A088:  SUBLW  65
0A08A:  BTFSS  FD8.2
0A08C:  BRA    A29C
....................          if(Ganancia>4)       
0A08E:  MOVLB  6
0A090:  CLRF   x96
0A092:  CLRF   x95
0A094:  CLRF   x94
0A096:  MOVLW  81
0A098:  MOVWF  x93
0A09A:  MOVFF  62F,69A
0A09E:  MOVFF  62E,699
0A0A2:  MOVFF  62D,698
0A0A6:  MOVFF  62C,697
0A0AA:  MOVLB  0
0A0AC:  CALL   1FE4
0A0B0:  BNC   A0C0
....................             Ganancia=1; 
0A0B2:  MOVLB  6
0A0B4:  CLRF   x2F
0A0B6:  CLRF   x2E
0A0B8:  CLRF   x2D
0A0BA:  MOVLW  7F
0A0BC:  MOVWF  x2C
....................          else if(Ganancia<1) 
0A0BE:  BRA    A0F0
0A0C0:  MOVFF  62F,696
0A0C4:  MOVFF  62E,695
0A0C8:  MOVFF  62D,694
0A0CC:  MOVFF  62C,693
0A0D0:  MOVLB  6
0A0D2:  CLRF   x9A
0A0D4:  CLRF   x99
0A0D6:  CLRF   x98
0A0D8:  MOVLW  7F
0A0DA:  MOVWF  x97
0A0DC:  MOVLB  0
0A0DE:  CALL   1FE4
0A0E2:  BNC   A0F0
....................             Ganancia=4; 
0A0E4:  MOVLB  6
0A0E6:  CLRF   x2F
0A0E8:  CLRF   x2E
0A0EA:  CLRF   x2D
0A0EC:  MOVLW  81
0A0EE:  MOVWF  x2C
....................           
....................          if(visual==1){ 
0A0F0:  MOVLB  5
0A0F2:  BTFSS  xAC.2
0A0F4:  BRA    A182
....................             glcd_fillScreen(OFF); 
0A0F6:  MOVLB  6
0A0F8:  CLRF   x9B
0A0FA:  MOVLB  0
0A0FC:  CALL   2A0E
....................             strcpy(Menus.Letra,"P"); 
0A100:  MOVLW  06
0A102:  MOVWF  FEA
0A104:  MOVLW  73
0A106:  MOVWF  FE9
0A108:  MOVFF  FF2,693
0A10C:  BCF    FF2.6
0A10E:  BCF    FF2.7
0A110:  MOVLW  00
0A112:  CALL   1032
0A116:  TBLRD*-
0A118:  TBLRD*+
0A11A:  MOVF   FF5,W
0A11C:  MOVWF  FEE
0A11E:  IORLW  00
0A120:  BNZ   A118
0A122:  MOVLB  6
0A124:  BTFSC  x93.6
0A126:  BSF    FF2.6
0A128:  BTFSC  x93.7
0A12A:  BSF    FF2.7
....................             displayMenu(Menus.Letra,0,0,1,2);  
0A12C:  MOVLW  06
0A12E:  MOVWF  x9C
0A130:  MOVLW  73
0A132:  MOVWF  x9B
0A134:  CLRF   x9D
0A136:  CLRF   x9E
0A138:  MOVLW  01
0A13A:  MOVWF  x9F
0A13C:  MOVLW  02
0A13E:  MOVWF  xA0
0A140:  MOVLB  0
0A142:  CALL   3048
....................             displayTemperatura(Ganancia,30,30,0,3);          
0A146:  MOVFF  62F,6A2
0A14A:  MOVFF  62E,6A1
0A14E:  MOVFF  62D,6A0
0A152:  MOVFF  62C,69F
0A156:  CALL   3854
0A15A:  MOVFF  02,694
0A15E:  MOVFF  01,693
0A162:  MOVFF  02,696
0A166:  MOVFF  01,695
0A16A:  MOVLW  1E
0A16C:  MOVLB  6
0A16E:  MOVWF  x97
0A170:  MOVWF  x98
0A172:  CLRF   x99
0A174:  MOVLW  03
0A176:  MOVWF  x9A
0A178:  MOVLB  0
0A17A:  CALL   4926
....................             visual=0; 
0A17E:  MOVLB  5
0A180:  BCF    xAC.2
....................          } 
....................        
....................          if(UP){   
0A182:  BSF    F92.5
0A184:  BTFSC  F80.5
0A186:  BRA    A1C6
....................             DelayPuls();Ganancia+=1.0;visual=1;             
0A188:  MOVLB  0
0A18A:  CALL   3C96
0A18E:  BCF    FD8.1
0A190:  MOVFF  62F,6A2
0A194:  MOVFF  62E,6A1
0A198:  MOVFF  62D,6A0
0A19C:  MOVFF  62C,69F
0A1A0:  MOVLB  6
0A1A2:  CLRF   xA6
0A1A4:  CLRF   xA5
0A1A6:  CLRF   xA4
0A1A8:  MOVLW  7F
0A1AA:  MOVWF  xA3
0A1AC:  MOVLB  0
0A1AE:  CALL   151E
0A1B2:  MOVFF  03,62F
0A1B6:  MOVFF  02,62E
0A1BA:  MOVFF  01,62D
0A1BE:  MOVFF  00,62C
0A1C2:  MOVLB  5
0A1C4:  BSF    xAC.2
....................          } 
....................                 
....................          if(DOWN){   
0A1C6:  BSF    F96.0
0A1C8:  BTFSC  F84.0
0A1CA:  BRA    A20A
....................             DelayPuls();Ganancia-=1.0;visual=1;      
0A1CC:  MOVLB  0
0A1CE:  CALL   3C96
0A1D2:  BSF    FD8.1
0A1D4:  MOVFF  62F,6A2
0A1D8:  MOVFF  62E,6A1
0A1DC:  MOVFF  62D,6A0
0A1E0:  MOVFF  62C,69F
0A1E4:  MOVLB  6
0A1E6:  CLRF   xA6
0A1E8:  CLRF   xA5
0A1EA:  CLRF   xA4
0A1EC:  MOVLW  7F
0A1EE:  MOVWF  xA3
0A1F0:  MOVLB  0
0A1F2:  CALL   151E
0A1F6:  MOVFF  03,62F
0A1FA:  MOVFF  02,62E
0A1FE:  MOVFF  01,62D
0A202:  MOVFF  00,62C
0A206:  MOVLB  5
0A208:  BSF    xAC.2
....................          } 
....................                 
....................          if(RIGHT)//Si oprime SET 
0A20A:  BSF    F96.1
0A20C:  BTFSC  F84.1
0A20E:  BRA    A212
....................             visual=1;           
0A210:  BSF    xAC.2
....................                    
....................          if(LEFT){ 
0A212:  BSF    F96.2
0A214:  BTFSC  F84.2
0A216:  BRA    A29C
....................             delay_ms(700);Menu=100;glcd_fillscreen(OFF);Opcion=1;visual=1; 
0A218:  MOVLW  04
0A21A:  MOVLB  6
0A21C:  MOVWF  x93
0A21E:  MOVLW  AF
0A220:  MOVWF  x9C
0A222:  MOVLB  0
0A224:  CALL   131C
0A228:  MOVLB  6
0A22A:  DECFSZ x93,F
0A22C:  BRA    A21E
0A22E:  MOVLW  64
0A230:  MOVLB  5
0A232:  MOVWF  xB3
0A234:  MOVLB  6
0A236:  CLRF   x9B
0A238:  MOVLB  0
0A23A:  CALL   2A0E
0A23E:  MOVLW  01
0A240:  MOVLB  5
0A242:  MOVWF  xBA
0A244:  BSF    xAC.2
....................             write_eeprom(14,(int8)Ganancia);delay_ms(20); 
0A246:  MOVFF  62F,6A2
0A24A:  MOVFF  62E,6A1
0A24E:  MOVFF  62D,6A0
0A252:  MOVFF  62C,69F
0A256:  MOVLB  0
0A258:  CALL   3854
0A25C:  MOVFF  01,693
0A260:  CLRF   FAA
0A262:  MOVLW  0E
0A264:  MOVWF  FA9
0A266:  MOVFF  693,FA8
0A26A:  BCF    FA6.6
0A26C:  BCF    FA6.7
0A26E:  BSF    FA6.2
0A270:  MOVF   FF2,W
0A272:  MOVWF  00
0A274:  BCF    FF2.6
0A276:  BCF    FF2.7
0A278:  MOVLB  F
0A27A:  MOVLW  55
0A27C:  MOVWF  FA7
0A27E:  MOVLW  AA
0A280:  MOVWF  FA7
0A282:  BSF    FA6.1
0A284:  BTFSC  FA6.1
0A286:  BRA    A284
0A288:  BCF    FA6.2
0A28A:  MOVF   00,W
0A28C:  IORWF  FF2,F
0A28E:  MOVLW  14
0A290:  MOVLB  6
0A292:  MOVWF  x9C
0A294:  MOVLB  0
0A296:  CALL   131C
0A29A:  MOVLB  5
....................          } 
....................      } 
.................... //_-------------------------------------------------------------------------------------------------------------------------------------------------------- 
....................  
.................... //_--------------------------------------------------------------------------------------------------------------------------------------------------------       
....................       if(Menu==102){ // Menu de Ajuste de Integral    
0A29C:  MOVF   xB3,W
0A29E:  SUBLW  66
0A2A0:  BTFSS  FD8.2
0A2A2:  BRA    A4BE
....................          if(Integral>4)       
0A2A4:  MOVLB  6
0A2A6:  CLRF   x96
0A2A8:  CLRF   x95
0A2AA:  CLRF   x94
0A2AC:  MOVLW  81
0A2AE:  MOVWF  x93
0A2B0:  MOVFF  5EF,69A
0A2B4:  MOVFF  5EE,699
0A2B8:  MOVFF  5ED,698
0A2BC:  MOVFF  5EC,697
0A2C0:  MOVLB  0
0A2C2:  CALL   1FE4
0A2C6:  BNC   A2D6
....................             Integral=1; 
0A2C8:  MOVLB  5
0A2CA:  CLRF   xEF
0A2CC:  CLRF   xEE
0A2CE:  CLRF   xED
0A2D0:  MOVLW  7F
0A2D2:  MOVWF  xEC
....................          else if(Integral<1) 
0A2D4:  BRA    A306
0A2D6:  MOVFF  5EF,696
0A2DA:  MOVFF  5EE,695
0A2DE:  MOVFF  5ED,694
0A2E2:  MOVFF  5EC,693
0A2E6:  MOVLB  6
0A2E8:  CLRF   x9A
0A2EA:  CLRF   x99
0A2EC:  CLRF   x98
0A2EE:  MOVLW  7F
0A2F0:  MOVWF  x97
0A2F2:  MOVLB  0
0A2F4:  CALL   1FE4
0A2F8:  BNC   A306
....................             Integral=4; 
0A2FA:  MOVLB  5
0A2FC:  CLRF   xEF
0A2FE:  CLRF   xEE
0A300:  CLRF   xED
0A302:  MOVLW  81
0A304:  MOVWF  xEC
....................        
....................          if(visual==1){ 
0A306:  MOVLB  5
0A308:  BTFSS  xAC.2
0A30A:  BRA    A398
....................             glcd_fillScreen(OFF); 
0A30C:  MOVLB  6
0A30E:  CLRF   x9B
0A310:  MOVLB  0
0A312:  CALL   2A0E
....................             strcpy(Menus.Letra,"I"); 
0A316:  MOVLW  06
0A318:  MOVWF  FEA
0A31A:  MOVLW  73
0A31C:  MOVWF  FE9
0A31E:  MOVFF  FF2,693
0A322:  BCF    FF2.6
0A324:  BCF    FF2.7
0A326:  MOVLW  00
0A328:  CALL   1058
0A32C:  TBLRD*-
0A32E:  TBLRD*+
0A330:  MOVF   FF5,W
0A332:  MOVWF  FEE
0A334:  IORLW  00
0A336:  BNZ   A32E
0A338:  MOVLB  6
0A33A:  BTFSC  x93.6
0A33C:  BSF    FF2.6
0A33E:  BTFSC  x93.7
0A340:  BSF    FF2.7
....................             displayMenu(Menus.Letra,0,0,1,2); 
0A342:  MOVLW  06
0A344:  MOVWF  x9C
0A346:  MOVLW  73
0A348:  MOVWF  x9B
0A34A:  CLRF   x9D
0A34C:  CLRF   x9E
0A34E:  MOVLW  01
0A350:  MOVWF  x9F
0A352:  MOVLW  02
0A354:  MOVWF  xA0
0A356:  MOVLB  0
0A358:  CALL   3048
....................             displayTemperatura(Integral,30,30,0,3);  
0A35C:  MOVFF  5EF,6A2
0A360:  MOVFF  5EE,6A1
0A364:  MOVFF  5ED,6A0
0A368:  MOVFF  5EC,69F
0A36C:  CALL   3854
0A370:  MOVFF  02,694
0A374:  MOVFF  01,693
0A378:  MOVFF  02,696
0A37C:  MOVFF  01,695
0A380:  MOVLW  1E
0A382:  MOVLB  6
0A384:  MOVWF  x97
0A386:  MOVWF  x98
0A388:  CLRF   x99
0A38A:  MOVLW  03
0A38C:  MOVWF  x9A
0A38E:  MOVLB  0
0A390:  CALL   4926
....................             visual=0; 
0A394:  MOVLB  5
0A396:  BCF    xAC.2
....................          } 
....................        
....................          if(UP){   
0A398:  BSF    F92.5
0A39A:  BTFSC  F80.5
0A39C:  BRA    A3DC
....................             DelayPuls();Integral+=1.0;visual=1;  
0A39E:  MOVLB  0
0A3A0:  CALL   3C96
0A3A4:  BCF    FD8.1
0A3A6:  MOVFF  5EF,6A2
0A3AA:  MOVFF  5EE,6A1
0A3AE:  MOVFF  5ED,6A0
0A3B2:  MOVFF  5EC,69F
0A3B6:  MOVLB  6
0A3B8:  CLRF   xA6
0A3BA:  CLRF   xA5
0A3BC:  CLRF   xA4
0A3BE:  MOVLW  7F
0A3C0:  MOVWF  xA3
0A3C2:  MOVLB  0
0A3C4:  CALL   151E
0A3C8:  MOVFF  03,5EF
0A3CC:  MOVFF  02,5EE
0A3D0:  MOVFF  01,5ED
0A3D4:  MOVFF  00,5EC
0A3D8:  MOVLB  5
0A3DA:  BSF    xAC.2
....................          } 
....................                 
....................          if(DOWN){               
0A3DC:  BSF    F96.0
0A3DE:  BTFSC  F84.0
0A3E0:  BRA    A420
....................             DelayPuls();Integral-=1.0;visual=1;      
0A3E2:  MOVLB  0
0A3E4:  CALL   3C96
0A3E8:  BSF    FD8.1
0A3EA:  MOVFF  5EF,6A2
0A3EE:  MOVFF  5EE,6A1
0A3F2:  MOVFF  5ED,6A0
0A3F6:  MOVFF  5EC,69F
0A3FA:  MOVLB  6
0A3FC:  CLRF   xA6
0A3FE:  CLRF   xA5
0A400:  CLRF   xA4
0A402:  MOVLW  7F
0A404:  MOVWF  xA3
0A406:  MOVLB  0
0A408:  CALL   151E
0A40C:  MOVFF  03,5EF
0A410:  MOVFF  02,5EE
0A414:  MOVFF  01,5ED
0A418:  MOVFF  00,5EC
0A41C:  MOVLB  5
0A41E:  BSF    xAC.2
....................          } 
....................                 
....................          if(RIGHT)//Si oprime SET 
0A420:  BSF    F96.1
0A422:  BTFSC  F84.1
0A424:  BRA    A428
....................             visual=1;  
0A426:  BSF    xAC.2
....................                    
....................          if(LEFT){ 
0A428:  BSF    F96.2
0A42A:  BTFSC  F84.2
0A42C:  BRA    A4BE
....................             delay_ms(10); 
0A42E:  MOVLW  0A
0A430:  MOVLB  6
0A432:  MOVWF  x9C
0A434:  MOVLB  0
0A436:  CALL   131C
....................             delay_ms(700);Menu=100;glcd_fillscreen(OFF);Opcion=1;visual=1; 
0A43A:  MOVLW  04
0A43C:  MOVLB  6
0A43E:  MOVWF  x93
0A440:  MOVLW  AF
0A442:  MOVWF  x9C
0A444:  MOVLB  0
0A446:  CALL   131C
0A44A:  MOVLB  6
0A44C:  DECFSZ x93,F
0A44E:  BRA    A440
0A450:  MOVLW  64
0A452:  MOVLB  5
0A454:  MOVWF  xB3
0A456:  MOVLB  6
0A458:  CLRF   x9B
0A45A:  MOVLB  0
0A45C:  CALL   2A0E
0A460:  MOVLW  01
0A462:  MOVLB  5
0A464:  MOVWF  xBA
0A466:  BSF    xAC.2
....................             write_eeprom(15,(int8)Integral);delay_ms(20); 
0A468:  MOVFF  5EF,6A2
0A46C:  MOVFF  5EE,6A1
0A470:  MOVFF  5ED,6A0
0A474:  MOVFF  5EC,69F
0A478:  MOVLB  0
0A47A:  CALL   3854
0A47E:  MOVFF  01,693
0A482:  CLRF   FAA
0A484:  MOVLW  0F
0A486:  MOVWF  FA9
0A488:  MOVFF  693,FA8
0A48C:  BCF    FA6.6
0A48E:  BCF    FA6.7
0A490:  BSF    FA6.2
0A492:  MOVF   FF2,W
0A494:  MOVWF  00
0A496:  BCF    FF2.6
0A498:  BCF    FF2.7
0A49A:  MOVLB  F
0A49C:  MOVLW  55
0A49E:  MOVWF  FA7
0A4A0:  MOVLW  AA
0A4A2:  MOVWF  FA7
0A4A4:  BSF    FA6.1
0A4A6:  BTFSC  FA6.1
0A4A8:  BRA    A4A6
0A4AA:  BCF    FA6.2
0A4AC:  MOVF   00,W
0A4AE:  IORWF  FF2,F
0A4B0:  MOVLW  14
0A4B2:  MOVLB  6
0A4B4:  MOVWF  x9C
0A4B6:  MOVLB  0
0A4B8:  CALL   131C
0A4BC:  MOVLB  5
....................          } 
....................      } 
.................... //_-------------------------------------------------------------------------------------------------------------------------------------------------------- 
....................  
.................... //_--------------------------------------------------------------------------------------------------------------------------------------------------------       
....................       if(Menu==103){ // Menu de Ajuste de Derivativo 
0A4BE:  MOVF   xB3,W
0A4C0:  SUBLW  67
0A4C2:  BTFSS  FD8.2
0A4C4:  BRA    A6F2
....................        
....................          if(Derivativo>40) 
0A4C6:  MOVLB  6
0A4C8:  CLRF   x96
0A4CA:  CLRF   x95
0A4CC:  MOVLW  20
0A4CE:  MOVWF  x94
0A4D0:  MOVLW  84
0A4D2:  MOVWF  x93
0A4D4:  MOVFF  5F3,69A
0A4D8:  MOVFF  5F2,699
0A4DC:  MOVFF  5F1,698
0A4E0:  MOVFF  5F0,697
0A4E4:  MOVLB  0
0A4E6:  CALL   1FE4
0A4EA:  BNC   A4FC
....................             Derivativo=10; 
0A4EC:  MOVLB  5
0A4EE:  CLRF   xF3
0A4F0:  CLRF   xF2
0A4F2:  MOVLW  20
0A4F4:  MOVWF  xF1
0A4F6:  MOVLW  82
0A4F8:  MOVWF  xF0
....................          else if(Derivativo<10) 
0A4FA:  BRA    A530
0A4FC:  MOVFF  5F3,696
0A500:  MOVFF  5F2,695
0A504:  MOVFF  5F1,694
0A508:  MOVFF  5F0,693
0A50C:  MOVLB  6
0A50E:  CLRF   x9A
0A510:  CLRF   x99
0A512:  MOVLW  20
0A514:  MOVWF  x98
0A516:  MOVLW  82
0A518:  MOVWF  x97
0A51A:  MOVLB  0
0A51C:  CALL   1FE4
0A520:  BNC   A530
....................             Derivativo=40; 
0A522:  MOVLB  5
0A524:  CLRF   xF3
0A526:  CLRF   xF2
0A528:  MOVLW  20
0A52A:  MOVWF  xF1
0A52C:  MOVLW  84
0A52E:  MOVWF  xF0
....................        
....................          if(visual==1){ 
0A530:  MOVLB  5
0A532:  BTFSS  xAC.2
0A534:  BRA    A5C2
....................             glcd_fillScreen(OFF); 
0A536:  MOVLB  6
0A538:  CLRF   x9B
0A53A:  MOVLB  0
0A53C:  CALL   2A0E
....................             strcpy(Menus.Letra,"D"); 
0A540:  MOVLW  06
0A542:  MOVWF  FEA
0A544:  MOVLW  73
0A546:  MOVWF  FE9
0A548:  MOVFF  FF2,693
0A54C:  BCF    FF2.6
0A54E:  BCF    FF2.7
0A550:  MOVLW  00
0A552:  CALL   107E
0A556:  TBLRD*-
0A558:  TBLRD*+
0A55A:  MOVF   FF5,W
0A55C:  MOVWF  FEE
0A55E:  IORLW  00
0A560:  BNZ   A558
0A562:  MOVLB  6
0A564:  BTFSC  x93.6
0A566:  BSF    FF2.6
0A568:  BTFSC  x93.7
0A56A:  BSF    FF2.7
....................             displayMenu(Menus.Letra,0,0,1,2);          
0A56C:  MOVLW  06
0A56E:  MOVWF  x9C
0A570:  MOVLW  73
0A572:  MOVWF  x9B
0A574:  CLRF   x9D
0A576:  CLRF   x9E
0A578:  MOVLW  01
0A57A:  MOVWF  x9F
0A57C:  MOVLW  02
0A57E:  MOVWF  xA0
0A580:  MOVLB  0
0A582:  CALL   3048
....................             displayTemperatura(Derivativo,30,30,0,3); 
0A586:  MOVFF  5F3,6A2
0A58A:  MOVFF  5F2,6A1
0A58E:  MOVFF  5F1,6A0
0A592:  MOVFF  5F0,69F
0A596:  CALL   3854
0A59A:  MOVFF  02,694
0A59E:  MOVFF  01,693
0A5A2:  MOVFF  02,696
0A5A6:  MOVFF  01,695
0A5AA:  MOVLW  1E
0A5AC:  MOVLB  6
0A5AE:  MOVWF  x97
0A5B0:  MOVWF  x98
0A5B2:  CLRF   x99
0A5B4:  MOVLW  03
0A5B6:  MOVWF  x9A
0A5B8:  MOVLB  0
0A5BA:  CALL   4926
....................             visual=0; 
0A5BE:  MOVLB  5
0A5C0:  BCF    xAC.2
....................          } 
....................        
....................          if(UP){   
0A5C2:  BSF    F92.5
0A5C4:  BTFSC  F80.5
0A5C6:  BRA    A610
....................             delay_ms(10); 
0A5C8:  MOVLW  0A
0A5CA:  MOVLB  6
0A5CC:  MOVWF  x9C
0A5CE:  MOVLB  0
0A5D0:  CALL   131C
....................             DelayPuls();Derivativo+=1.0;visual=1; 
0A5D4:  CALL   3C96
0A5D8:  BCF    FD8.1
0A5DA:  MOVFF  5F3,6A2
0A5DE:  MOVFF  5F2,6A1
0A5E2:  MOVFF  5F1,6A0
0A5E6:  MOVFF  5F0,69F
0A5EA:  MOVLB  6
0A5EC:  CLRF   xA6
0A5EE:  CLRF   xA5
0A5F0:  CLRF   xA4
0A5F2:  MOVLW  7F
0A5F4:  MOVWF  xA3
0A5F6:  MOVLB  0
0A5F8:  CALL   151E
0A5FC:  MOVFF  03,5F3
0A600:  MOVFF  02,5F2
0A604:  MOVFF  01,5F1
0A608:  MOVFF  00,5F0
0A60C:  MOVLB  5
0A60E:  BSF    xAC.2
....................          } 
....................                 
....................          if(DOWN){   
0A610:  BSF    F96.0
0A612:  BTFSC  F84.0
0A614:  BRA    A654
....................             DelayPuls();Derivativo-=1.0;visual=1;      
0A616:  MOVLB  0
0A618:  CALL   3C96
0A61C:  BSF    FD8.1
0A61E:  MOVFF  5F3,6A2
0A622:  MOVFF  5F2,6A1
0A626:  MOVFF  5F1,6A0
0A62A:  MOVFF  5F0,69F
0A62E:  MOVLB  6
0A630:  CLRF   xA6
0A632:  CLRF   xA5
0A634:  CLRF   xA4
0A636:  MOVLW  7F
0A638:  MOVWF  xA3
0A63A:  MOVLB  0
0A63C:  CALL   151E
0A640:  MOVFF  03,5F3
0A644:  MOVFF  02,5F2
0A648:  MOVFF  01,5F1
0A64C:  MOVFF  00,5F0
0A650:  MOVLB  5
0A652:  BSF    xAC.2
....................          } 
....................                 
....................          if(RIGHT)//Si oprime SET 
0A654:  BSF    F96.1
0A656:  BTFSC  F84.1
0A658:  BRA    A65C
....................             visual=1;  
0A65A:  BSF    xAC.2
....................                    
....................          if(LEFT){ 
0A65C:  BSF    F96.2
0A65E:  BTFSC  F84.2
0A660:  BRA    A6F2
....................             delay_ms(10); 
0A662:  MOVLW  0A
0A664:  MOVLB  6
0A666:  MOVWF  x9C
0A668:  MOVLB  0
0A66A:  CALL   131C
....................             delay_ms(700);Menu=100;glcd_fillscreen(OFF);Opcion=1;visual=1; 
0A66E:  MOVLW  04
0A670:  MOVLB  6
0A672:  MOVWF  x93
0A674:  MOVLW  AF
0A676:  MOVWF  x9C
0A678:  MOVLB  0
0A67A:  CALL   131C
0A67E:  MOVLB  6
0A680:  DECFSZ x93,F
0A682:  BRA    A674
0A684:  MOVLW  64
0A686:  MOVLB  5
0A688:  MOVWF  xB3
0A68A:  MOVLB  6
0A68C:  CLRF   x9B
0A68E:  MOVLB  0
0A690:  CALL   2A0E
0A694:  MOVLW  01
0A696:  MOVLB  5
0A698:  MOVWF  xBA
0A69A:  BSF    xAC.2
....................             write_eeprom(16,(int8)Derivativo);delay_ms(20); 
0A69C:  MOVFF  5F3,6A2
0A6A0:  MOVFF  5F2,6A1
0A6A4:  MOVFF  5F1,6A0
0A6A8:  MOVFF  5F0,69F
0A6AC:  MOVLB  0
0A6AE:  CALL   3854
0A6B2:  MOVFF  01,693
0A6B6:  CLRF   FAA
0A6B8:  MOVLW  10
0A6BA:  MOVWF  FA9
0A6BC:  MOVFF  693,FA8
0A6C0:  BCF    FA6.6
0A6C2:  BCF    FA6.7
0A6C4:  BSF    FA6.2
0A6C6:  MOVF   FF2,W
0A6C8:  MOVWF  00
0A6CA:  BCF    FF2.6
0A6CC:  BCF    FF2.7
0A6CE:  MOVLB  F
0A6D0:  MOVLW  55
0A6D2:  MOVWF  FA7
0A6D4:  MOVLW  AA
0A6D6:  MOVWF  FA7
0A6D8:  BSF    FA6.1
0A6DA:  BTFSC  FA6.1
0A6DC:  BRA    A6DA
0A6DE:  BCF    FA6.2
0A6E0:  MOVF   00,W
0A6E2:  IORWF  FF2,F
0A6E4:  MOVLW  14
0A6E6:  MOVLB  6
0A6E8:  MOVWF  x9C
0A6EA:  MOVLB  0
0A6EC:  CALL   131C
0A6F0:  MOVLB  5
....................          } 
....................      } 
.................... //_-------------------------------------------------------------------------------------------------------------------------------------------------------- 
....................  
.................... //_--------------------------------------------------------------------------------------------------------------------------------------------------------       
....................       if(Menu==104){ // Menu de Tiempo de Ciclo 
0A6F2:  MOVF   xB3,W
0A6F4:  SUBLW  68
0A6F6:  BTFSS  FD8.2
0A6F8:  BRA    A910
....................        
....................          if(Tciclo>10) 
0A6FA:  MOVLB  6
0A6FC:  CLRF   x96
0A6FE:  CLRF   x95
0A700:  MOVLW  20
0A702:  MOVWF  x94
0A704:  MOVLW  82
0A706:  MOVWF  x93
0A708:  MOVFF  617,69A
0A70C:  MOVFF  616,699
0A710:  MOVFF  615,698
0A714:  MOVFF  614,697
0A718:  MOVLB  0
0A71A:  CALL   1FE4
0A71E:  BNC   A730
....................             Tciclo=5; 
0A720:  MOVLB  6
0A722:  CLRF   x17
0A724:  CLRF   x16
0A726:  MOVLW  20
0A728:  MOVWF  x15
0A72A:  MOVLW  81
0A72C:  MOVWF  x14
....................          else if(Tciclo<5) 
0A72E:  BRA    A764
0A730:  MOVFF  617,696
0A734:  MOVFF  616,695
0A738:  MOVFF  615,694
0A73C:  MOVFF  614,693
0A740:  MOVLB  6
0A742:  CLRF   x9A
0A744:  CLRF   x99
0A746:  MOVLW  20
0A748:  MOVWF  x98
0A74A:  MOVLW  81
0A74C:  MOVWF  x97
0A74E:  MOVLB  0
0A750:  CALL   1FE4
0A754:  BNC   A764
....................             Tciclo=10; 
0A756:  MOVLB  6
0A758:  CLRF   x17
0A75A:  CLRF   x16
0A75C:  MOVLW  20
0A75E:  MOVWF  x15
0A760:  MOVLW  82
0A762:  MOVWF  x14
....................        
....................          if(visual==1){ 
0A764:  MOVLB  5
0A766:  BTFSS  xAC.2
0A768:  BRA    A7F6
....................             glcd_fillScreen(OFF); 
0A76A:  MOVLB  6
0A76C:  CLRF   x9B
0A76E:  MOVLB  0
0A770:  CALL   2A0E
....................             strcpy(Menus.Letra,"Tciclo"); 
0A774:  MOVLW  06
0A776:  MOVWF  FEA
0A778:  MOVLW  73
0A77A:  MOVWF  FE9
0A77C:  MOVFF  FF2,693
0A780:  BCF    FF2.6
0A782:  BCF    FF2.7
0A784:  MOVLW  00
0A786:  CALL   0F16
0A78A:  TBLRD*-
0A78C:  TBLRD*+
0A78E:  MOVF   FF5,W
0A790:  MOVWF  FEE
0A792:  IORLW  00
0A794:  BNZ   A78C
0A796:  MOVLB  6
0A798:  BTFSC  x93.6
0A79A:  BSF    FF2.6
0A79C:  BTFSC  x93.7
0A79E:  BSF    FF2.7
....................             displayMenu(Menus.Letra,0,0,1,2);          
0A7A0:  MOVLW  06
0A7A2:  MOVWF  x9C
0A7A4:  MOVLW  73
0A7A6:  MOVWF  x9B
0A7A8:  CLRF   x9D
0A7AA:  CLRF   x9E
0A7AC:  MOVLW  01
0A7AE:  MOVWF  x9F
0A7B0:  MOVLW  02
0A7B2:  MOVWF  xA0
0A7B4:  MOVLB  0
0A7B6:  CALL   3048
....................             displayTemperatura(Tciclo,30,30,0,3); 
0A7BA:  MOVFF  617,6A2
0A7BE:  MOVFF  616,6A1
0A7C2:  MOVFF  615,6A0
0A7C6:  MOVFF  614,69F
0A7CA:  CALL   3854
0A7CE:  MOVFF  02,694
0A7D2:  MOVFF  01,693
0A7D6:  MOVFF  02,696
0A7DA:  MOVFF  01,695
0A7DE:  MOVLW  1E
0A7E0:  MOVLB  6
0A7E2:  MOVWF  x97
0A7E4:  MOVWF  x98
0A7E6:  CLRF   x99
0A7E8:  MOVLW  03
0A7EA:  MOVWF  x9A
0A7EC:  MOVLB  0
0A7EE:  CALL   4926
....................             visual=0; 
0A7F2:  MOVLB  5
0A7F4:  BCF    xAC.2
....................          } 
....................        
....................          if(UP){   
0A7F6:  BSF    F92.5
0A7F8:  BTFSC  F80.5
0A7FA:  BRA    A83A
....................             DelayPuls();Tciclo+=1.0;visual=1; 
0A7FC:  MOVLB  0
0A7FE:  CALL   3C96
0A802:  BCF    FD8.1
0A804:  MOVFF  617,6A2
0A808:  MOVFF  616,6A1
0A80C:  MOVFF  615,6A0
0A810:  MOVFF  614,69F
0A814:  MOVLB  6
0A816:  CLRF   xA6
0A818:  CLRF   xA5
0A81A:  CLRF   xA4
0A81C:  MOVLW  7F
0A81E:  MOVWF  xA3
0A820:  MOVLB  0
0A822:  CALL   151E
0A826:  MOVFF  03,617
0A82A:  MOVFF  02,616
0A82E:  MOVFF  01,615
0A832:  MOVFF  00,614
0A836:  MOVLB  5
0A838:  BSF    xAC.2
....................          } 
....................                 
....................          if(DOWN){   
0A83A:  BSF    F96.0
0A83C:  BTFSC  F84.0
0A83E:  BRA    A87E
....................             DelayPuls();Tciclo-=1.0;visual=1;      
0A840:  MOVLB  0
0A842:  CALL   3C96
0A846:  BSF    FD8.1
0A848:  MOVFF  617,6A2
0A84C:  MOVFF  616,6A1
0A850:  MOVFF  615,6A0
0A854:  MOVFF  614,69F
0A858:  MOVLB  6
0A85A:  CLRF   xA6
0A85C:  CLRF   xA5
0A85E:  CLRF   xA4
0A860:  MOVLW  7F
0A862:  MOVWF  xA3
0A864:  MOVLB  0
0A866:  CALL   151E
0A86A:  MOVFF  03,617
0A86E:  MOVFF  02,616
0A872:  MOVFF  01,615
0A876:  MOVFF  00,614
0A87A:  MOVLB  5
0A87C:  BSF    xAC.2
....................          } 
....................                 
....................          if(RIGHT) 
0A87E:  BSF    F96.1
0A880:  BTFSC  F84.1
0A882:  BRA    A886
....................             visual=1;  
0A884:  BSF    xAC.2
....................                    
....................          if(LEFT){ 
0A886:  BSF    F96.2
0A888:  BTFSC  F84.2
0A88A:  BRA    A910
....................             delay_ms(10); 
0A88C:  MOVLW  0A
0A88E:  MOVLB  6
0A890:  MOVWF  x9C
0A892:  MOVLB  0
0A894:  CALL   131C
....................             delay_ms(700);Menu=100;glcd_fillscreen(OFF);Opcion=1;visual=1; 
0A898:  MOVLW  04
0A89A:  MOVLB  6
0A89C:  MOVWF  x93
0A89E:  MOVLW  AF
0A8A0:  MOVWF  x9C
0A8A2:  MOVLB  0
0A8A4:  CALL   131C
0A8A8:  MOVLB  6
0A8AA:  DECFSZ x93,F
0A8AC:  BRA    A89E
0A8AE:  MOVLW  64
0A8B0:  MOVLB  5
0A8B2:  MOVWF  xB3
0A8B4:  MOVLB  6
0A8B6:  CLRF   x9B
0A8B8:  MOVLB  0
0A8BA:  CALL   2A0E
0A8BE:  MOVLW  01
0A8C0:  MOVLB  5
0A8C2:  MOVWF  xBA
0A8C4:  BSF    xAC.2
....................             write_eeprom(17,(int8)Tciclo); 
0A8C6:  MOVFF  617,6A2
0A8CA:  MOVFF  616,6A1
0A8CE:  MOVFF  615,6A0
0A8D2:  MOVFF  614,69F
0A8D6:  MOVLB  0
0A8D8:  CALL   3854
0A8DC:  MOVFF  01,693
0A8E0:  CLRF   FAA
0A8E2:  MOVLW  11
0A8E4:  MOVWF  FA9
0A8E6:  MOVFF  693,FA8
0A8EA:  BCF    FA6.6
0A8EC:  BCF    FA6.7
0A8EE:  BSF    FA6.2
0A8F0:  MOVF   FF2,W
0A8F2:  MOVWF  00
0A8F4:  BCF    FF2.6
0A8F6:  BCF    FF2.7
0A8F8:  MOVLB  F
0A8FA:  MOVLW  55
0A8FC:  MOVWF  FA7
0A8FE:  MOVLW  AA
0A900:  MOVWF  FA7
0A902:  BSF    FA6.1
0A904:  BTFSC  FA6.1
0A906:  BRA    A904
0A908:  BCF    FA6.2
0A90A:  MOVF   00,W
0A90C:  IORWF  FF2,F
0A90E:  MOVLB  5
....................          } 
....................      } 
.................... //_-------------------------------------------------------------------------------------------------------------------------------------------------------- 
....................  
.................... //_--------------------------------------------------------------------------------------------------------------------------------------------------------       
....................       if(Menu==105){ // Menu de Ajuste de Ajuste+ 
0A910:  MOVF   xB3,W
0A912:  SUBLW  69
0A914:  BTFSS  FD8.2
0A916:  BRA    AA3E
....................        
....................          if(Ajuste>100) 
0A918:  MOVF   xA3,W
0A91A:  SUBLW  64
0A91C:  BC    A920
....................             Ajuste=0; 
0A91E:  CLRF   xA3
....................        
....................          if(visual==1) 
0A920:  BTFSS  xAC.2
0A922:  BRA    A992
....................          { 
....................             glcd_fillScreen(OFF); 
0A924:  MOVLB  6
0A926:  CLRF   x9B
0A928:  MOVLB  0
0A92A:  CALL   2A0E
....................             strcpy(Menus.Letra,"Ajuste"); 
0A92E:  MOVLW  06
0A930:  MOVWF  FEA
0A932:  MOVLW  73
0A934:  MOVWF  FE9
0A936:  MOVFF  FF2,693
0A93A:  BCF    FF2.6
0A93C:  BCF    FF2.7
0A93E:  MOVLW  00
0A940:  CALL   10A4
0A944:  TBLRD*-
0A946:  TBLRD*+
0A948:  MOVF   FF5,W
0A94A:  MOVWF  FEE
0A94C:  IORLW  00
0A94E:  BNZ   A946
0A950:  MOVLB  6
0A952:  BTFSC  x93.6
0A954:  BSF    FF2.6
0A956:  BTFSC  x93.7
0A958:  BSF    FF2.7
....................             displayMenu(Menus.Letra,0,0,1,2);       
0A95A:  MOVLW  06
0A95C:  MOVWF  x9C
0A95E:  MOVLW  73
0A960:  MOVWF  x9B
0A962:  CLRF   x9D
0A964:  CLRF   x9E
0A966:  MOVLW  01
0A968:  MOVWF  x9F
0A96A:  MOVLW  02
0A96C:  MOVWF  xA0
0A96E:  MOVLB  0
0A970:  CALL   3048
....................             displayTemperatura(Ajuste,30,30,0,3); 
0A974:  MOVLB  6
0A976:  CLRF   x96
0A978:  MOVFF  5A3,695
0A97C:  MOVLW  1E
0A97E:  MOVWF  x97
0A980:  MOVWF  x98
0A982:  CLRF   x99
0A984:  MOVLW  03
0A986:  MOVWF  x9A
0A988:  MOVLB  0
0A98A:  CALL   4926
....................             visual=0; 
0A98E:  MOVLB  5
0A990:  BCF    xAC.2
....................          } 
....................        
....................          if(UP){   
0A992:  BSF    F92.5
0A994:  BTFSC  F80.5
0A996:  BRA    A9A4
....................             DelayPuls();Ajuste++;visual=1; 
0A998:  MOVLB  0
0A99A:  CALL   3C96
0A99E:  MOVLB  5
0A9A0:  INCF   xA3,F
0A9A2:  BSF    xAC.2
....................          } 
....................                 
....................          if(DOWN)//Si oprime hacia abajo 
0A9A4:  BSF    F96.0
0A9A6:  BTFSC  F84.0
0A9A8:  BRA    A9BA
....................          {   
....................             if(Ajuste>0){ 
0A9AA:  MOVF   xA3,F
0A9AC:  BZ    A9BA
....................                DelayPuls();Ajuste--;visual=1;      
0A9AE:  MOVLB  0
0A9B0:  CALL   3C96
0A9B4:  MOVLB  5
0A9B6:  DECF   xA3,F
0A9B8:  BSF    xAC.2
....................             } 
....................          } 
....................                 
....................          if(RIGHT) 
0A9BA:  BSF    F96.1
0A9BC:  BTFSC  F84.1
0A9BE:  BRA    A9C2
....................             visual=1; 
0A9C0:  BSF    xAC.2
....................                    
....................          if(LEFT){ 
0A9C2:  BSF    F96.2
0A9C4:  BTFSC  F84.2
0A9C6:  BRA    AA3E
....................             delay_ms(10); 
0A9C8:  MOVLW  0A
0A9CA:  MOVLB  6
0A9CC:  MOVWF  x9C
0A9CE:  MOVLB  0
0A9D0:  CALL   131C
....................             delay_ms(700);Menu=100;glcd_fillscreen(OFF);Opcion=1;visual=1; 
0A9D4:  MOVLW  04
0A9D6:  MOVLB  6
0A9D8:  MOVWF  x93
0A9DA:  MOVLW  AF
0A9DC:  MOVWF  x9C
0A9DE:  MOVLB  0
0A9E0:  CALL   131C
0A9E4:  MOVLB  6
0A9E6:  DECFSZ x93,F
0A9E8:  BRA    A9DA
0A9EA:  MOVLW  64
0A9EC:  MOVLB  5
0A9EE:  MOVWF  xB3
0A9F0:  MOVLB  6
0A9F2:  CLRF   x9B
0A9F4:  MOVLB  0
0A9F6:  CALL   2A0E
0A9FA:  MOVLW  01
0A9FC:  MOVLB  5
0A9FE:  MOVWF  xBA
0AA00:  BSF    xAC.2
....................             write_eeprom(18,Ajuste);delay_ms(20); 
0AA02:  CLRF   FAA
0AA04:  MOVLW  12
0AA06:  MOVWF  FA9
0AA08:  MOVFF  5A3,FA8
0AA0C:  BCF    FA6.6
0AA0E:  BCF    FA6.7
0AA10:  BSF    FA6.2
0AA12:  MOVF   FF2,W
0AA14:  MOVWF  00
0AA16:  BCF    FF2.6
0AA18:  BCF    FF2.7
0AA1A:  MOVLB  F
0AA1C:  MOVLW  55
0AA1E:  MOVWF  FA7
0AA20:  MOVLW  AA
0AA22:  MOVWF  FA7
0AA24:  BSF    FA6.1
0AA26:  BTFSC  FA6.1
0AA28:  BRA    AA26
0AA2A:  BCF    FA6.2
0AA2C:  MOVF   00,W
0AA2E:  IORWF  FF2,F
0AA30:  MOVLW  14
0AA32:  MOVLB  6
0AA34:  MOVWF  x9C
0AA36:  MOVLB  0
0AA38:  CALL   131C
0AA3C:  MOVLB  5
....................          } 
....................      } 
.................... //_-------------------------------------------------------------------------------------------------------------------------------------------------------- 
....................  
.................... //_--------------------------------------------------------------------------------------------------------------------------------------------------------       
....................       if(Menu==106){ // Menu de Ajuste de Ajuste - 
0AA3E:  MOVF   xB3,W
0AA40:  SUBLW  6A
0AA42:  BTFSS  FD8.2
0AA44:  BRA    AB6C
....................        
....................          if(Ajusten>100) 
0AA46:  MOVF   xA4,W
0AA48:  SUBLW  64
0AA4A:  BC    AA4E
....................             Ajusten=0; 
0AA4C:  CLRF   xA4
....................         
....................          if(visual==1){ 
0AA4E:  BTFSS  xAC.2
0AA50:  BRA    AAC0
....................             glcd_fillScreen(OFF); 
0AA52:  MOVLB  6
0AA54:  CLRF   x9B
0AA56:  MOVLB  0
0AA58:  CALL   2A0E
....................             strcpy(Menus.Letra,"Ajusten"); 
0AA5C:  MOVLW  06
0AA5E:  MOVWF  FEA
0AA60:  MOVLW  73
0AA62:  MOVWF  FE9
0AA64:  MOVFF  FF2,693
0AA68:  BCF    FF2.6
0AA6A:  BCF    FF2.7
0AA6C:  MOVLW  00
0AA6E:  CALL   10D0
0AA72:  TBLRD*-
0AA74:  TBLRD*+
0AA76:  MOVF   FF5,W
0AA78:  MOVWF  FEE
0AA7A:  IORLW  00
0AA7C:  BNZ   AA74
0AA7E:  MOVLB  6
0AA80:  BTFSC  x93.6
0AA82:  BSF    FF2.6
0AA84:  BTFSC  x93.7
0AA86:  BSF    FF2.7
....................             displayMenu(Menus.Letra,0,0,1,2); 
0AA88:  MOVLW  06
0AA8A:  MOVWF  x9C
0AA8C:  MOVLW  73
0AA8E:  MOVWF  x9B
0AA90:  CLRF   x9D
0AA92:  CLRF   x9E
0AA94:  MOVLW  01
0AA96:  MOVWF  x9F
0AA98:  MOVLW  02
0AA9A:  MOVWF  xA0
0AA9C:  MOVLB  0
0AA9E:  CALL   3048
....................             displayTemperatura(Ajusten,30,30,0,3); 
0AAA2:  MOVLB  6
0AAA4:  CLRF   x96
0AAA6:  MOVFF  5A4,695
0AAAA:  MOVLW  1E
0AAAC:  MOVWF  x97
0AAAE:  MOVWF  x98
0AAB0:  CLRF   x99
0AAB2:  MOVLW  03
0AAB4:  MOVWF  x9A
0AAB6:  MOVLB  0
0AAB8:  CALL   4926
....................             visual=0; 
0AABC:  MOVLB  5
0AABE:  BCF    xAC.2
....................          } 
....................        
....................          if(UP){   
0AAC0:  BSF    F92.5
0AAC2:  BTFSC  F80.5
0AAC4:  BRA    AAD2
....................             DelayPuls();Ajusten++;visual=1; 
0AAC6:  MOVLB  0
0AAC8:  CALL   3C96
0AACC:  MOVLB  5
0AACE:  INCF   xA4,F
0AAD0:  BSF    xAC.2
....................          } 
....................                 
....................          if(DOWN){   
0AAD2:  BSF    F96.0
0AAD4:  BTFSC  F84.0
0AAD6:  BRA    AAE8
....................             if(Ajusten>0){ 
0AAD8:  MOVF   xA4,F
0AADA:  BZ    AAE8
....................                DelayPuls();Ajusten--;visual=1;      
0AADC:  MOVLB  0
0AADE:  CALL   3C96
0AAE2:  MOVLB  5
0AAE4:  DECF   xA4,F
0AAE6:  BSF    xAC.2
....................             } 
....................          } 
....................                 
....................          if(RIGHT) 
0AAE8:  BSF    F96.1
0AAEA:  BTFSC  F84.1
0AAEC:  BRA    AAF0
....................             visual=1; 
0AAEE:  BSF    xAC.2
....................                    
....................          if(LEFT){ 
0AAF0:  BSF    F96.2
0AAF2:  BTFSC  F84.2
0AAF4:  BRA    AB6C
....................             delay_ms(10); 
0AAF6:  MOVLW  0A
0AAF8:  MOVLB  6
0AAFA:  MOVWF  x9C
0AAFC:  MOVLB  0
0AAFE:  CALL   131C
....................             delay_ms(700);Menu=100;glcd_fillscreen(OFF);Opcion=1;visual=1; 
0AB02:  MOVLW  04
0AB04:  MOVLB  6
0AB06:  MOVWF  x93
0AB08:  MOVLW  AF
0AB0A:  MOVWF  x9C
0AB0C:  MOVLB  0
0AB0E:  CALL   131C
0AB12:  MOVLB  6
0AB14:  DECFSZ x93,F
0AB16:  BRA    AB08
0AB18:  MOVLW  64
0AB1A:  MOVLB  5
0AB1C:  MOVWF  xB3
0AB1E:  MOVLB  6
0AB20:  CLRF   x9B
0AB22:  MOVLB  0
0AB24:  CALL   2A0E
0AB28:  MOVLW  01
0AB2A:  MOVLB  5
0AB2C:  MOVWF  xBA
0AB2E:  BSF    xAC.2
....................             write_eeprom(19,Ajusten);delay_ms(20); 
0AB30:  CLRF   FAA
0AB32:  MOVLW  13
0AB34:  MOVWF  FA9
0AB36:  MOVFF  5A4,FA8
0AB3A:  BCF    FA6.6
0AB3C:  BCF    FA6.7
0AB3E:  BSF    FA6.2
0AB40:  MOVF   FF2,W
0AB42:  MOVWF  00
0AB44:  BCF    FF2.6
0AB46:  BCF    FF2.7
0AB48:  MOVLB  F
0AB4A:  MOVLW  55
0AB4C:  MOVWF  FA7
0AB4E:  MOVLW  AA
0AB50:  MOVWF  FA7
0AB52:  BSF    FA6.1
0AB54:  BTFSC  FA6.1
0AB56:  BRA    AB54
0AB58:  BCF    FA6.2
0AB5A:  MOVF   00,W
0AB5C:  IORWF  FF2,F
0AB5E:  MOVLW  14
0AB60:  MOVLB  6
0AB62:  MOVWF  x9C
0AB64:  MOVLB  0
0AB66:  CALL   131C
0AB6A:  MOVLB  5
....................          } 
....................      } 
.................... //_-------------------------------------------------------------------------------------------------------------------------------------------------------- 
....................  
.................... //_--------------------------------------------------------------------------------------------------------------------------------------------------------       
....................       if(Menu==107){ // Menu de Ajuste de Media Movil 
0AB6C:  MOVF   xB3,W
0AB6E:  SUBLW  6B
0AB70:  BTFSS  FD8.2
0AB72:  BRA    ACA4
....................        
....................          if(MediaMovil>80) 
0AB74:  MOVF   xA5,W
0AB76:  SUBLW  50
0AB78:  BC    AB80
....................             MediaMovil=10; 
0AB7A:  MOVLW  0A
0AB7C:  MOVWF  xA5
....................          else if(MediaMovil<10) 
0AB7E:  BRA    AB8A
0AB80:  MOVF   xA5,W
0AB82:  SUBLW  09
0AB84:  BNC   AB8A
....................             MediaMovil=80; 
0AB86:  MOVLW  50
0AB88:  MOVWF  xA5
....................        
....................          if(visual==1){ 
0AB8A:  BTFSS  xAC.2
0AB8C:  BRA    ABFC
....................             glcd_fillScreen(OFF); 
0AB8E:  MOVLB  6
0AB90:  CLRF   x9B
0AB92:  MOVLB  0
0AB94:  CALL   2A0E
....................             strcpy(Menus.Letra,"Media"); 
0AB98:  MOVLW  06
0AB9A:  MOVWF  FEA
0AB9C:  MOVLW  73
0AB9E:  MOVWF  FE9
0ABA0:  MOVFF  FF2,693
0ABA4:  BCF    FF2.6
0ABA6:  BCF    FF2.7
0ABA8:  MOVLW  00
0ABAA:  CALL   10FC
0ABAE:  TBLRD*-
0ABB0:  TBLRD*+
0ABB2:  MOVF   FF5,W
0ABB4:  MOVWF  FEE
0ABB6:  IORLW  00
0ABB8:  BNZ   ABB0
0ABBA:  MOVLB  6
0ABBC:  BTFSC  x93.6
0ABBE:  BSF    FF2.6
0ABC0:  BTFSC  x93.7
0ABC2:  BSF    FF2.7
....................             displayMenu(Menus.Letra,0,0,1,2); 
0ABC4:  MOVLW  06
0ABC6:  MOVWF  x9C
0ABC8:  MOVLW  73
0ABCA:  MOVWF  x9B
0ABCC:  CLRF   x9D
0ABCE:  CLRF   x9E
0ABD0:  MOVLW  01
0ABD2:  MOVWF  x9F
0ABD4:  MOVLW  02
0ABD6:  MOVWF  xA0
0ABD8:  MOVLB  0
0ABDA:  CALL   3048
....................             displayTemperatura(MediaMovil,30,30,0,3); 
0ABDE:  MOVLB  6
0ABE0:  CLRF   x96
0ABE2:  MOVFF  5A5,695
0ABE6:  MOVLW  1E
0ABE8:  MOVWF  x97
0ABEA:  MOVWF  x98
0ABEC:  CLRF   x99
0ABEE:  MOVLW  03
0ABF0:  MOVWF  x9A
0ABF2:  MOVLB  0
0ABF4:  CALL   4926
....................             visual=0; 
0ABF8:  MOVLB  5
0ABFA:  BCF    xAC.2
....................          } 
....................        
....................          if(UP){   
0ABFC:  BSF    F92.5
0ABFE:  BTFSC  F80.5
0AC00:  BRA    AC0E
....................             DelayPuls();MediaMovil++;visual=1; 
0AC02:  MOVLB  0
0AC04:  CALL   3C96
0AC08:  MOVLB  5
0AC0A:  INCF   xA5,F
0AC0C:  BSF    xAC.2
....................          } 
....................                 
....................          if(DOWN){   
0AC0E:  BSF    F96.0
0AC10:  BTFSC  F84.0
0AC12:  BRA    AC20
....................             DelayPuls();MediaMovil--;visual=1;      
0AC14:  MOVLB  0
0AC16:  CALL   3C96
0AC1A:  MOVLB  5
0AC1C:  DECF   xA5,F
0AC1E:  BSF    xAC.2
....................          } 
....................                 
....................          if(RIGHT) 
0AC20:  BSF    F96.1
0AC22:  BTFSC  F84.1
0AC24:  BRA    AC28
....................             visual=1; 
0AC26:  BSF    xAC.2
....................                    
....................          if(LEFT){ 
0AC28:  BSF    F96.2
0AC2A:  BTFSC  F84.2
0AC2C:  BRA    ACA4
....................             delay_ms(10); 
0AC2E:  MOVLW  0A
0AC30:  MOVLB  6
0AC32:  MOVWF  x9C
0AC34:  MOVLB  0
0AC36:  CALL   131C
....................             delay_ms(700);Menu=100;glcd_fillscreen(OFF);Opcion=1;visual=1; 
0AC3A:  MOVLW  04
0AC3C:  MOVLB  6
0AC3E:  MOVWF  x93
0AC40:  MOVLW  AF
0AC42:  MOVWF  x9C
0AC44:  MOVLB  0
0AC46:  CALL   131C
0AC4A:  MOVLB  6
0AC4C:  DECFSZ x93,F
0AC4E:  BRA    AC40
0AC50:  MOVLW  64
0AC52:  MOVLB  5
0AC54:  MOVWF  xB3
0AC56:  MOVLB  6
0AC58:  CLRF   x9B
0AC5A:  MOVLB  0
0AC5C:  CALL   2A0E
0AC60:  MOVLW  01
0AC62:  MOVLB  5
0AC64:  MOVWF  xBA
0AC66:  BSF    xAC.2
....................             write_eeprom(20,(int8)MediaMovil);delay_ms(20); 
0AC68:  CLRF   FAA
0AC6A:  MOVLW  14
0AC6C:  MOVWF  FA9
0AC6E:  MOVFF  5A5,FA8
0AC72:  BCF    FA6.6
0AC74:  BCF    FA6.7
0AC76:  BSF    FA6.2
0AC78:  MOVF   FF2,W
0AC7A:  MOVWF  00
0AC7C:  BCF    FF2.6
0AC7E:  BCF    FF2.7
0AC80:  MOVLB  F
0AC82:  MOVLW  55
0AC84:  MOVWF  FA7
0AC86:  MOVLW  AA
0AC88:  MOVWF  FA7
0AC8A:  BSF    FA6.1
0AC8C:  BTFSC  FA6.1
0AC8E:  BRA    AC8C
0AC90:  BCF    FA6.2
0AC92:  MOVF   00,W
0AC94:  IORWF  FF2,F
0AC96:  MOVLW  14
0AC98:  MOVLB  6
0AC9A:  MOVWF  x9C
0AC9C:  MOVLB  0
0AC9E:  CALL   131C
0ACA2:  MOVLB  5
....................          } 
....................      } 
.................... //_-------------------------------------------------------------------------------------------------------------------------------------------------------- 
....................  
.................... //_--------------------------------------------------------------------------------------------------------------------------------------------------------       
....................       if(Menu==108){ // Menu de Ganancia Instrumentacion 
0ACA4:  MOVF   xB3,W
0ACA6:  SUBLW  6C
0ACA8:  BTFSS  FD8.2
0ACAA:  BRA    AF7C
....................        
....................          if(Gain>110 || Gain<100) 
0ACAC:  MOVLB  6
0ACAE:  CLRF   x96
0ACB0:  CLRF   x95
0ACB2:  MOVLW  5C
0ACB4:  MOVWF  x94
0ACB6:  MOVLW  85
0ACB8:  MOVWF  x93
0ACBA:  MOVFF  5E7,69A
0ACBE:  MOVFF  5E6,699
0ACC2:  MOVFF  5E5,698
0ACC6:  MOVFF  5E4,697
0ACCA:  MOVLB  0
0ACCC:  CALL   1FE4
0ACD0:  BC    ACF8
0ACD2:  MOVFF  5E7,696
0ACD6:  MOVFF  5E6,695
0ACDA:  MOVFF  5E5,694
0ACDE:  MOVFF  5E4,693
0ACE2:  MOVLB  6
0ACE4:  CLRF   x9A
0ACE6:  CLRF   x99
0ACE8:  MOVLW  48
0ACEA:  MOVWF  x98
0ACEC:  MOVLW  85
0ACEE:  MOVWF  x97
0ACF0:  MOVLB  0
0ACF2:  CALL   1FE4
0ACF6:  BNC   AD0C
....................             Gain=105.9; 
0ACF8:  MOVLW  CD
0ACFA:  MOVLB  5
0ACFC:  MOVWF  xE7
0ACFE:  MOVLW  CC
0AD00:  MOVWF  xE6
0AD02:  MOVLW  53
0AD04:  MOVWF  xE5
0AD06:  MOVLW  85
0AD08:  MOVWF  xE4
0AD0A:  MOVLB  0
....................        
....................          strcpy(Menus.Letra,"Ganancia"); 
0AD0C:  MOVLW  06
0AD0E:  MOVWF  FEA
0AD10:  MOVLW  73
0AD12:  MOVWF  FE9
0AD14:  MOVFF  FF2,693
0AD18:  BCF    FF2.6
0AD1A:  BCF    FF2.7
0AD1C:  MOVLW  00
0AD1E:  CALL   1126
0AD22:  TBLRD*-
0AD24:  TBLRD*+
0AD26:  MOVF   FF5,W
0AD28:  MOVWF  FEE
0AD2A:  IORLW  00
0AD2C:  BNZ   AD24
0AD2E:  MOVLB  6
0AD30:  BTFSC  x93.6
0AD32:  BSF    FF2.6
0AD34:  BTFSC  x93.7
0AD36:  BSF    FF2.7
....................          displayMenu(Menus.Letra,0,0,1,2); 
0AD38:  MOVLW  06
0AD3A:  MOVWF  x9C
0AD3C:  MOVLW  73
0AD3E:  MOVWF  x9B
0AD40:  CLRF   x9D
0AD42:  CLRF   x9E
0AD44:  MOVLW  01
0AD46:  MOVWF  x9F
0AD48:  MOVLW  02
0AD4A:  MOVWF  xA0
0AD4C:  MOVLB  0
0AD4E:  CALL   3048
....................          displayTT(Gain,30,30,2); 
0AD52:  MOVFF  5E7,696
0AD56:  MOVFF  5E6,695
0AD5A:  MOVFF  5E5,694
0AD5E:  MOVFF  5E4,693
0AD62:  MOVLW  1E
0AD64:  MOVLB  6
0AD66:  MOVWF  x97
0AD68:  MOVWF  x98
0AD6A:  MOVLW  02
0AD6C:  MOVWF  x99
0AD6E:  MOVLB  0
0AD70:  GOTO   6C3E
....................  
....................          if(UP){   
0AD74:  BSF    F92.5
0AD76:  BTFSC  F80.5
0AD78:  BRA    ADB8
....................             DelayPuls(); 
0AD7A:  CALL   3C96
....................             Gain+=0.1; 
0AD7E:  BCF    FD8.1
0AD80:  MOVFF  5E7,6A2
0AD84:  MOVFF  5E6,6A1
0AD88:  MOVFF  5E5,6A0
0AD8C:  MOVFF  5E4,69F
0AD90:  MOVLW  CD
0AD92:  MOVLB  6
0AD94:  MOVWF  xA6
0AD96:  MOVLW  CC
0AD98:  MOVWF  xA5
0AD9A:  MOVLW  4C
0AD9C:  MOVWF  xA4
0AD9E:  MOVLW  7B
0ADA0:  MOVWF  xA3
0ADA2:  MOVLB  0
0ADA4:  CALL   151E
0ADA8:  MOVFF  03,5E7
0ADAC:  MOVFF  02,5E6
0ADB0:  MOVFF  01,5E5
0ADB4:  MOVFF  00,5E4
....................          } 
....................                 
....................          if(DOWN){   
0ADB8:  BSF    F96.0
0ADBA:  BTFSC  F84.0
0ADBC:  BRA    ADFC
....................             DelayPuls(); 
0ADBE:  CALL   3C96
....................             Gain-=0.1; 
0ADC2:  BSF    FD8.1
0ADC4:  MOVFF  5E7,6A2
0ADC8:  MOVFF  5E6,6A1
0ADCC:  MOVFF  5E5,6A0
0ADD0:  MOVFF  5E4,69F
0ADD4:  MOVLW  CD
0ADD6:  MOVLB  6
0ADD8:  MOVWF  xA6
0ADDA:  MOVLW  CC
0ADDC:  MOVWF  xA5
0ADDE:  MOVLW  4C
0ADE0:  MOVWF  xA4
0ADE2:  MOVLW  7B
0ADE4:  MOVWF  xA3
0ADE6:  MOVLB  0
0ADE8:  CALL   151E
0ADEC:  MOVFF  03,5E7
0ADF0:  MOVFF  02,5E6
0ADF4:  MOVFF  01,5E5
0ADF8:  MOVFF  00,5E4
....................          } 
....................                 
....................          if(RIGHT) 
0ADFC:  BSF    F96.1
0ADFE:  BTFSC  F84.1
0AE00:  BRA    AE08
....................             visual=1; 
0AE02:  MOVLB  5
0AE04:  BSF    xAC.2
0AE06:  MOVLB  0
....................                    
....................          if(LEFT){ 
0AE08:  BSF    F96.2
0AE0A:  BTFSC  F84.2
0AE0C:  BRA    AF7A
....................             delay_ms(10); 
0AE0E:  MOVLW  0A
0AE10:  MOVLB  6
0AE12:  MOVWF  x9C
0AE14:  MOVLB  0
0AE16:  CALL   131C
....................             delay_ms(700);Menu=100;glcd_fillscreen(OFF);Opcion=1;visual=1; 
0AE1A:  MOVLW  04
0AE1C:  MOVLB  6
0AE1E:  MOVWF  x93
0AE20:  MOVLW  AF
0AE22:  MOVWF  x9C
0AE24:  MOVLB  0
0AE26:  CALL   131C
0AE2A:  MOVLB  6
0AE2C:  DECFSZ x93,F
0AE2E:  BRA    AE20
0AE30:  MOVLW  64
0AE32:  MOVLB  5
0AE34:  MOVWF  xB3
0AE36:  MOVLB  6
0AE38:  CLRF   x9B
0AE3A:  MOVLB  0
0AE3C:  CALL   2A0E
0AE40:  MOVLW  01
0AE42:  MOVLB  5
0AE44:  MOVWF  xBA
0AE46:  BSF    xAC.2
....................             write_eeprom(21,(int8)Gain); 
0AE48:  MOVFF  5E7,6A2
0AE4C:  MOVFF  5E6,6A1
0AE50:  MOVFF  5E5,6A0
0AE54:  MOVFF  5E4,69F
0AE58:  MOVLB  0
0AE5A:  CALL   3854
0AE5E:  MOVFF  01,693
0AE62:  CLRF   FAA
0AE64:  MOVLW  15
0AE66:  MOVWF  FA9
0AE68:  MOVFF  693,FA8
0AE6C:  BCF    FA6.6
0AE6E:  BCF    FA6.7
0AE70:  BSF    FA6.2
0AE72:  MOVF   FF2,W
0AE74:  MOVWF  00
0AE76:  BCF    FF2.6
0AE78:  BCF    FF2.7
0AE7A:  MOVLB  F
0AE7C:  MOVLW  55
0AE7E:  MOVWF  FA7
0AE80:  MOVLW  AA
0AE82:  MOVWF  FA7
0AE84:  BSF    FA6.1
0AE86:  BTFSC  FA6.1
0AE88:  BRA    AE86
0AE8A:  BCF    FA6.2
0AE8C:  MOVF   00,W
0AE8E:  IORWF  FF2,F
....................             delay_ms(10); 
0AE90:  MOVLW  0A
0AE92:  MOVLB  6
0AE94:  MOVWF  x9C
0AE96:  MOVLB  0
0AE98:  CALL   131C
....................             Temporal=Gain-((int8)Gain); 
0AE9C:  MOVFF  5E7,6A2
0AEA0:  MOVFF  5E6,6A1
0AEA4:  MOVFF  5E5,6A0
0AEA8:  MOVFF  5E4,69F
0AEAC:  CALL   3854
0AEB0:  MOVLB  6
0AEB2:  CLRF   xA0
0AEB4:  MOVFF  01,69F
0AEB8:  MOVLB  0
0AEBA:  CALL   138A
0AEBE:  BSF    FD8.1
0AEC0:  MOVFF  5E7,6A2
0AEC4:  MOVFF  5E6,6A1
0AEC8:  MOVFF  5E5,6A0
0AECC:  MOVFF  5E4,69F
0AED0:  MOVFF  03,6A6
0AED4:  MOVFF  02,6A5
0AED8:  MOVFF  01,6A4
0AEDC:  MOVFF  00,6A3
0AEE0:  CALL   151E
0AEE4:  MOVFF  03,65B
0AEE8:  MOVFF  02,65A
0AEEC:  MOVFF  01,659
0AEF0:  MOVFF  00,658
....................             Temporal=Temporal*10; 
0AEF4:  MOVFF  65B,6B6
0AEF8:  MOVFF  65A,6B5
0AEFC:  MOVFF  659,6B4
0AF00:  MOVFF  658,6B3
0AF04:  MOVLB  6
0AF06:  CLRF   xBA
0AF08:  CLRF   xB9
0AF0A:  MOVLW  20
0AF0C:  MOVWF  xB8
0AF0E:  MOVLW  82
0AF10:  MOVWF  xB7
0AF12:  MOVLB  0
0AF14:  CALL   31BE
0AF18:  MOVFF  03,65B
0AF1C:  MOVFF  02,65A
0AF20:  MOVFF  01,659
0AF24:  MOVFF  00,658
....................             write_eeprom(22,(int8)Temporal); 
0AF28:  MOVFF  65B,6A2
0AF2C:  MOVFF  65A,6A1
0AF30:  MOVFF  659,6A0
0AF34:  MOVFF  658,69F
0AF38:  CALL   3854
0AF3C:  MOVFF  01,693
0AF40:  CLRF   FAA
0AF42:  MOVLW  16
0AF44:  MOVWF  FA9
0AF46:  MOVFF  693,FA8
0AF4A:  BCF    FA6.6
0AF4C:  BCF    FA6.7
0AF4E:  BSF    FA6.2
0AF50:  MOVF   FF2,W
0AF52:  MOVWF  00
0AF54:  BCF    FF2.6
0AF56:  BCF    FF2.7
0AF58:  MOVLB  F
0AF5A:  MOVLW  55
0AF5C:  MOVWF  FA7
0AF5E:  MOVLW  AA
0AF60:  MOVWF  FA7
0AF62:  BSF    FA6.1
0AF64:  BTFSC  FA6.1
0AF66:  BRA    AF64
0AF68:  BCF    FA6.2
0AF6A:  MOVF   00,W
0AF6C:  IORWF  FF2,F
....................             delay_ms(10); 
0AF6E:  MOVLW  0A
0AF70:  MOVLB  6
0AF72:  MOVWF  x9C
0AF74:  MOVLB  0
0AF76:  CALL   131C
0AF7A:  MOVLB  5
....................          } 
....................      } 
.................... //_-------------------------------------------------------------------------------------------------------------------------------------------------------- 
....................  
....................  
....................       if(tiemporeset>=60 && Menu!=0) 
0AF7C:  MOVF   xAF,W
0AF7E:  SUBLW  3B
0AF80:  BC    AF96
0AF82:  MOVF   xB3,F
0AF84:  BZ    AF96
....................       { 
....................          glcd_init(ON); 
0AF86:  MOVLW  01
0AF88:  MOVLB  6
0AF8A:  MOVWF  x93
0AF8C:  MOVLB  0
0AF8E:  CALL   2B20
....................          tiemporeset=0; 
0AF92:  MOVLB  5
0AF94:  CLRF   xAF
....................       }  
....................    } 
0AF96:  GOTO   7282
.................... } 
0AF9A:  SLEEP 

Configuration Fuses:
   Word  1: 0200   HS NOIESO NOFCMEN
   Word  2: 1B1F   BROWNOUT WDT BORV20 NOPUT WDT8192
   Word  3: 0000   NOPBADEN NOLPT1OSC NOMCLR
   Word  4: 00B0   NOSTVREN NODEBUG NOLVP NOXINST BBSIZ4K
   Word  5: C03F   NOPROTECT NOCPD NOCPB
   Word  6: E03F   NOWRT NOWRTD NOWRTC NOWRTB
   Word  7: 403F   NOEBTR NOEBTRB
