CCS PCH C Compiler, Version 4.104, 5967               26-oct.-20 12:18

               Filename: D:\Laboratorio\Incubadora\2020\Incubadora Refrigerada 256L Touch Avantika #004588380-81 OP202092-93\Firmware V1.2.2 Con Valvulas\Horno.lst

               ROM used: 51648 bytes (53%)
                         Largest free fragment is 32768
               RAM used: 1785 (54%) at main() level
                         1826 (55%) worst case
               Stack:    5 worst case (4 in main + 1 for interrupts)

*
00000:  GOTO   6952
*
00008:  GOTO   00AE
0000C:  NOP   
0000E:  NOP   
00010:  NOP   
00012:  NOP   
00014:  NOP   
00016:  NOP   
00018:  MOVWF  04
0001A:  MOVFF  FD8,05
0001E:  MOVFF  FE0,06
00022:  MOVLB  0
00024:  MOVFF  FE9,0C
00028:  MOVFF  FEA,07
0002C:  MOVFF  FE1,08
00030:  MOVFF  FE2,09
00034:  MOVFF  FD9,0A
00038:  MOVFF  FDA,0B
0003C:  MOVFF  FF3,12
00040:  MOVFF  FF4,13
00044:  MOVFF  FFA,14
00048:  MOVFF  FFB,15
0004C:  MOVFF  00,0E
00050:  MOVFF  01,0F
00054:  MOVFF  02,10
00058:  MOVFF  03,11
0005C:  BTFSS  F9D.0
0005E:  GOTO   0068
00062:  BTFSC  F9E.0
00064:  GOTO   02D4
00068:  MOVFF  0E,00
0006C:  MOVFF  0F,01
00070:  MOVFF  10,02
00074:  MOVFF  11,03
00078:  MOVFF  0C,FE9
0007C:  MOVFF  07,FEA
00080:  BSF    07.7
00082:  MOVFF  08,FE1
00086:  MOVFF  09,FE2
0008A:  MOVFF  0A,FD9
0008E:  MOVFF  0B,FDA
00092:  MOVFF  12,FF3
00096:  MOVFF  13,FF4
0009A:  MOVFF  14,FFA
0009E:  MOVFF  15,FFB
000A2:  MOVF   04,W
000A4:  MOVFF  06,FE0
000A8:  MOVFF  05,FD8
000AC:  RETFIE 0
000AE:  MOVWF  17
000B0:  MOVFF  FD8,18
000B4:  MOVFF  FE0,19
000B8:  MOVLB  0
000BA:  MOVFF  FE9,1F
000BE:  MOVFF  FEA,1A
000C2:  MOVFF  FE1,1B
000C6:  MOVFF  FE2,1C
000CA:  MOVFF  FD9,1D
000CE:  MOVFF  FDA,1E
000D2:  MOVFF  FF3,25
000D6:  MOVFF  FF4,26
000DA:  MOVFF  FFA,27
000DE:  MOVFF  FFB,28
000E2:  MOVFF  00,21
000E6:  MOVFF  01,22
000EA:  MOVFF  02,23
000EE:  MOVFF  03,24
000F2:  BTFSS  F9D.5
000F4:  GOTO   00FE
000F8:  BTFSC  F9E.5
000FA:  GOTO   0268
000FE:  MOVFF  21,00
00102:  MOVFF  22,01
00106:  MOVFF  23,02
0010A:  MOVFF  24,03
0010E:  MOVFF  1F,FE9
00112:  MOVFF  1A,FEA
00116:  BSF    1A.7
00118:  MOVFF  1B,FE1
0011C:  MOVFF  1C,FE2
00120:  MOVFF  1D,FD9
00124:  MOVFF  1E,FDA
00128:  MOVFF  25,FF3
0012C:  MOVFF  26,FF4
00130:  MOVFF  27,FFA
00134:  MOVFF  28,FFB
00138:  MOVF   17,W
0013A:  MOVFF  19,FE0
0013E:  MOVFF  18,FD8
00142:  RETFIE 0
.................... #include <18F4685.h> 
.................... //////// Standard Header file for the PIC18F4685 device //////////////// 
.................... #device PIC18F4685 
.................... #list 
....................  
.................... #device adc=10 
.................... #device HIGH_INTS=TRUE //Activamos niveles de prioridad 
.................... #fuses HS,WDT8192,NOPROTECT,NOLVP,NODEBUG,NOSTVREN,NOPUT,NOCPD,NOWRT,NOIESO,NOFCMEN,NOPBADEN,NOWRTC,NOWRTB,NOEBTR,NOEBTRB,NOCPB,NOXINST,NOLPT1OSC,NOMCLR 
.................... #use delay(clock=20000000) 
*
01148:  MOVLW  06
0114A:  MOVWF  FEA
0114C:  MOVLW  FA
0114E:  MOVWF  FE9
01150:  MOVF   FEF,W
01152:  BZ    116E
01154:  MOVLW  06
01156:  MOVWF  01
01158:  CLRF   00
0115A:  DECFSZ 00,F
0115C:  BRA    115A
0115E:  DECFSZ 01,F
01160:  BRA    1158
01162:  MOVLW  7B
01164:  MOVWF  00
01166:  DECFSZ 00,F
01168:  BRA    1166
0116A:  DECFSZ FEF,F
0116C:  BRA    1154
0116E:  RETLW  00
.................... #use i2c(Master,slow,sda=PIN_C4,scl=PIN_C3) 
*
03804:  MOVLW  08
03806:  MOVWF  01
03808:  MOVLW  05
0380A:  MOVWF  00
0380C:  DECFSZ 00,F
0380E:  BRA    380C
03810:  BCF    F8B.3
03812:  BCF    F94.3
03814:  MOVLW  06
03816:  MOVWF  00
03818:  DECFSZ 00,F
0381A:  BRA    3818
0381C:  MOVLB  6
0381E:  RLCF   xF2,F
03820:  BCF    F8B.4
03822:  BTFSC  FD8.0
03824:  BSF    F94.4
03826:  BTFSS  FD8.0
03828:  BCF    F94.4
0382A:  BSF    F94.3
0382C:  BTFSS  F82.3
0382E:  BRA    382C
03830:  DECFSZ 01,F
03832:  BRA    3836
03834:  BRA    383A
03836:  MOVLB  0
03838:  BRA    3808
0383A:  MOVLW  05
0383C:  MOVWF  00
0383E:  DECFSZ 00,F
03840:  BRA    383E
03842:  BCF    F8B.3
03844:  BCF    F94.3
03846:  NOP   
03848:  BSF    F94.4
0384A:  MOVLW  06
0384C:  MOVWF  00
0384E:  DECFSZ 00,F
03850:  BRA    384E
03852:  MOVLW  06
03854:  MOVWF  00
03856:  DECFSZ 00,F
03858:  BRA    3856
0385A:  BSF    F94.3
0385C:  BTFSS  F82.3
0385E:  BRA    385C
03860:  CLRF   01
03862:  MOVLW  06
03864:  MOVWF  00
03866:  DECFSZ 00,F
03868:  BRA    3866
0386A:  BTFSC  F82.4
0386C:  BSF    01.0
0386E:  BCF    F8B.3
03870:  BCF    F94.3
03872:  BCF    F8B.4
03874:  BCF    F94.4
03876:  MOVLB  0
03878:  RETLW  00
.................... #use rs232(baud=9600, xmit=PIN_C6, rcv=PIN_C7, bits=8, parity=N) 
*
02D10:  BTFSS  F9E.4
02D12:  BRA    2D10
02D14:  MOVWF  FAD
02D16:  RETLW  00
.................... #include <DS1302.c> 
.................... ////////////////////////////////////////////////////////////////////////// 
.................... ////                               DS1302.C                           //// 
.................... ////                     Driver for Real Time Clock                   //// 
.................... ////                                                                  //// 
.................... ////  rtc_init()                                   Call after power up//// 
.................... ////                                                                  //// 
.................... ////  rtc_set_datetime(day,mth,year,dow,hour,min)  Set the date/time  //// 
.................... ////                                                                  //// 
.................... ////  rtc_get_date(day,mth,year,dow)               Get the date       //// 
.................... ////                                                                  //// 
.................... ////  rtc_get_time(hr,min,sec)                     Get the time       //// 
.................... ////                                                                  //// 
.................... ////  rtc_write_nvr(address,data)                  Write to NVR       //// 
.................... ////                                                                  //// 
.................... ////  data = rtc_read_nvr(address)                 Read from NVR      //// 
.................... ////                                                                  //// 
.................... ////  get_bcd(data)                              Convert data to BCD  //// 
.................... ////                                                                  //// 
.................... ////  rm_bcd(data)                               Convert data to int  //// 
.................... ////                                                                  //// 
.................... ////////////////////////////////////////////////////////////////////////// 
.................... ////        (C) Copyright 1996,2003 Custom Computer Services          //// 
.................... //// This source code may only be used by licensed users of the CCS C //// 
.................... //// compiler.  This source code may only be distributed to other     //// 
.................... //// licensed users of the CCS C compiler.  No other use, reproduction//// 
.................... //// or distribution is permitted without written permission.         //// 
.................... //// Derivative programs created using this software in object code   //// 
.................... //// form are not restricted in any way.                              //// 
.................... ////////////////////////////////////////////////////////////////////////// 
....................  
.................... //#ifndef RTC_SCLK 
....................  
.................... #define RTC_SCLK PIN_D4 
.................... #define RTC_IO   PIN_D5 
.................... #define RTC_RST  PIN_D6 
....................  
.................... //#endif 
....................  
.................... void write_ds1302_byte(BYTE cmd) { 
....................    BYTE i; 
....................  
....................    for(i=0;i<=7;++i) { 
*
02C00:  MOVLB  6
02C02:  CLRF   xFB
02C04:  MOVF   xFB,W
02C06:  SUBLW  07
02C08:  BNC   2C24
....................       output_bit(RTC_IO, shift_right(&cmd,1,0) ); 
02C0A:  BCF    FD8.0
02C0C:  RRCF   xFA,F
02C0E:  BC    2C14
02C10:  BCF    F8C.5
02C12:  BRA    2C16
02C14:  BSF    F8C.5
02C16:  BCF    F95.5
....................       output_high(RTC_SCLK); 
02C18:  BCF    F95.4
02C1A:  BSF    F8C.4
....................       output_low(RTC_SCLK); 
02C1C:  BCF    F95.4
02C1E:  BCF    F8C.4
....................    } 
02C20:  INCF   xFB,F
02C22:  BRA    2C04
.................... } 
02C24:  MOVLB  0
02C26:  RETLW  00
....................  
.................... void write_ds1302(BYTE cmd, BYTE data) { 
....................  
....................    output_high(RTC_RST); 
02C28:  BCF    F95.6
02C2A:  BSF    F8C.6
....................    write_ds1302_byte(cmd); 
02C2C:  MOVFF  6F8,6FA
02C30:  RCALL  2C00
....................    write_ds1302_byte(data); 
02C32:  MOVFF  6F9,6FA
02C36:  RCALL  2C00
....................    output_low(RTC_RST); 
02C38:  BCF    F95.6
02C3A:  BCF    F8C.6
.................... } 
02C3C:  RETLW  00
....................  
.................... BYTE read_ds1302(BYTE cmd) { 
....................    BYTE i,data; 
....................  
....................    output_high(RTC_RST); 
02C3E:  BCF    F95.6
02C40:  BSF    F8C.6
....................    write_ds1302_byte(cmd); 
02C42:  MOVFF  6F5,6FA
02C46:  RCALL  2C00
....................     
....................    input(RTC_IO); 
02C48:  BSF    F95.5
....................    delay_us(10); 
02C4A:  MOVLW  10
02C4C:  MOVWF  00
02C4E:  DECFSZ 00,F
02C50:  BRA    2C4E
02C52:  NOP   
....................           
....................    for(i=0;i<=7;++i) { 
02C54:  MOVLB  6
02C56:  CLRF   xF6
02C58:  MOVF   xF6,W
02C5A:  SUBLW  07
02C5C:  BNC   2C88
....................       shift_right(&data,1,input(RTC_IO)); 
02C5E:  BSF    F95.5
02C60:  BTFSC  F83.5
02C62:  BRA    2C68
02C64:  BCF    FD8.0
02C66:  BRA    2C6A
02C68:  BSF    FD8.0
02C6A:  RRCF   xF7,F
....................       output_high(RTC_SCLK); 
02C6C:  BCF    F95.4
02C6E:  BSF    F8C.4
....................       delay_us(20); 
02C70:  MOVLW  21
02C72:  MOVWF  00
02C74:  DECFSZ 00,F
02C76:  BRA    2C74
....................       output_low(RTC_SCLK); 
02C78:  BCF    F95.4
02C7A:  BCF    F8C.4
....................       delay_us(20); 
02C7C:  MOVLW  21
02C7E:  MOVWF  00
02C80:  DECFSZ 00,F
02C82:  BRA    2C80
....................    } 
02C84:  INCF   xF6,F
02C86:  BRA    2C58
....................    output_low(RTC_RST); 
02C88:  BCF    F95.6
02C8A:  BCF    F8C.6
....................  
....................    return(data); 
02C8C:  MOVFF  6F7,01
.................... } 
02C90:  MOVLB  0
02C92:  RETLW  00
....................  
.................... void rtc_init() { 
....................    BYTE x; 
....................    output_low(RTC_RST); 
02C94:  BCF    F95.6
02C96:  BCF    F8C.6
....................    delay_us(20); 
02C98:  MOVLW  21
02C9A:  MOVWF  00
02C9C:  DECFSZ 00,F
02C9E:  BRA    2C9C
....................    output_low(RTC_SCLK); 
02CA0:  BCF    F95.4
02CA2:  BCF    F8C.4
....................    write_ds1302(0x8e,0); 
02CA4:  MOVLW  8E
02CA6:  MOVLB  6
02CA8:  MOVWF  xF8
02CAA:  CLRF   xF9
02CAC:  MOVLB  0
02CAE:  RCALL  2C28
....................    write_ds1302(0x90,0xa4); 
02CB0:  MOVLW  90
02CB2:  MOVLB  6
02CB4:  MOVWF  xF8
02CB6:  MOVLW  A4
02CB8:  MOVWF  xF9
02CBA:  MOVLB  0
02CBC:  RCALL  2C28
....................    x=read_ds1302(0x81); 
02CBE:  MOVLW  81
02CC0:  MOVLB  6
02CC2:  MOVWF  xF5
02CC4:  MOVLB  0
02CC6:  RCALL  2C3E
02CC8:  MOVFF  01,6F1
....................    if((x & 0x80)!=0) 
02CCC:  MOVLB  6
02CCE:  MOVF   xF1,W
02CD0:  ANDLW  80
02CD2:  BZ    2CE0
....................      write_ds1302(0x80,0); 
02CD4:  MOVLW  80
02CD6:  MOVWF  xF8
02CD8:  CLRF   xF9
02CDA:  MOVLB  0
02CDC:  RCALL  2C28
02CDE:  MOVLB  6
.................... } 
02CE0:  MOVLB  0
02CE2:  GOTO   6F80 (RETURN)
....................  
.................... byte get_bcd(BYTE data) 
.................... { 
....................    byte nibh; 
....................    byte nibl; 
....................  
....................    nibh=data/10; 
*
03FA8:  MOVFF  6F7,6FA
03FAC:  MOVLW  0A
03FAE:  MOVLB  6
03FB0:  MOVWF  xFB
03FB2:  MOVLB  0
03FB4:  RCALL  3B06
03FB6:  MOVFF  01,6F8
....................    nibl=data-(nibh*10); 
03FBA:  MOVLB  6
03FBC:  MOVF   xF8,W
03FBE:  MULLW  0A
03FC0:  MOVF   FF3,W
03FC2:  SUBWF  xF7,W
03FC4:  MOVWF  xF9
....................  
....................    return((nibh<<4)|nibl); 
03FC6:  SWAPF  xF8,W
03FC8:  MOVWF  00
03FCA:  MOVLW  F0
03FCC:  ANDWF  00,F
03FCE:  MOVF   00,W
03FD0:  IORWF  xF9,W
03FD2:  MOVWF  01
.................... } 
03FD4:  MOVLB  0
03FD6:  RETLW  00
....................  
.................... byte rm_bcd(BYTE data) 
.................... { 
....................    byte i; 
....................  
....................    i=data; 
*
03906:  MOVFF  6F6,6F7
....................    data=(i>>4)*10; 
0390A:  MOVLB  6
0390C:  SWAPF  xF7,W
0390E:  MOVWF  00
03910:  MOVLW  0F
03912:  ANDWF  00,F
03914:  MOVF   00,W
03916:  MULLW  0A
03918:  MOVFF  FF3,6F6
....................    data=data+(i<<4>>4); 
0391C:  SWAPF  xF7,W
0391E:  MOVWF  00
03920:  MOVLW  F0
03922:  ANDWF  00,F
03924:  MOVF   00,W
03926:  SWAPF  00,F
03928:  MOVLW  0F
0392A:  ANDWF  00,F
0392C:  MOVF   00,W
0392E:  ADDWF  xF6,F
....................  
....................    return data; 
03930:  MOVFF  6F6,01
.................... } 
03934:  MOVLB  0
03936:  RETLW  00
....................  
.................... void rtc_set_datetime(BYTE day, BYTE mth, BYTE year, BYTE dow, BYTE hr, BYTE min) { 
....................  
....................    write_ds1302(0x86,get_bcd(day)); 
*
03FD8:  MOVFF  6F1,6F7
03FDC:  RCALL  3FA8
03FDE:  MOVFF  01,6F7
03FE2:  MOVLW  86
03FE4:  MOVLB  6
03FE6:  MOVWF  xF8
03FE8:  MOVFF  01,6F9
03FEC:  MOVLB  0
03FEE:  CALL   2C28
....................    write_ds1302(0x88,get_bcd(mth)); 
03FF2:  MOVFF  6F2,6F7
03FF6:  RCALL  3FA8
03FF8:  MOVFF  01,6F7
03FFC:  MOVLW  88
03FFE:  MOVLB  6
04000:  MOVWF  xF8
04002:  MOVFF  01,6F9
04006:  MOVLB  0
04008:  CALL   2C28
....................    write_ds1302(0x8c,get_bcd(year)); 
0400C:  MOVFF  6F3,6F7
04010:  RCALL  3FA8
04012:  MOVFF  01,6F7
04016:  MOVLW  8C
04018:  MOVLB  6
0401A:  MOVWF  xF8
0401C:  MOVFF  01,6F9
04020:  MOVLB  0
04022:  CALL   2C28
....................    write_ds1302(0x8a,get_bcd(dow)); 
04026:  MOVFF  6F4,6F7
0402A:  RCALL  3FA8
0402C:  MOVFF  01,6F7
04030:  MOVLW  8A
04032:  MOVLB  6
04034:  MOVWF  xF8
04036:  MOVFF  01,6F9
0403A:  MOVLB  0
0403C:  CALL   2C28
....................    write_ds1302(0x84,get_bcd(hr)); 
04040:  MOVFF  6F5,6F7
04044:  RCALL  3FA8
04046:  MOVFF  01,6F7
0404A:  MOVLW  84
0404C:  MOVLB  6
0404E:  MOVWF  xF8
04050:  MOVFF  01,6F9
04054:  MOVLB  0
04056:  CALL   2C28
....................    write_ds1302(0x82,get_bcd(min)); 
0405A:  MOVFF  6F6,6F7
0405E:  RCALL  3FA8
04060:  MOVFF  01,6F7
04064:  MOVLW  82
04066:  MOVLB  6
04068:  MOVWF  xF8
0406A:  MOVFF  01,6F9
0406E:  MOVLB  0
04070:  CALL   2C28
....................    write_ds1302(0x80,get_bcd(0)); 
04074:  MOVLB  6
04076:  CLRF   xF7
04078:  MOVLB  0
0407A:  RCALL  3FA8
0407C:  MOVFF  01,6F7
04080:  MOVLW  80
04082:  MOVLB  6
04084:  MOVWF  xF8
04086:  MOVFF  01,6F9
0408A:  MOVLB  0
0408C:  CALL   2C28
.................... } 
04090:  GOTO   A220 (RETURN)
....................  
.................... void rtc_get_date(BYTE& day, BYTE& mth, BYTE& year, BYTE& dow) { 
....................    day = rm_bcd(read_ds1302(0x87)); 
*
073D0:  MOVLW  87
073D2:  MOVLB  6
073D4:  MOVWF  xF5
073D6:  MOVLB  0
073D8:  CALL   2C3E
073DC:  MOVFF  01,6F1
073E0:  MOVFF  01,6F6
073E4:  CALL   3906
073E8:  MOVFF  01,2CE
....................    mth = rm_bcd(read_ds1302(0x89)); 
073EC:  MOVLW  89
073EE:  MOVLB  6
073F0:  MOVWF  xF5
073F2:  MOVLB  0
073F4:  CALL   2C3E
073F8:  MOVFF  01,6F1
073FC:  MOVFF  01,6F6
07400:  CALL   3906
07404:  MOVFF  01,2CD
....................    year = rm_bcd(read_ds1302(0x8d)); 
07408:  MOVLW  8D
0740A:  MOVLB  6
0740C:  MOVWF  xF5
0740E:  MOVLB  0
07410:  CALL   2C3E
07414:  MOVFF  01,6F1
07418:  MOVFF  01,6F6
0741C:  CALL   3906
07420:  MOVFF  01,2CC
....................    dow = rm_bcd(read_ds1302(0x8b)); 
07424:  MOVLW  8B
07426:  MOVLB  6
07428:  MOVWF  xF5
0742A:  MOVLB  0
0742C:  CALL   2C3E
07430:  MOVFF  01,6F1
07434:  MOVFF  01,6F6
07438:  CALL   3906
0743C:  MOVFF  01,2D2
.................... } 
....................  
.................... void rtc_get_time(BYTE& hr, BYTE& min, BYTE& sec) { 
....................    hr = rm_bcd(read_ds1302(0x85)); 
07440:  MOVLW  85
07442:  MOVLB  6
07444:  MOVWF  xF5
07446:  MOVLB  0
07448:  CALL   2C3E
0744C:  MOVFF  01,6F1
07450:  MOVFF  01,6F6
07454:  CALL   3906
07458:  MOVFF  01,2CF
....................    min = rm_bcd(read_ds1302(0x83)); 
0745C:  MOVLW  83
0745E:  MOVLB  6
07460:  MOVWF  xF5
07462:  MOVLB  0
07464:  CALL   2C3E
07468:  MOVFF  01,6F1
0746C:  MOVFF  01,6F6
07470:  CALL   3906
07474:  MOVFF  01,2D0
....................    sec = rm_bcd(read_ds1302(0x81)); 
07478:  MOVLW  81
0747A:  MOVLB  6
0747C:  MOVWF  xF5
0747E:  MOVLB  0
07480:  CALL   2C3E
07484:  MOVFF  01,6F1
07488:  MOVFF  01,6F6
0748C:  CALL   3906
07490:  MOVFF  01,2D1
.................... } 
....................  
.................... void rtc_write_nvr(BYTE address, BYTE data) { 
....................    write_ds1302(address|0xc0,data); 
.................... } 
....................  
.................... BYTE rtc_read_nvr(BYTE address) { 
....................     return(read_ds1302(address|0xc1)); 
.................... } 
....................  
.................... #include <math.h> 
.................... //////////////////////////////////////////////////////////////////////////// 
.................... ////        (C) Copyright 1996,2011 Custom Computer Services            //// 
.................... //// This source code may only be used by licensed users of the CCS C   //// 
.................... //// compiler.  This source code may only be distributed to other       //// 
.................... //// licensed users of the CCS C compiler.  No other use, reproduction  //// 
.................... //// or distribution is permitted without written permission.           //// 
.................... //// Derivative programs created using this software in object code     //// 
.................... //// form are not restricted in any way.                                //// 
.................... //////////////////////////////////////////////////////////////////////////// 
.................... ////                                                                    //// 
.................... //// History:                                                           //// 
.................... ////  * 9/20/2001 :  Improvments are made to sin/cos code.              //// 
.................... ////                 The code now is small, much faster,                //// 
.................... ////                 and more accurate.                                 //// 
.................... ////  * 2/21/2007 :  Compiler handles & operator differently and does   //// 
.................... ////                 not return generic (int8 *) so type cast is done   //// 
.................... ////  * 6/19/2010 :  Divisions by constants converted to multiplication //// 
.................... ////                 by its inverse to improve computation speed        //// 
.................... ////  * 1/21/2011 :  Constants used for double precision math updated   //// 
.................... ////                 Updated routines include 64 bit versions of cos,   //// 
.................... ////                 asin,atan,exp,log and dependant functions          //// 
.................... ////  * 1/31/2011 :  Optimized current 32-bit float routines for cos    //// 
.................... ////                 and log function                                   //// 
.................... ////  * 6/13/2011 :  Fixed PCD overload CEIL_FLOOR functions for values //// 
.................... ////                 greater then 10000000 and less then -10000000      //// 
.................... ////                                                                    //// 
.................... //////////////////////////////////////////////////////////////////////////// 
....................  
.................... #ifndef MATH_H 
.................... #define MATH_H 
....................  
.................... #ifdef PI 
.................... #undef  PI 
.................... #endif 
.................... #define PI     3.1415926535897932 
....................  
....................  
.................... #define SQRT2  1.4142135623730950 
....................  
.................... //float const ps[4] = {5.9304945, 21.125224, 8.9403076, 0.29730279}; 
.................... //float const qs[4] = {1.0000000, 15.035723, 17.764134, 2.4934718}; 
....................  
.................... ///////////////////////////// Round Functions ////////////////////////////// 
....................  
.................... float32 CEIL_FLOOR(float32 x, unsigned int8 n) 
.................... { 
....................    float32 y, res; 
....................    unsigned int16 l; 
....................    int1 s; 
....................  
....................    s = 0; 
....................    y = x; 
....................  
....................    if (x < 0) 
....................    { 
....................       s = 1; 
....................       y = -y; 
....................    } 
....................  
....................    if (y <= 32768.0) 
....................       res = (float32)(unsigned int16)y; 
....................  
....................  else if (y < 10000000.0) 
....................    {  
....................       l = (unsigned int16)(y*0.000030517578125); 
....................       y = 32768.0*(y*0.000030517578125 - (float32)l); 
....................       res = 32768.0*(float32)l; 
....................       res += (float32)(unsigned int16)y; 
....................    } 
....................  
....................  else 
....................   res = y; 
....................  
....................  y = y - (float32)(unsigned int16)y; 
....................  
....................  if (s) 
....................   res = -res; 
....................  
....................  if (y != 0) 
....................  { 
....................   if (s == 1 && n == 0) 
....................    res -= 1.0; 
....................  
....................   if (s == 0 && n == 1) 
....................    res += 1.0; 
....................  } 
....................  if (x == 0) 
....................     res = 0; 
....................  
....................  return (res); 
.................... } 
....................  
.................... // Overloaded Functions to take care for new Data types in PCD 
.................... // Overloaded function CEIL_FLOOR() for data type - Float48 
.................... #if defined(__PCD__) 
.................... float48 CEIL_FLOOR(float48 x, unsigned int8 n) 
.................... { 
....................    float48 y, res; 
....................    unsigned int32 l; 
....................    int1 s; 
....................  
....................    s = 0; 
....................    y = x; 
....................  
....................    if (x < 0) 
....................    { 
....................       s = 1; 
....................       y = -y; 
....................    } 
....................  
....................    if (y <= 32768.0) 
....................       res = (float48)(unsigned int16)y; 
....................  
....................    else if (y < 549755813888.0) 
....................    { 
....................       l = (unsigned int32)(y*0.000030517578125); 
....................       y = 32768.0*(y*0.000030517578125 - (float48)l); 
....................       res = 32768.0*(float48)l; 
....................       res += (float48)(unsigned int16)y; 
....................    } 
....................    else 
....................    {   
....................       res = y; 
....................       y = 0.0; 
....................    } 
....................     
....................    if(y != 0) 
....................       y = y - (float48)(unsigned int16)y; 
....................  
....................    if (s) 
....................       res = -res; 
....................  
....................    if (y != 0) 
....................    { 
....................       if (s == 1 && n == 0) 
....................          res -= 1.0; 
....................  
....................       if (s == 0 && n == 1) 
....................          res += 1.0; 
....................    } 
....................    if (x == 0) 
....................       res = 0; 
....................  
....................    return (res); 
.................... } 
....................  
....................  
.................... // Overloaded function CEIL_FLOOR() for data type - Float64 
.................... float64 CEIL_FLOOR(float64 x, unsigned int8 n) 
.................... { 
....................    float64 y, res; 
....................    int64 l; 
....................    int1 s; 
....................  
....................    s = 0; 
....................    y = x; 
....................  
....................    if (x < 0) 
....................    { 
....................       s = 1; 
....................       y = -y; 
....................    } 
....................  
....................    if (y <= 32768.0) 
....................       res = (float64)(unsigned int16)y; 
....................    else if (y < 4503599627370496.0) 
....................    { 
....................       l = (int64)(y*0.000030517578125); 
....................       y = 32768.0*(y*0.000030517578125 - (float64)l); 
....................       res = 32768.0*(float64)l; 
....................       res += (float64)(unsigned int16)y; 
....................    } 
....................    else 
....................    { 
....................       res = y; 
....................       y = 0.0; 
....................    } 
....................     
....................    if(y != 0) 
....................       y = y - (float64)(unsigned int16)y; 
....................  
....................    if (s) 
....................       res = -res; 
....................  
....................    if (y != 0) 
....................    { 
....................       if (s == 1 && n == 0) 
....................          res -= 1.0; 
....................  
....................       if (s == 0 && n == 1) 
....................          res += 1.0; 
....................    } 
....................     
....................    if (x == 0) 
....................       res = 0; 
....................  
....................    return (res); 
.................... } 
.................... #endif 
....................  
.................... //////////////////////////////////////////////////////////////////////////// 
.................... //   float floor(float x) 
.................... //////////////////////////////////////////////////////////////////////////// 
.................... // Description : rounds down the number x. 
.................... // Date : N/A 
.................... // 
.................... float32 floor(float32 x) 
.................... { 
....................    return CEIL_FLOOR(x,0); 
.................... } 
.................... // Following 2 functions are overloaded functions of floor() for PCD 
.................... // Overloaded function floor() for data type - Float48 
.................... #if defined(__PCD__) 
.................... float48 floor(float48 x) 
.................... { 
....................    return CEIL_FLOOR(x, 0); 
.................... } 
....................  
.................... // Overloaded function floor() for data type - Float64 
.................... float64 floor(float64 x) 
.................... { 
....................    return CEIL_FLOOR(x, 0); 
.................... } 
.................... #endif 
....................  
....................  
.................... //////////////////////////////////////////////////////////////////////////// 
.................... //   float ceil(float x) 
.................... //////////////////////////////////////////////////////////////////////////// 
.................... // Description : rounds up the number x. 
.................... // Date : N/A 
.................... // 
.................... float32 ceil(float32 x) 
.................... { 
....................    return CEIL_FLOOR(x, 1); 
.................... } 
.................... // Following 2 functions are overloaded functions of ceil() for PCD 
.................... // Overloaded function ceil() for data type - Float48 
.................... #if defined(__PCD__) 
.................... float48 ceil(float48 x) 
.................... { 
....................    return CEIL_FLOOR(x, 1); 
.................... } 
....................  
.................... // Overloaded function ceil() for data type - Float64 
.................... float64 ceil(float64 x) 
.................... { 
....................    return CEIL_FLOOR(x, 1); 
.................... } 
.................... #endif 
....................  
....................  //////////////////////////////////////////////////////////////////////////// 
.................... //   float fabs(float x) 
.................... //////////////////////////////////////////////////////////////////////////// 
.................... // Description : Computes the absolute value of floating point number x 
.................... // Returns : returns the absolute value of x 
.................... // Date : N/A 
.................... // 
.................... #define fabs abs 
....................  
.................... //////////////////////////////////////////////////////////////////////////// 
.................... //   float fmod(float x) 
.................... //////////////////////////////////////////////////////////////////////////// 
.................... // Description : Computes the floating point remainder of x/y 
.................... // Returns : returns the value of x= i*y, for some integer i such that, if y 
.................... // is non zero, the result has the same isgn of x na dmagnitude less than the 
.................... // magnitude of y. If y is zero then a domain error occurs. 
.................... // Date : N/A 
.................... // 
....................  
.................... float fmod(float32 x,float32 y) 
.................... { 
....................    float32 i; 
....................    if (y!=0.0) 
....................    { 
....................       i=(x/y < 0.0)? ceil(x/y): floor(x/y); 
....................       return(x-(i*y)); 
....................    } 
....................    else 
....................    { 
....................    #ifdef _ERRNO 
....................    { 
....................       errno=EDOM; 
....................    } 
....................    #endif 
....................    } 
.................... } 
.................... //Overloaded function for fmod() for PCD 
.................... // Overloaded function fmod() for data type - Float48 
.................... #if defined(__PCD__) 
.................... float48 fmod(float48 x,float48 y) 
.................... { 
....................    float48 i; 
....................    if (y!=0.0) 
....................    { 
....................       i=(x/y < 0.0)? ceil(x/y): floor(x/y); 
....................       return(x-(i*y)); 
....................    } 
....................    else 
....................    { 
....................    #ifdef _ERRNO 
....................    { 
....................       errno=EDOM; 
....................    } 
....................    #endif 
....................    } 
.................... } 
.................... // Overloaded function fmod() for data type - Float64 
.................... float64 fmod(float64 x,float64 y) 
.................... { 
....................    float64 i; 
....................    if (y!=0.0) 
....................    { 
....................       i=(x/y < 0.0)? ceil(x/y): floor(x/y); 
....................       return(x-(i*y)); 
....................    } 
....................    else 
....................    { 
....................    #ifdef _ERRNO 
....................    { 
....................       errno=EDOM; 
....................    } 
....................    #endif 
....................    } 
.................... } 
.................... #endif 
.................... //////////////////// Exponential and logarithmic functions //////////////////// 
.................... //////////////////////////////////////////////////////////////////////////// 
.................... //   float exp(float x) 
.................... //////////////////////////////////////////////////////////////////////////// 
.................... // Description : returns the value (e^x) 
.................... // Date : N/A 
.................... // 
.................... #define LN2 0.6931471805599453 
.................... #define LN2_INV 1.4426950408889634073 
....................  
.................... float const pe[6] = {0.000207455774, 0.00127100575, 0.00965065093, 
....................                      0.0554965651,  0.240227138,  0.693147172}; 
....................  
....................  
.................... float32 exp(float32 x) 
.................... { 
....................    float32 y, res, r; 
....................    #if defined(__PCD__) 
....................    int8 data1; 
....................    #endif 
....................    signed int8 n; 
....................    int1 s; 
....................    #ifdef _ERRNO 
....................    if(x > 88.722838) 
....................    { 
....................       errno=ERANGE; 
....................       return(0); 
....................    } 
....................    #endif 
....................    n = (signed int16)(x*LN2_INV); 
....................    s = 0; 
....................    y = x; 
....................  
....................    if (x < 0) 
....................    { 
....................       s = 1; 
....................       n = -n; 
....................       y = -y; 
....................    } 
....................  
....................    res = 0.0; 
.................... #if !defined(__PCD__) 
....................    *((unsigned int8 *)(&res)) = n + 0x7F; 
.................... #endif 
....................  
.................... #if defined(__PCD__)  // Takes care of IEEE format for PCD 
....................    data1 = n+0x7F; 
....................    if(bit_test(data1,0)) 
....................    bit_set(*(((unsigned int8 *)(&res)+2)),7); 
....................    rotate_right(&data1,1); 
....................    bit_clear(data1,7); 
....................    *(((unsigned int8 *)(&res)+3)) = data1; 
.................... #endif 
....................  
....................    y = y*LN2_INV - (float32)n; 
....................  
....................    r = pe[0]*y + pe[1]; 
....................    r = r*y + pe[2]; 
....................    r = r*y + pe[3]; 
....................    r = r*y + pe[4]; 
....................    r = r*y + pe[5]; 
....................  
....................    res = res*(1.0 + y*r); 
....................  
....................    if (s) 
....................       res = 1.0/res; 
....................    return(res); 
.................... } 
....................  
....................  
.................... //Overloaded function for exp() for PCD 
.................... // Overloaded function exp() for data type - Float48 
.................... #if defined(__PCD__) 
.................... float48 exp(float48 x) 
.................... { 
....................    float48 y, res, r; 
....................    int8 data1; 
....................    signed int8 n; 
....................    int1 s; 
....................    #ifdef _ERRNO 
....................    if(x > 88.722838) 
....................    { 
....................       errno=ERANGE; 
....................       return(0); 
....................    } 
....................    #endif 
....................    n = (signed int16)(x*LN2_INV); 
....................    s = 0; 
....................    y = x; 
....................  
....................    if (x < 0) 
....................    { 
....................       s = 1; 
....................       n = -n; 
....................       y = -y; 
....................    } 
....................  
....................    res = 0.0; 
....................  
....................    data1 = n+0x7F; 
....................    if(bit_test(data1,0)) 
....................    bit_set(*(((unsigned int8 *)(&res)+4)),7); 
....................    rotate_right(&data1,1); 
....................    bit_clear(data1,7); 
....................    *(((unsigned int8 *)(&res)+5)) = data1; 
....................  
....................    y = y*LN2_INV - (float48)n; 
....................  
....................    r = pe[0]*y + pe[1]; 
....................    r = r*y + pe[2]; 
....................    r = r*y + pe[3]; 
....................    r = r*y + pe[4]; 
....................    r = r*y + pe[5]; 
....................  
....................    res = res*(1.0 + y*r); 
....................  
....................    if (s) 
....................       res = 1.0/res; 
....................    return(res); 
.................... } 
....................  
.................... // Overloaded function exp() for data type - Float64 
.................... float64 const pe_64[12] ={9.30741400474913e-011,-4.28655416283316e-011, 
....................                           8.71486547014137e-009,9.84458531538385e-008, 
....................                           1.32588296983536e-006,1.52489283823016e-005, 
....................                           0.000154037598423921,0.00133335487036216, 
....................                           0.00961812936407326,0.0555041086222122, 
....................                           0.240226506962827,0.693147180559823}; 
....................  
.................... float64 exp(float64 x) 
.................... { 
....................    float64 y, res, r; 
....................    unsigned int16 data1, data2; 
....................    unsigned int16 *p; 
....................    signed int16 n; 
....................    int1 s; 
....................    #ifdef _ERRNO 
....................    if(x > 709.7827128) 
....................    { 
....................       errno=ERANGE; 
....................       return(0); 
....................    } 
....................    #endif 
....................    y = x*LN2_INV; 
....................    n = (signed int16)y; 
....................    s = 0; 
....................    y = x; 
....................  
....................    if (x < 0) 
....................    { 
....................       s = 1; 
....................       n = -n; 
....................       y = -y; 
....................    } 
....................  
....................    res = 0.0; 
....................  
.................... #if !defined(__PCD__) 
....................    *((unsigned int16 *)(&res)) = n + 0x7F; 
.................... #endif 
....................    p= (((unsigned int16 *)(&res))+3); 
....................    data1 = *p; 
....................    data2 = *p;    
....................    data1 = n + 0x3FF; 
....................    data1 = data1 <<4; 
....................    if(bit_test(data2,15)) 
....................    bit_set(data1,15); 
....................    data2 = data2 & 0x000F; 
....................    data1 ^= data2; 
....................  
....................    *(((unsigned int16 *)(&res)+3)) = data1; 
....................  
....................  
....................    y = y*LN2_INV - (float64)n; 
....................  
....................    r = pe_64[0]*y + pe_64[1]; 
....................    r = r*y + pe_64[2]; 
....................    r = r*y + pe_64[3]; 
....................    r = r*y + pe_64[4]; 
....................    r = r*y + pe_64[5]; 
....................    r = r*y + pe_64[6]; 
....................    r = r*y + pe_64[7]; 
....................    r = r*y + pe_64[8]; 
....................    r = r*y + pe_64[9]; 
....................    r = r*y + pe_64[10]; 
....................    r = r*y + pe_64[11]; 
....................     
....................    res = res*(1.0 + y*r); 
....................  
....................    if (s) 
....................       res = 1.0/res; 
....................    return(res); 
.................... } 
.................... #ENDIF 
....................  
....................  
.................... /************************************************************/ 
....................  
.................... float32 const pl[4] = {-1.080310025160955, 1.999999947089217}; 
.................... float32 const ql[4] = {0.091284365719509, -0.873491916557671}; 
....................  
.................... //////////////////////////////////////////////////////////////////////////// 
.................... //   float log(float x) 
.................... //////////////////////////////////////////////////////////////////////////// 
.................... // Description : returns the the natural log of x 
.................... // Date : N/A 
.................... // 
.................... float32 log(float32 x) 
.................... { 
....................    float32 y, res, r, y2; 
....................    #if defined(__PCD__) 
....................    unsigned int8  data1,data2; 
....................    #endif 
....................    signed int8 n; 
....................    #ifdef _ERRNO 
....................    if(x <0) 
....................    { 
....................       errno=EDOM; 
....................    } 
....................    if(x ==0) 
....................    { 
....................       errno=ERANGE; 
....................       return(0); 
....................    } 
....................    #endif 
....................    y = x; 
....................  
....................    if (y != 1.0) 
....................    { 
.................... #if !defined(__PCD__) 
....................     *((unsigned int8 *)(&y)) = 0x7E;  
.................... #endif 
....................  
.................... #if defined(__PCD__) // Takes care of IEEE format 
....................    data2 = *(((unsigned int8 *)(&y))+3); 
....................    *(((unsigned int8 *)(&y))+3) = 0x3F; 
....................    data1 = *(((unsigned int8 *)(&y))+2); 
....................    bit_clear(data1,7); 
....................    *(((unsigned int8 *)(&y))+2) = data1; 
....................    if(bit_test(data2,7)) 
....................      bit_set(*(((unsigned int8 *)(&y))+3),7); 
.................... #endif 
....................  
....................       y = (y - 1.0)/(y + 1.0); 
....................  
....................       y2=y*y; 
....................  
....................       res = pl[0]*y2 + pl[1]; 
....................  
....................       r = ql[0]*y2 + ql[1]; 
....................       r = r*y2 + 1.0; 
....................  
....................       res = y*res/r; 
.................... #if !defined(__PCD__) 
....................       n = *((unsigned int8 *)(&x)) - 0x7E; 
.................... #endif 
.................... #if defined(__PCD__)  
....................     data1 = *(((unsigned int8 *)(&x)+3)); 
....................     rotate_left(&data1,1); 
....................     data2 = *(((unsigned int8 *)(&x)+2)); 
....................     if(bit_test (data2,7)) 
....................       bit_set(data1,0); 
....................     n = data1 - 0x7E; 
.................... #endif 
....................  
....................       if (n<0)  
....................          r = -(float32)-n; 
....................       else 
....................          r = (float32)n; 
....................  
....................       res += r*LN2; 
....................    } 
....................  
....................    else 
....................       res = 0.0; 
....................  
....................    return(res); 
.................... } 
....................  
.................... //Overloaded function for log() for PCD 
.................... // Overloaded function log() for data type - Float48 
.................... #if defined(__PCD__) 
.................... // Overloaded function log() for data type - float64 
.................... float64 const pl_64[4] = {-0.145694052150681, 1.365485300000370, 
....................                           -3.120535668274329, 2.000000000000000}; 
....................  
.................... float64 const ql_64[4] = {0.006047500465908, -0.208298281937234, 
....................                           1.113943039156721, -1.893601167470470}; 
....................  
.................... float48 log(float48 x) 
.................... { 
....................    float48 y, res, r, y2; 
....................    unsigned int8  data1,data2; 
....................    signed int8 n; 
.................... #ifdef _ERRNO 
....................    if(x <0) 
....................    { 
....................       errno=EDOM; 
....................    } 
....................    if(x ==0) 
....................    { 
....................       errno=ERANGE; 
....................       return(0); 
....................    } 
.................... #endif 
....................    y = x; 
....................  
....................    if (y != 1.0) 
....................    { 
....................  
.................... #if !defined(__PCD__) 
....................       *((unsigned int8 *)(&y)) = 0x7E;  
.................... #endif 
....................       data2 = *(((unsigned int8 *)(&y))+5); 
....................       *(((unsigned int8 *)(&y))+5) = 0x3F; 
....................       data1 = *(((unsigned int8 *)(&y))+4); 
....................       bit_clear(data1,7); 
....................       *(((unsigned int8 *)(&y))+4) = data1; 
....................  
....................       if(bit_test(data2,7)) 
....................       bit_set(*(((unsigned int8 *)(&y))+4),7); 
....................       y = (y - 1.0)/(y + 1.0); 
....................  
....................       y2=y*y; 
....................  
....................       res = pl_64[0]*y2 + pl_64[1]; 
....................       res = res*y2 + pl_64[2]; 
....................       res = res*y2 + pl_64[3]; 
....................  
....................       r = ql_64[0]*y2 + ql_64[1]; 
....................       r = r*y2 + ql_64[2]; 
....................       r = r*y2 + ql_64[3]; 
....................       r = r*y2 + 1.0;  
....................       res = y*res/r; 
....................  
....................       data1 = *(((unsigned int8 *)(&x)+5)); 
....................       rotate_left(&data1,1); 
....................       data2 = *(((unsigned int8 *)(&x)+4)); 
....................       if(bit_test (data2,7)) 
....................       bit_set(data1,0); 
....................        
....................       n = data1 - 0x7E; 
....................  
....................       if (n<0) 
....................       r = -(float48)-n; 
....................       else 
....................       r = (float48)n; 
....................  
....................       res += r*LN2; 
....................    } 
....................  
....................    else 
....................    res = 0.0; 
....................  
....................    return(res); 
.................... } 
....................  
.................... float64 log(float64 x) 
.................... { 
....................    float64 y, res, r, y2; 
....................    unsigned int16  data1,data2; 
....................    unsigned int16 *p; 
....................    signed int16 n; 
....................    #ifdef _ERRNO 
....................    if(x <0) 
....................    { 
....................       errno=EDOM; 
....................    } 
....................    if(x ==0) 
....................    { 
....................       errno=ERANGE; 
....................       return(0); 
....................    } 
....................    #endif 
....................    y = x; 
....................  
....................    if (y != 1.0) 
....................    { 
....................    #if !defined(__PCD__) 
....................        *((unsigned int8 *)(&y)) = 0x7E;  
....................    #endif 
....................       p= (((unsigned int16 *)(&y))+3); 
....................       data1 = *p; 
....................       data2 = *p; 
....................       data1 = 0x3FE; 
....................       data1 = data1 <<4; 
....................       if(bit_test (data2,15)) 
....................          bit_set(data1,15); 
....................       data2 = data2 & 0x000F; 
....................       data1 ^=data2; 
....................  
....................       *p = data1; 
....................  
....................       y = (y - 1.0)/(y + 1.0); 
....................  
....................       y2=y*y; 
....................  
....................       res = pl_64[0]*y2 + pl_64[1]; 
....................       res = res*y2 + pl_64[2]; 
....................       res = res*y2 + pl_64[3]; 
....................  
....................       r = ql_64[0]*y2 + ql_64[1]; 
....................       r = r*y2 + ql_64[2]; 
....................       r = r*y2 + ql_64[3]; 
....................       r = r*y2 + 1.0; 
....................  
....................       res = y*res/r; 
....................   
....................       p= (((unsigned int16 *)(&x))+3); 
....................       data1 = *p; 
....................       bit_clear(data1,15); 
....................       data1 = data1 >>4;     
....................       n = data1 - 0x3FE; 
....................  
....................  
....................       if (n<0) 
....................          r = -(float64)-n; 
....................       else 
....................          r = (float64)n; 
....................  
....................       res += r*LN2; 
....................    } 
....................  
....................    else 
....................       res = 0.0; 
....................  
....................    return(res); 
.................... } 
.................... #endif 
....................  
....................  
.................... #define LN10 2.3025850929940456 
.................... #define LN10_INV 0.4342944819032518276 
....................  
.................... //////////////////////////////////////////////////////////////////////////// 
.................... //   float log10(float x) 
.................... //////////////////////////////////////////////////////////////////////////// 
.................... // Description : returns the the log base 10 of x 
.................... // Date : N/A 
.................... // 
.................... float32 log10(float32 x) 
.................... { 
....................    float32 r; 
....................  
....................    r = log(x); 
....................    r = r*LN10_INV; 
....................    return(r); 
.................... } 
....................  
.................... //Overloaded functions for log10() for PCD 
.................... // Overloaded function log10() for data type - Float48 
.................... #if defined(__PCD__) 
.................... float48 log10(float48 x) 
.................... { 
....................    float48 r; 
....................  
....................    r = log(x); 
....................    r = r*LN10_INV; 
....................    return(r); 
.................... } 
....................  
.................... // Overloaded function log10() for data type - Float64 
.................... float64 log10(float64 x) 
.................... { 
....................    float64 r; 
....................  
....................    r = log(x); 
....................    r = r*LN10_INV; 
....................    return(r); 
.................... } 
.................... #endif 
.................... //////////////////////////////////////////////////////////////////////////// 
.................... //   float modf(float x) 
.................... //////////////////////////////////////////////////////////////////////////// 
.................... // Description :breaks the argument value int integral and fractional parts, 
.................... // ach of which have the same sign as the argument.  It stores the integral part 
.................... // as a float in the object pointed to by the iptr 
.................... // Returns : returns the signed fractional part of value. 
.................... // Date : N/A 
.................... // 
....................  
.................... float32 modf(float32 value,float32 *iptr) 
.................... { 
....................    *iptr=(value < 0.0)? ceil(value): floor(value); 
....................    return(value - *iptr); 
.................... } 
.................... //Overloaded functions for modf() for PCD 
.................... // Overloaded function modf() for data type - Float48 
.................... #if defined(__PCD__) 
.................... float48 modf(float48 value,float48 *iptr) 
.................... { 
....................    *iptr=(value < 0.0)? ceil(value): floor(value); 
....................    return(value - *iptr); 
.................... } 
.................... // Overloaded function modf() for data type - Float64 
.................... float64 modf(float64 value,float64 *iptr) 
.................... { 
....................    *iptr=(value < 0.0)? ceil(value): floor(value); 
....................    return(value - *iptr); 
.................... } 
.................... #endif 
....................  
.................... //////////////////////////////////////////////////////////////////////////// 
.................... //   float pwr(float x,float y) 
.................... //////////////////////////////////////////////////////////////////////////// 
.................... // Description : returns the value (x^y) 
.................... // Date : N/A 
.................... // Note : 0 is returned when the function will generate an imaginary number 
.................... // 
.................... float32 pwr(float32 x,float32 y) 
.................... { 
....................    if(0 > x && fmod(y, 1) == 0) { 
....................       if(fmod(y, 2) == 0) { 
....................          return (exp(log(-x) * y)); 
....................       } else { 
....................          return (-exp(log(-x) * y)); 
....................       } 
....................    } else if(0 > x && fmod(y, 1) != 0) { 
....................       return 0; 
....................    } else { 
....................       if(x != 0 || 0 >= y) { 
....................          return (exp(log(x) * y)); 
....................       } 
....................    } 
.................... } 
.................... //Overloaded functions for pwr() for PCD 
.................... // Overloaded function pwr() for data type - Float48 
.................... #if defined(__PCD__) 
.................... float48 pwr(float48 x,float48 y) 
.................... { 
....................    if(0 > x && fmod(y, 1) == 0) { 
....................       if(fmod(y, 2) == 0) { 
....................          return (exp(log(-x) * y)); 
....................       } else { 
....................          return (-exp(log(-x) * y)); 
....................       } 
....................    } else if(0 > x && fmod(y, 1) != 0) { 
....................       return 0; 
....................    } else { 
....................       if(x != 0 || 0 >= y) { 
....................          return (exp(log(x) * y)); 
....................       } 
....................    } 
.................... } 
.................... // Overloaded function pwr() for data type - Float64 
.................... float64 pwr(float64 x,float64 y) 
.................... { 
....................    if(0 > x && fmod(y, 1) == 0) { 
....................       if(fmod(y, 2) == 0) { 
....................          return (exp(log(-x) * y)); 
....................       } else { 
....................          return (-exp(log(-x) * y)); 
....................       } 
....................    } else if(0 > x && fmod(y, 1) != 0) { 
....................       return 0; 
....................    } else { 
....................       if(x != 0 || 0 >= y) { 
....................          return (exp(log(x) * y)); 
....................       } 
....................    } 
.................... } 
.................... #endif 
....................  
.................... //////////////////// Power functions //////////////////// 
....................  
.................... //////////////////////////////////////////////////////////////////////////// 
.................... //   float pow(float x,float y) 
.................... //////////////////////////////////////////////////////////////////////////// 
.................... // Description : returns the value (x^y) 
.................... // Date : N/A 
.................... // Note : 0 is returned when the function will generate an imaginary number 
.................... // 
.................... float32 pow(float32 x,float32 y) 
.................... { 
....................    if(0 > x && fmod(y, 1) == 0) { 
....................       if(fmod(y, 2) == 0) { 
....................          return (exp(log(-x) * y)); 
....................       } else { 
....................          return (-exp(log(-x) * y)); 
....................       } 
....................    } else if(0 > x && fmod(y, 1) != 0) { 
....................       return 0; 
....................    } else { 
....................       if(x != 0 || 0 >= y) { 
....................          return (exp(log(x) * y)); 
....................       } 
....................    } 
.................... } 
.................... //Overloaded functions for pow() for PCD 
.................... // Overloaded function for pow() data type - Float48 
.................... #if defined(__PCD__) 
.................... float48 pow(float48 x,float48 y) 
.................... { 
....................    if(0 > x && fmod(y, 1) == 0) { 
....................       if(fmod(y, 2) == 0) { 
....................          return (exp(log(-x) * y)); 
....................       } else { 
....................          return (-exp(log(-x) * y)); 
....................       } 
....................    } else if(0 > x && fmod(y, 1) != 0) { 
....................       return 0; 
....................    } else { 
....................       if(x != 0 || 0 >= y) { 
....................          return (exp(log(x) * y)); 
....................       } 
....................    } 
.................... } 
....................  
.................... // Overloaded function pow() for data type - Float64 
.................... float64 pow(float64 x,float64 y) 
.................... { 
....................    if(0 > x && fmod(y, 1) == 0) { 
....................       if(fmod(y, 2) == 0) { 
....................          return (exp(log(-x) * y)); 
....................       } else { 
....................          return (-exp(log(-x) * y)); 
....................       } 
....................    } else if(0 > x && fmod(y, 1) != 0) { 
....................       return 0; 
....................    } else { 
....................       if(x != 0 || 0 >= y) { 
....................          return (exp(log(x) * y)); 
....................       } 
....................    } 
.................... } 
.................... #endif 
....................  
.................... //////////////////////////////////////////////////////////////////////////// 
.................... //   float sqrt(float x) 
.................... //////////////////////////////////////////////////////////////////////////// 
.................... // Description : returns the square root of x 
.................... // Date : N/A 
.................... // 
.................... float32 sqrt(float32 x) 
.................... { 
....................    float32 y, res; 
....................    #if defined(__PCD__) 
....................    unsigned int16 data1,data2; 
....................    #endif 
....................    unsigned int8 *p; 
....................  
....................    #ifdef _ERRNO 
....................    if(x < 0) 
....................    { 
....................       errno=EDOM; 
....................    } 
....................    #endif 
....................  
....................    if( x<=0.0) 
....................       return(0.0); 
....................  
....................    y=x; 
....................     
....................    #if !defined(__PCD__) 
....................     p=&y; 
....................    (*p)=(unsigned int8)((((unsigned int16)(*p)) + 127) >> 1); 
....................    #endif 
....................     
....................    #if defined(__PCD__) 
....................     p = (((unsigned int8 *)(&y))+3); 
....................     data1 = *(((unsigned int8 *)(&y))+3); 
....................     data2 = *(((unsigned int8 *)(&y))+2); 
....................     rotate_left(&data1,1);     
....................     if(bit_test(data2,7))     
....................        bit_set(data1,0);     
....................     data1 = ((data1+127) >>1); 
....................     bit_clear(data2,7); 
....................     if(bit_test(data1,0)) 
....................        bit_set(data2,7); 
....................     data1 = data1 >>1; 
....................     *(((unsigned int8 *)(&y))+3) = data1; 
....................     *(((unsigned int8 *)(&y))+2) = data2; 
....................      
....................   #endif 
....................  
....................    do { 
....................       res=y; 
....................       y+=(x/y); 
....................  
....................       #if !defined(__PCD__) 
....................      (*p)--; 
....................    #endif 
....................     
....................    #if defined(__PCD__) 
....................     data1 = *(((unsigned int8 *)(&y))+3); 
....................     data2 = *(((unsigned int8 *)(&y))+2); 
....................     rotate_left(&data1,1); 
....................     if(bit_test(data2,7)) 
....................        bit_set(data1,0);     
....................     data1--; 
....................     bit_clear(data2,7); 
....................     if(bit_test(data1,0)) 
....................        bit_set(data2,7); 
....................     data1 = data1 >>1; 
....................     *(((unsigned int8 *)(&y))+3) = data1; 
....................     *(((unsigned int8 *)(&y))+2) = data2; 
....................      
....................   #endif 
....................    } while(res != y); 
....................  
....................    return(res); 
.................... } 
.................... //Overloaded functions for sqrt() for PCD 
.................... // Overloaded function sqrt() for data type - Float48 
.................... #if defined(__PCD__) 
.................... float48 sqrt(float48 x) 
.................... { 
....................    float48 y, res; 
....................    unsigned int16 data1,data2; 
....................    unsigned int8 *p; 
....................  
....................    #ifdef _ERRNO 
....................    if(x < 0) 
....................    { 
....................       errno=EDOM; 
....................    } 
....................    #endif 
....................  
....................    if( x<=0.0) 
....................       return(0.0); 
....................  
....................    y=x; 
....................     
....................    #if !defined(__PCD__) 
....................     p=&y; 
....................    (*p)=(unsigned int8)((((unsigned int16)(*p)) + 127) >> 1); 
....................    #endif 
....................     
....................    #if defined(__PCD__) 
....................     p = (((unsigned int8 *)(&y))+5); 
....................     data1 = *(((unsigned int8 *)(&y))+5); 
....................     data2 = *(((unsigned int8 *)(&y))+4); 
....................     rotate_left(&data1,1); 
....................     if(bit_test(data2,7)) 
....................        bit_set(data1,0);     
....................     data1 = ((data1+127) >>1); 
....................     bit_clear(data2,7); 
....................     if(bit_test(data1,0)) 
....................        bit_set(data2,7); 
....................     data1 = data1 >>1; 
....................     *(((unsigned int8 *)(&y))+5) = data1; 
....................     *(((unsigned int8 *)(&y))+4) = data2; 
....................      
....................   #endif 
....................  
....................    do { 
....................       res=y; 
....................       y+=(x/y); 
....................  
....................       #if !defined(__PCD__) 
....................      (*p)--; 
....................    #endif 
....................     
....................     data1 = *(((unsigned int8 *)(&y))+5); 
....................     data2 = *(((unsigned int8 *)(&y))+4); 
....................     rotate_left(&data1,1); 
....................     if(bit_test(data2,7)) 
....................        bit_set(data1,0);     
....................     data1--; 
....................     bit_clear(data2,7); 
....................     if(bit_test(data1,0)) 
....................        bit_set(data2,7); 
....................     data1 = data1 >>1; 
....................     *(((unsigned int8 *)(&y))+5) = data1; 
....................     *(((unsigned int8 *)(&y))+4) = data2; 
....................      
....................    } while(res != y); 
....................  
....................    return(res); 
.................... } 
....................  
.................... // Overloaded function sqrt() for data type - Float64 
.................... float64 sqrt(float64 x) 
.................... { 
....................    float64 y, res; 
....................    unsigned int16 *p; 
....................    unsigned int16 temp1,temp2; 
....................  
....................    #ifdef _ERRNO 
....................    if(x < 0) 
....................    { 
....................       errno=EDOM; 
....................    } 
....................    #endif 
....................  
....................    if( x<=0.0) 
....................       return(0.0); 
....................  
....................    y=x; 
....................    p= (((unsigned int16 *)(&y))+3); 
....................    temp1 = *p; 
....................    temp2 = *p; 
....................    bit_clear(temp1,15); 
....................    temp1 = (temp1>>4)+1023; 
....................    temp1 = temp1 >> 1; 
....................    temp1 = (temp1<<4) & 0xFFF0; 
....................    if(bit_test(temp2,15)) 
....................       bit_set(temp1,15); 
....................    temp2 = temp2 & 0x000F; 
....................    temp1 ^= temp2; 
....................     
....................    (*p) = temp1; 
....................     
....................    do { 
....................       res=y; 
....................       y+=(x/y); 
....................      temp1 = *p; 
....................      temp2 = *p; 
....................      bit_clear(temp1,15); 
....................      temp1 = (temp1>>4); 
....................      temp1--; 
....................      temp1 = (temp1<<4) & 0xFFF0; 
....................      if(bit_test(temp2,15)) 
....................         bit_set(temp1,15); 
....................      temp2 = temp2 & 0x000F; 
....................      temp1 ^= temp2; 
....................      (*p) = temp1; 
....................  
....................    } while(res != y); 
....................  
....................    return(res); 
.................... } 
.................... #endif 
....................  
.................... ////////////////////////////// Trig Functions ////////////////////////////// 
.................... #ifdef PI_DIV_BY_TWO_INV 
.................... #undef PI_DIV_BY_TWO_INV 
.................... #endif 
.................... #define PI_DIV_BY_TWO_INV 0.63661977236758134 
.................... #ifdef PI_DIV_BY_TWO 
.................... #undef PI_DIV_BY_TWO 
.................... #endif 
.................... #define PI_DIV_BY_TWO   1.5707963267948966 
.................... #ifdef TWOBYPI 
.................... #undef TWOBYPI 
.................... #endif 
.................... #define TWOBYPI          0.6366197723675813 
....................  
.................... //////////////////////////////////////////////////////////////////////////// 
.................... //   float cos(float x) 
.................... //////////////////////////////////////////////////////////////////////////// 
.................... // Description : returns the cosine value of the angle x, which is in radian 
.................... // Date : 9/20/2001 
.................... // 
.................... float32 cos(float32 x) 
.................... { 
....................    float32 y, t, t2 = 1.0; 
....................    unsigned int8 quad, i; 
....................    float32 frac; 
....................    float32 p[5] = {                    //by the series definition for cosine 
....................       -0.49999999456337096,            // sum ( ( (-1)^n * x^2n )/(2n)! ) 
....................        0.04166663896921267, 
....................       -0.00138883894522527, 
....................        0.00002476138231734, 
....................       -0.00000026070414770 
....................       //-0.00000000001147, 
....................       // 0.00000000000005 
....................    }; 
....................  
....................    if (x < 0) x = -x;                  // absolute value of input 
....................  
....................    quad = (unsigned int8)(x * PI_DIV_BY_TWO_INV);    // quadrant 
....................    frac = (x * PI_DIV_BY_TWO_INV) - quad;  // fractional part of input 
....................    quad = quad % 4;                    // quadrant (0 to 3) 
....................  
....................    if (quad == 0 || quad == 2) 
....................       t = frac * PI_DIV_BY_TWO; 
....................    else if (quad == 1) 
....................       t = (1-frac) * PI_DIV_BY_TWO; 
....................    else // should be 3 
....................       t = (frac-1) * PI_DIV_BY_TWO; 
....................  
....................    y = 1.0; 
....................    t = t * t; 
....................    for (i = 0; i <= 4; i++) 
....................    { 
....................       t2 = t2 * t; 
....................       y = y + p[i] * t2; 
....................    } 
....................  
....................    if (quad == 2 || quad == 1) 
....................       y = -y;  // correct sign 
....................  
....................    return (y); 
.................... } 
....................  
....................  
.................... //Overloaded functions for cos() for PCD 
.................... // Overloaded function cos() for data type - Float48 
.................... #if defined(__PCD__) 
.................... float48 cos(float48 x) 
.................... { 
....................    float48 y, t, t2 = 1.0; 
....................    unsigned int8 quad, i; 
....................    float48 frac; 
....................    float48 p[6] = {                    //by the series definition for cosine 
....................       -0.5,                            // sum ( ( (-1)^n * x^2n )/(2n)! ) 
....................        0.04166666666667, 
....................       -0.00138888888889, 
....................        0.00002480158730, 
....................       -0.00000027557319, 
....................        0.00000000208767 
....................    }; 
....................  
....................    if (x < 0) x = -x;                  // absolute value of input 
....................  
....................    quad = (unsigned int8)(x * PI_DIV_BY_TWO_INV);    // quadrant 
....................    frac = (x * PI_DIV_BY_TWO_INV) - quad;  // fractional part of input 
....................    quad = quad % 4;                    // quadrant (0 to 3) 
....................  
....................    if (quad == 0 || quad == 2) 
....................       t = frac * PI_DIV_BY_TWO; 
....................    else if (quad == 1) 
....................       t = (1-frac) * PI_DIV_BY_TWO; 
....................    else // should be 3 
....................       t = (frac-1) * PI_DIV_BY_TWO; 
....................  
....................    y = 0.999999999781; 
....................    t = t * t; 
....................    for (i = 0; i <= 5; i++) 
....................    { 
....................       t2 = t2 * t; 
....................       y = y + p[i] * t2; 
....................    } 
....................  
....................    if (quad == 2 || quad == 1) 
....................       y = -y;  // correct sign 
....................  
....................    return (y); 
.................... } 
....................  
.................... // Overloaded function cos() for data type - Float64 
.................... float64 cos(float64 x) 
.................... { 
....................    float64 y, t, t2 = 1.0; 
....................    unsigned int8 quad, i; 
....................    float64 frac; 
....................    float64 p_64[9] = {               //by the series definition for cosine 
....................      -0.49999999999998740,           // sum ( ( (-1)^n * x^2n )/(2n)! )              
....................       0.04166666666656518, 
....................      -0.00138888888851691, 
....................       0.00002480158658490, 
....................      -0.00000027557239796, 
....................       0.00000000208715031, 
....................      -0.00000000001126577, 
....................       0.00000000000000427, 
....................       0.00000000000000372}; 
....................  
....................    if (x < 0) x = -x;                  // absolute value of input 
....................  
....................    quad = (unsigned int8)(x * PI_DIV_BY_TWO_INV);    // quadrant 
....................    frac = (x * PI_DIV_BY_TWO_INV) - quad;  // fractional part of input 
....................    quad = quad % 4;                    // quadrant (0 to 3) 
....................  
....................    if (quad == 0 || quad == 2) 
....................       t = frac * PI_DIV_BY_TWO; 
....................    else if (quad == 1) 
....................       t = (1-frac) * PI_DIV_BY_TWO; 
....................    else // should be 3 
....................       t = (frac-1) * PI_DIV_BY_TWO; 
....................  
....................    y = 1.0; 
....................    t = t * t; 
....................    for (i = 0; i <= 8; i++) 
....................    { 
....................       t2 = t2 * t; 
....................       y = y + p_64[i] * t2; 
....................    } 
....................  
....................    if (quad == 2 || quad == 1) 
....................       y = -y;  // correct sign 
....................  
....................    return (y); 
.................... } 
....................  
.................... #endif 
....................  
.................... //////////////////////////////////////////////////////////////////////////// 
.................... //   float sin(float x) 
.................... //////////////////////////////////////////////////////////////////////////// 
.................... // Description : returns the sine value of the angle x, which is in radian 
.................... // Date : 9/20/2001 
.................... // 
.................... float32 sin(float32 x) 
.................... { 
....................    return cos(x - PI_DIV_BY_TWO); 
.................... } 
....................  
.................... //Overloaded functions for sin() for PCD 
.................... // Overloaded function sin() for data type - Float48 
.................... #if defined(__PCD__) 
.................... float48 sin(float48 x) 
.................... { 
....................    return cos(x - PI_DIV_BY_TWO); 
.................... } 
....................  
.................... // Overloaded function sin() for data type - Float48 
.................... float64 sin(float64 x) 
.................... { 
....................    return cos(x - PI_DIV_BY_TWO); 
.................... } 
.................... #endif 
....................  
.................... //////////////////////////////////////////////////////////////////////////// 
.................... //   float tan(float x) 
.................... //////////////////////////////////////////////////////////////////////////// 
.................... // Description : returns the tangent value of the angle x, which is in radian 
.................... // Date : 9/20/2001 
.................... // 
.................... float32 tan(float32 x) 
.................... { 
....................    float32 c, s; 
....................  
....................    c = cos(x); 
....................    if (c == 0.0) 
....................       return (1.0e+36); 
....................  
....................    s = sin(x); 
....................    return(s/c); 
.................... } 
.................... //Overloaded functions for tan() for PCD 
.................... // Overloaded function tan() for data type - Float48 
.................... #if defined(__PCD__) 
.................... float48 tan(float48 x) 
.................... { 
....................    float48 c, s; 
....................  
....................    c = cos(x); 
....................    if (c == 0.0) 
....................       return (1.0e+36); 
....................  
....................    s = sin(x); 
....................    return(s/c); 
.................... } 
....................  
.................... // Overloaded function tan() for data type - Float48 
.................... float64 tan(float64 x) 
.................... { 
....................    float64 c, s; 
....................  
....................    c = cos(x); 
....................    if (c == 0.0) 
....................       return (1.0e+36); 
....................  
....................    s = sin(x); 
....................    return(s/c); 
.................... } 
.................... #endif 
....................  
.................... float32 const pas[3] = {0.49559947, -4.6145309, 5.6036290}; 
.................... float32 const qas[3] = {1.0000000,  -5.5484666, 5.6036290}; 
....................  
.................... float32 ASIN_COS(float32 x, unsigned int8 n) 
.................... { 
....................    float32 y, res, r, y2; 
....................    int1 s; 
....................    #ifdef _ERRNO 
....................    if(x <-1 || x > 1) 
....................    { 
....................       errno=EDOM; 
....................    } 
....................    #endif 
....................    s = 0; 
....................    y = x; 
....................  
....................    if (x < 0) 
....................    { 
....................       s = 1; 
....................       y = -y; 
....................    } 
....................  
....................    if (y > 0.5) 
....................    { 
....................       y = sqrt((1.0 - y)*0.5); 
....................       n += 2; 
....................    } 
....................  
....................    y2=y*y; 
....................  
....................    res = pas[0]*y2 + pas[1]; 
....................    res = res*y2 + pas[2]; 
....................  
....................    r = qas[0]*y2 + qas[1]; 
....................    r = r*y2 + qas[2]; 
....................  
....................    res = y*res/r; 
....................  
....................    if (n & 2)     // |x| > 0.5 
....................       res = PI_DIV_BY_TWO - 2.0*res; 
....................    if (s) 
....................       res = -res; 
....................    if (n & 1)           // take arccos 
....................       res = PI_DIV_BY_TWO - res; 
....................  
....................    return(res); 
.................... } 
....................  
....................  
.................... //Overloaded functions for ASIN_COS() for PCD 
.................... // Overloaded function ASIN_COS() for data type - Float48 
.................... #if defined(__PCD__) 
.................... float48 ASIN_COS(float48 x, unsigned int8 n) 
.................... { 
....................    float48 y, res, r, y2; 
....................    int1 s; 
....................    #ifdef _ERRNO 
....................    if(x <-1 || x > 1) 
....................    { 
....................       errno=EDOM; 
....................    } 
....................    #endif 
....................    s = 0; 
....................    y = x; 
....................  
....................    if (x < 0) 
....................    { 
....................       s = 1; 
....................       y = -y; 
....................    } 
....................  
....................    if (y > 0.5) 
....................    { 
....................       y = sqrt((1.0 - y)*0.5); 
....................       n += 2; 
....................    } 
....................  
....................    y2=y*y; 
....................  
....................    res = pas[0]*y2 + pas[1]; 
....................    res = res*y2 + pas[2]; 
....................  
....................    r = qas[0]*y2 + qas[1]; 
....................    r = r*y2 + qas[2]; 
....................  
....................    res = y*res/r; 
....................  
....................    if (n & 2)     // |x| > 0.5 
....................       res = PI_DIV_BY_TWO - 2.0*res; 
....................    if (s) 
....................       res = -res; 
....................    if (n & 1)           // take arccos 
....................       res = PI_DIV_BY_TWO - res; 
....................  
....................    return(res); 
.................... } 
....................  
.................... // Overloaded function ASIN_COS() for data type - Float64 
.................... double pas_64[5]={1.000000000000000,-2.069938587724477,1.421444580548907, 
....................                  -0.360690137621842,0.024929451660228}; 
....................  
.................... double qas_64[5]={-2.236605254391134,1.719212122946451,-0.524122954476133, 
....................                    0.052808872045749,-0.000662536036570}; 
....................                     
.................... float64 ASIN_COS(float64 x, unsigned int8 n) 
.................... { 
....................    float64 y, res, r, y2; 
....................    int1 s; 
....................    #ifdef _ERRNO 
....................    if(x <-1 || x > 1) 
....................    { 
....................       errno=EDOM; 
....................    } 
....................    #endif 
....................    s = 0; 
....................    y = x; 
....................  
....................    if (x < 0) 
....................    { 
....................       s = 1; 
....................       y = -y; 
....................    } 
....................  
....................    if (y > 0.5) 
....................    { 
....................       y = sqrt((1.0 - y)*0.5); 
....................       n += 2; 
....................    } 
....................  
....................    y2=y*y; 
....................  
....................    res = pas_64[4]*y2 + pas_64[3]; 
....................    res = res*y2 + pas_64[2]; 
....................    res = res*y2 + pas_64[1]; 
....................    res = res*y2 + pas_64[0]; 
....................  
....................    r = qas_64[4]*y2 + qas_64[3]; 
....................    r = r*y2 + qas_64[2]; 
....................    r = r*y2 + qas_64[1]; 
....................    r = r*y2 + qas_64[0]; 
....................    r = r*y2 + 1.0; 
....................  
....................    res = y*res/r; 
....................  
....................    if (n & 2)     // |x| > 0.5 
....................       res = PI_DIV_BY_TWO - 2.0*res; 
....................    if (s) 
....................       res = -res; 
....................    if (n & 1)           // take arccos 
....................       res = PI_DIV_BY_TWO - res; 
....................  
....................    return(res); 
.................... } 
.................... #endif 
....................  
.................... //////////////////////////////////////////////////////////////////////////// 
.................... //   float asin(float x) 
.................... //////////////////////////////////////////////////////////////////////////// 
.................... // Description : returns the arcsine value of the value x. 
.................... // Date : N/A 
.................... // 
.................... float32 asin(float32 x) 
.................... { 
....................    float32 r; 
....................  
....................    r = ASIN_COS(x, 0); 
....................    return(r); 
.................... } 
.................... //Overloaded functions for asin() for PCD 
.................... // Overloaded function asin() for data type - Float48 
.................... #if defined(__PCD__) 
.................... float48 asin(float48 x) 
.................... { 
....................    float48 r; 
....................  
....................    r = ASIN_COS(x, 0); 
....................    return(r); 
.................... } 
....................  
.................... // Overloaded function asin() for data type - Float64 
.................... float64 asin(float64 x) 
.................... { 
....................    float64 r; 
....................  
....................    r = ASIN_COS(x, 0); 
....................    return(r); 
.................... } 
.................... #endif 
....................  
.................... //////////////////////////////////////////////////////////////////////////// 
.................... //   float acos(float x) 
.................... //////////////////////////////////////////////////////////////////////////// 
.................... // Description : returns the arccosine value of the value x. 
.................... // Date : N/A 
.................... // 
.................... float32 acos(float32 x) 
.................... { 
....................    float32 r; 
....................  
....................    r = ASIN_COS(x, 1); 
....................    return(r); 
.................... } 
.................... //Overloaded functions for acos() for PCD 
.................... // Overloaded function acos() for data type - Float48 
.................... #if defined(__PCD__) 
.................... float48 acos(float48 x) 
.................... { 
....................    float48 r; 
....................  
....................    r = ASIN_COS(x, 1); 
....................    return(r); 
.................... } 
....................  
.................... // Overloaded function acos() for data type - Float64 
.................... float64 acos(float64 x) 
.................... { 
....................    float64 r; 
....................  
....................    r = ASIN_COS(x, 1); 
....................    return(r); 
.................... } 
.................... #endif 
....................  
.................... float32 const pat[4] = {0.17630401, 5.6710795, 22.376096, 19.818457}; 
.................... float32 const qat[4] = {1.0000000,  11.368190, 28.982246, 19.818457}; 
....................  
.................... //////////////////////////////////////////////////////////////////////////// 
.................... //   float atan(float x) 
.................... //////////////////////////////////////////////////////////////////////////// 
.................... // Description : returns the arctangent value of the value x. 
.................... // Date : N/A 
.................... // 
.................... float32 atan(float32 x) 
.................... { 
....................    float32 y, res, r; 
....................    int1 s, flag; 
....................  
....................    s = 0; 
....................    flag = 0; 
....................    y = x; 
....................  
....................    if (x < 0) 
....................    { 
....................       s = 1; 
....................       y = -y; 
....................    } 
....................  
....................    if (y > 1.0) 
....................    { 
....................       y = 1.0/y; 
....................       flag = 1; 
....................    } 
....................  
....................    res = pat[0]*y*y + pat[1]; 
....................    res = res*y*y + pat[2]; 
....................    res = res*y*y + pat[3]; 
....................  
....................    r = qat[0]*y*y + qat[1]; 
....................    r = r*y*y + qat[2]; 
....................    r = r*y*y + qat[3]; 
....................  
....................    res = y*res/r; 
....................  
....................  
....................    if (flag)                              // for |x| > 1 
....................       res = PI_DIV_BY_TWO - res; 
....................    if (s) 
....................       res = -res; 
....................  
....................    return(res); 
.................... } 
.................... //Overloaded functions for atan() for PCD 
.................... // Overloaded function atan() for data type - Float48 
.................... #if defined(__PCD__) 
.................... float48 atan(float48 x) 
.................... { 
....................    float48 y, res, r; 
....................    int1 s, flag; 
....................  
....................    s = 0; 
....................    flag = 0; 
....................    y = x; 
....................  
....................    if (x < 0) 
....................    { 
....................       s = 1; 
....................       y = -y; 
....................    } 
....................  
....................    if (y > 1.0) 
....................    { 
....................       y = 1.0/y; 
....................       flag = 1; 
....................    } 
....................  
....................    res = pat[0]*y*y + pat[1]; 
....................    res = res*y*y + pat[2]; 
....................    res = res*y*y + pat[3]; 
....................  
....................    r = qat[0]*y*y + qat[1]; 
....................    r = r*y*y + qat[2]; 
....................    r = r*y*y + qat[3]; 
....................  
....................    res = y*res/r; 
....................  
....................  
....................    if (flag)                              // for |x| > 1 
....................       res = PI_DIV_BY_TWO - res; 
....................    if (s) 
....................       res = -res; 
....................  
....................    return(res); 
.................... } 
....................  
.................... float64 pat_64[6]={0.999999999999999,2.249923645595566,1.771541617806449, 
....................                    0.579678874003185,0.072162702162882,0.002281100141660}; 
....................  
.................... float64 qat_64[6]={2.583256978928510,2.432627277466967,1.016760379885393, 
....................                    0.182482977188688,0.011155377971690,0.000100013019160}; 
.................... // Overloaded function atan() for data type - Float64 
.................... float64 atan(float64 x) 
.................... { 
....................    float64 y,y2, res, r; 
....................    int1 s, flag; 
....................  
....................    s = 0; 
....................    flag = 0; 
....................    y = x; 
....................  
....................    if (x < 0) 
....................    { 
....................       s = 1; 
....................       y = -y; 
....................    } 
....................  
....................    if (y > 1.0) 
....................    { 
....................       y = 1.0/y; 
....................       flag = 1; 
....................    } 
....................    y2 = y*y; 
....................    res = pat_64[5]*y2 + pat_64[4]; 
....................    res = res*y2 + pat_64[3]; 
....................    res = res*y2 + pat_64[2]; 
....................    res = res*y2 + pat_64[1]; 
....................    res = res*y2 + pat_64[0]; 
....................  
....................    r = qat_64[5]*y2 + qat_64[4]; 
....................    r = r*y2 + qat_64[3]; 
....................    r = r*y2 + qat_64[2]; 
....................    r = r*y2 + qat_64[1]; 
....................    r = r*y2 + qat_64[0]; 
....................    r = r*y2 + 1.0; 
....................  
....................    res = y*res/r; 
....................  
....................  
....................    if (flag)                              // for |x| > 1 
....................       res = PI_DIV_BY_TWO - res; 
....................    if (s) 
....................       res = -res; 
....................  
....................    return(res); 
.................... } 
.................... #endif 
....................  
.................... ///////////////////////////////////////////////////////////////////////////// 
.................... //   float atan2(float y, float x) 
.................... ///////////////////////////////////////////////////////////////////////////// 
.................... // Description :computes the principal value of arc tangent of y/x, using the 
.................... // signs of both the arguments to determine the quadrant of the return value 
.................... // Returns : returns the arc tangent of y/x. 
.................... // Date : N/A 
.................... // 
....................  
.................... float32 atan2(float32 y,float32 x) 
.................... { 
....................    float32 z; 
....................    int1 sign; 
....................    unsigned int8 quad; 
....................    sign=0; 
....................    quad=0; //quadrant 
....................    quad=((y<=0.0)?((x<=0.0)?3:4):((x<0.0)?2:1)); 
....................    if(y<0.0) 
....................    { 
....................       sign=1; 
....................       y=-y; 
....................    } 
....................    if(x<0.0) 
....................    { 
....................       x=-x; 
....................    } 
....................    if (x==0.0) 
....................    { 
....................       if(y==0.0) 
....................       { 
....................       #ifdef _ERRNO 
....................       { 
....................          errno=EDOM; 
....................       } 
....................       #endif 
....................       } 
....................       else 
....................       { 
....................          if(sign) 
....................          { 
....................          return (-(PI_DIV_BY_TWO)); 
....................          } 
....................          else 
....................          { 
....................          return (PI_DIV_BY_TWO); 
....................          } 
....................       } 
....................    } 
....................    else 
....................    { 
....................       z=y/x; 
....................       switch(quad) 
....................       { 
....................          case 1: 
....................          { 
....................             return atan(z); 
....................             break; 
....................          } 
....................          case 2: 
....................          { 
.................... //            return (atan(z)+PI_DIV_BY_TWO);  //2L3122 
....................             return (PI-atan(z)); 
....................             break; 
....................          } 
....................          case 3: 
....................          { 
....................             return (atan(z)-PI); 
....................             break; 
....................          } 
....................          case 4: 
....................          { 
....................             return (-atan(z)); 
....................             break; 
....................          } 
....................       } 
....................    } 
.................... } 
....................  
.................... //Overloaded functions for atan2() for PCD 
.................... // Overloaded function atan2() for data type - Float48 
.................... #if defined(__PCD__) 
.................... float48 atan2(float48 y,float48 x) 
.................... { 
....................    float48 z; 
....................    int1 sign; 
....................    unsigned int8 quad; 
....................    sign=0; 
....................    quad=0; //quadrant 
....................    quad=((y<=0.0)?((x<=0.0)?3:4):((x<0.0)?2:1)); 
....................    if(y<0.0) 
....................    { 
....................       sign=1; 
....................       y=-y; 
....................    } 
....................    if(x<0.0) 
....................    { 
....................       x=-x; 
....................    } 
....................    if (x==0.0) 
....................    { 
....................       if(y==0.0) 
....................       { 
....................       #ifdef _ERRNO 
....................       { 
....................          errno=EDOM; 
....................       } 
....................       #endif 
....................       } 
....................       else 
....................       { 
....................          if(sign) 
....................          { 
....................          return (-(PI_DIV_BY_TWO)); 
....................          } 
....................          else 
....................          { 
....................          return (PI_DIV_BY_TWO); 
....................          } 
....................       } 
....................    } 
....................    else 
....................    { 
....................       z=y/x; 
....................       switch(quad) 
....................       { 
....................          case 1: 
....................          { 
....................             return atan(z); 
....................             break; 
....................          } 
....................          case 2: 
....................          { 
.................... //            return (atan(z)+PI_DIV_BY_TWO);  //2L3122 
....................             return (PI-atan(z)); 
....................             break; 
....................          } 
....................          case 3: 
....................          { 
....................             return (atan(z)-PI); 
....................             break; 
....................          } 
....................          case 4: 
....................          { 
....................             return (-atan(z)); 
....................             break; 
....................          } 
....................       } 
....................    } 
.................... } 
....................  
.................... // Overloaded function atan2() for data type - Float64 
.................... float64 atan2(float64 y,float64 x) 
.................... { 
....................    float64 z; 
....................    int1 sign; 
....................    unsigned int8 quad; 
....................    sign=0; 
....................    quad=0; //quadrant 
....................    quad=((y<=0.0)?((x<=0.0)?3:4):((x<0.0)?2:1)); 
....................    if(y<0.0) 
....................    { 
....................       sign=1; 
....................       y=-y; 
....................    } 
....................    if(x<0.0) 
....................    { 
....................       x=-x; 
....................    } 
....................    if (x==0.0) 
....................    { 
....................       if(y==0.0) 
....................       { 
....................       #ifdef _ERRNO 
....................       { 
....................          errno=EDOM; 
....................       } 
....................       #endif 
....................       } 
....................       else 
....................       { 
....................          if(sign) 
....................          { 
....................          return (-(PI_DIV_BY_TWO)); 
....................          } 
....................          else 
....................          { 
....................          return (PI_DIV_BY_TWO); 
....................          } 
....................       } 
....................    } 
....................    else 
....................    { 
....................       z=y/x; 
....................       switch(quad) 
....................       { 
....................          case 1: 
....................          { 
....................             return atan(z); 
....................             break; 
....................          } 
....................          case 2: 
....................          { 
.................... //            return (atan(z)+PI_DIV_BY_TWO);  //2L3122 
....................             return (PI-atan(z)); 
....................             break; 
....................          } 
....................          case 3: 
....................          { 
....................             return (atan(z)-PI); 
....................             break; 
....................          } 
....................          case 4: 
....................          { 
....................             return (-atan(z)); 
....................             break; 
....................          } 
....................       } 
....................    } 
.................... } 
.................... #endif 
....................  
.................... //////////////////// Hyperbolic functions //////////////////// 
....................  
.................... //////////////////////////////////////////////////////////////////////////// 
.................... //   float cosh(float x) 
.................... //////////////////////////////////////////////////////////////////////////// 
.................... // Description : Computes the hyperbolic cosine value of x 
.................... // Returns : returns the hyperbolic cosine value of x 
.................... // Date : N/A 
.................... // 
....................  
.................... float32 cosh(float32 x) 
.................... { 
....................    return ((exp(x)+exp(-x))*0.5); 
.................... } 
.................... //Overloaded functions for cosh() for PCD 
.................... // Overloaded function cosh() for data type - Float48 
.................... #if defined(__PCD__) 
.................... float48 cosh(float48 x) 
.................... { 
....................    return ((exp(x)+exp(-x))*0.5); 
.................... } 
....................  
.................... // Overloaded function cosh() for data type - Float64 
.................... float64 cosh(float64 x) 
.................... { 
....................    return ((exp(x)+exp(-x))*0.5); 
.................... } 
.................... #endif 
....................  
.................... //////////////////////////////////////////////////////////////////////////// 
.................... //   float sinh(float x) 
.................... //////////////////////////////////////////////////////////////////////////// 
.................... // Description : Computes the hyperbolic sine value of x 
.................... // Returns : returns the hyperbolic sine value of x 
.................... // Date : N/A 
.................... // 
....................  
.................... float32 sinh(float32 x) 
.................... { 
....................  
....................    return ((exp(x) - exp(-x))*0.5); 
.................... } 
.................... //Overloaded functions for sinh() for PCD 
.................... // Overloaded function sinh() for data type - Float48 
.................... #if defined(__PCD__) 
.................... float48 sinh(float48 x) 
.................... { 
....................  
....................    return ((exp(x) - exp(-x))*0.5); 
.................... } 
....................  
.................... // Overloaded function sinh() for data type - Float48 
.................... float64 sinh(float64 x) 
.................... { 
....................  
....................    return ((exp(x) - exp(-x))*0.5); 
.................... } 
.................... #endif 
....................  
.................... //////////////////////////////////////////////////////////////////////////// 
.................... //   float tanh(float x) 
.................... //////////////////////////////////////////////////////////////////////////// 
.................... // Description : Computes the hyperbolic tangent value of x 
.................... // Returns : returns the hyperbolic tangent value of x 
.................... // Date : N/A 
.................... // 
....................  
.................... float32 tanh(float32 x) 
.................... { 
....................    return(sinh(x)/cosh(x)); 
.................... } 
.................... //Overloaded functions for tanh() for PCD 
.................... // Overloaded function tanh() for data type - Float48 
.................... #if defined(__PCD__) 
.................... float48 tanh(float48 x) 
.................... { 
....................    return(sinh(x)/cosh(x)); 
.................... } 
....................  
.................... // Overloaded function tanh() for data type - Float64 
.................... float64 tanh(float64 x) 
.................... { 
....................    return(sinh(x)/cosh(x)); 
.................... } 
.................... #endif 
....................  
.................... //////////////////////////////////////////////////////////////////////////// 
.................... //   float frexp(float x, signed int *exp) 
.................... //////////////////////////////////////////////////////////////////////////// 
.................... // Description : breaks a floating point number into a normalized fraction and an integral 
.................... // power of 2. It stores the integer in the signed int object pointed to by exp. 
.................... // Returns : returns the value x, such that x is a double with magnitude in the interval 
.................... // [1/2,1) or zero, and value equals x times 2 raised to the power *exp.If value is zero, 
.................... // both parts of the result are zero. 
.................... // Date : N/A 
.................... // 
....................  
.................... #define LOG2 .30102999566398119521 
.................... #define LOG2_INV 3.32192809488736234787 
.................... float32 frexp(float32 x, signed int8 *exp) 
.................... { 
....................    float32 res; 
....................    int1 sign = 0; 
....................    if(x == 0.0) 
....................    { 
....................       *exp=0; 
....................       return (0.0); 
....................    } 
....................    if(x < 0.0) 
....................    { 
....................      x=-x; 
....................      sign=1; 
....................    } 
....................    if (x > 1.0) 
....................    { 
....................       *exp=(ceil(log10(x)*LOG2_INV)); 
....................       res=x/(pow(2, *exp)); 
....................       if (res == 1) 
....................       { 
....................          *exp=*exp+1; 
....................           res=.5; 
....................       } 
....................    } 
....................    else 
....................    { 
....................       if(x < 0.5) 
....................       { 
....................          *exp=-1; 
....................          res=x*2; 
....................       } 
....................       else 
....................       { 
....................          *exp=0; 
....................           res=x; 
....................       } 
....................    } 
....................    if(sign) 
....................    { 
....................       res=-res; 
....................    } 
....................    return res; 
.................... } 
....................  
.................... //Overloaded functions for frexp() for PCD 
.................... // Overloaded function frexp() for data type - Float48 
.................... #if defined(__PCD__) 
.................... float48 frexp(float48 x, signed int8 *exp) 
.................... { 
....................    float48 res; 
....................    int1 sign = 0; 
....................    if(x == 0.0) 
....................    { 
....................       *exp=0; 
....................       return (0.0); 
....................    } 
....................    if(x < 0.0) 
....................    { 
....................      x=-x; 
....................      sign=1; 
....................    } 
....................    if (x > 1.0) 
....................    { 
....................       *exp=(ceil(log10(x)*LOG2_INV)); 
....................       res=x/(pow(2, *exp)); 
....................       if (res == 1) 
....................       { 
....................          *exp=*exp+1; 
....................           res=.5; 
....................       } 
....................    } 
....................    else 
....................    { 
....................       if(x < 0.5) 
....................       { 
....................          *exp=-1; 
....................          res=x*2; 
....................       } 
....................       else 
....................       { 
....................          *exp=0; 
....................           res=x; 
....................       } 
....................    } 
....................    if(sign) 
....................    { 
....................       res=-res; 
....................    } 
....................    return res; 
.................... } 
....................  
.................... // Overloaded function frexp() for data type - Float64 
.................... float64 frexp(float64 x, signed int8 *exp) 
.................... { 
....................    float64 res; 
....................    int1 sign = 0; 
....................    if(x == 0.0) 
....................    { 
....................       *exp=0; 
....................       return (0.0); 
....................    } 
....................    if(x < 0.0) 
....................    { 
....................      x=-x; 
....................      sign=1; 
....................    } 
....................    if (x > 1.0) 
....................    { 
....................       *exp=(ceil(log10(x)*LOG2_INV)); 
....................       res=x/(pow(2, *exp)); 
....................       if (res == 1) 
....................       { 
....................          *exp=*exp+1; 
....................           res=.5; 
....................       } 
....................    } 
....................    else 
....................    { 
....................       if(x < 0.5) 
....................       { 
....................          *exp=-1; 
....................          res=x*2; 
....................       } 
....................       else 
....................       { 
....................          *exp=0; 
....................           res=x; 
....................       } 
....................    } 
....................    if(sign) 
....................    { 
....................       res=-res; 
....................    } 
....................    return res; 
.................... } 
.................... #endif 
....................  
.................... ////////////////////////////////////////////////////////////////////////////// 
.................... //   float ldexp(float x, signed int *exp) 
.................... ////////////////////////////////////////////////////////////////////////////// 
.................... // Description : multiplies a floating point number by an integral power of 2. 
.................... // Returns : returns the value of x times 2 raised to the power exp. 
.................... // Date : N/A 
.................... // 
....................  
.................... float32 ldexp(float32 value, signed int8 exp) 
.................... { 
....................    return (value * pow(2,exp)); 
.................... } 
.................... //Overloaded functions for ldexp() for PCD 
.................... // Overloaded function ldexp() for data type - Float48 
....................  
.................... #if defined(__PCD__) 
.................... float48 ldexp(float48 value, signed int8 exp) 
.................... { 
....................    return (value * pow(2,exp)); 
.................... } 
.................... // Overloaded function ldexp() for data type - Float64 
.................... float64 ldexp(float64 value, signed int8 exp) 
.................... { 
....................    return (value * pow(2,exp)); 
.................... } 
.................... #endif 
....................  
.................... #endif 
....................  
....................  
.................... // Definicin de teclado - NO 
.................... #define   UP            !input(PIN_B0) 
.................... #define   DOWN          !input(PIN_B1) 
.................... #define   RIGHT         !input(PIN_B2) 
.................... #define   LEFT          !input(PIN_B3) 
....................  
.................... #define   DOOR          input(PIN_B7) 
.................... #define   TERM          input(PIN_B5) 
.................... #define   TERM2         input(PIN_B6) 
....................  
.................... #define Vref  0 
.................... #define Vdiv  1023 
.................... #define VCC   5.053 
.................... #define Rfijo 70.1 
....................  
.................... // Definicin de Salidas 
.................... #define   Buzzer_on         output_bit(PIN_D7,1) 
.................... #define   Buzzer_off        output_bit(PIN_D7,0) 
.................... #define   SSR2_on           output_bit(PIN_E2,1)// SSR para calentamiento de Incubadora 
.................... #define   SSR2_off          output_bit(PIN_E2,0)// SSR para calentamiento de Incubadora 
.................... #define   SSR_on            output_bit(PIN_E1,1)// SSR para defrost 
.................... #define   SSR_off           output_bit(PIN_E1,0)// SSR para defrost 
.................... #define   Ventilador_on     output_bit(PIN_D2,0)// Ventilador Interno de la camara 
.................... #define   Ventilador_off    output_bit(PIN_D2,1)// Ventilador Interno de la camara 
.................... #define   Compresor_on      output_bit(PIN_D3,0)// Compresor de sistema de refrigeracion  
.................... #define   Compresor_off     output_bit(PIN_D3,1)// Compresor de sistema de refrigeracion  
.................... #define   Valvula1_on       output_bit(PIN_D1,0)// Valvula para conmutar de un sistema de refrigeracion a otro--Sistema Principal 
.................... #define   Valvula1_off      output_bit(PIN_D1,1)// Valvula para conmutar de un sistema de refrigeracion a otro--Sistema Principal 
.................... #define   Valvula2_on       output_bit(PIN_C5,0)// Valvula para conmutar de un sistema de refrigeracion a otro--Sistema Secundario 
.................... #define   Valvula2_off      output_bit(PIN_C5,1)// Valvula para conmutar de un sistema de refrigeracion a otro--Sistema Secundario 
....................  
....................  
.................... #define OFF 0 
.................... #define ON  1 
.................... #define RX_BUFFER_SIZE  10 
.................... char Rx_Buffer[RX_BUFFER_SIZE+1]; 
.................... char Rx_Buffer2[RX_BUFFER_SIZE+1]; 
.................... char RX_Wr_Index=0; 
....................  
....................  
.................... /* Tabla de Modulos, Primera Fila Ao Regular y el siguiente ao Bisiesto 
.................... E   F   M   A   M   J   J   A   S   O   N   D 
.................... 0   3   3   6   1   4   6   2   5   0   3   5 
.................... 0   3   4   0   2   5   0   3   6   1   4   6 
.................... */ 
.................... int8 Regular[12]={0,3,3,6,1,4,6,2,5,0,3,5}; 
.................... int8 Bisiesto[12]={0,3,4,0,2,5,0,3,6,1,4,6}; 
....................  
.................... float promedio[90]={0.0,0.0,0.0,0.0,0.0,0.0,0.0,0.0,0.0,0.0,0.0,0.0,0.0,0.0,0.0,0.0,0.0,0.0,0.0,0.0,0.0,0.0,0.0,0.0,0.0,0.0,0.0,0.0,0.0,0.0,0.0,0.0,0.0,0.0,0.0,0.0,0.0,0.0,0.0,0.0,0.0,0.0,0.0,0.0,0.0,0.0,0.0,0.0,0.0,0.0,0.0,0.0,0.0,0.0,0.0,0.0,0.0,0.0,0.0,0.0,0.0,0.0,0.0,0.0,0.0,0.0,0.0,0.0,0.0,0.0,0.0,0.0,0.0,0.0}; 
.................... float X[2]={0.0,0.0}; 
.................... short Desconectado=0,entro=OFF,GuardaEEPROM=OFF,Horas=OFF,Minutos=OFF,PruebaEstados=OFF,EstadoR1=OFF,EstadoR2=OFF,EstadoR3=OFF,EstadoR4=OFF,EstadoR5=OFF; 
.................... short Infinito=0,Finalizo=0,flag_clear=0,flagTemperatura=OFF,EstadoR6=OFF,EstadoR7=OFF,flagTDefrost=OFF,flagDefrost=OFF; 
.................... short flagControlT=OFF,flagControlH=OFF,rampa=OFF,flagRampa=OFF,flag_calcula=OFF,Humidificar=OFF,x1=ON,x10=OFF,x100=OFF; 
.................... int8 h=0,l=0,Ajuste=0,Ajusten=0,MediaMovil=10,tiemporecta=0,flag_ganancia=0,Lectura2=0,Enfria=0,Controlando=0,Ajusto=10; 
.................... int8 Derivativo=40,Integral=0,z=0,Dato2=0,Inicio=0,TipoClave=0,Modulo=0,Opcion2=0,Segmentos=0,Segmento=0,Signo=10; 
.................... float mEstp=0,hEstp=0,mEstpAnt=0,hEstpAnt=0,mEst=0,hEst=0; 
.................... short Lectura=0,flag_ajuste=0,flag_ajuste2=0,EstadoBuzzer=OFF; 
.................... short flag_clear2=0,flag_clear3=0,flag_tiempocalentamiento=0,flag_setpoint=0; 
.................... int8 y=0,tiemporeset=0; 
.................... int8 Menu=0, i=0,Pausa=0,TiempoControl=0; 
.................... int8 Opcion=1,tiempo_esterilizacion=0,decimal=0,entero=0,Dato_Exitoso=0,MenuAntt=240; 
.................... int16 tiempos=0,tiempos3=0,tiempoctrl=0,tinicio=0,tiempocalentamiento=0,tiemposetpoint=0,Tp=0,Tc=0,tDefrost=0,tCongelamiento=0,tApagadoCompresor=240,derivativo_ant=0,tterm=0,tdoor=0; 
.................... float Potencia=0.0,Gananciamax=0.0; 
.................... signed int  Password[4]={0,0,0,0};        // Contrasena Almacenada de 4 digitos 
.................... float V0=0.0,Tciclo=10.0,Tpulso=0.0,error=0.0,Prom=0.0,Temperature=0.0,tmp=0.0,Ganancia=2.0,GananciaR=2.0,desvio=0.5,Coeficiente=44.5,Pt=0.0,Humedad=0.0; 
.................... float Aumento=0.0,Temperatura=0.0,Saturacion=10.0,Setpoint=0,Temporal=0.0,SetpointH=0.0,TemperaturaEvaporador=0.0,Histeresis=0.0; 
.................... float a=0.0011,b=2.3302,c=-244.0723; 
.................... float TempeInicial=20,Tiempo=0,TiempoActual=0,PendienteActual=0,HorasActual=0,MinutosActual=0,TiempoRampa=0,Vfijo=0.0,Vfijotmp=0.0; 
.................... float PotenciaEntregada=0.0,Pendiente=0.0,DifPendiente=0.0; 
.................... float TemperaturaIdeal=0,penCamara=2.5,SetpointAnt=0.0; 
....................  
.................... int8 Year=18,Mes=9,Dia=13,Hora=0,Minuto=0,Segundo=0,dow=0; 
.................... int8 YearTx=0,MesTx=0,DiaTx=0,HoraTx=0,MinutoTx=0,dowTx=0,CicloLibre=0; 
....................  
.................... //Comunicacion//------------------------ 
.................... byte SlaveA0Tx[0X20]; 
.................... byte dato=0;            //Contendr la informacin a enviar o recibir 
.................... byte direccion=0;       //Contendr la direccin del esclavo en el bus I2C 
.................... byte posicion=0;        //Contendr la posicin en el buffer de memoria del esclavo donde se almacenar o de donde se recuperar el dato 
....................  
.................... typedef struct{ 
....................    int8 TemperaturaDec; 
....................    int8 TemperaturaInt; 
....................    int8 Signo; 
....................    float Horas; 
....................    float Minutos; 
....................    float Temperatura; 
.................... }Personalizado; 
....................  
.................... typedef struct{ 
....................    float BN; 
....................    float AN; 
....................    float V0; 
....................    float Pt; 
....................    float RPT100; 
....................    int8 l; 
....................    int8 h; 
....................    float Prom; 
....................    float Temperature; 
....................    int8 Ajuste; 
....................    int8 Ajusten; 
....................    float promedio[80]; 
....................    float Gain; 
.................... }SensorPT100; 
....................  
.................... SensorPT100 Sensor[2]; 
.................... Personalizado rampas[20]; 
....................  
.................... #include "Funciones.h" 
.................... void BorraBuffer(void){ 
.................... RX_Buffer[0]=0; 
.................... RX_Buffer[1]=0; 
.................... RX_Buffer[2]=0; 
.................... RX_Buffer[3]=0; 
.................... RX_Buffer[4]=0; 
.................... RX_Buffer[5]=0; 
.................... RX_Buffer[6]=0; 
.................... RX_Buffer[7]=0; 
.................... RX_Buffer[8]=0; 
.................... RX_Buffer[9]=0; 
....................  
.................... RX_Buffer2[0]=0; 
.................... RX_Buffer2[1]=0; 
.................... RX_Buffer2[2]=0; 
.................... RX_Buffer2[3]=0; 
.................... RX_Buffer2[4]=0; 
.................... RX_Buffer2[5]=0; 
.................... RX_Buffer2[6]=0; 
.................... RX_Buffer2[7]=0; 
.................... RX_Buffer2[8]=0; 
.................... RX_Buffer2[9]=0; 
.................... } 
....................  
.................... void SendDataDisplay(void){ 
.................... delay_us(10); 
*
02D18:  MOVLW  10
02D1A:  MOVWF  00
02D1C:  DECFSZ 00,F
02D1E:  BRA    2D1C
02D20:  NOP   
.................... putc(0xFF); 
02D22:  MOVLW  FF
02D24:  RCALL  2D10
.................... delay_us(10); 
02D26:  MOVLW  10
02D28:  MOVWF  00
02D2A:  DECFSZ 00,F
02D2C:  BRA    2D2A
02D2E:  NOP   
.................... putc(0xFF); 
02D30:  MOVLW  FF
02D32:  RCALL  2D10
.................... delay_us(10); 
02D34:  MOVLW  10
02D36:  MOVWF  00
02D38:  DECFSZ 00,F
02D3A:  BRA    2D38
02D3C:  NOP   
.................... putc(0xFF); 
02D3E:  MOVLW  FF
02D40:  RCALL  2D10
.................... delay_us(10); 
02D42:  MOVLW  10
02D44:  MOVWF  00
02D46:  DECFSZ 00,F
02D48:  BRA    2D46
02D4A:  NOP   
.................... } 
02D4C:  RETLW  00
....................  
.................... short esBisiesto(int8 year) { 
....................      return ((year % 4 == 0 && year % 100 != 0) || year % 400 == 0); 
*
03F56:  MOVLB  6
03F58:  MOVF   xF1,W
03F5A:  ANDLW  03
03F5C:  BNZ   3F70
03F5E:  MOVFF  6F1,6FA
03F62:  MOVLW  64
03F64:  MOVWF  xFB
03F66:  MOVLB  0
03F68:  RCALL  3B06
03F6A:  MOVF   00,F
03F6C:  BNZ   3F9E
03F6E:  MOVLB  6
03F70:  CLRF   xF3
03F72:  MOVFF  6F1,6F2
03F76:  MOVLW  01
03F78:  MOVWF  xF5
03F7A:  MOVLW  90
03F7C:  MOVWF  xF4
03F7E:  MOVLB  0
03F80:  RCALL  3F10
03F82:  MOVFF  00,6F2
03F86:  MOVLB  6
03F88:  MOVFF  03,6F3
03F8C:  MOVF   xF2,F
03F8E:  BNZ   3F9A
03F90:  MOVF   xF3,F
03F92:  BTFSS  FD8.2
03F94:  BRA    3F9A
03F96:  MOVLB  0
03F98:  BRA    3F9E
03F9A:  MOVLW  00
03F9C:  BRA    3FA2
03F9E:  MOVLW  01
03FA0:  MOVLB  6
03FA2:  MOVWF  01
.................... } 
03FA4:  MOVLB  0
03FA6:  RETLW  00
....................  
.................... void LimitaDia(){ 
....................    if(MesTx>12) 
*
04094:  MOVLB  2
04096:  MOVF   xD4,W
04098:  SUBLW  0C
0409A:  BC    40A0
....................       MesTx=10; 
0409C:  MOVLW  0A
0409E:  MOVWF  xD4
....................    if(DiaTx>31) 
040A0:  MOVF   xD5,W
040A2:  SUBLW  1F
040A4:  BC    40AA
....................       DiaTx=16; 
040A6:  MOVLW  10
040A8:  MOVWF  xD5
....................    if(YearTx>99) 
040AA:  MOVF   xD3,W
040AC:  SUBLW  63
040AE:  BC    40B4
....................       YearTx=18;    
040B0:  MOVLW  12
040B2:  MOVWF  xD3
....................    if(HoraTx>24) 
040B4:  MOVF   xD6,W
040B6:  SUBLW  18
040B8:  BC    40BE
....................       HoraTx=11;       
040BA:  MOVLW  0B
040BC:  MOVWF  xD6
....................    if(MinutoTx>59) 
040BE:  MOVF   xD7,W
040C0:  SUBLW  3B
040C2:  BC    40C8
....................       MinutoTx=30;       
040C4:  MOVLW  1E
040C6:  MOVWF  xD7
....................     
....................       if(MesTx==2){ 
040C8:  MOVF   xD4,W
040CA:  SUBLW  02
040CC:  BNZ   40F8
....................          if(esBisiesto(YearTx)){ 
040CE:  MOVFF  2D3,6F1
040D2:  MOVLB  0
040D4:  RCALL  3F56
040D6:  MOVF   01,F
040D8:  BZ    40EA
....................             if(DiaTx>29){ 
040DA:  MOVLB  2
040DC:  MOVF   xD5,W
040DE:  SUBLW  1D
040E0:  BC    40E6
....................                DiaTx=29; 
040E2:  MOVLW  1D
040E4:  MOVWF  xD5
....................                //glcd_fillScreen(OFF); 
....................             } 
....................          }else{ 
040E6:  BRA    40F6
040E8:  MOVLB  0
....................             if(DiaTx>28){ 
040EA:  MOVLB  2
040EC:  MOVF   xD5,W
040EE:  SUBLW  1C
040F0:  BC    40F6
....................                DiaTx=28; 
040F2:  MOVLW  1C
040F4:  MOVWF  xD5
....................                //glcd_fillScreen(OFF); 
....................             } 
....................          } 
....................       }else{ 
040F6:  BRA    4122
....................          if(MesTx<=7){ 
040F8:  MOVF   xD4,W
040FA:  SUBLW  07
040FC:  BNC   4110
....................             if(MesTx % 2 ==0){ 
040FE:  MOVF   xD4,W
04100:  ANDLW  01
04102:  BNZ   410E
....................                if(DiaTx>30){ 
04104:  MOVF   xD5,W
04106:  SUBLW  1E
04108:  BC    410E
....................                   DiaTx=30;  
0410A:  MOVLW  1E
0410C:  MOVWF  xD5
....................                   //glcd_fillScreen(OFF); 
....................                } 
....................             } 
....................          }else{ 
0410E:  BRA    4122
....................             if(MesTx % 2 ==1){ 
04110:  MOVF   xD4,W
04112:  ANDLW  01
04114:  SUBLW  01
04116:  BNZ   4122
....................                if(DiaTx>30){ 
04118:  MOVF   xD5,W
0411A:  SUBLW  1E
0411C:  BC    4122
....................                   DiaTx=30;  
0411E:  MOVLW  1E
04120:  MOVWF  xD5
....................                   //glcd_fillScreen(OFF); 
....................                } 
....................             } 
....................          } 
....................       } 
.................... } 
04122:  MOVLB  0
04124:  GOTO   A4BE (RETURN)
....................  
....................  
.................... void ActualizaRecta(){ 
....................    X[y]=Temperatura; 
*
041C8:  MOVLB  1
041CA:  MOVF   xFC,W
041CC:  MULLW  04
041CE:  MOVF   FF3,W
041D0:  CLRF   03
041D2:  ADDLW  C1
041D4:  MOVWF  FE9
041D6:  MOVLW  01
041D8:  ADDWFC 03,W
041DA:  MOVWF  FEA
041DC:  MOVFF  268,FEF
041E0:  MOVFF  269,FEC
041E4:  MOVFF  26A,FEC
041E8:  MOVFF  26B,FEC
....................    y++; 
041EC:  INCF   xFC,F
....................    if(y>=2){ 
041EE:  MOVF   xFC,W
041F0:  SUBLW  01
041F2:  BTFSC  FD8.0
041F4:  BRA    4450
....................       y=0; 
041F6:  CLRF   xFC
....................       Aumento=X[1]-X[0]; 
041F8:  BSF    FD8.1
041FA:  MOVFF  1C8,705
041FE:  MOVFF  1C7,704
04202:  MOVFF  1C6,703
04206:  MOVFF  1C5,702
0420A:  MOVFF  1C4,709
0420E:  MOVFF  1C3,708
04212:  MOVFF  1C2,707
04216:  MOVFF  1C1,706
0421A:  MOVLB  0
0421C:  CALL   12EE
04220:  MOVFF  03,267
04224:  MOVFF  02,266
04228:  MOVFF  01,265
0422C:  MOVFF  00,264
....................       HorasActual=hEst; 
04230:  MOVFF  1FA,2A3
04234:  MOVFF  1F9,2A2
04238:  MOVFF  1F8,2A1
0423C:  MOVFF  1F7,2A0
....................       MinutosActual=mEst; 
04240:  MOVFF  1F6,2A7
04244:  MOVFF  1F5,2A6
04248:  MOVFF  1F4,2A5
0424C:  MOVFF  1F3,2A4
....................       TiempoActual=Tiempo-((HorasActual*3600)+(MinutosActual*60)+tinicio); 
04250:  MOVFF  2A3,710
04254:  MOVFF  2A2,70F
04258:  MOVFF  2A1,70E
0425C:  MOVFF  2A0,70D
04260:  MOVLB  7
04262:  CLRF   x14
04264:  CLRF   x13
04266:  MOVLW  61
04268:  MOVWF  x12
0426A:  MOVLW  8A
0426C:  MOVWF  x11
0426E:  MOVLB  0
04270:  CALL   15CA
04274:  MOVFF  00,6F1
04278:  MOVFF  01,6F2
0427C:  MOVFF  02,6F3
04280:  MOVFF  03,6F4
04284:  MOVFF  2A7,710
04288:  MOVFF  2A6,70F
0428C:  MOVFF  2A5,70E
04290:  MOVFF  2A4,70D
04294:  MOVLB  7
04296:  CLRF   x14
04298:  CLRF   x13
0429A:  MOVLW  70
0429C:  MOVWF  x12
0429E:  MOVLW  84
042A0:  MOVWF  x11
042A2:  MOVLB  0
042A4:  CALL   15CA
042A8:  BCF    FD8.1
042AA:  MOVFF  6F4,705
042AE:  MOVFF  6F3,704
042B2:  MOVFF  6F2,703
042B6:  MOVFF  6F1,702
042BA:  MOVFF  03,709
042BE:  MOVFF  02,708
042C2:  MOVFF  01,707
042C6:  MOVFF  00,706
042CA:  CALL   12EE
042CE:  MOVFF  00,6F1
042D2:  MOVFF  01,6F2
042D6:  MOVFF  02,6F3
042DA:  MOVFF  03,6F4
042DE:  MOVFF  20F,703
042E2:  MOVFF  20E,702
042E6:  CALL   1112
042EA:  BCF    FD8.1
042EC:  MOVFF  6F4,705
042F0:  MOVFF  6F3,704
042F4:  MOVFF  6F2,703
042F8:  MOVFF  6F1,702
042FC:  MOVFF  03,709
04300:  MOVFF  02,708
04304:  MOVFF  01,707
04308:  MOVFF  00,706
0430C:  CALL   12EE
04310:  BSF    FD8.1
04312:  MOVFF  297,705
04316:  MOVFF  296,704
0431A:  MOVFF  295,703
0431E:  MOVFF  294,702
04322:  MOVFF  03,709
04326:  MOVFF  02,708
0432A:  MOVFF  01,707
0432E:  MOVFF  00,706
04332:  CALL   12EE
04336:  MOVFF  03,29B
0433A:  MOVFF  02,29A
0433E:  MOVFF  01,299
04342:  MOVFF  00,298
....................       PendienteActual=((Setpoint-Temperatura)/TiempoActual); 
04346:  BSF    FD8.1
04348:  MOVFF  273,705
0434C:  MOVFF  272,704
04350:  MOVFF  271,703
04354:  MOVFF  270,702
04358:  MOVFF  26B,709
0435C:  MOVFF  26A,708
04360:  MOVFF  269,707
04364:  MOVFF  268,706
04368:  CALL   12EE
0436C:  MOVFF  00,6F1
04370:  MOVFF  01,6F2
04374:  MOVFF  02,6F3
04378:  MOVFF  03,6F4
0437C:  MOVFF  03,6FE
04380:  MOVFF  02,6FD
04384:  MOVFF  01,6FC
04388:  MOVFF  00,6FB
0438C:  MOVFF  29B,702
04390:  MOVFF  29A,701
04394:  MOVFF  299,700
04398:  MOVFF  298,6FF
0439C:  CALL   1170
043A0:  MOVFF  03,29F
043A4:  MOVFF  02,29E
043A8:  MOVFF  01,29D
043AC:  MOVFF  00,29C
....................       DifPendiente=(PendienteActual*20)-Aumento; 
043B0:  MOVFF  29F,710
043B4:  MOVFF  29E,70F
043B8:  MOVFF  29D,70E
043BC:  MOVFF  29C,70D
043C0:  MOVLB  7
043C2:  CLRF   x14
043C4:  CLRF   x13
043C6:  MOVLW  20
043C8:  MOVWF  x12
043CA:  MOVLW  83
043CC:  MOVWF  x11
043CE:  MOVLB  0
043D0:  CALL   15CA
043D4:  MOVFF  00,6F1
043D8:  MOVFF  01,6F2
043DC:  MOVFF  02,6F3
043E0:  MOVFF  03,6F4
043E4:  BSF    FD8.1
043E6:  MOVFF  03,705
043EA:  MOVFF  02,704
043EE:  MOVFF  01,703
043F2:  MOVFF  00,702
043F6:  MOVFF  267,709
043FA:  MOVFF  266,708
043FE:  MOVFF  265,707
04402:  MOVFF  264,706
04406:  CALL   12EE
0440A:  MOVFF  03,2BF
0440E:  MOVFF  02,2BE
04412:  MOVFF  01,2BD
04416:  MOVFF  00,2BC
....................       DifPendiente=DifPendiente*5; 
0441A:  MOVFF  2BF,710
0441E:  MOVFF  2BE,70F
04422:  MOVFF  2BD,70E
04426:  MOVFF  2BC,70D
0442A:  MOVLB  7
0442C:  CLRF   x14
0442E:  CLRF   x13
04430:  MOVLW  20
04432:  MOVWF  x12
04434:  MOVLW  81
04436:  MOVWF  x11
04438:  MOVLB  0
0443A:  CALL   15CA
0443E:  MOVFF  03,2BF
04442:  MOVFF  02,2BE
04446:  MOVFF  01,2BD
0444A:  MOVFF  00,2BC
0444E:  MOVLB  1
....................    } 
.................... } 
04450:  MOVLB  0
04452:  RETLW  00
....................  
.................... // Funcion para conversor analogo-digital 
.................... float sensores(int x){ 
.................... float y;set_adc_channel(x);delay_ms(1);y=read_adc();return (y); 
*
02D4E:  MOVLB  6
02D50:  RLCF   xF5,W
02D52:  MOVWF  00
02D54:  RLCF   00,F
02D56:  MOVLW  FC
02D58:  ANDWF  00,F
02D5A:  MOVFF  00,01
02D5E:  MOVF   FC2,W
02D60:  ANDLW  C3
02D62:  IORWF  00,W
02D64:  MOVWF  FC2
02D66:  MOVLW  01
02D68:  MOVWF  xFA
02D6A:  MOVLB  0
02D6C:  CALL   1148
02D70:  BSF    FC2.1
02D72:  BTFSC  FC2.1
02D74:  BRA    2D72
02D76:  MOVFF  FC4,703
02D7A:  MOVFF  FC3,702
02D7E:  MOVLB  0
02D80:  CALL   1112
02D84:  MOVFF  03,6F9
02D88:  MOVFF  02,6F8
02D8C:  MOVFF  01,6F7
02D90:  MOVFF  00,6F6
02D94:  MOVFF  6F6,00
02D98:  MOVFF  6F7,01
02D9C:  MOVFF  6F8,02
02DA0:  MOVFF  6F9,03
.................... } 
02DA4:  RETLW  00
....................  
.................... float LeerPT100(int8 canal,int media) 
.................... { 
....................    Prom=0.0;  
02DA6:  MOVLB  2
02DA8:  CLRF   x43
02DAA:  CLRF   x42
02DAC:  CLRF   x41
02DAE:  CLRF   x40
....................    Sensor[canal].V0 = sensores(canal);   //Lectura de Divisor de Voltaje de PT100 con resistencia de 6.18k (+-2%) 
02DB0:  MOVLB  6
02DB2:  CLRF   xFA
02DB4:  MOVFF  6F1,6F9
02DB8:  MOVLW  01
02DBA:  MOVWF  xFC
02DBC:  MOVLW  64
02DBE:  MOVWF  xFB
02DC0:  MOVLB  0
02DC2:  CALL   1566
02DC6:  MOVFF  01,6F3
02DCA:  MOVLW  08
02DCC:  MOVLB  6
02DCE:  ADDWF  01,W
02DD0:  MOVWF  01
02DD2:  MOVLW  00
02DD4:  ADDWFC 02,W
02DD6:  MOVWF  03
02DD8:  MOVF   01,W
02DDA:  ADDLW  FD
02DDC:  MOVWF  01
02DDE:  MOVLW  02
02DE0:  ADDWFC 03,F
02DE2:  MOVFF  01,6F3
02DE6:  MOVFF  03,6F4
02DEA:  MOVFF  6F1,6F5
02DEE:  MOVLB  0
02DF0:  RCALL  2D4E
02DF2:  MOVFF  6F4,FEA
02DF6:  MOVFF  6F3,FE9
02DFA:  MOVFF  00,FEF
02DFE:  MOVFF  01,FEC
02E02:  MOVFF  02,FEC
02E06:  MOVFF  03,FEC
....................    Sensor[canal].V0 = Sensor[canal].V0/Sensor[canal].Gain; // Se elimina la ganancia 
02E0A:  MOVLB  6
02E0C:  CLRF   xFA
02E0E:  MOVFF  6F1,6F9
02E12:  MOVLW  01
02E14:  MOVWF  xFC
02E16:  MOVLW  64
02E18:  MOVWF  xFB
02E1A:  MOVLB  0
02E1C:  CALL   1566
02E20:  MOVFF  01,6F3
02E24:  MOVLW  08
02E26:  MOVLB  6
02E28:  ADDWF  01,W
02E2A:  MOVWF  01
02E2C:  MOVLW  00
02E2E:  ADDWFC 02,W
02E30:  MOVWF  03
02E32:  MOVF   01,W
02E34:  ADDLW  FD
02E36:  MOVWF  01
02E38:  MOVLW  02
02E3A:  ADDWFC 03,F
02E3C:  MOVFF  01,6F3
02E40:  MOVFF  03,6F4
02E44:  CLRF   xFA
02E46:  MOVFF  6F1,6F9
02E4A:  MOVLW  01
02E4C:  MOVWF  xFC
02E4E:  MOVLW  64
02E50:  MOVWF  xFB
02E52:  MOVLB  0
02E54:  CALL   1566
02E58:  MOVFF  01,6F5
02E5C:  MOVLW  08
02E5E:  MOVLB  6
02E60:  ADDWF  01,W
02E62:  MOVWF  01
02E64:  MOVLW  00
02E66:  ADDWFC 02,W
02E68:  MOVWF  03
02E6A:  MOVF   01,W
02E6C:  ADDLW  FD
02E6E:  MOVWF  FE9
02E70:  MOVLW  02
02E72:  ADDWFC 03,W
02E74:  MOVWF  FEA
02E76:  MOVFF  FEF,6F5
02E7A:  MOVFF  FEC,6F6
02E7E:  MOVFF  FEC,6F7
02E82:  MOVFF  FEC,6F8
02E86:  CLRF   xFA
02E88:  MOVFF  6F1,6F9
02E8C:  MOVLW  01
02E8E:  MOVWF  xFC
02E90:  MOVLW  64
02E92:  MOVWF  xFB
02E94:  MOVLB  0
02E96:  CALL   1566
02E9A:  MOVFF  02,6FA
02E9E:  MOVFF  01,6F9
02EA2:  MOVLW  60
02EA4:  MOVLB  6
02EA6:  ADDWF  01,W
02EA8:  MOVWF  01
02EAA:  MOVLW  01
02EAC:  ADDWFC 02,W
02EAE:  MOVWF  03
02EB0:  MOVF   01,W
02EB2:  ADDLW  FD
02EB4:  MOVWF  FE9
02EB6:  MOVLW  02
02EB8:  ADDWFC 03,W
02EBA:  MOVWF  FEA
02EBC:  MOVFF  FEF,00
02EC0:  MOVFF  FEC,01
02EC4:  MOVFF  FEC,02
02EC8:  MOVFF  FEC,03
02ECC:  MOVFF  6F8,6FE
02ED0:  MOVFF  6F7,6FD
02ED4:  MOVFF  6F6,6FC
02ED8:  MOVFF  6F5,6FB
02EDC:  MOVFF  03,702
02EE0:  MOVFF  02,701
02EE4:  MOVFF  01,700
02EE8:  MOVFF  00,6FF
02EEC:  MOVLB  0
02EEE:  CALL   1170
02EF2:  MOVFF  6F4,FEA
02EF6:  MOVFF  6F3,FE9
02EFA:  MOVFF  00,FEF
02EFE:  MOVFF  01,FEC
02F02:  MOVFF  02,FEC
02F06:  MOVFF  03,FEC
....................    Sensor[canal].V0 = Sensor[canal].V0+Vfijo+ Vref; // Se suma voltaje de divisor fijo + Voltaje de referencia 
02F0A:  MOVLB  6
02F0C:  CLRF   xFA
02F0E:  MOVFF  6F1,6F9
02F12:  MOVLW  01
02F14:  MOVWF  xFC
02F16:  MOVLW  64
02F18:  MOVWF  xFB
02F1A:  MOVLB  0
02F1C:  CALL   1566
02F20:  MOVFF  01,6F3
02F24:  MOVLW  08
02F26:  MOVLB  6
02F28:  ADDWF  01,W
02F2A:  MOVWF  01
02F2C:  MOVLW  00
02F2E:  ADDWFC 02,W
02F30:  MOVWF  03
02F32:  MOVF   01,W
02F34:  ADDLW  FD
02F36:  MOVWF  01
02F38:  MOVLW  02
02F3A:  ADDWFC 03,F
02F3C:  MOVFF  01,6F3
02F40:  MOVFF  03,6F4
02F44:  CLRF   xFA
02F46:  MOVFF  6F1,6F9
02F4A:  MOVLW  01
02F4C:  MOVWF  xFC
02F4E:  MOVLW  64
02F50:  MOVWF  xFB
02F52:  MOVLB  0
02F54:  CALL   1566
02F58:  MOVFF  01,6F5
02F5C:  MOVLW  08
02F5E:  MOVLB  6
02F60:  ADDWF  01,W
02F62:  MOVWF  01
02F64:  MOVLW  00
02F66:  ADDWFC 02,W
02F68:  MOVWF  03
02F6A:  MOVF   01,W
02F6C:  ADDLW  FD
02F6E:  MOVWF  FE9
02F70:  MOVLW  02
02F72:  ADDWFC 03,W
02F74:  MOVWF  FEA
02F76:  MOVFF  FEF,6F5
02F7A:  MOVFF  FEC,6F6
02F7E:  MOVFF  FEC,6F7
02F82:  MOVFF  FEC,6F8
02F86:  MOVFF  FEA,6FA
02F8A:  MOVFF  FE9,6F9
02F8E:  BCF    FD8.1
02F90:  MOVFF  6F8,705
02F94:  MOVFF  6F7,704
02F98:  MOVFF  6F6,703
02F9C:  MOVFF  6F5,702
02FA0:  MOVFF  2AF,709
02FA4:  MOVFF  2AE,708
02FA8:  MOVFF  2AD,707
02FAC:  MOVFF  2AC,706
02FB0:  MOVLB  0
02FB2:  CALL   12EE
02FB6:  MOVFF  6FA,FEA
02FBA:  MOVFF  6F9,FE9
02FBE:  MOVFF  00,6F5
02FC2:  MOVFF  01,6F6
02FC6:  MOVFF  02,6F7
02FCA:  MOVFF  03,6F8
02FCE:  MOVFF  FEA,6FC
02FD2:  MOVFF  FE9,6FB
02FD6:  BCF    FD8.1
02FD8:  MOVFF  03,705
02FDC:  MOVFF  02,704
02FE0:  MOVFF  01,703
02FE4:  MOVFF  00,702
02FE8:  MOVLB  7
02FEA:  CLRF   x09
02FEC:  CLRF   x08
02FEE:  CLRF   x07
02FF0:  CLRF   x06
02FF2:  MOVLB  0
02FF4:  CALL   12EE
02FF8:  MOVFF  6FC,FEA
02FFC:  MOVFF  6FB,FE9
03000:  MOVFF  6F4,FEA
03004:  MOVFF  6F3,FE9
03008:  MOVFF  00,FEF
0300C:  MOVFF  01,FEC
03010:  MOVFF  02,FEC
03014:  MOVFF  03,FEC
....................    //Sensor[canal].BN=(Sensor[canal].V0*(R8+R9))+(1023*R9); 
....................    Sensor[canal].Pt = 6800/((Vdiv/Sensor[canal].V0)-1); 
03018:  MOVLB  6
0301A:  CLRF   xFA
0301C:  MOVFF  6F1,6F9
03020:  MOVLW  01
03022:  MOVWF  xFC
03024:  MOVLW  64
03026:  MOVWF  xFB
03028:  MOVLB  0
0302A:  CALL   1566
0302E:  MOVFF  01,6F3
03032:  MOVLW  0C
03034:  MOVLB  6
03036:  ADDWF  01,W
03038:  MOVWF  01
0303A:  MOVLW  00
0303C:  ADDWFC 02,W
0303E:  MOVWF  03
03040:  MOVF   01,W
03042:  ADDLW  FD
03044:  MOVWF  01
03046:  MOVLW  02
03048:  ADDWFC 03,F
0304A:  MOVFF  01,6F3
0304E:  MOVFF  03,6F4
03052:  CLRF   xFA
03054:  MOVFF  6F1,6F9
03058:  MOVLW  01
0305A:  MOVWF  xFC
0305C:  MOVLW  64
0305E:  MOVWF  xFB
03060:  MOVLB  0
03062:  CALL   1566
03066:  MOVFF  02,6F6
0306A:  MOVFF  01,6F5
0306E:  MOVLW  08
03070:  MOVLB  6
03072:  ADDWF  01,W
03074:  MOVWF  01
03076:  MOVLW  00
03078:  ADDWFC 02,W
0307A:  MOVWF  03
0307C:  MOVF   01,W
0307E:  ADDLW  FD
03080:  MOVWF  FE9
03082:  MOVLW  02
03084:  ADDWFC 03,W
03086:  MOVWF  FEA
03088:  MOVFF  FEF,00
0308C:  MOVFF  FEC,01
03090:  MOVFF  FEC,02
03094:  MOVFF  FEC,03
03098:  CLRF   xFE
0309A:  MOVLW  C0
0309C:  MOVWF  xFD
0309E:  MOVLW  7F
030A0:  MOVWF  xFC
030A2:  MOVLW  88
030A4:  MOVWF  xFB
030A6:  MOVFF  03,702
030AA:  MOVFF  02,701
030AE:  MOVFF  01,700
030B2:  MOVFF  00,6FF
030B6:  MOVLB  0
030B8:  CALL   1170
030BC:  MOVFF  00,6F5
030C0:  MOVFF  01,6F6
030C4:  MOVFF  02,6F7
030C8:  MOVFF  03,6F8
030CC:  MOVFF  FEA,6FA
030D0:  MOVFF  FE9,6F9
030D4:  BSF    FD8.1
030D6:  MOVFF  03,705
030DA:  MOVFF  02,704
030DE:  MOVFF  01,703
030E2:  MOVFF  00,702
030E6:  MOVLB  7
030E8:  CLRF   x09
030EA:  CLRF   x08
030EC:  CLRF   x07
030EE:  MOVLW  7F
030F0:  MOVWF  x06
030F2:  MOVLB  0
030F4:  CALL   12EE
030F8:  MOVFF  6FA,FEA
030FC:  MOVFF  6F9,FE9
03100:  MOVLB  6
03102:  CLRF   xFE
03104:  MOVLW  80
03106:  MOVWF  xFD
03108:  MOVLW  54
0310A:  MOVWF  xFC
0310C:  MOVLW  8B
0310E:  MOVWF  xFB
03110:  MOVFF  03,702
03114:  MOVFF  02,701
03118:  MOVFF  01,700
0311C:  MOVFF  00,6FF
03120:  MOVLB  0
03122:  CALL   1170
03126:  MOVFF  6F4,FEA
0312A:  MOVFF  6F3,FE9
0312E:  MOVFF  00,FEF
03132:  MOVFF  01,FEC
03136:  MOVFF  02,FEC
0313A:  MOVFF  03,FEC
....................    //Sensor[canal].Pt=Sensor[canal].Pt-Sensor[canal].RPT100; //Ajuste de impedancia de cableado de PT100    
....................              
....................    if(Sensor[canal].l>(media-1)) 
0313E:  MOVLB  6
03140:  CLRF   xFA
03142:  MOVFF  6F1,6F9
03146:  MOVLW  01
03148:  MOVWF  xFC
0314A:  MOVLW  64
0314C:  MOVWF  xFB
0314E:  MOVLB  0
03150:  CALL   1566
03154:  MOVFF  02,6F4
03158:  MOVFF  01,6F3
0315C:  MOVLW  14
0315E:  MOVLB  6
03160:  ADDWF  01,W
03162:  MOVWF  01
03164:  MOVLW  00
03166:  ADDWFC 02,W
03168:  MOVWF  03
0316A:  MOVF   01,W
0316C:  ADDLW  FD
0316E:  MOVWF  FE9
03170:  MOVLW  02
03172:  ADDWFC 03,W
03174:  MOVWF  FEA
03176:  MOVFF  FEF,6F3
0317A:  MOVLW  01
0317C:  SUBWF  xF2,W
0317E:  SUBWF  xF3,W
03180:  BZ    31B8
03182:  BNC   31B8
....................    {Sensor[canal].l=0;} 
03184:  CLRF   xFA
03186:  MOVFF  6F1,6F9
0318A:  MOVLW  01
0318C:  MOVWF  xFC
0318E:  MOVLW  64
03190:  MOVWF  xFB
03192:  MOVLB  0
03194:  CALL   1566
03198:  MOVFF  01,6F3
0319C:  MOVLW  14
0319E:  MOVLB  6
031A0:  ADDWF  01,W
031A2:  MOVWF  01
031A4:  MOVLW  00
031A6:  ADDWFC 02,W
031A8:  MOVWF  03
031AA:  MOVF   01,W
031AC:  ADDLW  FD
031AE:  MOVWF  FE9
031B0:  MOVLW  02
031B2:  ADDWFC 03,W
031B4:  MOVWF  FEA
031B6:  CLRF   FEF
....................     
....................    Sensor[canal].promedio[Sensor[canal].l]=Sensor[canal].Pt;Sensor[canal].l++; 
031B8:  CLRF   xFA
031BA:  MOVFF  6F1,6F9
031BE:  MOVLW  01
031C0:  MOVWF  xFC
031C2:  MOVLW  64
031C4:  MOVWF  xFB
031C6:  MOVLB  0
031C8:  CALL   1566
031CC:  MOVFF  02,6F4
031D0:  MOVFF  01,6F3
031D4:  MOVLW  20
031D6:  MOVLB  6
031D8:  ADDWF  xF3,F
031DA:  MOVLW  00
031DC:  ADDWFC xF4,F
031DE:  CLRF   xFA
031E0:  MOVFF  6F1,6F9
031E4:  MOVLW  01
031E6:  MOVWF  xFC
031E8:  MOVLW  64
031EA:  MOVWF  xFB
031EC:  MOVLB  0
031EE:  CALL   1566
031F2:  MOVFF  02,6F6
031F6:  MOVFF  01,6F5
031FA:  MOVLW  14
031FC:  MOVLB  6
031FE:  ADDWF  01,W
03200:  MOVWF  01
03202:  MOVLW  00
03204:  ADDWFC 02,W
03206:  MOVWF  03
03208:  MOVF   01,W
0320A:  ADDLW  FD
0320C:  MOVWF  FE9
0320E:  MOVLW  02
03210:  ADDWFC 03,W
03212:  MOVWF  FEA
03214:  CLRF   xFA
03216:  MOVFF  FEF,6F9
0321A:  CLRF   xFC
0321C:  MOVLW  04
0321E:  MOVWF  xFB
03220:  MOVLB  0
03222:  CALL   1566
03226:  MOVFF  02,03
0322A:  MOVF   01,W
0322C:  MOVLB  6
0322E:  ADDWF  xF3,W
03230:  MOVWF  01
03232:  MOVF   xF4,W
03234:  ADDWFC 03,F
03236:  MOVF   01,W
03238:  ADDLW  FD
0323A:  MOVWF  01
0323C:  MOVLW  02
0323E:  ADDWFC 03,F
03240:  MOVFF  01,6F3
03244:  MOVFF  03,6F4
03248:  CLRF   xFA
0324A:  MOVFF  6F1,6F9
0324E:  MOVLW  01
03250:  MOVWF  xFC
03252:  MOVLW  64
03254:  MOVWF  xFB
03256:  MOVLB  0
03258:  CALL   1566
0325C:  MOVFF  02,6F6
03260:  MOVFF  01,6F5
03264:  MOVLW  0C
03266:  MOVLB  6
03268:  ADDWF  01,W
0326A:  MOVWF  01
0326C:  MOVLW  00
0326E:  ADDWFC 02,W
03270:  MOVWF  03
03272:  MOVF   01,W
03274:  ADDLW  FD
03276:  MOVWF  FE9
03278:  MOVLW  02
0327A:  ADDWFC 03,W
0327C:  MOVWF  FEA
0327E:  MOVFF  FEF,00
03282:  MOVFF  FEC,01
03286:  MOVFF  FEC,02
0328A:  MOVFF  FEC,03
0328E:  MOVFF  6F4,FEA
03292:  MOVFF  6F3,FE9
03296:  MOVFF  00,FEF
0329A:  MOVFF  01,FEC
0329E:  MOVFF  02,FEC
032A2:  MOVFF  03,FEC
032A6:  CLRF   xFA
032A8:  MOVFF  6F1,6F9
032AC:  MOVLW  01
032AE:  MOVWF  xFC
032B0:  MOVLW  64
032B2:  MOVWF  xFB
032B4:  MOVLB  0
032B6:  CALL   1566
032BA:  MOVFF  01,6F3
032BE:  MOVLW  14
032C0:  MOVLB  6
032C2:  ADDWF  01,W
032C4:  MOVWF  01
032C6:  MOVLW  00
032C8:  ADDWFC 02,W
032CA:  MOVWF  03
032CC:  MOVF   01,W
032CE:  ADDLW  FD
032D0:  MOVWF  FE9
032D2:  MOVLW  02
032D4:  ADDWFC 03,W
032D6:  MOVWF  FEA
032D8:  INCF   FEF,F
....................           
....................    for(Sensor[canal].h=0;Sensor[canal].h<media;Sensor[canal].h++) 
032DA:  CLRF   xFA
032DC:  MOVFF  6F1,6F9
032E0:  MOVLW  01
032E2:  MOVWF  xFC
032E4:  MOVLW  64
032E6:  MOVWF  xFB
032E8:  MOVLB  0
032EA:  CALL   1566
032EE:  MOVFF  02,6F4
032F2:  MOVFF  01,6F3
032F6:  MOVLW  15
032F8:  MOVLB  6
032FA:  ADDWF  01,W
032FC:  MOVWF  01
032FE:  MOVLW  00
03300:  ADDWFC 02,W
03302:  MOVWF  03
03304:  MOVF   01,W
03306:  ADDLW  FD
03308:  MOVWF  FE9
0330A:  MOVLW  02
0330C:  ADDWFC 03,W
0330E:  MOVWF  FEA
03310:  CLRF   FEF
03312:  CLRF   xFA
03314:  MOVFF  6F1,6F9
03318:  MOVLW  01
0331A:  MOVWF  xFC
0331C:  MOVLW  64
0331E:  MOVWF  xFB
03320:  MOVLB  0
03322:  CALL   1566
03326:  MOVFF  02,6F4
0332A:  MOVFF  01,6F3
0332E:  MOVLW  15
03330:  MOVLB  6
03332:  ADDWF  01,W
03334:  MOVWF  01
03336:  MOVLW  00
03338:  ADDWFC 02,W
0333A:  MOVWF  03
0333C:  MOVF   01,W
0333E:  ADDLW  FD
03340:  MOVWF  FE9
03342:  MOVLW  02
03344:  ADDWFC 03,W
03346:  MOVWF  FEA
03348:  MOVF   xF2,W
0334A:  SUBWF  FEF,W
0334C:  BTFSC  FD8.0
0334E:  BRA    346E
....................    { 
....................       Prom+=Sensor[canal].promedio[Sensor[canal].h]; 
03350:  CLRF   xFA
03352:  MOVFF  6F1,6F9
03356:  MOVLW  01
03358:  MOVWF  xFC
0335A:  MOVLW  64
0335C:  MOVWF  xFB
0335E:  MOVLB  0
03360:  CALL   1566
03364:  MOVFF  02,6F4
03368:  MOVFF  01,6F3
0336C:  MOVLW  20
0336E:  MOVLB  6
03370:  ADDWF  xF3,F
03372:  MOVLW  00
03374:  ADDWFC xF4,F
03376:  CLRF   xFA
03378:  MOVFF  6F1,6F9
0337C:  MOVLW  01
0337E:  MOVWF  xFC
03380:  MOVLW  64
03382:  MOVWF  xFB
03384:  MOVLB  0
03386:  CALL   1566
0338A:  MOVFF  02,6F6
0338E:  MOVFF  01,6F5
03392:  MOVLW  15
03394:  MOVLB  6
03396:  ADDWF  01,W
03398:  MOVWF  01
0339A:  MOVLW  00
0339C:  ADDWFC 02,W
0339E:  MOVWF  03
033A0:  MOVF   01,W
033A2:  ADDLW  FD
033A4:  MOVWF  FE9
033A6:  MOVLW  02
033A8:  ADDWFC 03,W
033AA:  MOVWF  FEA
033AC:  CLRF   xFA
033AE:  MOVFF  FEF,6F9
033B2:  CLRF   xFC
033B4:  MOVLW  04
033B6:  MOVWF  xFB
033B8:  MOVLB  0
033BA:  CALL   1566
033BE:  MOVFF  02,03
033C2:  MOVF   01,W
033C4:  MOVLB  6
033C6:  ADDWF  xF3,W
033C8:  MOVWF  01
033CA:  MOVF   xF4,W
033CC:  ADDWFC 03,F
033CE:  MOVF   01,W
033D0:  ADDLW  FD
033D2:  MOVWF  FE9
033D4:  MOVLW  02
033D6:  ADDWFC 03,W
033D8:  MOVWF  FEA
033DA:  MOVFF  FEF,00
033DE:  MOVFF  FEC,01
033E2:  MOVFF  FEC,02
033E6:  MOVFF  FEC,03
033EA:  MOVFF  FEA,6F4
033EE:  MOVFF  FE9,6F3
033F2:  BCF    FD8.1
033F4:  MOVFF  243,705
033F8:  MOVFF  242,704
033FC:  MOVFF  241,703
03400:  MOVFF  240,702
03404:  MOVFF  03,709
03408:  MOVFF  02,708
0340C:  MOVFF  01,707
03410:  MOVFF  00,706
03414:  MOVLB  0
03416:  CALL   12EE
0341A:  MOVFF  6F4,FEA
0341E:  MOVFF  6F3,FE9
03422:  MOVFF  03,243
03426:  MOVFF  02,242
0342A:  MOVFF  01,241
0342E:  MOVFF  00,240
....................    }  
03432:  MOVLB  6
03434:  CLRF   xFA
03436:  MOVFF  6F1,6F9
0343A:  MOVLW  01
0343C:  MOVWF  xFC
0343E:  MOVLW  64
03440:  MOVWF  xFB
03442:  MOVLB  0
03444:  CALL   1566
03448:  MOVFF  02,6F4
0344C:  MOVFF  01,6F3
03450:  MOVLW  15
03452:  MOVLB  6
03454:  ADDWF  01,W
03456:  MOVWF  01
03458:  MOVLW  00
0345A:  ADDWFC 02,W
0345C:  MOVWF  03
0345E:  MOVF   01,W
03460:  ADDLW  FD
03462:  MOVWF  FE9
03464:  MOVLW  02
03466:  ADDWFC 03,W
03468:  MOVWF  FEA
0346A:  INCF   FEF,F
0346C:  BRA    3312
....................    Prom=Prom/media;    
0346E:  MOVLB  7
03470:  CLRF   x03
03472:  MOVFF  6F2,702
03476:  MOVLB  0
03478:  CALL   1112
0347C:  MOVFF  243,6FE
03480:  MOVFF  242,6FD
03484:  MOVFF  241,6FC
03488:  MOVFF  240,6FB
0348C:  MOVFF  03,702
03490:  MOVFF  02,701
03494:  MOVFF  01,700
03498:  MOVFF  00,6FF
0349C:  CALL   1170
034A0:  MOVFF  03,243
034A4:  MOVFF  02,242
034A8:  MOVFF  01,241
034AC:  MOVFF  00,240
....................    //Temperature=(Prom-100.0)/(0.385);  // Ecuacin determinada por linealizacin en Matlab. Revisar este polinomio.   
....................    Temperature=((Prom*Prom)*a)+(Prom*b)+c;  // Ecuacin determinada por linealizacin en Matlab. Revisar este polinomio. 
034B0:  MOVFF  243,710
034B4:  MOVFF  242,70F
034B8:  MOVFF  241,70E
034BC:  MOVFF  240,70D
034C0:  MOVFF  243,714
034C4:  MOVFF  242,713
034C8:  MOVFF  241,712
034CC:  MOVFF  240,711
034D0:  CALL   15CA
034D4:  MOVFF  00,6F3
034D8:  MOVFF  01,6F4
034DC:  MOVFF  02,6F5
034E0:  MOVFF  03,6F6
034E4:  MOVFF  03,710
034E8:  MOVFF  02,70F
034EC:  MOVFF  01,70E
034F0:  MOVFF  00,70D
034F4:  MOVFF  287,714
034F8:  MOVFF  286,713
034FC:  MOVFF  285,712
03500:  MOVFF  284,711
03504:  CALL   15CA
03508:  MOVFF  00,6F3
0350C:  MOVFF  01,6F4
03510:  MOVFF  02,6F5
03514:  MOVFF  03,6F6
03518:  MOVFF  243,710
0351C:  MOVFF  242,70F
03520:  MOVFF  241,70E
03524:  MOVFF  240,70D
03528:  MOVFF  28B,714
0352C:  MOVFF  28A,713
03530:  MOVFF  289,712
03534:  MOVFF  288,711
03538:  CALL   15CA
0353C:  BCF    FD8.1
0353E:  MOVFF  6F6,705
03542:  MOVFF  6F5,704
03546:  MOVFF  6F4,703
0354A:  MOVFF  6F3,702
0354E:  MOVFF  03,709
03552:  MOVFF  02,708
03556:  MOVFF  01,707
0355A:  MOVFF  00,706
0355E:  CALL   12EE
03562:  MOVFF  00,6F3
03566:  MOVFF  01,6F4
0356A:  MOVFF  02,6F5
0356E:  MOVFF  03,6F6
03572:  BCF    FD8.1
03574:  MOVFF  03,705
03578:  MOVFF  02,704
0357C:  MOVFF  01,703
03580:  MOVFF  00,702
03584:  MOVFF  28F,709
03588:  MOVFF  28E,708
0358C:  MOVFF  28D,707
03590:  MOVFF  28C,706
03594:  CALL   12EE
03598:  MOVFF  03,247
0359C:  MOVFF  02,246
035A0:  MOVFF  01,245
035A4:  MOVFF  00,244
....................    Temperature+=((float)(Sensor[canal].Ajuste/10.0)-(float)(Sensor[canal].Ajusten/10.0)); 
035A8:  MOVLB  6
035AA:  CLRF   xFA
035AC:  MOVFF  6F1,6F9
035B0:  MOVLW  01
035B2:  MOVWF  xFC
035B4:  MOVLW  64
035B6:  MOVWF  xFB
035B8:  MOVLB  0
035BA:  CALL   1566
035BE:  MOVFF  02,6F4
035C2:  MOVFF  01,6F3
035C6:  MOVLW  1E
035C8:  MOVLB  6
035CA:  ADDWF  01,W
035CC:  MOVWF  01
035CE:  MOVLW  00
035D0:  ADDWFC 02,W
035D2:  MOVWF  03
035D4:  MOVF   01,W
035D6:  ADDLW  FD
035D8:  MOVWF  FE9
035DA:  MOVLW  02
035DC:  ADDWFC 03,W
035DE:  MOVWF  FEA
035E0:  MOVLB  7
035E2:  CLRF   x03
035E4:  MOVFF  FEF,702
035E8:  MOVLB  0
035EA:  CALL   1112
035EE:  MOVFF  03,6FE
035F2:  MOVFF  02,6FD
035F6:  MOVFF  01,6FC
035FA:  MOVFF  00,6FB
035FE:  MOVLB  7
03600:  CLRF   x02
03602:  CLRF   x01
03604:  MOVLW  20
03606:  MOVWF  x00
03608:  MOVLW  82
0360A:  MOVLB  6
0360C:  MOVWF  xFF
0360E:  MOVLB  0
03610:  CALL   1170
03614:  MOVFF  00,6F3
03618:  MOVFF  01,6F4
0361C:  MOVFF  02,6F5
03620:  MOVFF  03,6F6
03624:  MOVLB  6
03626:  CLRF   xFA
03628:  MOVFF  6F1,6F9
0362C:  MOVLW  01
0362E:  MOVWF  xFC
03630:  MOVLW  64
03632:  MOVWF  xFB
03634:  MOVLB  0
03636:  CALL   1566
0363A:  MOVFF  02,6F8
0363E:  MOVFF  01,6F7
03642:  MOVLW  1F
03644:  MOVLB  6
03646:  ADDWF  01,W
03648:  MOVWF  01
0364A:  MOVLW  00
0364C:  ADDWFC 02,W
0364E:  MOVWF  03
03650:  MOVF   01,W
03652:  ADDLW  FD
03654:  MOVWF  FE9
03656:  MOVLW  02
03658:  ADDWFC 03,W
0365A:  MOVWF  FEA
0365C:  MOVLB  7
0365E:  CLRF   x03
03660:  MOVFF  FEF,702
03664:  MOVLB  0
03666:  CALL   1112
0366A:  MOVFF  03,6FE
0366E:  MOVFF  02,6FD
03672:  MOVFF  01,6FC
03676:  MOVFF  00,6FB
0367A:  MOVLB  7
0367C:  CLRF   x02
0367E:  CLRF   x01
03680:  MOVLW  20
03682:  MOVWF  x00
03684:  MOVLW  82
03686:  MOVLB  6
03688:  MOVWF  xFF
0368A:  MOVLB  0
0368C:  CALL   1170
03690:  MOVFF  FEA,6F8
03694:  MOVFF  FE9,6F7
03698:  BSF    FD8.1
0369A:  MOVFF  6F6,705
0369E:  MOVFF  6F5,704
036A2:  MOVFF  6F4,703
036A6:  MOVFF  6F3,702
036AA:  MOVFF  03,709
036AE:  MOVFF  02,708
036B2:  MOVFF  01,707
036B6:  MOVFF  00,706
036BA:  CALL   12EE
036BE:  MOVFF  6F8,FEA
036C2:  MOVFF  6F7,FE9
036C6:  MOVFF  FEA,6F4
036CA:  MOVFF  FE9,6F3
036CE:  BCF    FD8.1
036D0:  MOVFF  247,705
036D4:  MOVFF  246,704
036D8:  MOVFF  245,703
036DC:  MOVFF  244,702
036E0:  MOVFF  03,709
036E4:  MOVFF  02,708
036E8:  MOVFF  01,707
036EC:  MOVFF  00,706
036F0:  CALL   12EE
036F4:  MOVFF  6F4,FEA
036F8:  MOVFF  6F3,FE9
036FC:  MOVFF  03,247
03700:  MOVFF  02,246
03704:  MOVFF  01,245
03708:  MOVFF  00,244
....................     
....................    return Temperature; 
0370C:  MOVFF  244,00
03710:  MOVFF  245,01
03714:  MOVFF  246,02
03718:  MOVFF  247,03
.................... } 
0371C:  RETLW  00
....................  
....................  
.................... void Controla(){ 
.................... //-------------------------------Control de Calentamiento------------------------------------------------------------//          
....................    if(!flagRampa){ 
*
04454:  MOVLB  1
04456:  BTFSC  xCB.6
04458:  BRA    4488
....................       if(tiemporecta>=derivativo_ant/2){ 
0445A:  BCF    FD8.0
0445C:  MOVLB  2
0445E:  RRCF   x1F,W
04460:  MOVWF  03
04462:  RRCF   x1E,W
04464:  MOVWF  02
04466:  MOVWF  01
04468:  MOVF   03,F
0446A:  BNZ   4484
0446C:  MOVF   01,W
0446E:  MOVLB  1
04470:  SUBWF  xD2,W
04472:  BTFSC  FD8.0
04474:  BRA    447A
04476:  MOVLB  2
04478:  BRA    4484
....................          ActualizaRecta(); 
0447A:  MOVLB  0
0447C:  RCALL  41C8
....................          tiemporecta=0; 
0447E:  MOVLB  1
04480:  CLRF   xD2
04482:  MOVLB  2
....................       }  
....................    }else{ 
04484:  BRA    4496
04486:  MOVLB  1
....................       if(tiemporecta>=10){ 
04488:  MOVF   xD2,W
0448A:  SUBLW  09
0448C:  BC    4496
....................          ActualizaRecta(); 
0448E:  MOVLB  0
04490:  RCALL  41C8
....................          tiemporecta=0; 
04492:  MOVLB  1
04494:  CLRF   xD2
....................       } 
....................    } 
....................     
....................    if(flagRampa){ 
04496:  MOVLB  1
04498:  BTFSS  xCB.6
0449A:  BRA    4B5E
....................       if(Segmento==0){ 
0449C:  MOVF   xE1,F
0449E:  BTFSS  FD8.2
044A0:  BRA    4700
....................          if(flag_calcula==0){ 
044A2:  BTFSC  xCB.7
044A4:  BRA    46FE
....................             Tiempo=(rampas[0].Horas*3600)+(rampas[0].Minutos*60);          
044A6:  MOVFF  5CB,710
044AA:  MOVFF  5CA,70F
044AE:  MOVFF  5C9,70E
044B2:  MOVFF  5C8,70D
044B6:  MOVLB  7
044B8:  CLRF   x14
044BA:  CLRF   x13
044BC:  MOVLW  61
044BE:  MOVWF  x12
044C0:  MOVLW  8A
044C2:  MOVWF  x11
044C4:  MOVLB  0
044C6:  CALL   15CA
044CA:  MOVFF  00,6F1
044CE:  MOVFF  01,6F2
044D2:  MOVFF  02,6F3
044D6:  MOVFF  03,6F4
044DA:  MOVFF  5CF,710
044DE:  MOVFF  5CE,70F
044E2:  MOVFF  5CD,70E
044E6:  MOVFF  5CC,70D
044EA:  MOVLB  7
044EC:  CLRF   x14
044EE:  CLRF   x13
044F0:  MOVLW  70
044F2:  MOVWF  x12
044F4:  MOVLW  84
044F6:  MOVWF  x11
044F8:  MOVLB  0
044FA:  CALL   15CA
044FE:  BCF    FD8.1
04500:  MOVFF  6F4,705
04504:  MOVFF  6F3,704
04508:  MOVFF  6F2,703
0450C:  MOVFF  6F1,702
04510:  MOVFF  03,709
04514:  MOVFF  02,708
04518:  MOVFF  01,707
0451C:  MOVFF  00,706
04520:  CALL   12EE
04524:  MOVFF  03,297
04528:  MOVFF  02,296
0452C:  MOVFF  01,295
04530:  MOVFF  00,294
....................             Setpoint=rampas[0].Temperatura; 
04534:  MOVFF  5D3,273
04538:  MOVFF  5D2,272
0453C:  MOVFF  5D1,271
04540:  MOVFF  5D0,270
....................             Pendiente=((Setpoint-TempeInicial)/Tiempo); 
04544:  BSF    FD8.1
04546:  MOVFF  273,705
0454A:  MOVFF  272,704
0454E:  MOVFF  271,703
04552:  MOVFF  270,702
04556:  MOVFF  293,709
0455A:  MOVFF  292,708
0455E:  MOVFF  291,707
04562:  MOVFF  290,706
04566:  CALL   12EE
0456A:  MOVFF  00,6F1
0456E:  MOVFF  01,6F2
04572:  MOVFF  02,6F3
04576:  MOVFF  03,6F4
0457A:  MOVFF  03,6FE
0457E:  MOVFF  02,6FD
04582:  MOVFF  01,6FC
04586:  MOVFF  00,6FB
0458A:  MOVFF  297,702
0458E:  MOVFF  296,701
04592:  MOVFF  295,700
04596:  MOVFF  294,6FF
0459A:  CALL   1170
0459E:  MOVFF  03,2BB
045A2:  MOVFF  02,2BA
045A6:  MOVFF  01,2B9
045AA:  MOVFF  00,2B8
....................             hEstp=rampas[0].Horas; 
045AE:  MOVFF  5CB,1EA
045B2:  MOVFF  5CA,1E9
045B6:  MOVFF  5C9,1E8
045BA:  MOVFF  5C8,1E7
....................             mEstp=rampas[0].Minutos; 
045BE:  MOVFF  5CF,1E6
045C2:  MOVFF  5CE,1E5
045C6:  MOVFF  5CD,1E4
045CA:  MOVFF  5CC,1E3
....................             flag_calcula=1; 
045CE:  MOVLB  1
045D0:  BSF    xCB.7
....................             delay_ms(10); 
045D2:  MOVLW  0A
045D4:  MOVLB  6
045D6:  MOVWF  xFA
045D8:  MOVLB  0
045DA:  CALL   1148
....................             if(Setpoint<Temperatura){ 
045DE:  MOVFF  273,6F8
045E2:  MOVFF  272,6F7
045E6:  MOVFF  271,6F6
045EA:  MOVFF  270,6F5
045EE:  MOVFF  26B,6FC
045F2:  MOVFF  26A,6FB
045F6:  MOVFF  269,6FA
045FA:  MOVFF  268,6F9
045FE:  CALL   16C0
04602:  BNC   4666
....................                Enfria=1; 
04604:  MOVLW  01
04606:  MOVLB  1
04608:  MOVWF  xD5
....................                Ganancia=GananciaR*(Setpoint/150); 
0460A:  MOVFF  273,6FE
0460E:  MOVFF  272,6FD
04612:  MOVFF  271,6FC
04616:  MOVFF  270,6FB
0461A:  MOVLB  7
0461C:  CLRF   x02
0461E:  CLRF   x01
04620:  MOVLW  16
04622:  MOVWF  x00
04624:  MOVLW  86
04626:  MOVLB  6
04628:  MOVWF  xFF
0462A:  MOVLB  0
0462C:  CALL   1170
04630:  MOVFF  253,710
04634:  MOVFF  252,70F
04638:  MOVFF  251,70E
0463C:  MOVFF  250,70D
04640:  MOVFF  03,714
04644:  MOVFF  02,713
04648:  MOVFF  01,712
0464C:  MOVFF  00,711
04650:  CALL   15CA
04654:  MOVFF  03,24F
04658:  MOVFF  02,24E
0465C:  MOVFF  01,24D
04660:  MOVFF  00,24C
....................                //Ganancia=4; 
....................             }else{ 
04664:  BRA    46FC
....................                Enfria=0; 
04666:  MOVLB  1
04668:  CLRF   xD5
....................                Ganancia=GananciaR*(Setpoint/150); 
0466A:  MOVFF  273,6FE
0466E:  MOVFF  272,6FD
04672:  MOVFF  271,6FC
04676:  MOVFF  270,6FB
0467A:  MOVLB  7
0467C:  CLRF   x02
0467E:  CLRF   x01
04680:  MOVLW  16
04682:  MOVWF  x00
04684:  MOVLW  86
04686:  MOVLB  6
04688:  MOVWF  xFF
0468A:  MOVLB  0
0468C:  CALL   1170
04690:  MOVFF  253,710
04694:  MOVFF  252,70F
04698:  MOVFF  251,70E
0469C:  MOVFF  250,70D
046A0:  MOVFF  03,714
046A4:  MOVFF  02,713
046A8:  MOVFF  01,712
046AC:  MOVFF  00,711
046B0:  CALL   15CA
046B4:  MOVFF  03,24F
046B8:  MOVFF  02,24E
046BC:  MOVFF  01,24D
046C0:  MOVFF  00,24C
....................                Gananciamax=(0.21)*Setpoint; 
046C4:  MOVLW  3D
046C6:  MOVLB  7
046C8:  MOVWF  x10
046CA:  MOVLW  0A
046CC:  MOVWF  x0F
046CE:  MOVLW  57
046D0:  MOVWF  x0E
046D2:  MOVLW  7C
046D4:  MOVWF  x0D
046D6:  MOVFF  273,714
046DA:  MOVFF  272,713
046DE:  MOVFF  271,712
046E2:  MOVFF  270,711
046E6:  MOVLB  0
046E8:  CALL   15CA
046EC:  MOVFF  03,22B
046F0:  MOVFF  02,22A
046F4:  MOVFF  01,229
046F8:  MOVFF  00,228
046FC:  MOVLB  1
....................             } 
....................          } 
....................       }else{ 
046FE:  BRA    4B5E
....................          if(flag_calcula==0){ 
04700:  BTFSC  xCB.7
04702:  BRA    4B5E
....................             Tiempo=(rampas[Segmento].Horas*3600)+(rampas[Segmento].Minutos*60);          
04704:  MOVLB  6
04706:  CLRF   xFA
04708:  MOVFF  1E1,6F9
0470C:  CLRF   xFC
0470E:  MOVLW  0F
04710:  MOVWF  xFB
04712:  MOVLB  0
04714:  CALL   1566
04718:  MOVFF  01,6F1
0471C:  MOVLW  03
0471E:  MOVLB  6
04720:  ADDWF  01,W
04722:  MOVWF  01
04724:  MOVLW  00
04726:  ADDWFC 02,W
04728:  MOVWF  03
0472A:  MOVF   01,W
0472C:  ADDLW  C5
0472E:  MOVWF  FE9
04730:  MOVLW  05
04732:  ADDWFC 03,W
04734:  MOVWF  FEA
04736:  MOVFF  FEF,6F1
0473A:  MOVFF  FEC,6F2
0473E:  MOVFF  FEC,6F3
04742:  MOVFF  FEC,6F4
04746:  MOVFF  6F4,710
0474A:  MOVFF  6F3,70F
0474E:  MOVFF  6F2,70E
04752:  MOVFF  6F1,70D
04756:  MOVLB  7
04758:  CLRF   x14
0475A:  CLRF   x13
0475C:  MOVLW  61
0475E:  MOVWF  x12
04760:  MOVLW  8A
04762:  MOVWF  x11
04764:  MOVLB  0
04766:  CALL   15CA
0476A:  MOVFF  00,6F1
0476E:  MOVFF  01,6F2
04772:  MOVFF  02,6F3
04776:  MOVFF  03,6F4
0477A:  MOVLB  6
0477C:  CLRF   xFA
0477E:  MOVFF  1E1,6F9
04782:  CLRF   xFC
04784:  MOVLW  0F
04786:  MOVWF  xFB
04788:  MOVLB  0
0478A:  CALL   1566
0478E:  MOVFF  01,6F5
04792:  MOVLW  07
04794:  MOVLB  6
04796:  ADDWF  01,W
04798:  MOVWF  01
0479A:  MOVLW  00
0479C:  ADDWFC 02,W
0479E:  MOVWF  03
047A0:  MOVF   01,W
047A2:  ADDLW  C5
047A4:  MOVWF  FE9
047A6:  MOVLW  05
047A8:  ADDWFC 03,W
047AA:  MOVWF  FEA
047AC:  MOVFF  FEF,6F5
047B0:  MOVFF  FEC,6F6
047B4:  MOVFF  FEC,6F7
047B8:  MOVFF  FEC,6F8
047BC:  MOVFF  6F8,710
047C0:  MOVFF  6F7,70F
047C4:  MOVFF  6F6,70E
047C8:  MOVFF  6F5,70D
047CC:  MOVLB  7
047CE:  CLRF   x14
047D0:  CLRF   x13
047D2:  MOVLW  70
047D4:  MOVWF  x12
047D6:  MOVLW  84
047D8:  MOVWF  x11
047DA:  MOVLB  0
047DC:  CALL   15CA
047E0:  MOVFF  FEA,6F6
047E4:  MOVFF  FE9,6F5
047E8:  BCF    FD8.1
047EA:  MOVFF  6F4,705
047EE:  MOVFF  6F3,704
047F2:  MOVFF  6F2,703
047F6:  MOVFF  6F1,702
047FA:  MOVFF  03,709
047FE:  MOVFF  02,708
04802:  MOVFF  01,707
04806:  MOVFF  00,706
0480A:  CALL   12EE
0480E:  MOVFF  6F6,FEA
04812:  MOVFF  6F5,FE9
04816:  MOVFF  03,297
0481A:  MOVFF  02,296
0481E:  MOVFF  01,295
04822:  MOVFF  00,294
....................             Setpoint=rampas[Segmento].Temperatura; 
04826:  MOVLB  6
04828:  CLRF   xFA
0482A:  MOVFF  1E1,6F9
0482E:  CLRF   xFC
04830:  MOVLW  0F
04832:  MOVWF  xFB
04834:  MOVLB  0
04836:  CALL   1566
0483A:  MOVFF  02,6F2
0483E:  MOVFF  01,6F1
04842:  MOVLW  0B
04844:  MOVLB  6
04846:  ADDWF  01,W
04848:  MOVWF  01
0484A:  MOVLW  00
0484C:  ADDWFC 02,W
0484E:  MOVWF  03
04850:  MOVF   01,W
04852:  ADDLW  C5
04854:  MOVWF  FE9
04856:  MOVLW  05
04858:  ADDWFC 03,W
0485A:  MOVWF  FEA
0485C:  MOVFF  FEF,00
04860:  MOVFF  FEC,01
04864:  MOVFF  FEC,02
04868:  MOVFF  FEC,03
0486C:  MOVFF  03,273
04870:  MOVFF  02,272
04874:  MOVFF  01,271
04878:  MOVFF  00,270
....................             Pendiente=((rampas[Segmento].Temperatura-rampas[Segmento-1].Temperatura)/Tiempo); 
0487C:  CLRF   xFA
0487E:  MOVFF  1E1,6F9
04882:  CLRF   xFC
04884:  MOVLW  0F
04886:  MOVWF  xFB
04888:  MOVLB  0
0488A:  CALL   1566
0488E:  MOVFF  01,6F1
04892:  MOVLW  0B
04894:  MOVLB  6
04896:  ADDWF  01,W
04898:  MOVWF  01
0489A:  MOVLW  00
0489C:  ADDWFC 02,W
0489E:  MOVWF  03
048A0:  MOVF   01,W
048A2:  ADDLW  C5
048A4:  MOVWF  FE9
048A6:  MOVLW  05
048A8:  ADDWFC 03,W
048AA:  MOVWF  FEA
048AC:  MOVFF  FEF,6F1
048B0:  MOVFF  FEC,6F2
048B4:  MOVFF  FEC,6F3
048B8:  MOVFF  FEC,6F4
048BC:  MOVLW  01
048BE:  MOVLB  1
048C0:  SUBWF  xE1,W
048C2:  MOVLB  6
048C4:  MOVWF  xF6
048C6:  CLRF   xFA
048C8:  MOVWF  xF9
048CA:  CLRF   xFC
048CC:  MOVLW  0F
048CE:  MOVWF  xFB
048D0:  MOVLB  0
048D2:  CALL   1566
048D6:  MOVFF  02,6F6
048DA:  MOVFF  01,6F5
048DE:  MOVLW  0B
048E0:  MOVLB  6
048E2:  ADDWF  01,W
048E4:  MOVWF  01
048E6:  MOVLW  00
048E8:  ADDWFC 02,W
048EA:  MOVWF  03
048EC:  MOVF   01,W
048EE:  ADDLW  C5
048F0:  MOVWF  FE9
048F2:  MOVLW  05
048F4:  ADDWFC 03,W
048F6:  MOVWF  FEA
048F8:  MOVFF  FEF,00
048FC:  MOVFF  FEC,01
04900:  MOVFF  FEC,02
04904:  MOVFF  FEC,03
04908:  MOVFF  FEA,6F6
0490C:  MOVFF  FE9,6F5
04910:  BSF    FD8.1
04912:  MOVFF  6F4,705
04916:  MOVFF  6F3,704
0491A:  MOVFF  6F2,703
0491E:  MOVFF  6F1,702
04922:  MOVFF  03,709
04926:  MOVFF  02,708
0492A:  MOVFF  01,707
0492E:  MOVFF  00,706
04932:  MOVLB  0
04934:  CALL   12EE
04938:  MOVFF  6F6,FEA
0493C:  MOVFF  6F5,FE9
04940:  MOVFF  00,6F1
04944:  MOVFF  01,6F2
04948:  MOVFF  02,6F3
0494C:  MOVFF  03,6F4
04950:  MOVFF  03,6FE
04954:  MOVFF  02,6FD
04958:  MOVFF  01,6FC
0495C:  MOVFF  00,6FB
04960:  MOVFF  297,702
04964:  MOVFF  296,701
04968:  MOVFF  295,700
0496C:  MOVFF  294,6FF
04970:  CALL   1170
04974:  MOVFF  03,2BB
04978:  MOVFF  02,2BA
0497C:  MOVFF  01,2B9
04980:  MOVFF  00,2B8
....................             hEstp=rampas[Segmento].Horas; 
04984:  MOVLB  6
04986:  CLRF   xFA
04988:  MOVFF  1E1,6F9
0498C:  CLRF   xFC
0498E:  MOVLW  0F
04990:  MOVWF  xFB
04992:  MOVLB  0
04994:  CALL   1566
04998:  MOVFF  02,6F2
0499C:  MOVFF  01,6F1
049A0:  MOVLW  03
049A2:  MOVLB  6
049A4:  ADDWF  01,W
049A6:  MOVWF  01
049A8:  MOVLW  00
049AA:  ADDWFC 02,W
049AC:  MOVWF  03
049AE:  MOVF   01,W
049B0:  ADDLW  C5
049B2:  MOVWF  FE9
049B4:  MOVLW  05
049B6:  ADDWFC 03,W
049B8:  MOVWF  FEA
049BA:  MOVFF  FEF,00
049BE:  MOVFF  FEC,01
049C2:  MOVFF  FEC,02
049C6:  MOVFF  FEC,03
049CA:  MOVFF  03,1EA
049CE:  MOVFF  02,1E9
049D2:  MOVFF  01,1E8
049D6:  MOVFF  00,1E7
....................             mEstp=rampas[Segmento].Minutos; 
049DA:  CLRF   xFA
049DC:  MOVFF  1E1,6F9
049E0:  CLRF   xFC
049E2:  MOVLW  0F
049E4:  MOVWF  xFB
049E6:  MOVLB  0
049E8:  CALL   1566
049EC:  MOVFF  02,6F2
049F0:  MOVFF  01,6F1
049F4:  MOVLW  07
049F6:  MOVLB  6
049F8:  ADDWF  01,W
049FA:  MOVWF  01
049FC:  MOVLW  00
049FE:  ADDWFC 02,W
04A00:  MOVWF  03
04A02:  MOVF   01,W
04A04:  ADDLW  C5
04A06:  MOVWF  FE9
04A08:  MOVLW  05
04A0A:  ADDWFC 03,W
04A0C:  MOVWF  FEA
04A0E:  MOVFF  FEF,00
04A12:  MOVFF  FEC,01
04A16:  MOVFF  FEC,02
04A1A:  MOVFF  FEC,03
04A1E:  MOVFF  03,1E6
04A22:  MOVFF  02,1E5
04A26:  MOVFF  01,1E4
04A2A:  MOVFF  00,1E3
....................             flag_calcula=1; 
04A2E:  MOVLB  1
04A30:  BSF    xCB.7
....................             delay_ms(10); 
04A32:  MOVLW  0A
04A34:  MOVLB  6
04A36:  MOVWF  xFA
04A38:  MOVLB  0
04A3A:  CALL   1148
....................             if(Setpoint<Temperatura){ 
04A3E:  MOVFF  273,6F8
04A42:  MOVFF  272,6F7
04A46:  MOVFF  271,6F6
04A4A:  MOVFF  270,6F5
04A4E:  MOVFF  26B,6FC
04A52:  MOVFF  26A,6FB
04A56:  MOVFF  269,6FA
04A5A:  MOVFF  268,6F9
04A5E:  CALL   16C0
04A62:  BNC   4AC6
....................                Enfria=1; 
04A64:  MOVLW  01
04A66:  MOVLB  1
04A68:  MOVWF  xD5
....................                Ganancia=GananciaR*(Setpoint/150); 
04A6A:  MOVFF  273,6FE
04A6E:  MOVFF  272,6FD
04A72:  MOVFF  271,6FC
04A76:  MOVFF  270,6FB
04A7A:  MOVLB  7
04A7C:  CLRF   x02
04A7E:  CLRF   x01
04A80:  MOVLW  16
04A82:  MOVWF  x00
04A84:  MOVLW  86
04A86:  MOVLB  6
04A88:  MOVWF  xFF
04A8A:  MOVLB  0
04A8C:  CALL   1170
04A90:  MOVFF  253,710
04A94:  MOVFF  252,70F
04A98:  MOVFF  251,70E
04A9C:  MOVFF  250,70D
04AA0:  MOVFF  03,714
04AA4:  MOVFF  02,713
04AA8:  MOVFF  01,712
04AAC:  MOVFF  00,711
04AB0:  CALL   15CA
04AB4:  MOVFF  03,24F
04AB8:  MOVFF  02,24E
04ABC:  MOVFF  01,24D
04AC0:  MOVFF  00,24C
....................                //Ganancia=4; 
....................             }else{ 
04AC4:  BRA    4B5C
....................                Enfria=0; 
04AC6:  MOVLB  1
04AC8:  CLRF   xD5
....................                Ganancia=GananciaR*(Setpoint/150); 
04ACA:  MOVFF  273,6FE
04ACE:  MOVFF  272,6FD
04AD2:  MOVFF  271,6FC
04AD6:  MOVFF  270,6FB
04ADA:  MOVLB  7
04ADC:  CLRF   x02
04ADE:  CLRF   x01
04AE0:  MOVLW  16
04AE2:  MOVWF  x00
04AE4:  MOVLW  86
04AE6:  MOVLB  6
04AE8:  MOVWF  xFF
04AEA:  MOVLB  0
04AEC:  CALL   1170
04AF0:  MOVFF  253,710
04AF4:  MOVFF  252,70F
04AF8:  MOVFF  251,70E
04AFC:  MOVFF  250,70D
04B00:  MOVFF  03,714
04B04:  MOVFF  02,713
04B08:  MOVFF  01,712
04B0C:  MOVFF  00,711
04B10:  CALL   15CA
04B14:  MOVFF  03,24F
04B18:  MOVFF  02,24E
04B1C:  MOVFF  01,24D
04B20:  MOVFF  00,24C
....................                Gananciamax=(0.21)*Setpoint; 
04B24:  MOVLW  3D
04B26:  MOVLB  7
04B28:  MOVWF  x10
04B2A:  MOVLW  0A
04B2C:  MOVWF  x0F
04B2E:  MOVLW  57
04B30:  MOVWF  x0E
04B32:  MOVLW  7C
04B34:  MOVWF  x0D
04B36:  MOVFF  273,714
04B3A:  MOVFF  272,713
04B3E:  MOVFF  271,712
04B42:  MOVFF  270,711
04B46:  MOVLB  0
04B48:  CALL   15CA
04B4C:  MOVFF  03,22B
04B50:  MOVFF  02,22A
04B54:  MOVFF  01,229
04B58:  MOVFF  00,228
04B5C:  MOVLB  1
....................             } 
....................          } 
....................       } 
....................    } 
....................    
....................    if(Pendiente!=0 && flagRampa){// Si Esta realizando una Rampa debe realizar el control de acuerdo a la pendiente de Temperatura. Aprox 10C * min Maximo Valor de Pendiente. 
04B5E:  MOVFF  2BB,6F8
04B62:  MOVFF  2BA,6F7
04B66:  MOVFF  2B9,6F6
04B6A:  MOVFF  2B8,6F5
04B6E:  MOVLB  6
04B70:  CLRF   xFC
04B72:  CLRF   xFB
04B74:  CLRF   xFA
04B76:  CLRF   xF9
04B78:  MOVLB  0
04B7A:  CALL   16C0
04B7E:  BTFSC  FD8.2
04B80:  BRA    5214
04B82:  MOVLB  1
04B84:  BTFSC  xCB.6
04B86:  BRA    4B8C
04B88:  MOVLB  0
04B8A:  BRA    5214
....................       TiempoRampa=((hEst*3600)+(mEst*60)+tinicio); 
04B8C:  MOVFF  1FA,710
04B90:  MOVFF  1F9,70F
04B94:  MOVFF  1F8,70E
04B98:  MOVFF  1F7,70D
04B9C:  MOVLB  7
04B9E:  CLRF   x14
04BA0:  CLRF   x13
04BA2:  MOVLW  61
04BA4:  MOVWF  x12
04BA6:  MOVLW  8A
04BA8:  MOVWF  x11
04BAA:  MOVLB  0
04BAC:  CALL   15CA
04BB0:  MOVFF  00,6F1
04BB4:  MOVFF  01,6F2
04BB8:  MOVFF  02,6F3
04BBC:  MOVFF  03,6F4
04BC0:  MOVFF  1F6,710
04BC4:  MOVFF  1F5,70F
04BC8:  MOVFF  1F4,70E
04BCC:  MOVFF  1F3,70D
04BD0:  MOVLB  7
04BD2:  CLRF   x14
04BD4:  CLRF   x13
04BD6:  MOVLW  70
04BD8:  MOVWF  x12
04BDA:  MOVLW  84
04BDC:  MOVWF  x11
04BDE:  MOVLB  0
04BE0:  CALL   15CA
04BE4:  BCF    FD8.1
04BE6:  MOVFF  6F4,705
04BEA:  MOVFF  6F3,704
04BEE:  MOVFF  6F2,703
04BF2:  MOVFF  6F1,702
04BF6:  MOVFF  03,709
04BFA:  MOVFF  02,708
04BFE:  MOVFF  01,707
04C02:  MOVFF  00,706
04C06:  CALL   12EE
04C0A:  MOVFF  00,6F1
04C0E:  MOVFF  01,6F2
04C12:  MOVFF  02,6F3
04C16:  MOVFF  03,6F4
04C1A:  MOVFF  20F,703
04C1E:  MOVFF  20E,702
04C22:  CALL   1112
04C26:  BCF    FD8.1
04C28:  MOVFF  6F4,705
04C2C:  MOVFF  6F3,704
04C30:  MOVFF  6F2,703
04C34:  MOVFF  6F1,702
04C38:  MOVFF  03,709
04C3C:  MOVFF  02,708
04C40:  MOVFF  01,707
04C44:  MOVFF  00,706
04C48:  CALL   12EE
04C4C:  MOVFF  03,2AB
04C50:  MOVFF  02,2AA
04C54:  MOVFF  01,2A9
04C58:  MOVFF  00,2A8
....................       if(Segmento==0){ 
04C5C:  MOVLB  1
04C5E:  MOVF   xE1,F
04C60:  BNZ   4CD2
....................          TemperaturaIdeal=(Pendiente*TiempoRampa)+TempeInicial; 
04C62:  MOVFF  2BB,710
04C66:  MOVFF  2BA,70F
04C6A:  MOVFF  2B9,70E
04C6E:  MOVFF  2B8,70D
04C72:  MOVFF  2AB,714
04C76:  MOVFF  2AA,713
04C7A:  MOVFF  2A9,712
04C7E:  MOVFF  2A8,711
04C82:  MOVLB  0
04C84:  CALL   15CA
04C88:  MOVFF  00,6F1
04C8C:  MOVFF  01,6F2
04C90:  MOVFF  02,6F3
04C94:  MOVFF  03,6F4
04C98:  BCF    FD8.1
04C9A:  MOVFF  03,705
04C9E:  MOVFF  02,704
04CA2:  MOVFF  01,703
04CA6:  MOVFF  00,702
04CAA:  MOVFF  293,709
04CAE:  MOVFF  292,708
04CB2:  MOVFF  291,707
04CB6:  MOVFF  290,706
04CBA:  CALL   12EE
04CBE:  MOVFF  03,2C3
04CC2:  MOVFF  02,2C2
04CC6:  MOVFF  01,2C1
04CCA:  MOVFF  00,2C0
....................       }else{ 
04CCE:  BRA    4D9C
04CD0:  MOVLB  1
....................          TemperaturaIdeal=(Pendiente*TiempoRampa)+rampas[Segmento-1].Temperatura; 
04CD2:  MOVFF  2BB,710
04CD6:  MOVFF  2BA,70F
04CDA:  MOVFF  2B9,70E
04CDE:  MOVFF  2B8,70D
04CE2:  MOVFF  2AB,714
04CE6:  MOVFF  2AA,713
04CEA:  MOVFF  2A9,712
04CEE:  MOVFF  2A8,711
04CF2:  MOVLB  0
04CF4:  CALL   15CA
04CF8:  MOVFF  00,6F1
04CFC:  MOVFF  01,6F2
04D00:  MOVFF  02,6F3
04D04:  MOVFF  03,6F4
04D08:  MOVLW  01
04D0A:  MOVLB  1
04D0C:  SUBWF  xE1,W
04D0E:  MOVLB  6
04D10:  MOVWF  xF6
04D12:  CLRF   xFA
04D14:  MOVWF  xF9
04D16:  CLRF   xFC
04D18:  MOVLW  0F
04D1A:  MOVWF  xFB
04D1C:  MOVLB  0
04D1E:  CALL   1566
04D22:  MOVFF  02,6F6
04D26:  MOVFF  01,6F5
04D2A:  MOVLW  0B
04D2C:  MOVLB  6
04D2E:  ADDWF  01,W
04D30:  MOVWF  01
04D32:  MOVLW  00
04D34:  ADDWFC 02,W
04D36:  MOVWF  03
04D38:  MOVF   01,W
04D3A:  ADDLW  C5
04D3C:  MOVWF  FE9
04D3E:  MOVLW  05
04D40:  ADDWFC 03,W
04D42:  MOVWF  FEA
04D44:  MOVFF  FEF,00
04D48:  MOVFF  FEC,01
04D4C:  MOVFF  FEC,02
04D50:  MOVFF  FEC,03
04D54:  MOVFF  FEA,6F6
04D58:  MOVFF  FE9,6F5
04D5C:  BCF    FD8.1
04D5E:  MOVFF  6F4,705
04D62:  MOVFF  6F3,704
04D66:  MOVFF  6F2,703
04D6A:  MOVFF  6F1,702
04D6E:  MOVFF  03,709
04D72:  MOVFF  02,708
04D76:  MOVFF  01,707
04D7A:  MOVFF  00,706
04D7E:  MOVLB  0
04D80:  CALL   12EE
04D84:  MOVFF  6F6,FEA
04D88:  MOVFF  6F5,FE9
04D8C:  MOVFF  03,2C3
04D90:  MOVFF  02,2C2
04D94:  MOVFF  01,2C1
04D98:  MOVFF  00,2C0
....................       } 
....................       PotenciaEntregada=((TemperaturaIdeal-Temperatura)*100)/penCamara; 
04D9C:  BSF    FD8.1
04D9E:  MOVFF  2C3,705
04DA2:  MOVFF  2C2,704
04DA6:  MOVFF  2C1,703
04DAA:  MOVFF  2C0,702
04DAE:  MOVFF  26B,709
04DB2:  MOVFF  26A,708
04DB6:  MOVFF  269,707
04DBA:  MOVFF  268,706
04DBE:  CALL   12EE
04DC2:  MOVFF  00,6F1
04DC6:  MOVFF  01,6F2
04DCA:  MOVFF  02,6F3
04DCE:  MOVFF  03,6F4
04DD2:  MOVFF  03,710
04DD6:  MOVFF  02,70F
04DDA:  MOVFF  01,70E
04DDE:  MOVFF  00,70D
04DE2:  MOVLB  7
04DE4:  CLRF   x14
04DE6:  CLRF   x13
04DE8:  MOVLW  48
04DEA:  MOVWF  x12
04DEC:  MOVLW  85
04DEE:  MOVWF  x11
04DF0:  MOVLB  0
04DF2:  CALL   15CA
04DF6:  MOVFF  00,6F1
04DFA:  MOVFF  01,6F2
04DFE:  MOVFF  02,6F3
04E02:  MOVFF  03,6F4
04E06:  MOVFF  03,6FE
04E0A:  MOVFF  02,6FD
04E0E:  MOVFF  01,6FC
04E12:  MOVFF  00,6FB
04E16:  MOVFF  2C7,702
04E1A:  MOVFF  2C6,701
04E1E:  MOVFF  2C5,700
04E22:  MOVFF  2C4,6FF
04E26:  CALL   1170
04E2A:  MOVFF  03,2B7
04E2E:  MOVFF  02,2B6
04E32:  MOVFF  01,2B5
04E36:  MOVFF  00,2B4
.................... // Pendiente determinar si el comportamiento de la mufla es lineal 10C/min o si tiene un comportamiento diferente.          
....................        
....................       if(Pendiente<0){ 
04E3A:  MOVFF  2BB,6F8
04E3E:  MOVFF  2BA,6F7
04E42:  MOVFF  2B9,6F6
04E46:  MOVFF  2B8,6F5
04E4A:  MOVLB  6
04E4C:  CLRF   xFC
04E4E:  CLRF   xFB
04E50:  CLRF   xFA
04E52:  CLRF   xF9
04E54:  MOVLB  0
04E56:  CALL   16C0
04E5A:  BTFSS  FD8.0
04E5C:  BRA    50AE
....................          // Pendiente revisar rampa para enfriamiento 
....................          if(PotenciaEntregada<0 && PotenciaEntregada>-100.0){ 
04E5E:  MOVFF  2B7,6F8
04E62:  MOVFF  2B6,6F7
04E66:  MOVFF  2B5,6F6
04E6A:  MOVFF  2B4,6F5
04E6E:  MOVLB  6
04E70:  CLRF   xFC
04E72:  CLRF   xFB
04E74:  CLRF   xFA
04E76:  CLRF   xF9
04E78:  MOVLB  0
04E7A:  CALL   16C0
04E7E:  BNC   4ECA
04E80:  MOVLB  6
04E82:  CLRF   xF8
04E84:  CLRF   xF7
04E86:  MOVLW  C8
04E88:  MOVWF  xF6
04E8A:  MOVLW  85
04E8C:  MOVWF  xF5
04E8E:  MOVFF  2B7,6FC
04E92:  MOVFF  2B6,6FB
04E96:  MOVFF  2B5,6FA
04E9A:  MOVFF  2B4,6F9
04E9E:  MOVLB  0
04EA0:  CALL   16C0
04EA4:  BNC   4ECA
....................             PotenciaEntregada=abs(PotenciaEntregada);      
04EA6:  MOVFF  2B4,00
04EAA:  MOVFF  2B5,01
04EAE:  MOVFF  2B6,02
04EB2:  MOVFF  2B7,03
04EB6:  BCF    01.7
04EB8:  MOVFF  2B7,2B7
04EBC:  MOVFF  2B6,2B6
04EC0:  MOVFF  01,2B5
04EC4:  MOVFF  2B4,2B4
....................          }else if(PotenciaEntregada<-100.0){ 
04EC8:  BRA    4F2E
04ECA:  MOVFF  2B7,6F8
04ECE:  MOVFF  2B6,6F7
04ED2:  MOVFF  2B5,6F6
04ED6:  MOVFF  2B4,6F5
04EDA:  MOVLB  6
04EDC:  CLRF   xFC
04EDE:  CLRF   xFB
04EE0:  MOVLW  C8
04EE2:  MOVWF  xFA
04EE4:  MOVLW  85
04EE6:  MOVWF  xF9
04EE8:  MOVLB  0
04EEA:  CALL   16C0
04EEE:  BNC   4F00
....................             PotenciaEntregada=100.0; 
04EF0:  MOVLB  2
04EF2:  CLRF   xB7
04EF4:  CLRF   xB6
04EF6:  MOVLW  48
04EF8:  MOVWF  xB5
04EFA:  MOVLW  85
04EFC:  MOVWF  xB4
....................          }else if(PotenciaEntregada>0){ 
04EFE:  BRA    4F2C
04F00:  MOVLB  6
04F02:  CLRF   xF8
04F04:  CLRF   xF7
04F06:  CLRF   xF6
04F08:  CLRF   xF5
04F0A:  MOVFF  2B7,6FC
04F0E:  MOVFF  2B6,6FB
04F12:  MOVFF  2B5,6FA
04F16:  MOVFF  2B4,6F9
04F1A:  MOVLB  0
04F1C:  CALL   16C0
04F20:  BNC   4F2E
....................             PotenciaEntregada=0;  
04F22:  MOVLB  2
04F24:  CLRF   xB7
04F26:  CLRF   xB6
04F28:  CLRF   xB5
04F2A:  CLRF   xB4
04F2C:  MOVLB  0
....................          } 
....................           
....................          SSR2_off; 
04F2E:  BCF    F8D.2
04F30:  BCF    F96.2
....................          Controlando=0; 
04F32:  MOVLB  1
04F34:  CLRF   xD6
....................           
....................          if(tCongelamiento>=10800){ // Si el tiempo de congelamiento es igual o mayor a 10800 segundos (3 Horas) Activa el modo Defrost 
04F36:  MOVLB  2
04F38:  MOVF   x1B,W
04F3A:  SUBLW  29
04F3C:  BC    4F52
04F3E:  XORLW  FF
04F40:  BNZ   4F48
04F42:  MOVF   x1A,W
04F44:  SUBLW  2F
04F46:  BC    4F52
....................             flagDefrost=ON; 
04F48:  MOVLB  1
04F4A:  BSF    xCB.2
....................             tCongelamiento=0; 
04F4C:  MOVLB  2
04F4E:  CLRF   x1B
04F50:  CLRF   x1A
....................          } 
....................           
....................          if(flagDefrost){ // Si debe hacer descongelamiento 
04F52:  MOVLB  1
04F54:  BTFSS  xCB.2
04F56:  BRA    4FFE
....................             Ventilador_off; 
04F58:  BSF    F8C.2
04F5A:  BCF    F95.2
....................             if(tDefrost<180){ 
04F5C:  MOVLB  2
04F5E:  MOVF   x19,F
04F60:  BNZ   4FA0
04F62:  MOVF   x18,W
04F64:  SUBLW  B3
04F66:  BNC   4FA0
....................                Compresor_off; 
04F68:  BSF    F8C.3
04F6A:  BCF    F95.3
....................                if(TemperaturaEvaporador<35.0){ 
04F6C:  MOVFF  27F,6F8
04F70:  MOVFF  27E,6F7
04F74:  MOVFF  27D,6F6
04F78:  MOVFF  27C,6F5
04F7C:  MOVLB  6
04F7E:  CLRF   xFC
04F80:  CLRF   xFB
04F82:  MOVLW  0C
04F84:  MOVWF  xFA
04F86:  MOVLW  84
04F88:  MOVWF  xF9
04F8A:  MOVLB  0
04F8C:  CALL   16C0
04F90:  BNC   4F98
....................                   SSR_on; //Resistencias de evaporador prenden 
04F92:  BSF    F8D.1
04F94:  BCF    F96.1
....................                }else{ 
04F96:  BRA    4F9C
....................                   SSR_off; //Resistencias de evaporador apagan 
04F98:  BCF    F8D.1
04F9A:  BCF    F96.1
....................                } 
....................             }else if(tDefrost>=180 && tDefrost<=240){ 
04F9C:  BRA    4FFA
04F9E:  MOVLB  2
04FA0:  MOVF   x19,F
04FA2:  BNZ   4FAA
04FA4:  MOVF   x18,W
04FA6:  SUBLW  B3
04FA8:  BC    4FBE
04FAA:  MOVF   x19,F
04FAC:  BNZ   4FBE
04FAE:  MOVF   x18,W
04FB0:  SUBLW  F0
04FB2:  BNC   4FBE
....................                SSR_off; //Resistencias de evaporador apagan 
04FB4:  BCF    F8D.1
04FB6:  BCF    F96.1
....................                Compresor_off; 
04FB8:  BSF    F8C.3
04FBA:  BCF    F95.3
....................             }else if(tDefrost>240 && tDefrost<=300){ 
04FBC:  BRA    4FF8
04FBE:  MOVF   x19,F
04FC0:  BNZ   4FC8
04FC2:  MOVF   x18,W
04FC4:  SUBLW  F0
04FC6:  BC    4FEA
04FC8:  MOVF   x19,W
04FCA:  SUBLW  01
04FCC:  BNC   4FEA
04FCE:  BNZ   4FD6
04FD0:  MOVF   x18,W
04FD2:  SUBLW  2C
04FD4:  BNC   4FEA
....................                if(tApagadoCompresor==0){//4 minutos de espera para arranque de compresor 
04FD6:  MOVF   x1C,F
04FD8:  BNZ   4FE8
04FDA:  MOVF   x1D,F
04FDC:  BNZ   4FE8
....................                   Compresor_on; 
04FDE:  BCF    F8C.3
04FE0:  BCF    F95.3
....................                   tApagadoCompresor=240; 
04FE2:  CLRF   x1D
04FE4:  MOVLW  F0
04FE6:  MOVWF  x1C
....................                } 
....................             }else{ 
04FE8:  BRA    4FF8
....................                flagDefrost=OFF; 
04FEA:  MOVLB  1
04FEC:  BCF    xCB.2
....................                tDefrost=0; 
04FEE:  MOVLB  2
04FF0:  CLRF   x19
04FF2:  CLRF   x18
....................                SSR_off; //Resistencias de evaporador apagan 
04FF4:  BCF    F8D.1
04FF6:  BCF    F96.1
04FF8:  MOVLB  0
....................             } 
....................          }else{ // Si esta en modo Refrigeracion 
04FFA:  BRA    50A8
04FFC:  MOVLB  1
....................             Ventilador_on; 
04FFE:  BCF    F8C.2
05000:  BCF    F95.2
....................             SSR_off; //Resistencias de evaporador apagan 
05002:  BCF    F8D.1
05004:  BCF    F96.1
....................             if(error>0){ 
05006:  MOVLB  6
05008:  CLRF   xF8
0500A:  CLRF   xF7
0500C:  CLRF   xF6
0500E:  CLRF   xF5
05010:  MOVFF  23F,6FC
05014:  MOVFF  23E,6FB
05018:  MOVFF  23D,6FA
0501C:  MOVFF  23C,6F9
05020:  MOVLB  0
05022:  CALL   16C0
05026:  BNC   5032
....................                //Compresor_off; 
....................                Valvula1_off; 
05028:  BSF    F8C.1
0502A:  BCF    F95.1
....................                Valvula2_on; 
0502C:  BCF    F8B.5
0502E:  BCF    F94.5
....................             }else{ 
05030:  BRA    50A8
....................                if(PotenciaEntregada>=50){ 
05032:  MOVLB  6
05034:  CLRF   xF8
05036:  CLRF   xF7
05038:  MOVLW  48
0503A:  MOVWF  xF6
0503C:  MOVLW  84
0503E:  MOVWF  xF5
05040:  MOVFF  2B7,6FC
05044:  MOVFF  2B6,6FB
05048:  MOVFF  2B5,6FA
0504C:  MOVFF  2B4,6F9
05050:  MOVLB  0
05052:  CALL   16C0
05056:  BC    505A
05058:  BNZ   5078
....................                   if(tApagadoCompresor==0){//4 minutos de espera para arranque de compresor 
0505A:  MOVLB  2
0505C:  MOVF   x1C,F
0505E:  BNZ   506E
05060:  MOVF   x1D,F
05062:  BNZ   506E
....................                      Compresor_on; 
05064:  BCF    F8C.3
05066:  BCF    F95.3
....................                      tApagadoCompresor=240; 
05068:  CLRF   x1D
0506A:  MOVLW  F0
0506C:  MOVWF  x1C
....................                   } 
....................                   Valvula1_on; 
0506E:  BCF    F8C.1
05070:  BCF    F95.1
....................                   Valvula2_off; 
05072:  BSF    F8B.5
05074:  BCF    F94.5
....................                }else if(PotenciaEntregada<=30){ 
05076:  BRA    50AA
05078:  MOVFF  2B7,6F8
0507C:  MOVFF  2B6,6F7
05080:  MOVFF  2B5,6F6
05084:  MOVFF  2B4,6F5
05088:  MOVLB  6
0508A:  CLRF   xFC
0508C:  CLRF   xFB
0508E:  MOVLW  70
05090:  MOVWF  xFA
05092:  MOVLW  83
05094:  MOVWF  xF9
05096:  MOVLB  0
05098:  CALL   16C0
0509C:  BC    50A0
0509E:  BNZ   50A8
....................                   //Compresor_off; 
....................                   Valvula1_off; 
050A0:  BSF    F8C.1
050A2:  BCF    F95.1
....................                   Valvula2_on; 
050A4:  BCF    F8B.5
050A6:  BCF    F94.5
050A8:  MOVLB  2
....................                } 
....................             } 
....................          }   
....................          //-----------------------------------------// 
....................       }else{ 
050AA:  BRA    520E
050AC:  MOVLB  0
....................          if(PotenciaEntregada>100.0) 
050AE:  MOVLB  6
050B0:  CLRF   xF8
050B2:  CLRF   xF7
050B4:  MOVLW  48
050B6:  MOVWF  xF6
050B8:  MOVLW  85
050BA:  MOVWF  xF5
050BC:  MOVFF  2B7,6FC
050C0:  MOVFF  2B6,6FB
050C4:  MOVFF  2B5,6FA
050C8:  MOVFF  2B4,6F9
050CC:  MOVLB  0
050CE:  CALL   16C0
050D2:  BNC   50E2
....................             PotenciaEntregada=100.0; 
050D4:  MOVLB  2
050D6:  CLRF   xB7
050D8:  CLRF   xB6
050DA:  MOVLW  48
050DC:  MOVWF  xB5
050DE:  MOVLW  85
050E0:  MOVWF  xB4
....................       
....................          if(PotenciaEntregada<0) 
050E2:  MOVFF  2B7,6F8
050E6:  MOVFF  2B6,6F7
050EA:  MOVFF  2B5,6F6
050EE:  MOVFF  2B4,6F5
050F2:  MOVLB  6
050F4:  CLRF   xFC
050F6:  CLRF   xFB
050F8:  CLRF   xFA
050FA:  CLRF   xF9
050FC:  MOVLB  0
050FE:  CALL   16C0
05102:  BNC   5110
....................             PotenciaEntregada=0;  
05104:  MOVLB  2
05106:  CLRF   xB7
05108:  CLRF   xB6
0510A:  CLRF   xB5
0510C:  CLRF   xB4
0510E:  MOVLB  0
....................              
....................          Tpulso=(PotenciaEntregada*Tciclo)/100; 
05110:  MOVFF  2B7,710
05114:  MOVFF  2B6,70F
05118:  MOVFF  2B5,70E
0511C:  MOVFF  2B4,70D
05120:  MOVFF  237,714
05124:  MOVFF  236,713
05128:  MOVFF  235,712
0512C:  MOVFF  234,711
05130:  CALL   15CA
05134:  MOVFF  00,6F1
05138:  MOVFF  01,6F2
0513C:  MOVFF  02,6F3
05140:  MOVFF  03,6F4
05144:  MOVFF  03,6FE
05148:  MOVFF  02,6FD
0514C:  MOVFF  01,6FC
05150:  MOVFF  00,6FB
05154:  MOVLB  7
05156:  CLRF   x02
05158:  CLRF   x01
0515A:  MOVLW  48
0515C:  MOVWF  x00
0515E:  MOVLW  85
05160:  MOVLB  6
05162:  MOVWF  xFF
05164:  MOVLB  0
05166:  CALL   1170
0516A:  MOVFF  03,23B
0516E:  MOVFF  02,23A
05172:  MOVFF  01,239
05176:  MOVFF  00,238
....................          Tp=(Tpulso/0.005); 
0517A:  MOVFF  23B,6FE
0517E:  MOVFF  23A,6FD
05182:  MOVFF  239,6FC
05186:  MOVFF  238,6FB
0518A:  MOVLW  0A
0518C:  MOVLB  7
0518E:  MOVWF  x02
05190:  MOVLW  D7
05192:  MOVWF  x01
05194:  MOVLW  23
05196:  MOVWF  x00
05198:  MOVLW  77
0519A:  MOVLB  6
0519C:  MOVWF  xFF
0519E:  MOVLB  0
051A0:  CALL   1170
051A4:  MOVFF  03,705
051A8:  MOVFF  02,704
051AC:  MOVFF  01,703
051B0:  MOVFF  00,702
051B4:  CALL   371E
051B8:  MOVFF  02,215
051BC:  MOVFF  01,214
....................          Tc=(Tciclo/0.005); 
051C0:  MOVFF  237,6FE
051C4:  MOVFF  236,6FD
051C8:  MOVFF  235,6FC
051CC:  MOVFF  234,6FB
051D0:  MOVLW  0A
051D2:  MOVLB  7
051D4:  MOVWF  x02
051D6:  MOVLW  D7
051D8:  MOVWF  x01
051DA:  MOVLW  23
051DC:  MOVWF  x00
051DE:  MOVLW  77
051E0:  MOVLB  6
051E2:  MOVWF  xFF
051E4:  MOVLB  0
051E6:  CALL   1170
051EA:  MOVFF  03,705
051EE:  MOVFF  02,704
051F2:  MOVFF  01,703
051F6:  MOVFF  00,702
051FA:  CALL   371E
051FE:  MOVFF  02,217
05202:  MOVFF  01,216
....................          Controlando=1;    
05206:  MOVLW  01
05208:  MOVLB  1
0520A:  MOVWF  xD6
0520C:  MOVLB  2
....................       } 
....................    }else{ 
0520E:  GOTO   5DF8
05212:  MOVLB  0
....................       if(Enfria==1){ //Debe ejecutar control de refrigeracin 
05214:  MOVLB  1
05216:  DECFSZ xD5,W
05218:  BRA    53EE
....................          SSR2_off; 
0521A:  BCF    F8D.2
0521C:  BCF    F96.2
....................          Controlando=0; 
0521E:  CLRF   xD6
....................          error=Setpoint-Temperatura;      // Clculo del error ****** 
05220:  BSF    FD8.1
05222:  MOVFF  273,705
05226:  MOVFF  272,704
0522A:  MOVFF  271,703
0522E:  MOVFF  270,702
05232:  MOVFF  26B,709
05236:  MOVFF  26A,708
0523A:  MOVFF  269,707
0523E:  MOVFF  268,706
05242:  MOVLB  0
05244:  CALL   12EE
05248:  MOVFF  03,23F
0524C:  MOVFF  02,23E
05250:  MOVFF  01,23D
05254:  MOVFF  00,23C
....................           
....................          if(tCongelamiento>=10800){ // Si el tiempo de congelamiento es igual o mayor a 10800 segundos (3 Horas) Activa el modo Defrost 
05258:  MOVLB  2
0525A:  MOVF   x1B,W
0525C:  SUBLW  29
0525E:  BC    5274
05260:  XORLW  FF
05262:  BNZ   526A
05264:  MOVF   x1A,W
05266:  SUBLW  2F
05268:  BC    5274
....................             flagDefrost=ON; 
0526A:  MOVLB  1
0526C:  BSF    xCB.2
....................             tCongelamiento=0; 
0526E:  MOVLB  2
05270:  CLRF   x1B
05272:  CLRF   x1A
....................          } 
....................           
....................          if(flagDefrost){ // Si debe hacer descongelamiento 
05274:  MOVLB  1
05276:  BTFSS  xCB.2
05278:  BRA    5320
....................             Ventilador_off; 
0527A:  BSF    F8C.2
0527C:  BCF    F95.2
....................             if(tDefrost<180){ 
0527E:  MOVLB  2
05280:  MOVF   x19,F
05282:  BNZ   52C2
05284:  MOVF   x18,W
05286:  SUBLW  B3
05288:  BNC   52C2
....................                Compresor_off; 
0528A:  BSF    F8C.3
0528C:  BCF    F95.3
....................                if(TemperaturaEvaporador<35.0){ 
0528E:  MOVFF  27F,6F8
05292:  MOVFF  27E,6F7
05296:  MOVFF  27D,6F6
0529A:  MOVFF  27C,6F5
0529E:  MOVLB  6
052A0:  CLRF   xFC
052A2:  CLRF   xFB
052A4:  MOVLW  0C
052A6:  MOVWF  xFA
052A8:  MOVLW  84
052AA:  MOVWF  xF9
052AC:  MOVLB  0
052AE:  CALL   16C0
052B2:  BNC   52BA
....................                   SSR_on; //Resistencias de evaporador prenden 
052B4:  BSF    F8D.1
052B6:  BCF    F96.1
....................                }else{ 
052B8:  BRA    52BE
....................                   SSR_off; //Resistencias de evaporador apagan 
052BA:  BCF    F8D.1
052BC:  BCF    F96.1
....................                } 
....................             }else if(tDefrost>=180 && tDefrost<=240){ 
052BE:  BRA    531C
052C0:  MOVLB  2
052C2:  MOVF   x19,F
052C4:  BNZ   52CC
052C6:  MOVF   x18,W
052C8:  SUBLW  B3
052CA:  BC    52E0
052CC:  MOVF   x19,F
052CE:  BNZ   52E0
052D0:  MOVF   x18,W
052D2:  SUBLW  F0
052D4:  BNC   52E0
....................                SSR_off; //Resistencias de evaporador apagan 
052D6:  BCF    F8D.1
052D8:  BCF    F96.1
....................                Compresor_off; 
052DA:  BSF    F8C.3
052DC:  BCF    F95.3
....................             }else if(tDefrost>240 && tDefrost<=300){ 
052DE:  BRA    531A
052E0:  MOVF   x19,F
052E2:  BNZ   52EA
052E4:  MOVF   x18,W
052E6:  SUBLW  F0
052E8:  BC    530C
052EA:  MOVF   x19,W
052EC:  SUBLW  01
052EE:  BNC   530C
052F0:  BNZ   52F8
052F2:  MOVF   x18,W
052F4:  SUBLW  2C
052F6:  BNC   530C
....................                if(tApagadoCompresor==0){//4 minutos de espera para arranque de compresor 
052F8:  MOVF   x1C,F
052FA:  BNZ   530A
052FC:  MOVF   x1D,F
052FE:  BNZ   530A
....................                   Compresor_on; 
05300:  BCF    F8C.3
05302:  BCF    F95.3
....................                   tApagadoCompresor=240; 
05304:  CLRF   x1D
05306:  MOVLW  F0
05308:  MOVWF  x1C
....................                } 
....................             }else{ 
0530A:  BRA    531A
....................                flagDefrost=OFF; 
0530C:  MOVLB  1
0530E:  BCF    xCB.2
....................                tDefrost=0; 
05310:  MOVLB  2
05312:  CLRF   x19
05314:  CLRF   x18
....................                SSR_off; //Resistencias de evaporador apagan 
05316:  BCF    F8D.1
05318:  BCF    F96.1
0531A:  MOVLB  0
....................             } 
....................          }else{ // Si esta en modo Refrigeracion 
0531C:  BRA    53E6
0531E:  MOVLB  1
....................             Ventilador_on; 
05320:  BCF    F8C.2
05322:  BCF    F95.2
....................             SSR_off; //Resistencias de evaporador apagan 
05324:  BCF    F8D.1
05326:  BCF    F96.1
....................             if(error>0){ 
05328:  MOVLB  6
0532A:  CLRF   xF8
0532C:  CLRF   xF7
0532E:  CLRF   xF6
05330:  CLRF   xF5
05332:  MOVFF  23F,6FC
05336:  MOVFF  23E,6FB
0533A:  MOVFF  23D,6FA
0533E:  MOVFF  23C,6F9
05342:  MOVLB  0
05344:  CALL   16C0
05348:  BNC   5354
....................                //Compresor_off; 
....................                Valvula1_off; 
0534A:  BSF    F8C.1
0534C:  BCF    F95.1
....................                Valvula2_on; 
0534E:  BCF    F8B.5
05350:  BCF    F94.5
....................             }else{ 
05352:  BRA    53E6
....................                if(abs(error)>=Histeresis){ 
05354:  MOVFF  23C,00
05358:  MOVFF  23D,01
0535C:  MOVFF  23E,02
05360:  MOVFF  23F,03
05364:  BCF    01.7
05366:  MOVFF  23C,6F1
0536A:  MOVFF  01,6F2
0536E:  MOVFF  23E,6F3
05372:  MOVFF  23F,6F4
05376:  MOVFF  283,6F8
0537A:  MOVFF  282,6F7
0537E:  MOVFF  281,6F6
05382:  MOVFF  280,6F5
05386:  MOVFF  23F,6FC
0538A:  MOVFF  23E,6FB
0538E:  MOVFF  01,6FA
05392:  MOVFF  23C,6F9
05396:  CALL   16C0
0539A:  BC    539E
0539C:  BNZ   53BC
....................                   if(tApagadoCompresor==0){//4 minutos de espera para arranque de compresor 
0539E:  MOVLB  2
053A0:  MOVF   x1C,F
053A2:  BNZ   53B2
053A4:  MOVF   x1D,F
053A6:  BNZ   53B2
....................                      Compresor_on; 
053A8:  BCF    F8C.3
053AA:  BCF    F95.3
....................                      tApagadoCompresor=240; 
053AC:  CLRF   x1D
053AE:  MOVLW  F0
053B0:  MOVWF  x1C
....................                   } 
....................                   Valvula1_on; 
053B2:  BCF    F8C.1
053B4:  BCF    F95.1
....................                   Valvula2_off; 
053B6:  BSF    F8B.5
053B8:  BCF    F94.5
....................                }else if(error==0){ 
053BA:  BRA    53E8
053BC:  MOVFF  23F,6F8
053C0:  MOVFF  23E,6F7
053C4:  MOVFF  23D,6F6
053C8:  MOVFF  23C,6F5
053CC:  MOVLB  6
053CE:  CLRF   xFC
053D0:  CLRF   xFB
053D2:  CLRF   xFA
053D4:  CLRF   xF9
053D6:  MOVLB  0
053D8:  CALL   16C0
053DC:  BNZ   53E6
....................                   //Compresor_off; 
....................                   Valvula1_off; 
053DE:  BSF    F8C.1
053E0:  BCF    F95.1
....................                   Valvula2_on; 
053E2:  BCF    F8B.5
053E4:  BCF    F94.5
053E6:  MOVLB  2
....................                } 
....................             } 
....................          }   
....................       }else{ //Debe ejecutar control de aumento de temperatura 
053E8:  GOTO   5DF8
053EC:  MOVLB  1
....................          Ventilador_on; 
053EE:  BCF    F8C.2
053F0:  BCF    F95.2
....................          Compresor_off; 
053F2:  BSF    F8C.3
053F4:  BCF    F95.3
....................          SSR_off; 
053F6:  BCF    F8D.1
053F8:  BCF    F96.1
....................          Valvula1_on; 
053FA:  BCF    F8C.1
053FC:  BCF    F95.1
....................          Valvula2_off; 
053FE:  BSF    F8B.5
05400:  BCF    F94.5
....................              
....................          desvio=0.3; 
05402:  MOVLW  9A
05404:  MOVLB  2
05406:  MOVWF  x57
05408:  MOVLW  99
0540A:  MOVWF  x56
0540C:  MOVLW  19
0540E:  MOVWF  x55
05410:  MOVLW  7D
05412:  MOVWF  x54
....................          error=desvio+Setpoint-Temperatura;      // Clculo del error ****** 
05414:  BCF    FD8.1
05416:  MOVFF  257,705
0541A:  MOVFF  256,704
0541E:  MOVFF  255,703
05422:  MOVFF  254,702
05426:  MOVFF  273,709
0542A:  MOVFF  272,708
0542E:  MOVFF  271,707
05432:  MOVFF  270,706
05436:  MOVLB  0
05438:  CALL   12EE
0543C:  MOVFF  00,6F1
05440:  MOVFF  01,6F2
05444:  MOVFF  02,6F3
05448:  MOVFF  03,6F4
0544C:  BSF    FD8.1
0544E:  MOVFF  03,705
05452:  MOVFF  02,704
05456:  MOVFF  01,703
0545A:  MOVFF  00,702
0545E:  MOVFF  26B,709
05462:  MOVFF  26A,708
05466:  MOVFF  269,707
0546A:  MOVFF  268,706
0546E:  CALL   12EE
05472:  MOVFF  03,23F
05476:  MOVFF  02,23E
0547A:  MOVFF  01,23D
0547E:  MOVFF  00,23C
....................       
....................          if(error>=15.0 && error<60 && Aumento<=0.5){ 
05482:  MOVLB  6
05484:  CLRF   xF8
05486:  CLRF   xF7
05488:  MOVLW  70
0548A:  MOVWF  xF6
0548C:  MOVLW  82
0548E:  MOVWF  xF5
05490:  MOVFF  23F,6FC
05494:  MOVFF  23E,6FB
05498:  MOVFF  23D,6FA
0549C:  MOVFF  23C,6F9
054A0:  MOVLB  0
054A2:  CALL   16C0
054A6:  BC    54AC
054A8:  BTFSS  FD8.2
054AA:  BRA    56C0
054AC:  MOVFF  23F,6F8
054B0:  MOVFF  23E,6F7
054B4:  MOVFF  23D,6F6
054B8:  MOVFF  23C,6F5
054BC:  MOVLB  6
054BE:  CLRF   xFC
054C0:  CLRF   xFB
054C2:  MOVLW  70
054C4:  MOVWF  xFA
054C6:  MOVLW  84
054C8:  MOVWF  xF9
054CA:  MOVLB  0
054CC:  CALL   16C0
054D0:  BTFSS  FD8.0
054D2:  BRA    56C0
054D4:  MOVFF  267,6F8
054D8:  MOVFF  266,6F7
054DC:  MOVFF  265,6F6
054E0:  MOVFF  264,6F5
054E4:  MOVLB  6
054E6:  CLRF   xFC
054E8:  CLRF   xFB
054EA:  CLRF   xFA
054EC:  MOVLW  7E
054EE:  MOVWF  xF9
054F0:  MOVLB  0
054F2:  CALL   16C0
054F6:  BC    54FC
054F8:  BTFSS  FD8.2
054FA:  BRA    56C0
....................             derivativo_ant=Derivativo*4; 
054FC:  MOVLB  1
054FE:  MOVF   xD8,W
05500:  MULLW  04
05502:  MOVF   FF3,W
05504:  MOVLB  2
05506:  CLRF   x1F
05508:  MOVWF  x1E
....................             flag_ajuste=0; 
0550A:  MOVLB  1
0550C:  BCF    xCC.5
....................             flag_ajuste2=0; 
0550E:  BCF    xCC.6
....................             Ajusto=10; 
05510:  MOVLW  0A
05512:  MOVWF  xD7
....................             if(Potencia<50.0){ 
05514:  MOVFF  227,6F8
05518:  MOVFF  226,6F7
0551C:  MOVFF  225,6F6
05520:  MOVFF  224,6F5
05524:  MOVLB  6
05526:  CLRF   xFC
05528:  CLRF   xFB
0552A:  MOVLW  48
0552C:  MOVWF  xFA
0552E:  MOVLW  84
05530:  MOVWF  xF9
05532:  MOVLB  0
05534:  CALL   16C0
05538:  BTFSS  FD8.0
0553A:  BRA    56BC
....................                if(TiempoControl>=derivativo_ant){//80 
0553C:  MOVLB  2
0553E:  MOVF   x1F,F
05540:  BTFSS  FD8.2
05542:  BRA    56BE
05544:  MOVF   x1E,W
05546:  SUBWF  x01,W
05548:  BTFSS  FD8.0
0554A:  BRA    56BE
....................                   TiempoControl=0; 
0554C:  CLRF   x01
....................                   if(Aumento<-0.5){ 
0554E:  MOVFF  267,6F8
05552:  MOVFF  266,6F7
05556:  MOVFF  265,6F6
0555A:  MOVFF  264,6F5
0555E:  MOVLB  6
05560:  CLRF   xFC
05562:  CLRF   xFB
05564:  MOVLW  80
05566:  MOVWF  xFA
05568:  MOVLW  7E
0556A:  MOVWF  xF9
0556C:  MOVLB  0
0556E:  CALL   16C0
05572:  BNC   55E2
....................                      Ganancia+=Integral*1.2;//2 
05574:  MOVLB  7
05576:  CLRF   x03
05578:  MOVFF  1D9,702
0557C:  MOVLB  0
0557E:  CALL   1112
05582:  MOVFF  03,710
05586:  MOVFF  02,70F
0558A:  MOVFF  01,70E
0558E:  MOVFF  00,70D
05592:  MOVLW  9A
05594:  MOVLB  7
05596:  MOVWF  x14
05598:  MOVLW  99
0559A:  MOVWF  x13
0559C:  MOVLW  19
0559E:  MOVWF  x12
055A0:  MOVLW  7F
055A2:  MOVWF  x11
055A4:  MOVLB  0
055A6:  CALL   15CA
055AA:  BCF    FD8.1
055AC:  MOVFF  24F,705
055B0:  MOVFF  24E,704
055B4:  MOVFF  24D,703
055B8:  MOVFF  24C,702
055BC:  MOVFF  03,709
055C0:  MOVFF  02,708
055C4:  MOVFF  01,707
055C8:  MOVFF  00,706
055CC:  CALL   12EE
055D0:  MOVFF  03,24F
055D4:  MOVFF  02,24E
055D8:  MOVFF  01,24D
055DC:  MOVFF  00,24C
....................                   }else{ 
055E0:  BRA    56BC
....................                      if(Aumento<-0.1){ 
055E2:  MOVFF  267,6F8
055E6:  MOVFF  266,6F7
055EA:  MOVFF  265,6F6
055EE:  MOVFF  264,6F5
055F2:  MOVLW  CD
055F4:  MOVLB  6
055F6:  MOVWF  xFC
055F8:  MOVLW  CC
055FA:  MOVWF  xFB
055FC:  MOVWF  xFA
055FE:  MOVLW  7B
05600:  MOVWF  xF9
05602:  MOVLB  0
05604:  CALL   16C0
05608:  BNC   5678
....................                         Ganancia+=Integral*1.1;//1 
0560A:  MOVLB  7
0560C:  CLRF   x03
0560E:  MOVFF  1D9,702
05612:  MOVLB  0
05614:  CALL   1112
05618:  MOVFF  03,710
0561C:  MOVFF  02,70F
05620:  MOVFF  01,70E
05624:  MOVFF  00,70D
05628:  MOVLW  CD
0562A:  MOVLB  7
0562C:  MOVWF  x14
0562E:  MOVLW  CC
05630:  MOVWF  x13
05632:  MOVLW  0C
05634:  MOVWF  x12
05636:  MOVLW  7F
05638:  MOVWF  x11
0563A:  MOVLB  0
0563C:  CALL   15CA
05640:  BCF    FD8.1
05642:  MOVFF  24F,705
05646:  MOVFF  24E,704
0564A:  MOVFF  24D,703
0564E:  MOVFF  24C,702
05652:  MOVFF  03,709
05656:  MOVFF  02,708
0565A:  MOVFF  01,707
0565E:  MOVFF  00,706
05662:  CALL   12EE
05666:  MOVFF  03,24F
0566A:  MOVFF  02,24E
0566E:  MOVFF  01,24D
05672:  MOVFF  00,24C
....................                      }else{ 
05676:  BRA    56BC
....................                         Ganancia+=Integral;//0.5 
05678:  MOVLB  7
0567A:  CLRF   x03
0567C:  MOVFF  1D9,702
05680:  MOVLB  0
05682:  CALL   1112
05686:  BCF    FD8.1
05688:  MOVFF  24F,705
0568C:  MOVFF  24E,704
05690:  MOVFF  24D,703
05694:  MOVFF  24C,702
05698:  MOVFF  03,709
0569C:  MOVFF  02,708
056A0:  MOVFF  01,707
056A4:  MOVFF  00,706
056A8:  CALL   12EE
056AC:  MOVFF  03,24F
056B0:  MOVFF  02,24E
056B4:  MOVFF  01,24D
056B8:  MOVFF  00,24C
056BC:  MOVLB  2
....................                      } 
....................                   } 
....................                } 
....................             } 
....................          }else if(error>=6.0 && error<15 && Aumento<=0.3){ 
056BE:  BRA    5B60
056C0:  MOVLB  6
056C2:  CLRF   xF8
056C4:  CLRF   xF7
056C6:  MOVLW  40
056C8:  MOVWF  xF6
056CA:  MOVLW  81
056CC:  MOVWF  xF5
056CE:  MOVFF  23F,6FC
056D2:  MOVFF  23E,6FB
056D6:  MOVFF  23D,6FA
056DA:  MOVFF  23C,6F9
056DE:  MOVLB  0
056E0:  CALL   16C0
056E4:  BC    56EA
056E6:  BTFSS  FD8.2
056E8:  BRA    58FA
056EA:  MOVFF  23F,6F8
056EE:  MOVFF  23E,6F7
056F2:  MOVFF  23D,6F6
056F6:  MOVFF  23C,6F5
056FA:  MOVLB  6
056FC:  CLRF   xFC
056FE:  CLRF   xFB
05700:  MOVLW  70
05702:  MOVWF  xFA
05704:  MOVLW  82
05706:  MOVWF  xF9
05708:  MOVLB  0
0570A:  CALL   16C0
0570E:  BTFSS  FD8.0
05710:  BRA    58FA
05712:  MOVFF  267,6F8
05716:  MOVFF  266,6F7
0571A:  MOVFF  265,6F6
0571E:  MOVFF  264,6F5
05722:  MOVLW  9A
05724:  MOVLB  6
05726:  MOVWF  xFC
05728:  MOVLW  99
0572A:  MOVWF  xFB
0572C:  MOVLW  19
0572E:  MOVWF  xFA
05730:  MOVLW  7D
05732:  MOVWF  xF9
05734:  MOVLB  0
05736:  CALL   16C0
0573A:  BC    5740
0573C:  BTFSS  FD8.2
0573E:  BRA    58FA
....................             derivativo_ant=Derivativo*3; 
05740:  MOVLB  1
05742:  MOVF   xD8,W
05744:  MULLW  03
05746:  MOVF   FF3,W
05748:  MOVLB  2
0574A:  CLRF   x1F
0574C:  MOVWF  x1E
....................             flag_ajuste=0; 
0574E:  MOVLB  1
05750:  BCF    xCC.5
....................             flag_ajuste2=0; 
05752:  BCF    xCC.6
....................             Ajusto=10; 
05754:  MOVLW  0A
05756:  MOVWF  xD7
....................             if(Potencia<40.0){ 
05758:  MOVFF  227,6F8
0575C:  MOVFF  226,6F7
05760:  MOVFF  225,6F6
05764:  MOVFF  224,6F5
05768:  MOVLB  6
0576A:  CLRF   xFC
0576C:  CLRF   xFB
0576E:  MOVLW  20
05770:  MOVWF  xFA
05772:  MOVLW  84
05774:  MOVWF  xF9
05776:  MOVLB  0
05778:  CALL   16C0
0577C:  BTFSS  FD8.0
0577E:  BRA    58F6
....................                if(TiempoControl>=derivativo_ant){ 
05780:  MOVLB  2
05782:  MOVF   x1F,F
05784:  BTFSS  FD8.2
05786:  BRA    58F8
05788:  MOVF   x1E,W
0578A:  SUBWF  x01,W
0578C:  BTFSS  FD8.0
0578E:  BRA    58F8
....................                   TiempoControl=0; 
05790:  CLRF   x01
....................                   if(Aumento<-0.5){ 
05792:  MOVFF  267,6F8
05796:  MOVFF  266,6F7
0579A:  MOVFF  265,6F6
0579E:  MOVFF  264,6F5
057A2:  MOVLB  6
057A4:  CLRF   xFC
057A6:  CLRF   xFB
057A8:  MOVLW  80
057AA:  MOVWF  xFA
057AC:  MOVLW  7E
057AE:  MOVWF  xF9
057B0:  MOVLB  0
057B2:  CALL   16C0
057B6:  BNC   57FE
....................                      Ganancia+=Integral;//2 
057B8:  MOVLB  7
057BA:  CLRF   x03
057BC:  MOVFF  1D9,702
057C0:  MOVLB  0
057C2:  CALL   1112
057C6:  BCF    FD8.1
057C8:  MOVFF  24F,705
057CC:  MOVFF  24E,704
057D0:  MOVFF  24D,703
057D4:  MOVFF  24C,702
057D8:  MOVFF  03,709
057DC:  MOVFF  02,708
057E0:  MOVFF  01,707
057E4:  MOVFF  00,706
057E8:  CALL   12EE
057EC:  MOVFF  03,24F
057F0:  MOVFF  02,24E
057F4:  MOVFF  01,24D
057F8:  MOVFF  00,24C
....................                   }else{ 
057FC:  BRA    58F6
....................                      if(Aumento<-0.1){ 
057FE:  MOVFF  267,6F8
05802:  MOVFF  266,6F7
05806:  MOVFF  265,6F6
0580A:  MOVFF  264,6F5
0580E:  MOVLW  CD
05810:  MOVLB  6
05812:  MOVWF  xFC
05814:  MOVLW  CC
05816:  MOVWF  xFB
05818:  MOVWF  xFA
0581A:  MOVLW  7B
0581C:  MOVWF  xF9
0581E:  MOVLB  0
05820:  CALL   16C0
05824:  BNC   5890
....................                         Ganancia+=Integral*0.7;//1 
05826:  MOVLB  7
05828:  CLRF   x03
0582A:  MOVFF  1D9,702
0582E:  MOVLB  0
05830:  CALL   1112
05834:  MOVFF  03,710
05838:  MOVFF  02,70F
0583C:  MOVFF  01,70E
05840:  MOVFF  00,70D
05844:  MOVLW  33
05846:  MOVLB  7
05848:  MOVWF  x14
0584A:  MOVWF  x13
0584C:  MOVWF  x12
0584E:  MOVLW  7E
05850:  MOVWF  x11
05852:  MOVLB  0
05854:  CALL   15CA
05858:  BCF    FD8.1
0585A:  MOVFF  24F,705
0585E:  MOVFF  24E,704
05862:  MOVFF  24D,703
05866:  MOVFF  24C,702
0586A:  MOVFF  03,709
0586E:  MOVFF  02,708
05872:  MOVFF  01,707
05876:  MOVFF  00,706
0587A:  CALL   12EE
0587E:  MOVFF  03,24F
05882:  MOVFF  02,24E
05886:  MOVFF  01,24D
0588A:  MOVFF  00,24C
....................                      }else{ 
0588E:  BRA    58F6
....................                         Ganancia+=Integral*0.5;//0.5 
05890:  MOVLB  7
05892:  CLRF   x03
05894:  MOVFF  1D9,702
05898:  MOVLB  0
0589A:  CALL   1112
0589E:  MOVFF  03,710
058A2:  MOVFF  02,70F
058A6:  MOVFF  01,70E
058AA:  MOVFF  00,70D
058AE:  MOVLB  7
058B0:  CLRF   x14
058B2:  CLRF   x13
058B4:  CLRF   x12
058B6:  MOVLW  7E
058B8:  MOVWF  x11
058BA:  MOVLB  0
058BC:  CALL   15CA
058C0:  BCF    FD8.1
058C2:  MOVFF  24F,705
058C6:  MOVFF  24E,704
058CA:  MOVFF  24D,703
058CE:  MOVFF  24C,702
058D2:  MOVFF  03,709
058D6:  MOVFF  02,708
058DA:  MOVFF  01,707
058DE:  MOVFF  00,706
058E2:  CALL   12EE
058E6:  MOVFF  03,24F
058EA:  MOVFF  02,24E
058EE:  MOVFF  01,24D
058F2:  MOVFF  00,24C
058F6:  MOVLB  2
....................                      } 
....................                   } 
....................                } 
....................             } 
....................          }else if(error>=0.7 && error<6 && Aumento<=0.2){ 
058F8:  BRA    5B60
058FA:  MOVLW  33
058FC:  MOVLB  6
058FE:  MOVWF  xF8
05900:  MOVWF  xF7
05902:  MOVWF  xF6
05904:  MOVLW  7E
05906:  MOVWF  xF5
05908:  MOVFF  23F,6FC
0590C:  MOVFF  23E,6FB
05910:  MOVFF  23D,6FA
05914:  MOVFF  23C,6F9
05918:  MOVLB  0
0591A:  CALL   16C0
0591E:  BC    5924
05920:  BTFSS  FD8.2
05922:  BRA    5B5E
05924:  MOVFF  23F,6F8
05928:  MOVFF  23E,6F7
0592C:  MOVFF  23D,6F6
05930:  MOVFF  23C,6F5
05934:  MOVLB  6
05936:  CLRF   xFC
05938:  CLRF   xFB
0593A:  MOVLW  40
0593C:  MOVWF  xFA
0593E:  MOVLW  81
05940:  MOVWF  xF9
05942:  MOVLB  0
05944:  CALL   16C0
05948:  BTFSS  FD8.0
0594A:  BRA    5B5E
0594C:  MOVFF  267,6F8
05950:  MOVFF  266,6F7
05954:  MOVFF  265,6F6
05958:  MOVFF  264,6F5
0595C:  MOVLW  CD
0595E:  MOVLB  6
05960:  MOVWF  xFC
05962:  MOVLW  CC
05964:  MOVWF  xFB
05966:  MOVLW  4C
05968:  MOVWF  xFA
0596A:  MOVLW  7C
0596C:  MOVWF  xF9
0596E:  MOVLB  0
05970:  CALL   16C0
05974:  BC    597A
05976:  BTFSS  FD8.2
05978:  BRA    5B5E
....................             derivativo_ant=Derivativo*2; 
0597A:  BCF    FD8.0
0597C:  MOVLB  1
0597E:  RLCF   xD8,W
05980:  MOVLB  2
05982:  MOVWF  x1E
05984:  CLRF   x1F
05986:  BTFSC  FD8.0
05988:  INCF   x1F,F
....................             flag_ajuste=0; 
0598A:  MOVLB  1
0598C:  BCF    xCC.5
....................             flag_ajuste2=0; 
0598E:  BCF    xCC.6
....................             Ajusto=10; 
05990:  MOVLW  0A
05992:  MOVWF  xD7
....................             if(Potencia<30.0){ 
05994:  MOVFF  227,6F8
05998:  MOVFF  226,6F7
0599C:  MOVFF  225,6F6
059A0:  MOVFF  224,6F5
059A4:  MOVLB  6
059A6:  CLRF   xFC
059A8:  CLRF   xFB
059AA:  MOVLW  70
059AC:  MOVWF  xFA
059AE:  MOVLW  83
059B0:  MOVWF  xF9
059B2:  MOVLB  0
059B4:  CALL   16C0
059B8:  BTFSS  FD8.0
059BA:  BRA    5B5E
....................                if(TiempoControl>=derivativo_ant){ 
059BC:  MOVLB  2
059BE:  MOVF   x1F,F
059C0:  BTFSS  FD8.2
059C2:  BRA    5B60
059C4:  MOVF   x1E,W
059C6:  SUBWF  x01,W
059C8:  BTFSS  FD8.0
059CA:  BRA    5B60
....................                   TiempoControl=0; 
059CC:  CLRF   x01
....................                   if(Aumento<-0.5){ 
059CE:  MOVFF  267,6F8
059D2:  MOVFF  266,6F7
059D6:  MOVFF  265,6F6
059DA:  MOVFF  264,6F5
059DE:  MOVLB  6
059E0:  CLRF   xFC
059E2:  CLRF   xFB
059E4:  MOVLW  80
059E6:  MOVWF  xFA
059E8:  MOVLW  7E
059EA:  MOVWF  xF9
059EC:  MOVLB  0
059EE:  CALL   16C0
059F2:  BNC   5A5C
....................                      Ganancia+=Integral*0.5;//2 
059F4:  MOVLB  7
059F6:  CLRF   x03
059F8:  MOVFF  1D9,702
059FC:  MOVLB  0
059FE:  CALL   1112
05A02:  MOVFF  03,710
05A06:  MOVFF  02,70F
05A0A:  MOVFF  01,70E
05A0E:  MOVFF  00,70D
05A12:  MOVLB  7
05A14:  CLRF   x14
05A16:  CLRF   x13
05A18:  CLRF   x12
05A1A:  MOVLW  7E
05A1C:  MOVWF  x11
05A1E:  MOVLB  0
05A20:  CALL   15CA
05A24:  BCF    FD8.1
05A26:  MOVFF  24F,705
05A2A:  MOVFF  24E,704
05A2E:  MOVFF  24D,703
05A32:  MOVFF  24C,702
05A36:  MOVFF  03,709
05A3A:  MOVFF  02,708
05A3E:  MOVFF  01,707
05A42:  MOVFF  00,706
05A46:  CALL   12EE
05A4A:  MOVFF  03,24F
05A4E:  MOVFF  02,24E
05A52:  MOVFF  01,24D
05A56:  MOVFF  00,24C
....................                   }else{ 
05A5A:  BRA    5B5E
....................                      if(Aumento<-0.1){ 
05A5C:  MOVFF  267,6F8
05A60:  MOVFF  266,6F7
05A64:  MOVFF  265,6F6
05A68:  MOVFF  264,6F5
05A6C:  MOVLW  CD
05A6E:  MOVLB  6
05A70:  MOVWF  xFC
05A72:  MOVLW  CC
05A74:  MOVWF  xFB
05A76:  MOVWF  xFA
05A78:  MOVLW  7B
05A7A:  MOVWF  xF9
05A7C:  MOVLB  0
05A7E:  CALL   16C0
05A82:  BNC   5AF2
....................                         Ganancia+=Integral*0.3;//1 
05A84:  MOVLB  7
05A86:  CLRF   x03
05A88:  MOVFF  1D9,702
05A8C:  MOVLB  0
05A8E:  CALL   1112
05A92:  MOVFF  03,710
05A96:  MOVFF  02,70F
05A9A:  MOVFF  01,70E
05A9E:  MOVFF  00,70D
05AA2:  MOVLW  9A
05AA4:  MOVLB  7
05AA6:  MOVWF  x14
05AA8:  MOVLW  99
05AAA:  MOVWF  x13
05AAC:  MOVLW  19
05AAE:  MOVWF  x12
05AB0:  MOVLW  7D
05AB2:  MOVWF  x11
05AB4:  MOVLB  0
05AB6:  CALL   15CA
05ABA:  BCF    FD8.1
05ABC:  MOVFF  24F,705
05AC0:  MOVFF  24E,704
05AC4:  MOVFF  24D,703
05AC8:  MOVFF  24C,702
05ACC:  MOVFF  03,709
05AD0:  MOVFF  02,708
05AD4:  MOVFF  01,707
05AD8:  MOVFF  00,706
05ADC:  CALL   12EE
05AE0:  MOVFF  03,24F
05AE4:  MOVFF  02,24E
05AE8:  MOVFF  01,24D
05AEC:  MOVFF  00,24C
....................                      }else{ 
05AF0:  BRA    5B5E
....................                         Ganancia+=Integral*0.1;//0.5 
05AF2:  MOVLB  7
05AF4:  CLRF   x03
05AF6:  MOVFF  1D9,702
05AFA:  MOVLB  0
05AFC:  CALL   1112
05B00:  MOVFF  03,710
05B04:  MOVFF  02,70F
05B08:  MOVFF  01,70E
05B0C:  MOVFF  00,70D
05B10:  MOVLW  CD
05B12:  MOVLB  7
05B14:  MOVWF  x14
05B16:  MOVLW  CC
05B18:  MOVWF  x13
05B1A:  MOVLW  4C
05B1C:  MOVWF  x12
05B1E:  MOVLW  7B
05B20:  MOVWF  x11
05B22:  MOVLB  0
05B24:  CALL   15CA
05B28:  BCF    FD8.1
05B2A:  MOVFF  24F,705
05B2E:  MOVFF  24E,704
05B32:  MOVFF  24D,703
05B36:  MOVFF  24C,702
05B3A:  MOVFF  03,709
05B3E:  MOVFF  02,708
05B42:  MOVFF  01,707
05B46:  MOVFF  00,706
05B4A:  CALL   12EE
05B4E:  MOVFF  03,24F
05B52:  MOVFF  02,24E
05B56:  MOVFF  01,24D
05B5A:  MOVFF  00,24C
05B5E:  MOVLB  2
....................                      } 
....................                   } 
....................                } 
....................             } 
....................          } 
....................           
....................          if(Ganancia<0.01) 
05B60:  MOVFF  24F,6F8
05B64:  MOVFF  24E,6F7
05B68:  MOVFF  24D,6F6
05B6C:  MOVFF  24C,6F5
05B70:  MOVLW  0A
05B72:  MOVLB  6
05B74:  MOVWF  xFC
05B76:  MOVLW  D7
05B78:  MOVWF  xFB
05B7A:  MOVLW  23
05B7C:  MOVWF  xFA
05B7E:  MOVLW  78
05B80:  MOVWF  xF9
05B82:  MOVLB  0
05B84:  CALL   16C0
05B88:  BNC   5B9E
....................             Ganancia=0.01; 
05B8A:  MOVLW  0A
05B8C:  MOVLB  2
05B8E:  MOVWF  x4F
05B90:  MOVLW  D7
05B92:  MOVWF  x4E
05B94:  MOVLW  23
05B96:  MOVWF  x4D
05B98:  MOVLW  78
05B9A:  MOVWF  x4C
05B9C:  MOVLB  0
....................        
....................          if(Ganancia>Gananciamax) 
05B9E:  MOVFF  22B,6F8
05BA2:  MOVFF  22A,6F7
05BA6:  MOVFF  229,6F6
05BAA:  MOVFF  228,6F5
05BAE:  MOVFF  24F,6FC
05BB2:  MOVFF  24E,6FB
05BB6:  MOVFF  24D,6FA
05BBA:  MOVFF  24C,6F9
05BBE:  CALL   16C0
05BC2:  BNC   5BD4
....................             Ganancia=Gananciamax; 
05BC4:  MOVFF  22B,24F
05BC8:  MOVFF  22A,24E
05BCC:  MOVFF  229,24D
05BD0:  MOVFF  228,24C
....................        
....................          if(error<0.0)     // Anti Wind_DOWN     
05BD4:  MOVFF  23F,6F8
05BD8:  MOVFF  23E,6F7
05BDC:  MOVFF  23D,6F6
05BE0:  MOVFF  23C,6F5
05BE4:  MOVLB  6
05BE6:  CLRF   xFC
05BE8:  CLRF   xFB
05BEA:  CLRF   xFA
05BEC:  CLRF   xF9
05BEE:  MOVLB  0
05BF0:  CALL   16C0
05BF4:  BNC   5C04
....................             tmp=0; 
05BF6:  MOVLB  2
05BF8:  CLRF   x4B
05BFA:  CLRF   x4A
05BFC:  CLRF   x49
05BFE:  CLRF   x48
....................          else 
05C00:  BRA    5C38
05C02:  MOVLB  0
....................             tmp=error*Ganancia;  // Control Proporcional. 
05C04:  MOVFF  23F,710
05C08:  MOVFF  23E,70F
05C0C:  MOVFF  23D,70E
05C10:  MOVFF  23C,70D
05C14:  MOVFF  24F,714
05C18:  MOVFF  24E,713
05C1C:  MOVFF  24D,712
05C20:  MOVFF  24C,711
05C24:  CALL   15CA
05C28:  MOVFF  03,24B
05C2C:  MOVFF  02,24A
05C30:  MOVFF  01,249
05C34:  MOVFF  00,248
....................           
....................          //tmp=(Setpoint-Prom)*Ganancia;  // Control Proporcional. 
....................                 
....................          if(tmp>Setpoint)   // Anti Wind-UP       
05C38:  MOVFF  273,6F8
05C3C:  MOVFF  272,6F7
05C40:  MOVFF  271,6F6
05C44:  MOVFF  270,6F5
05C48:  MOVFF  24B,6FC
05C4C:  MOVFF  24A,6FB
05C50:  MOVFF  249,6FA
05C54:  MOVFF  248,6F9
05C58:  MOVLB  0
05C5A:  CALL   16C0
05C5E:  BNC   5C70
....................             tmp=Setpoint; 
05C60:  MOVFF  273,24B
05C64:  MOVFF  272,24A
05C68:  MOVFF  271,249
05C6C:  MOVFF  270,248
....................                       
....................          if(tmp<0.0)     // Anti Wind_DOWN     
05C70:  MOVFF  24B,6F8
05C74:  MOVFF  24A,6F7
05C78:  MOVFF  249,6F6
05C7C:  MOVFF  248,6F5
05C80:  MOVLB  6
05C82:  CLRF   xFC
05C84:  CLRF   xFB
05C86:  CLRF   xFA
05C88:  CLRF   xF9
05C8A:  MOVLB  0
05C8C:  CALL   16C0
05C90:  BNC   5C9E
....................             tmp=0.0; 
05C92:  MOVLB  2
05C94:  CLRF   x4B
05C96:  CLRF   x4A
05C98:  CLRF   x49
05C9A:  CLRF   x48
05C9C:  MOVLB  0
....................     
....................          Tpulso=(tmp/Setpoint)*Tciclo; 
05C9E:  MOVFF  24B,6FE
05CA2:  MOVFF  24A,6FD
05CA6:  MOVFF  249,6FC
05CAA:  MOVFF  248,6FB
05CAE:  MOVFF  273,702
05CB2:  MOVFF  272,701
05CB6:  MOVFF  271,700
05CBA:  MOVFF  270,6FF
05CBE:  CALL   1170
05CC2:  MOVFF  00,6F1
05CC6:  MOVFF  01,6F2
05CCA:  MOVFF  02,6F3
05CCE:  MOVFF  03,6F4
05CD2:  MOVFF  03,710
05CD6:  MOVFF  02,70F
05CDA:  MOVFF  01,70E
05CDE:  MOVFF  00,70D
05CE2:  MOVFF  237,714
05CE6:  MOVFF  236,713
05CEA:  MOVFF  235,712
05CEE:  MOVFF  234,711
05CF2:  CALL   15CA
05CF6:  MOVFF  03,23B
05CFA:  MOVFF  02,23A
05CFE:  MOVFF  01,239
05D02:  MOVFF  00,238
....................        
....................          if(Tpulso<0)Tpulso=0; 
05D06:  MOVFF  23B,6F8
05D0A:  MOVFF  23A,6F7
05D0E:  MOVFF  239,6F6
05D12:  MOVFF  238,6F5
05D16:  MOVLB  6
05D18:  CLRF   xFC
05D1A:  CLRF   xFB
05D1C:  CLRF   xFA
05D1E:  CLRF   xF9
05D20:  MOVLB  0
05D22:  CALL   16C0
05D26:  BNC   5D34
05D28:  MOVLB  2
05D2A:  CLRF   x3B
05D2C:  CLRF   x3A
05D2E:  CLRF   x39
05D30:  CLRF   x38
05D32:  MOVLB  0
....................          if(Tpulso>Tciclo)Tpulso=0; 
05D34:  MOVFF  237,6F8
05D38:  MOVFF  236,6F7
05D3C:  MOVFF  235,6F6
05D40:  MOVFF  234,6F5
05D44:  MOVFF  23B,6FC
05D48:  MOVFF  23A,6FB
05D4C:  MOVFF  239,6FA
05D50:  MOVFF  238,6F9
05D54:  CALL   16C0
05D58:  BNC   5D64
05D5A:  MOVLB  2
05D5C:  CLRF   x3B
05D5E:  CLRF   x3A
05D60:  CLRF   x39
05D62:  CLRF   x38
....................        
....................          Tp=(Tpulso/0.005); 
05D64:  MOVFF  23B,6FE
05D68:  MOVFF  23A,6FD
05D6C:  MOVFF  239,6FC
05D70:  MOVFF  238,6FB
05D74:  MOVLW  0A
05D76:  MOVLB  7
05D78:  MOVWF  x02
05D7A:  MOVLW  D7
05D7C:  MOVWF  x01
05D7E:  MOVLW  23
05D80:  MOVWF  x00
05D82:  MOVLW  77
05D84:  MOVLB  6
05D86:  MOVWF  xFF
05D88:  MOVLB  0
05D8A:  CALL   1170
05D8E:  MOVFF  03,705
05D92:  MOVFF  02,704
05D96:  MOVFF  01,703
05D9A:  MOVFF  00,702
05D9E:  CALL   371E
05DA2:  MOVFF  02,215
05DA6:  MOVFF  01,214
....................          Tc=(Tciclo/0.005); 
05DAA:  MOVFF  237,6FE
05DAE:  MOVFF  236,6FD
05DB2:  MOVFF  235,6FC
05DB6:  MOVFF  234,6FB
05DBA:  MOVLW  0A
05DBC:  MOVLB  7
05DBE:  MOVWF  x02
05DC0:  MOVLW  D7
05DC2:  MOVWF  x01
05DC4:  MOVLW  23
05DC6:  MOVWF  x00
05DC8:  MOVLW  77
05DCA:  MOVLB  6
05DCC:  MOVWF  xFF
05DCE:  MOVLB  0
05DD0:  CALL   1170
05DD4:  MOVFF  03,705
05DD8:  MOVFF  02,704
05DDC:  MOVFF  01,703
05DE0:  MOVFF  00,702
05DE4:  CALL   371E
05DE8:  MOVFF  02,217
05DEC:  MOVFF  01,216
....................          Controlando=1;  
05DF0:  MOVLW  01
05DF2:  MOVLB  1
05DF4:  MOVWF  xD6
05DF6:  MOVLB  2
....................       }   
....................    }     
.................... //--------------------------------------------------------------------------------------------------------------------//    
....................    
.................... } 
05DF8:  MOVLB  0
05DFA:  RETLW  00
....................  
.................... void Envio_I2C(direccion, posicion, dato){ 
....................  
....................    i2c_start();            // Comienzo comunicacin 
....................    i2c_write(direccion);   // Direccin del esclavo en el bus I2C 
....................    i2c_write(posicion);    // Posicin donde se guardara el dato transmitido 
....................    i2c_write(dato);        // Dato a transmitir 
....................    i2c_stop();             // Fin comunicacin 
....................  } 
....................  
.................... void Lectura_I2C (byte direccion, byte posicion, byte &dato) { 
....................  
....................    i2c_start();            // Comienzo de la comunicacin 
....................    i2c_write(direccion);   // Direccin del esclavo en el bus I2C 
....................    i2c_write(posicion);    // Posicin de donde se leer el dato en el esclavo 
....................    i2c_start();            // Reinicio 
....................    i2c_write(direccion+1); // Direccin del esclavo en modo lectura 
....................    dato=i2c_read(0);       // Lectura del dato 
....................    i2c_stop();             // Fin comunicacin 
.................... } 
....................  
.................... void Carga_Vector(void){ 
....................    SlaveA0Tx[0]=(int8)Temperatura; 
*
0375A:  MOVFF  26B,705
0375E:  MOVFF  26A,704
03762:  MOVFF  269,703
03766:  MOVFF  268,702
0376A:  RCALL  371E
0376C:  MOVFF  01,2DA
....................    SlaveA0Tx[1]=(Temperatura-((int8)Temperatura))*10; 
03770:  MOVFF  26B,705
03774:  MOVFF  26A,704
03778:  MOVFF  269,703
0377C:  MOVFF  268,702
03780:  RCALL  371E
03782:  MOVLB  7
03784:  CLRF   x03
03786:  MOVFF  01,702
0378A:  MOVLB  0
0378C:  CALL   1112
03790:  BSF    FD8.1
03792:  MOVFF  26B,705
03796:  MOVFF  26A,704
0379A:  MOVFF  269,703
0379E:  MOVFF  268,702
037A2:  MOVFF  03,709
037A6:  MOVFF  02,708
037AA:  MOVFF  01,707
037AE:  MOVFF  00,706
037B2:  CALL   12EE
037B6:  MOVFF  00,6F1
037BA:  MOVFF  01,6F2
037BE:  MOVFF  02,6F3
037C2:  MOVFF  03,6F4
037C6:  MOVFF  03,710
037CA:  MOVFF  02,70F
037CE:  MOVFF  01,70E
037D2:  MOVFF  00,70D
037D6:  MOVLB  7
037D8:  CLRF   x14
037DA:  CLRF   x13
037DC:  MOVLW  20
037DE:  MOVWF  x12
037E0:  MOVLW  82
037E2:  MOVWF  x11
037E4:  MOVLB  0
037E6:  CALL   15CA
037EA:  MOVFF  03,705
037EE:  MOVFF  02,704
037F2:  MOVFF  01,703
037F6:  MOVFF  00,702
037FA:  RCALL  371E
037FC:  MOVFF  01,2DB
.................... } 
03800:  GOTO   387C (RETURN)
....................  
.................... void Lee_Vector(void){ 
....................    /*Dia=txbuf[0]; 
....................    Mess=txbuf[1]; 
....................    Year=txbuf[2]; 
....................    Hora=txbuf[3]; 
....................    Minuto=txbuf[4]; 
....................    Segundo=txbuf[5]; 
....................    dow=txbuf[6];*/ 
.................... } 
....................  
.................... void Envio_Esclavos(void){ 
....................    Carga_Vector(); 
*
0387A:  BRA    375A
....................    for(i=0;i<2;i++){ 
0387C:  MOVLB  1
0387E:  CLRF   xFF
03880:  MOVF   xFF,W
03882:  SUBLW  01
03884:  BNC   3900
....................       direccion=0xB0; 
03886:  MOVLW  B0
03888:  MOVLB  2
0388A:  MOVWF  xFB
....................       i2c_start();            // Comienzo comunicacin 
0388C:  BSF    F94.4
0388E:  MOVLW  05
03890:  MOVWF  00
03892:  DECFSZ 00,F
03894:  BRA    3892
03896:  BSF    F94.3
03898:  MOVLW  06
0389A:  MOVWF  00
0389C:  DECFSZ 00,F
0389E:  BRA    389C
038A0:  BCF    F8B.4
038A2:  BCF    F94.4
038A4:  MOVLW  05
038A6:  MOVWF  00
038A8:  DECFSZ 00,F
038AA:  BRA    38A8
038AC:  BCF    F8B.3
038AE:  BCF    F94.3
....................       i2c_write(direccion);   // Direccin del esclavo en el bus I2C 
038B0:  MOVFF  2FB,6F2
038B4:  MOVLB  0
038B6:  RCALL  3804
....................       i2c_write(i);   // Direccin del esclavo en el bus I2C 
038B8:  MOVFF  1FF,6F2
038BC:  RCALL  3804
....................       //i2c_write(0);    // Posicin donde se guardara el dato transmitido 
....................       i2c_write(SlaveA0Tx[i]); // Dato a transmitir 
038BE:  CLRF   03
038C0:  MOVLB  1
038C2:  MOVF   xFF,W
038C4:  ADDLW  DA
038C6:  MOVWF  FE9
038C8:  MOVLW  02
038CA:  ADDWFC 03,W
038CC:  MOVWF  FEA
038CE:  MOVFF  FEF,6F1
038D2:  MOVFF  6F1,6F2
038D6:  MOVLB  0
038D8:  RCALL  3804
....................       i2c_stop();  
038DA:  BCF    F94.4
038DC:  NOP   
038DE:  BSF    F94.3
038E0:  BTFSS  F82.3
038E2:  BRA    38E0
038E4:  MOVLW  05
038E6:  MOVWF  00
038E8:  DECFSZ 00,F
038EA:  BRA    38E8
038EC:  BRA    38EE
038EE:  NOP   
038F0:  BSF    F94.4
038F2:  MOVLW  05
038F4:  MOVWF  00
038F6:  DECFSZ 00,F
038F8:  BRA    38F6
....................       //Envio_I2C(direccion,i,SlaveB0Tx[i]); 
....................    }  
038FA:  MOVLB  1
038FC:  INCF   xFF,F
038FE:  BRA    3880
.................... } 
03900:  MOVLB  0
03902:  GOTO   73D0 (RETURN)
....................  
.................... int8 extraeDecimal(float data){ 
*
03E48:  MOVLB  6
03E4A:  CLRF   xFD
03E4C:  CLRF   xFC
03E4E:  CLRF   xFB
03E50:  CLRF   xFA
03E52:  MOVLB  7
03E54:  CLRF   x01
03E56:  CLRF   x00
03E58:  MOVLB  6
03E5A:  CLRF   xFF
03E5C:  CLRF   xFE
....................    float entero=0; 
....................    float tmp=0.0; 
....................     
....................    entero=(int8)data; 
03E5E:  MOVFF  6F9,705
03E62:  MOVFF  6F8,704
03E66:  MOVFF  6F7,703
03E6A:  MOVFF  6F6,702
03E6E:  MOVLB  0
03E70:  RCALL  371E
03E72:  MOVLB  7
03E74:  CLRF   x03
03E76:  MOVFF  01,702
03E7A:  MOVLB  0
03E7C:  CALL   1112
03E80:  MOVFF  03,6FD
03E84:  MOVFF  02,6FC
03E88:  MOVFF  01,6FB
03E8C:  MOVFF  00,6FA
....................    tmp=(data-entero)*10; 
03E90:  BSF    FD8.1
03E92:  MOVFF  6F9,705
03E96:  MOVFF  6F8,704
03E9A:  MOVFF  6F7,703
03E9E:  MOVFF  6F6,702
03EA2:  MOVFF  6FD,709
03EA6:  MOVFF  6FC,708
03EAA:  MOVFF  6FB,707
03EAE:  MOVFF  6FA,706
03EB2:  CALL   12EE
03EB6:  MOVFF  00,702
03EBA:  MOVFF  01,703
03EBE:  MOVFF  02,704
03EC2:  MOVFF  03,705
03EC6:  MOVFF  03,710
03ECA:  MOVFF  02,70F
03ECE:  MOVFF  01,70E
03ED2:  MOVFF  00,70D
03ED6:  MOVLB  7
03ED8:  CLRF   x14
03EDA:  CLRF   x13
03EDC:  MOVLW  20
03EDE:  MOVWF  x12
03EE0:  MOVLW  82
03EE2:  MOVWF  x11
03EE4:  MOVLB  0
03EE6:  CALL   15CA
03EEA:  MOVFF  03,701
03EEE:  MOVFF  02,700
03EF2:  MOVFF  01,6FF
03EF6:  MOVFF  00,6FE
....................    return (int8)tmp; 
03EFA:  MOVFF  701,705
03EFE:  MOVFF  700,704
03F02:  MOVFF  6FF,703
03F06:  MOVFF  6FE,702
03F0A:  RCALL  371E
03F0C:  MOVF   01,W
.................... } 
03F0E:  RETLW  00
....................  
.................... float inttofloat(int8 decimal){ 
....................    float tmp; 
....................    tmp=decimal; 
*
01588:  MOVLB  7
0158A:  CLRF   x03
0158C:  MOVFF  6F5,702
01590:  MOVLB  0
01592:  RCALL  1112
01594:  MOVFF  03,6F9
01598:  MOVFF  02,6F8
0159C:  MOVFF  01,6F7
015A0:  MOVFF  00,6F6
....................    return tmp/10; 
015A4:  MOVFF  6F9,6FE
015A8:  MOVFF  6F8,6FD
015AC:  MOVFF  6F7,6FC
015B0:  MOVFF  6F6,6FB
015B4:  MOVLB  7
015B6:  CLRF   x02
015B8:  CLRF   x01
015BA:  MOVLW  20
015BC:  MOVWF  x00
015BE:  MOVLW  82
015C0:  MOVLB  6
015C2:  MOVWF  xFF
015C4:  MOVLB  0
015C6:  RCALL  1170
.................... } 
015C8:  RETLW  00
....................  
.................... void ConfiguraInterrupciones(){ 
....................    setup_timer_1(T1_INTERNAL|T1_DIV_BY_1); 
*
010EC:  MOVLW  85
010EE:  MOVWF  FCD
....................    enable_interrupts(INT_TIMER1); 
010F0:  BSF    F9D.0
....................    setup_adc_ports(AN0_TO_AN2); 
010F2:  MOVF   FC1,W
010F4:  ANDLW  C0
010F6:  IORLW  0C
010F8:  MOVWF  FC1
....................    setup_adc(ADC_CLOCK_DIV_64); 
010FA:  MOVF   FC0,W
010FC:  ANDLW  C0
010FE:  IORLW  06
01100:  MOVWF  FC0
01102:  BSF    FC0.7
01104:  BSF    FC2.0
....................    port_b_pullups(true); 
01106:  BCF    FF1.7
....................     
....................    setup_wdt(WDT_ON); 
01108:  BSF    FD1.0
....................    enable_interrupts(global); 
0110A:  MOVLW  C0
0110C:  IORWF  FF2,F
.................... }   
0110E:  GOTO   6F74 (RETURN)
....................  
.................... void LeeEEPROM(){ 
....................    mEstp=read_eeprom(0); 
*
0173A:  MOVFF  FF2,6F1
0173E:  BCF    FF2.6
01740:  BCF    FF2.7
01742:  CLRF   FAA
01744:  CLRF   FA9
01746:  BCF    FA6.6
01748:  BCF    FA6.7
0174A:  BSF    FA6.0
0174C:  MOVF   FA8,W
0174E:  MOVLB  6
01750:  BTFSC  xF1.6
01752:  BSF    FF2.6
01754:  BTFSC  xF1.7
01756:  BSF    FF2.7
01758:  MOVLB  7
0175A:  CLRF   x03
0175C:  MOVWF  x02
0175E:  MOVLB  0
01760:  RCALL  1112
01762:  MOVFF  03,1E6
01766:  MOVFF  02,1E5
0176A:  MOVFF  01,1E4
0176E:  MOVFF  00,1E3
....................    delay_ms(10);    
01772:  MOVLW  0A
01774:  MOVLB  6
01776:  MOVWF  xFA
01778:  MOVLB  0
0177A:  RCALL  1148
....................    hEstp=read_eeprom(1); 
0177C:  MOVFF  FF2,6F1
01780:  BCF    FF2.6
01782:  BCF    FF2.7
01784:  CLRF   FAA
01786:  MOVLW  01
01788:  MOVWF  FA9
0178A:  BCF    FA6.6
0178C:  BCF    FA6.7
0178E:  BSF    FA6.0
01790:  MOVF   FA8,W
01792:  MOVLB  6
01794:  BTFSC  xF1.6
01796:  BSF    FF2.6
01798:  BTFSC  xF1.7
0179A:  BSF    FF2.7
0179C:  MOVLB  7
0179E:  CLRF   x03
017A0:  MOVWF  x02
017A2:  MOVLB  0
017A4:  RCALL  1112
017A6:  MOVFF  03,1EA
017AA:  MOVFF  02,1E9
017AE:  MOVFF  01,1E8
017B2:  MOVFF  00,1E7
....................    delay_ms(10);    
017B6:  MOVLW  0A
017B8:  MOVLB  6
017BA:  MOVWF  xFA
017BC:  MOVLB  0
017BE:  RCALL  1148
....................     
....................    Signo=read_eeprom(79); 
017C0:  MOVFF  FF2,6F1
017C4:  BCF    FF2.6
017C6:  BCF    FF2.7
017C8:  CLRF   FAA
017CA:  MOVLW  4F
017CC:  MOVWF  FA9
017CE:  BCF    FA6.6
017D0:  BCF    FA6.7
017D2:  BSF    FA6.0
017D4:  MOVF   FA8,W
017D6:  MOVLB  6
017D8:  BTFSC  xF1.6
017DA:  BSF    FF2.6
017DC:  BTFSC  xF1.7
017DE:  BSF    FF2.7
017E0:  MOVLB  1
017E2:  MOVWF  xE2
....................    delay_ms(10);    
017E4:  MOVLW  0A
017E6:  MOVLB  6
017E8:  MOVWF  xFA
017EA:  MOVLB  0
017EC:  RCALL  1148
....................    entero=read_eeprom(80); 
017EE:  MOVFF  FF2,6F1
017F2:  BCF    FF2.6
017F4:  BCF    FF2.7
017F6:  CLRF   FAA
017F8:  MOVLW  50
017FA:  MOVWF  FA9
017FC:  BCF    FA6.6
017FE:  BCF    FA6.7
01800:  BSF    FA6.0
01802:  MOVF   FA8,W
01804:  MOVLB  6
01806:  BTFSC  xF1.6
01808:  BSF    FF2.6
0180A:  BTFSC  xF1.7
0180C:  BSF    FF2.7
0180E:  MOVLB  2
01810:  MOVWF  x05
....................    delay_ms(10);    
01812:  MOVLW  0A
01814:  MOVLB  6
01816:  MOVWF  xFA
01818:  MOVLB  0
0181A:  RCALL  1148
....................    Temporal=read_eeprom(81); 
0181C:  MOVFF  FF2,6F1
01820:  BCF    FF2.6
01822:  BCF    FF2.7
01824:  CLRF   FAA
01826:  MOVLW  51
01828:  MOVWF  FA9
0182A:  BCF    FA6.6
0182C:  BCF    FA6.7
0182E:  BSF    FA6.0
01830:  MOVF   FA8,W
01832:  MOVLB  6
01834:  BTFSC  xF1.6
01836:  BSF    FF2.6
01838:  BTFSC  xF1.7
0183A:  BSF    FF2.7
0183C:  MOVLB  7
0183E:  CLRF   x03
01840:  MOVWF  x02
01842:  MOVLB  0
01844:  RCALL  1112
01846:  MOVFF  03,277
0184A:  MOVFF  02,276
0184E:  MOVFF  01,275
01852:  MOVFF  00,274
....................    Temporal=Temporal/10.0; 
01856:  MOVFF  277,6FE
0185A:  MOVFF  276,6FD
0185E:  MOVFF  275,6FC
01862:  MOVFF  274,6FB
01866:  MOVLB  7
01868:  CLRF   x02
0186A:  CLRF   x01
0186C:  MOVLW  20
0186E:  MOVWF  x00
01870:  MOVLW  82
01872:  MOVLB  6
01874:  MOVWF  xFF
01876:  MOVLB  0
01878:  RCALL  1170
0187A:  MOVFF  03,277
0187E:  MOVFF  02,276
01882:  MOVFF  01,275
01886:  MOVFF  00,274
....................    Setpoint=entero+Temporal; 
0188A:  MOVLB  7
0188C:  CLRF   x03
0188E:  MOVFF  205,702
01892:  MOVLB  0
01894:  RCALL  1112
01896:  BCF    FD8.1
01898:  MOVFF  03,705
0189C:  MOVFF  02,704
018A0:  MOVFF  01,703
018A4:  MOVFF  00,702
018A8:  MOVFF  277,709
018AC:  MOVFF  276,708
018B0:  MOVFF  275,707
018B4:  MOVFF  274,706
018B8:  RCALL  12EE
018BA:  MOVFF  03,273
018BE:  MOVFF  02,272
018C2:  MOVFF  01,271
018C6:  MOVFF  00,270
....................    delay_ms(10);    
018CA:  MOVLW  0A
018CC:  MOVLB  6
018CE:  MOVWF  xFA
018D0:  MOVLB  0
018D2:  RCALL  1148
....................     
....................    entero=read_eeprom(82); 
018D4:  MOVFF  FF2,6F1
018D8:  BCF    FF2.6
018DA:  BCF    FF2.7
018DC:  CLRF   FAA
018DE:  MOVLW  52
018E0:  MOVWF  FA9
018E2:  BCF    FA6.6
018E4:  BCF    FA6.7
018E6:  BSF    FA6.0
018E8:  MOVF   FA8,W
018EA:  MOVLB  6
018EC:  BTFSC  xF1.6
018EE:  BSF    FF2.6
018F0:  BTFSC  xF1.7
018F2:  BSF    FF2.7
018F4:  MOVLB  2
018F6:  MOVWF  x05
....................    delay_ms(10);    
018F8:  MOVLW  0A
018FA:  MOVLB  6
018FC:  MOVWF  xFA
018FE:  MOVLB  0
01900:  RCALL  1148
....................    Temporal=read_eeprom(83); 
01902:  MOVFF  FF2,6F1
01906:  BCF    FF2.6
01908:  BCF    FF2.7
0190A:  CLRF   FAA
0190C:  MOVLW  53
0190E:  MOVWF  FA9
01910:  BCF    FA6.6
01912:  BCF    FA6.7
01914:  BSF    FA6.0
01916:  MOVF   FA8,W
01918:  MOVLB  6
0191A:  BTFSC  xF1.6
0191C:  BSF    FF2.6
0191E:  BTFSC  xF1.7
01920:  BSF    FF2.7
01922:  MOVLB  7
01924:  CLRF   x03
01926:  MOVWF  x02
01928:  MOVLB  0
0192A:  CALL   1112
0192E:  MOVFF  03,277
01932:  MOVFF  02,276
01936:  MOVFF  01,275
0193A:  MOVFF  00,274
....................    Temporal=Temporal/10.0; 
0193E:  MOVFF  277,6FE
01942:  MOVFF  276,6FD
01946:  MOVFF  275,6FC
0194A:  MOVFF  274,6FB
0194E:  MOVLB  7
01950:  CLRF   x02
01952:  CLRF   x01
01954:  MOVLW  20
01956:  MOVWF  x00
01958:  MOVLW  82
0195A:  MOVLB  6
0195C:  MOVWF  xFF
0195E:  MOVLB  0
01960:  RCALL  1170
01962:  MOVFF  03,277
01966:  MOVFF  02,276
0196A:  MOVFF  01,275
0196E:  MOVFF  00,274
....................    SetpointH=entero+Temporal; 
01972:  MOVLB  7
01974:  CLRF   x03
01976:  MOVFF  205,702
0197A:  MOVLB  0
0197C:  CALL   1112
01980:  BCF    FD8.1
01982:  MOVFF  03,705
01986:  MOVFF  02,704
0198A:  MOVFF  01,703
0198E:  MOVFF  00,702
01992:  MOVFF  277,709
01996:  MOVFF  276,708
0199A:  MOVFF  275,707
0199E:  MOVFF  274,706
019A2:  RCALL  12EE
019A4:  MOVFF  03,27B
019A8:  MOVFF  02,27A
019AC:  MOVFF  01,279
019B0:  MOVFF  00,278
....................    delay_ms(10);    
019B4:  MOVLW  0A
019B6:  MOVLB  6
019B8:  MOVWF  xFA
019BA:  MOVLB  0
019BC:  CALL   1148
....................     
....................    Password[0]=read_eeprom(10); 
019C0:  MOVFF  FF2,6F1
019C4:  BCF    FF2.6
019C6:  BCF    FF2.7
019C8:  CLRF   FAA
019CA:  MOVLW  0A
019CC:  MOVWF  FA9
019CE:  BCF    FA6.6
019D0:  BCF    FA6.7
019D2:  BSF    FA6.0
019D4:  MOVF   FA8,W
019D6:  MOVLB  6
019D8:  BTFSC  xF1.6
019DA:  BSF    FF2.6
019DC:  BTFSC  xF1.7
019DE:  BSF    FF2.7
019E0:  MOVLB  2
019E2:  MOVWF  x2C
....................    delay_ms(10);    
019E4:  MOVLW  0A
019E6:  MOVLB  6
019E8:  MOVWF  xFA
019EA:  MOVLB  0
019EC:  CALL   1148
....................    Password[1]=read_eeprom(11); 
019F0:  MOVFF  FF2,6F1
019F4:  BCF    FF2.6
019F6:  BCF    FF2.7
019F8:  CLRF   FAA
019FA:  MOVLW  0B
019FC:  MOVWF  FA9
019FE:  BCF    FA6.6
01A00:  BCF    FA6.7
01A02:  BSF    FA6.0
01A04:  MOVF   FA8,W
01A06:  MOVLB  6
01A08:  BTFSC  xF1.6
01A0A:  BSF    FF2.6
01A0C:  BTFSC  xF1.7
01A0E:  BSF    FF2.7
01A10:  MOVLB  2
01A12:  MOVWF  x2D
....................    delay_ms(10);    
01A14:  MOVLW  0A
01A16:  MOVLB  6
01A18:  MOVWF  xFA
01A1A:  MOVLB  0
01A1C:  CALL   1148
....................    Password[2]=read_eeprom(12); 
01A20:  MOVFF  FF2,6F1
01A24:  BCF    FF2.6
01A26:  BCF    FF2.7
01A28:  CLRF   FAA
01A2A:  MOVLW  0C
01A2C:  MOVWF  FA9
01A2E:  BCF    FA6.6
01A30:  BCF    FA6.7
01A32:  BSF    FA6.0
01A34:  MOVF   FA8,W
01A36:  MOVLB  6
01A38:  BTFSC  xF1.6
01A3A:  BSF    FF2.6
01A3C:  BTFSC  xF1.7
01A3E:  BSF    FF2.7
01A40:  MOVLB  2
01A42:  MOVWF  x2E
....................    delay_ms(10);    
01A44:  MOVLW  0A
01A46:  MOVLB  6
01A48:  MOVWF  xFA
01A4A:  MOVLB  0
01A4C:  CALL   1148
....................    Password[3]=read_eeprom(13); 
01A50:  MOVFF  FF2,6F1
01A54:  BCF    FF2.6
01A56:  BCF    FF2.7
01A58:  CLRF   FAA
01A5A:  MOVLW  0D
01A5C:  MOVWF  FA9
01A5E:  BCF    FA6.6
01A60:  BCF    FA6.7
01A62:  BSF    FA6.0
01A64:  MOVF   FA8,W
01A66:  MOVLB  6
01A68:  BTFSC  xF1.6
01A6A:  BSF    FF2.6
01A6C:  BTFSC  xF1.7
01A6E:  BSF    FF2.7
01A70:  MOVLB  2
01A72:  MOVWF  x2F
....................    delay_ms(10);    
01A74:  MOVLW  0A
01A76:  MOVLB  6
01A78:  MOVWF  xFA
01A7A:  MOVLB  0
01A7C:  CALL   1148
....................     
....................    Sensor[0].Ajuste=read_eeprom(21); 
01A80:  MOVFF  FF2,6F1
01A84:  BCF    FF2.6
01A86:  BCF    FF2.7
01A88:  CLRF   FAA
01A8A:  MOVLW  15
01A8C:  MOVWF  FA9
01A8E:  BCF    FA6.6
01A90:  BCF    FA6.7
01A92:  BSF    FA6.0
01A94:  MOVF   FA8,W
01A96:  MOVLB  6
01A98:  BTFSC  xF1.6
01A9A:  BSF    FF2.6
01A9C:  BTFSC  xF1.7
01A9E:  BSF    FF2.7
01AA0:  MOVLB  3
01AA2:  MOVWF  x1B
....................    delay_ms(10); 
01AA4:  MOVLW  0A
01AA6:  MOVLB  6
01AA8:  MOVWF  xFA
01AAA:  MOVLB  0
01AAC:  CALL   1148
....................    Sensor[0].Ajusten=read_eeprom(22); 
01AB0:  MOVFF  FF2,6F1
01AB4:  BCF    FF2.6
01AB6:  BCF    FF2.7
01AB8:  CLRF   FAA
01ABA:  MOVLW  16
01ABC:  MOVWF  FA9
01ABE:  BCF    FA6.6
01AC0:  BCF    FA6.7
01AC2:  BSF    FA6.0
01AC4:  MOVF   FA8,W
01AC6:  MOVLB  6
01AC8:  BTFSC  xF1.6
01ACA:  BSF    FF2.6
01ACC:  BTFSC  xF1.7
01ACE:  BSF    FF2.7
01AD0:  MOVLB  3
01AD2:  MOVWF  x1C
....................    delay_ms(10); 
01AD4:  MOVLW  0A
01AD6:  MOVLB  6
01AD8:  MOVWF  xFA
01ADA:  MOVLB  0
01ADC:  CALL   1148
....................    Sensor[1].Ajuste=read_eeprom(23); 
01AE0:  MOVFF  FF2,6F1
01AE4:  BCF    FF2.6
01AE6:  BCF    FF2.7
01AE8:  CLRF   FAA
01AEA:  MOVLW  17
01AEC:  MOVWF  FA9
01AEE:  BCF    FA6.6
01AF0:  BCF    FA6.7
01AF2:  BSF    FA6.0
01AF4:  MOVF   FA8,W
01AF6:  MOVLB  6
01AF8:  BTFSC  xF1.6
01AFA:  BSF    FF2.6
01AFC:  BTFSC  xF1.7
01AFE:  BSF    FF2.7
01B00:  MOVLB  4
01B02:  MOVWF  x7F
....................    delay_ms(10); 
01B04:  MOVLW  0A
01B06:  MOVLB  6
01B08:  MOVWF  xFA
01B0A:  MOVLB  0
01B0C:  CALL   1148
....................    Sensor[1].Ajusten=read_eeprom(24); 
01B10:  MOVFF  FF2,6F1
01B14:  BCF    FF2.6
01B16:  BCF    FF2.7
01B18:  CLRF   FAA
01B1A:  MOVLW  18
01B1C:  MOVWF  FA9
01B1E:  BCF    FA6.6
01B20:  BCF    FA6.7
01B22:  BSF    FA6.0
01B24:  MOVF   FA8,W
01B26:  MOVLB  6
01B28:  BTFSC  xF1.6
01B2A:  BSF    FF2.6
01B2C:  BTFSC  xF1.7
01B2E:  BSF    FF2.7
01B30:  MOVLB  4
01B32:  MOVWF  x80
....................    delay_ms(10); 
01B34:  MOVLW  0A
01B36:  MOVLB  6
01B38:  MOVWF  xFA
01B3A:  MOVLB  0
01B3C:  CALL   1148
....................    Ganancia=read_eeprom(30); 
01B40:  MOVFF  FF2,6F1
01B44:  BCF    FF2.6
01B46:  BCF    FF2.7
01B48:  CLRF   FAA
01B4A:  MOVLW  1E
01B4C:  MOVWF  FA9
01B4E:  BCF    FA6.6
01B50:  BCF    FA6.7
01B52:  BSF    FA6.0
01B54:  MOVF   FA8,W
01B56:  MOVLB  6
01B58:  BTFSC  xF1.6
01B5A:  BSF    FF2.6
01B5C:  BTFSC  xF1.7
01B5E:  BSF    FF2.7
01B60:  MOVLB  7
01B62:  CLRF   x03
01B64:  MOVWF  x02
01B66:  MOVLB  0
01B68:  CALL   1112
01B6C:  MOVFF  03,24F
01B70:  MOVFF  02,24E
01B74:  MOVFF  01,24D
01B78:  MOVFF  00,24C
....................    delay_ms(10);    
01B7C:  MOVLW  0A
01B7E:  MOVLB  6
01B80:  MOVWF  xFA
01B82:  MOVLB  0
01B84:  CALL   1148
....................    Derivativo=read_eeprom(31); 
01B88:  MOVFF  FF2,6F1
01B8C:  BCF    FF2.6
01B8E:  BCF    FF2.7
01B90:  CLRF   FAA
01B92:  MOVLW  1F
01B94:  MOVWF  FA9
01B96:  BCF    FA6.6
01B98:  BCF    FA6.7
01B9A:  BSF    FA6.0
01B9C:  MOVF   FA8,W
01B9E:  MOVLB  6
01BA0:  BTFSC  xF1.6
01BA2:  BSF    FF2.6
01BA4:  BTFSC  xF1.7
01BA6:  BSF    FF2.7
01BA8:  MOVLB  1
01BAA:  MOVWF  xD8
....................    delay_ms(10);    
01BAC:  MOVLW  0A
01BAE:  MOVLB  6
01BB0:  MOVWF  xFA
01BB2:  MOVLB  0
01BB4:  CALL   1148
....................    Integral=read_eeprom(32); 
01BB8:  MOVFF  FF2,6F1
01BBC:  BCF    FF2.6
01BBE:  BCF    FF2.7
01BC0:  CLRF   FAA
01BC2:  MOVLW  20
01BC4:  MOVWF  FA9
01BC6:  BCF    FA6.6
01BC8:  BCF    FA6.7
01BCA:  BSF    FA6.0
01BCC:  MOVF   FA8,W
01BCE:  MOVLB  6
01BD0:  BTFSC  xF1.6
01BD2:  BSF    FF2.6
01BD4:  BTFSC  xF1.7
01BD6:  BSF    FF2.7
01BD8:  MOVLB  1
01BDA:  MOVWF  xD9
....................    delay_ms(10);    
01BDC:  MOVLW  0A
01BDE:  MOVLB  6
01BE0:  MOVWF  xFA
01BE2:  MOVLB  0
01BE4:  CALL   1148
....................    Tciclo=read_eeprom(33); 
01BE8:  MOVFF  FF2,6F1
01BEC:  BCF    FF2.6
01BEE:  BCF    FF2.7
01BF0:  CLRF   FAA
01BF2:  MOVLW  21
01BF4:  MOVWF  FA9
01BF6:  BCF    FA6.6
01BF8:  BCF    FA6.7
01BFA:  BSF    FA6.0
01BFC:  MOVF   FA8,W
01BFE:  MOVLB  6
01C00:  BTFSC  xF1.6
01C02:  BSF    FF2.6
01C04:  BTFSC  xF1.7
01C06:  BSF    FF2.7
01C08:  MOVLB  7
01C0A:  CLRF   x03
01C0C:  MOVWF  x02
01C0E:  MOVLB  0
01C10:  CALL   1112
01C14:  MOVFF  03,237
01C18:  MOVFF  02,236
01C1C:  MOVFF  01,235
01C20:  MOVFF  00,234
....................    delay_ms(10);    
01C24:  MOVLW  0A
01C26:  MOVLB  6
01C28:  MOVWF  xFA
01C2A:  MOVLB  0
01C2C:  CALL   1148
....................    Histeresis=read_eeprom(34); 
01C30:  MOVFF  FF2,6F1
01C34:  BCF    FF2.6
01C36:  BCF    FF2.7
01C38:  CLRF   FAA
01C3A:  MOVLW  22
01C3C:  MOVWF  FA9
01C3E:  BCF    FA6.6
01C40:  BCF    FA6.7
01C42:  BSF    FA6.0
01C44:  MOVF   FA8,W
01C46:  MOVLB  6
01C48:  BTFSC  xF1.6
01C4A:  BSF    FF2.6
01C4C:  BTFSC  xF1.7
01C4E:  BSF    FF2.7
01C50:  MOVLB  7
01C52:  CLRF   x03
01C54:  MOVWF  x02
01C56:  MOVLB  0
01C58:  CALL   1112
01C5C:  MOVFF  03,283
01C60:  MOVFF  02,282
01C64:  MOVFF  01,281
01C68:  MOVFF  00,280
....................    delay_ms(10);    
01C6C:  MOVLW  0A
01C6E:  MOVLB  6
01C70:  MOVWF  xFA
01C72:  MOVLB  0
01C74:  CALL   1148
....................    Histeresis=Histeresis/10.0; 
01C78:  MOVFF  283,6FE
01C7C:  MOVFF  282,6FD
01C80:  MOVFF  281,6FC
01C84:  MOVFF  280,6FB
01C88:  MOVLB  7
01C8A:  CLRF   x02
01C8C:  CLRF   x01
01C8E:  MOVLW  20
01C90:  MOVWF  x00
01C92:  MOVLW  82
01C94:  MOVLB  6
01C96:  MOVWF  xFF
01C98:  MOVLB  0
01C9A:  CALL   1170
01C9E:  MOVFF  03,283
01CA2:  MOVFF  02,282
01CA6:  MOVFF  01,281
01CAA:  MOVFF  00,280
....................    MediaMovil=read_eeprom(36); 
01CAE:  MOVFF  FF2,6F1
01CB2:  BCF    FF2.6
01CB4:  BCF    FF2.7
01CB6:  CLRF   FAA
01CB8:  MOVLW  24
01CBA:  MOVWF  FA9
01CBC:  BCF    FA6.6
01CBE:  BCF    FA6.7
01CC0:  BSF    FA6.0
01CC2:  MOVF   FA8,W
01CC4:  MOVLB  6
01CC6:  BTFSC  xF1.6
01CC8:  BSF    FF2.6
01CCA:  BTFSC  xF1.7
01CCC:  BSF    FF2.7
01CCE:  MOVLB  1
01CD0:  MOVWF  xD1
....................    delay_ms(10);    
01CD2:  MOVLW  0A
01CD4:  MOVLB  6
01CD6:  MOVWF  xFA
01CD8:  MOVLB  0
01CDA:  CALL   1148
....................    Coeficiente=read_eeprom(37); 
01CDE:  MOVFF  FF2,6F1
01CE2:  BCF    FF2.6
01CE4:  BCF    FF2.7
01CE6:  CLRF   FAA
01CE8:  MOVLW  25
01CEA:  MOVWF  FA9
01CEC:  BCF    FA6.6
01CEE:  BCF    FA6.7
01CF0:  BSF    FA6.0
01CF2:  MOVF   FA8,W
01CF4:  MOVLB  6
01CF6:  BTFSC  xF1.6
01CF8:  BSF    FF2.6
01CFA:  BTFSC  xF1.7
01CFC:  BSF    FF2.7
01CFE:  MOVLB  7
01D00:  CLRF   x03
01D02:  MOVWF  x02
01D04:  MOVLB  0
01D06:  CALL   1112
01D0A:  MOVFF  03,25B
01D0E:  MOVFF  02,25A
01D12:  MOVFF  01,259
01D16:  MOVFF  00,258
....................    delay_ms(10);    
01D1A:  MOVLW  0A
01D1C:  MOVLB  6
01D1E:  MOVWF  xFA
01D20:  MOVLB  0
01D22:  CALL   1148
....................    Saturacion=read_eeprom(38); 
01D26:  MOVFF  FF2,6F1
01D2A:  BCF    FF2.6
01D2C:  BCF    FF2.7
01D2E:  CLRF   FAA
01D30:  MOVLW  26
01D32:  MOVWF  FA9
01D34:  BCF    FA6.6
01D36:  BCF    FA6.7
01D38:  BSF    FA6.0
01D3A:  MOVF   FA8,W
01D3C:  MOVLB  6
01D3E:  BTFSC  xF1.6
01D40:  BSF    FF2.6
01D42:  BTFSC  xF1.7
01D44:  BSF    FF2.7
01D46:  MOVLB  7
01D48:  CLRF   x03
01D4A:  MOVWF  x02
01D4C:  MOVLB  0
01D4E:  CALL   1112
01D52:  MOVFF  03,26F
01D56:  MOVFF  02,26E
01D5A:  MOVFF  01,26D
01D5E:  MOVFF  00,26C
....................    delay_ms(10);    
01D62:  MOVLW  0A
01D64:  MOVLB  6
01D66:  MOVWF  xFA
01D68:  MOVLB  0
01D6A:  CALL   1148
....................    GananciaR=Ganancia; 
01D6E:  MOVFF  24F,253
01D72:  MOVFF  24E,252
01D76:  MOVFF  24D,251
01D7A:  MOVFF  24C,250
....................     
....................    for(i=0;i<20;i++){//Lee valores almacenados de ciclos personalizados 
01D7E:  MOVLB  1
01D80:  CLRF   xFF
01D82:  MOVF   xFF,W
01D84:  SUBLW  13
01D86:  BTFSS  FD8.0
01D88:  BRA    24FA
....................       rampas[i].TemperaturaInt=read_eeprom(100+(i*5));  
01D8A:  MOVLB  6
01D8C:  CLRF   xFA
01D8E:  MOVFF  1FF,6F9
01D92:  CLRF   xFC
01D94:  MOVLW  0F
01D96:  MOVWF  xFB
01D98:  MOVLB  0
01D9A:  CALL   1566
01D9E:  MOVFF  02,6F2
01DA2:  MOVFF  01,6F1
01DA6:  MOVLW  01
01DA8:  MOVLB  6
01DAA:  ADDWF  xF1,W
01DAC:  MOVWF  01
01DAE:  MOVLW  00
01DB0:  ADDWFC xF2,W
01DB2:  MOVWF  03
01DB4:  MOVF   01,W
01DB6:  ADDLW  C5
01DB8:  MOVWF  FE9
01DBA:  MOVLW  05
01DBC:  ADDWFC 03,W
01DBE:  MOVWF  FEA
01DC0:  MOVLB  1
01DC2:  MOVF   xFF,W
01DC4:  MULLW  05
01DC6:  MOVF   FF3,W
01DC8:  ADDLW  64
01DCA:  MOVLB  6
01DCC:  MOVWF  xF3
01DCE:  MOVFF  FF2,6F4
01DD2:  BCF    FF2.6
01DD4:  BCF    FF2.7
01DD6:  CLRF   FAA
01DD8:  MOVFF  6F3,FA9
01DDC:  BCF    FA6.6
01DDE:  BCF    FA6.7
01DE0:  BSF    FA6.0
01DE2:  MOVF   FA8,W
01DE4:  BTFSC  xF4.6
01DE6:  BSF    FF2.6
01DE8:  BTFSC  xF4.7
01DEA:  BSF    FF2.7
01DEC:  MOVWF  FEF
....................       rampas[i].TemperaturaDec=read_eeprom(101+(i*5));  
01DEE:  CLRF   xFA
01DF0:  MOVFF  1FF,6F9
01DF4:  CLRF   xFC
01DF6:  MOVLW  0F
01DF8:  MOVWF  xFB
01DFA:  MOVLB  0
01DFC:  CALL   1566
01E00:  MOVFF  02,6F2
01E04:  MOVFF  01,6F1
01E08:  MOVLW  C5
01E0A:  MOVLB  6
01E0C:  ADDWF  xF1,W
01E0E:  MOVWF  FE9
01E10:  MOVLW  05
01E12:  ADDWFC xF2,W
01E14:  MOVWF  FEA
01E16:  MOVLB  1
01E18:  MOVF   xFF,W
01E1A:  MULLW  05
01E1C:  MOVF   FF3,W
01E1E:  ADDLW  65
01E20:  MOVLB  6
01E22:  MOVWF  xF3
01E24:  MOVFF  FF2,6F4
01E28:  BCF    FF2.6
01E2A:  BCF    FF2.7
01E2C:  CLRF   FAA
01E2E:  MOVFF  6F3,FA9
01E32:  BCF    FA6.6
01E34:  BCF    FA6.7
01E36:  BSF    FA6.0
01E38:  MOVF   FA8,W
01E3A:  BTFSC  xF4.6
01E3C:  BSF    FF2.6
01E3E:  BTFSC  xF4.7
01E40:  BSF    FF2.7
01E42:  MOVWF  FEF
....................       rampas[i].Signo=read_eeprom(102+(i*5));  
01E44:  CLRF   xFA
01E46:  MOVFF  1FF,6F9
01E4A:  CLRF   xFC
01E4C:  MOVLW  0F
01E4E:  MOVWF  xFB
01E50:  MOVLB  0
01E52:  CALL   1566
01E56:  MOVFF  02,6F2
01E5A:  MOVFF  01,6F1
01E5E:  MOVLW  02
01E60:  MOVLB  6
01E62:  ADDWF  xF1,W
01E64:  MOVWF  01
01E66:  MOVLW  00
01E68:  ADDWFC xF2,W
01E6A:  MOVWF  03
01E6C:  MOVF   01,W
01E6E:  ADDLW  C5
01E70:  MOVWF  FE9
01E72:  MOVLW  05
01E74:  ADDWFC 03,W
01E76:  MOVWF  FEA
01E78:  MOVLB  1
01E7A:  MOVF   xFF,W
01E7C:  MULLW  05
01E7E:  MOVF   FF3,W
01E80:  ADDLW  66
01E82:  MOVLB  6
01E84:  MOVWF  xF3
01E86:  MOVFF  FF2,6F4
01E8A:  BCF    FF2.6
01E8C:  BCF    FF2.7
01E8E:  CLRF   FAA
01E90:  MOVFF  6F3,FA9
01E94:  BCF    FA6.6
01E96:  BCF    FA6.7
01E98:  BSF    FA6.0
01E9A:  MOVF   FA8,W
01E9C:  BTFSC  xF4.6
01E9E:  BSF    FF2.6
01EA0:  BTFSC  xF4.7
01EA2:  BSF    FF2.7
01EA4:  MOVWF  FEF
....................       rampas[i].Horas=read_eeprom(103+(i*5));  
01EA6:  CLRF   xFA
01EA8:  MOVFF  1FF,6F9
01EAC:  CLRF   xFC
01EAE:  MOVLW  0F
01EB0:  MOVWF  xFB
01EB2:  MOVLB  0
01EB4:  CALL   1566
01EB8:  MOVFF  02,6F2
01EBC:  MOVFF  01,6F1
01EC0:  MOVLW  03
01EC2:  MOVLB  6
01EC4:  ADDWF  xF1,W
01EC6:  MOVWF  01
01EC8:  MOVLW  00
01ECA:  ADDWFC xF2,W
01ECC:  MOVWF  03
01ECE:  MOVF   01,W
01ED0:  ADDLW  C5
01ED2:  MOVWF  FE9
01ED4:  MOVLW  05
01ED6:  ADDWFC 03,W
01ED8:  MOVWF  FEA
01EDA:  MOVLB  1
01EDC:  MOVF   xFF,W
01EDE:  MULLW  05
01EE0:  MOVF   FF3,W
01EE2:  ADDLW  67
01EE4:  MOVLB  6
01EE6:  MOVWF  xF3
01EE8:  MOVFF  FF2,6F4
01EEC:  BCF    FF2.6
01EEE:  BCF    FF2.7
01EF0:  CLRF   FAA
01EF2:  MOVFF  6F3,FA9
01EF6:  BCF    FA6.6
01EF8:  BCF    FA6.7
01EFA:  BSF    FA6.0
01EFC:  MOVF   FA8,W
01EFE:  BTFSC  xF4.6
01F00:  BSF    FF2.6
01F02:  BTFSC  xF4.7
01F04:  BSF    FF2.7
01F06:  MOVLB  7
01F08:  CLRF   x03
01F0A:  MOVWF  x02
01F0C:  MOVLB  0
01F0E:  CALL   1112
01F12:  MOVFF  00,FEF
01F16:  MOVFF  01,FEC
01F1A:  MOVFF  02,FEC
01F1E:  MOVFF  03,FEC
01F22:  MOVF   FED,F
01F24:  MOVF   FED,F
01F26:  MOVF   FED,F
....................       rampas[i].Minutos=read_eeprom(104+(i*5));  
01F28:  MOVLB  6
01F2A:  CLRF   xFA
01F2C:  MOVFF  1FF,6F9
01F30:  CLRF   xFC
01F32:  MOVLW  0F
01F34:  MOVWF  xFB
01F36:  MOVLB  0
01F38:  CALL   1566
01F3C:  MOVFF  02,6F2
01F40:  MOVFF  01,6F1
01F44:  MOVLW  07
01F46:  MOVLB  6
01F48:  ADDWF  xF1,W
01F4A:  MOVWF  01
01F4C:  MOVLW  00
01F4E:  ADDWFC xF2,W
01F50:  MOVWF  03
01F52:  MOVF   01,W
01F54:  ADDLW  C5
01F56:  MOVWF  FE9
01F58:  MOVLW  05
01F5A:  ADDWFC 03,W
01F5C:  MOVWF  FEA
01F5E:  MOVLB  1
01F60:  MOVF   xFF,W
01F62:  MULLW  05
01F64:  MOVF   FF3,W
01F66:  ADDLW  68
01F68:  MOVLB  6
01F6A:  MOVWF  xF3
01F6C:  MOVFF  FF2,6F4
01F70:  BCF    FF2.6
01F72:  BCF    FF2.7
01F74:  CLRF   FAA
01F76:  MOVFF  6F3,FA9
01F7A:  BCF    FA6.6
01F7C:  BCF    FA6.7
01F7E:  BSF    FA6.0
01F80:  MOVF   FA8,W
01F82:  BTFSC  xF4.6
01F84:  BSF    FF2.6
01F86:  BTFSC  xF4.7
01F88:  BSF    FF2.7
01F8A:  MOVLB  7
01F8C:  CLRF   x03
01F8E:  MOVWF  x02
01F90:  MOVLB  0
01F92:  CALL   1112
01F96:  MOVFF  00,FEF
01F9A:  MOVFF  01,FEC
01F9E:  MOVFF  02,FEC
01FA2:  MOVFF  03,FEC
01FA6:  MOVF   FED,F
01FA8:  MOVF   FED,F
01FAA:  MOVF   FED,F
....................       
....................       if(rampas[i].Signo>20)rampas[i].Signo=10; 
01FAC:  MOVLB  6
01FAE:  CLRF   xFA
01FB0:  MOVFF  1FF,6F9
01FB4:  CLRF   xFC
01FB6:  MOVLW  0F
01FB8:  MOVWF  xFB
01FBA:  MOVLB  0
01FBC:  CALL   1566
01FC0:  MOVFF  02,6F2
01FC4:  MOVFF  01,6F1
01FC8:  MOVLW  02
01FCA:  MOVLB  6
01FCC:  ADDWF  01,W
01FCE:  MOVWF  01
01FD0:  MOVLW  00
01FD2:  ADDWFC 02,W
01FD4:  MOVWF  03
01FD6:  MOVF   01,W
01FD8:  ADDLW  C5
01FDA:  MOVWF  FE9
01FDC:  MOVLW  05
01FDE:  ADDWFC 03,W
01FE0:  MOVWF  FEA
01FE2:  MOVF   FEF,W
01FE4:  SUBLW  14
01FE6:  BC    201C
01FE8:  CLRF   xFA
01FEA:  MOVFF  1FF,6F9
01FEE:  CLRF   xFC
01FF0:  MOVLW  0F
01FF2:  MOVWF  xFB
01FF4:  MOVLB  0
01FF6:  CALL   1566
01FFA:  MOVFF  01,6F1
01FFE:  MOVLW  02
02000:  MOVLB  6
02002:  ADDWF  01,W
02004:  MOVWF  01
02006:  MOVLW  00
02008:  ADDWFC 02,W
0200A:  MOVWF  03
0200C:  MOVF   01,W
0200E:  ADDLW  C5
02010:  MOVWF  FE9
02012:  MOVLW  05
02014:  ADDWFC 03,W
02016:  MOVWF  FEA
02018:  MOVLW  0A
0201A:  MOVWF  FEF
....................       if(rampas[i].Signo==20){ 
0201C:  CLRF   xFA
0201E:  MOVFF  1FF,6F9
02022:  CLRF   xFC
02024:  MOVLW  0F
02026:  MOVWF  xFB
02028:  MOVLB  0
0202A:  CALL   1566
0202E:  MOVFF  02,6F2
02032:  MOVFF  01,6F1
02036:  MOVLW  02
02038:  MOVLB  6
0203A:  ADDWF  01,W
0203C:  MOVWF  01
0203E:  MOVLW  00
02040:  ADDWFC 02,W
02042:  MOVWF  03
02044:  MOVF   01,W
02046:  ADDLW  C5
02048:  MOVWF  FE9
0204A:  MOVLW  05
0204C:  ADDWFC 03,W
0204E:  MOVWF  FEA
02050:  MOVF   FEF,W
02052:  SUBLW  14
02054:  BTFSS  FD8.2
02056:  BRA    2198
....................          rampas[i].Temperatura=(rampas[i].TemperaturaInt+inttofloat(rampas[i].TemperaturaDec))*-1; 
02058:  CLRF   xFA
0205A:  MOVFF  1FF,6F9
0205E:  CLRF   xFC
02060:  MOVLW  0F
02062:  MOVWF  xFB
02064:  MOVLB  0
02066:  CALL   1566
0206A:  MOVFF  01,6F1
0206E:  MOVLW  0B
02070:  MOVLB  6
02072:  ADDWF  01,W
02074:  MOVWF  01
02076:  MOVLW  00
02078:  ADDWFC 02,W
0207A:  MOVWF  03
0207C:  MOVF   01,W
0207E:  ADDLW  C5
02080:  MOVWF  01
02082:  MOVLW  05
02084:  ADDWFC 03,F
02086:  MOVFF  01,6F1
0208A:  MOVFF  03,6F2
0208E:  CLRF   xFA
02090:  MOVFF  1FF,6F9
02094:  CLRF   xFC
02096:  MOVLW  0F
02098:  MOVWF  xFB
0209A:  MOVLB  0
0209C:  CALL   1566
020A0:  MOVFF  02,6F4
020A4:  MOVFF  01,6F3
020A8:  MOVLW  01
020AA:  MOVLB  6
020AC:  ADDWF  01,W
020AE:  MOVWF  01
020B0:  MOVLW  00
020B2:  ADDWFC 02,W
020B4:  MOVWF  03
020B6:  MOVF   01,W
020B8:  ADDLW  C5
020BA:  MOVWF  FE9
020BC:  MOVLW  05
020BE:  ADDWFC 03,W
020C0:  MOVWF  FEA
020C2:  MOVFF  FEF,6F3
020C6:  CLRF   xFA
020C8:  MOVFF  1FF,6F9
020CC:  CLRF   xFC
020CE:  MOVLW  0F
020D0:  MOVWF  xFB
020D2:  MOVLB  0
020D4:  CALL   1566
020D8:  MOVLW  C5
020DA:  MOVLB  6
020DC:  ADDWF  01,W
020DE:  MOVWF  FE9
020E0:  MOVLW  05
020E2:  ADDWFC 02,W
020E4:  MOVWF  FEA
020E6:  MOVFF  FEF,6F4
020EA:  MOVFF  6F4,6F5
020EE:  MOVLB  0
020F0:  CALL   1588
020F4:  MOVFF  00,6F4
020F8:  MOVFF  01,6F5
020FC:  MOVFF  02,6F6
02100:  MOVFF  03,6F7
02104:  MOVLB  7
02106:  CLRF   x03
02108:  MOVFF  6F3,702
0210C:  MOVLB  0
0210E:  CALL   1112
02112:  MOVFF  FEA,6F9
02116:  MOVFF  FE9,6F8
0211A:  BCF    FD8.1
0211C:  MOVFF  03,705
02120:  MOVFF  02,704
02124:  MOVFF  01,703
02128:  MOVFF  00,702
0212C:  MOVFF  6F7,709
02130:  MOVFF  6F6,708
02134:  MOVFF  6F5,707
02138:  MOVFF  6F4,706
0213C:  CALL   12EE
02140:  MOVFF  6F9,FEA
02144:  MOVFF  6F8,FE9
02148:  MOVFF  00,6FA
0214C:  MOVFF  01,6FB
02150:  MOVFF  02,6FC
02154:  MOVFF  03,6FD
02158:  MOVFF  03,710
0215C:  MOVFF  02,70F
02160:  MOVFF  01,70E
02164:  MOVFF  00,70D
02168:  MOVLB  7
0216A:  CLRF   x14
0216C:  CLRF   x13
0216E:  MOVLW  80
02170:  MOVWF  x12
02172:  MOVLW  7F
02174:  MOVWF  x11
02176:  MOVLB  0
02178:  CALL   15CA
0217C:  MOVFF  6F2,FEA
02180:  MOVFF  6F1,FE9
02184:  MOVFF  00,FEF
02188:  MOVFF  01,FEC
0218C:  MOVFF  02,FEC
02190:  MOVFF  03,FEC
....................       }else{ 
02194:  BRA    22A0
02196:  MOVLB  6
....................          rampas[i].Temperatura=rampas[i].TemperaturaInt+inttofloat(rampas[i].TemperaturaDec); 
02198:  CLRF   xFA
0219A:  MOVFF  1FF,6F9
0219E:  CLRF   xFC
021A0:  MOVLW  0F
021A2:  MOVWF  xFB
021A4:  MOVLB  0
021A6:  CALL   1566
021AA:  MOVFF  01,6F1
021AE:  MOVLW  0B
021B0:  MOVLB  6
021B2:  ADDWF  01,W
021B4:  MOVWF  01
021B6:  MOVLW  00
021B8:  ADDWFC 02,W
021BA:  MOVWF  03
021BC:  MOVF   01,W
021BE:  ADDLW  C5
021C0:  MOVWF  01
021C2:  MOVLW  05
021C4:  ADDWFC 03,F
021C6:  MOVFF  01,6F1
021CA:  MOVFF  03,6F2
021CE:  CLRF   xFA
021D0:  MOVFF  1FF,6F9
021D4:  CLRF   xFC
021D6:  MOVLW  0F
021D8:  MOVWF  xFB
021DA:  MOVLB  0
021DC:  CALL   1566
021E0:  MOVFF  02,6F4
021E4:  MOVFF  01,6F3
021E8:  MOVLW  01
021EA:  MOVLB  6
021EC:  ADDWF  01,W
021EE:  MOVWF  01
021F0:  MOVLW  00
021F2:  ADDWFC 02,W
021F4:  MOVWF  03
021F6:  MOVF   01,W
021F8:  ADDLW  C5
021FA:  MOVWF  FE9
021FC:  MOVLW  05
021FE:  ADDWFC 03,W
02200:  MOVWF  FEA
02202:  MOVFF  FEF,6F3
02206:  CLRF   xFA
02208:  MOVFF  1FF,6F9
0220C:  CLRF   xFC
0220E:  MOVLW  0F
02210:  MOVWF  xFB
02212:  MOVLB  0
02214:  CALL   1566
02218:  MOVLW  C5
0221A:  MOVLB  6
0221C:  ADDWF  01,W
0221E:  MOVWF  FE9
02220:  MOVLW  05
02222:  ADDWFC 02,W
02224:  MOVWF  FEA
02226:  MOVFF  FEF,6F4
0222A:  MOVFF  6F4,6F5
0222E:  MOVLB  0
02230:  CALL   1588
02234:  MOVFF  00,6F4
02238:  MOVFF  01,6F5
0223C:  MOVFF  02,6F6
02240:  MOVFF  03,6F7
02244:  MOVLB  7
02246:  CLRF   x03
02248:  MOVFF  6F3,702
0224C:  MOVLB  0
0224E:  CALL   1112
02252:  MOVFF  FEA,6F9
02256:  MOVFF  FE9,6F8
0225A:  BCF    FD8.1
0225C:  MOVFF  03,705
02260:  MOVFF  02,704
02264:  MOVFF  01,703
02268:  MOVFF  00,702
0226C:  MOVFF  6F7,709
02270:  MOVFF  6F6,708
02274:  MOVFF  6F5,707
02278:  MOVFF  6F4,706
0227C:  CALL   12EE
02280:  MOVFF  6F9,FEA
02284:  MOVFF  6F8,FE9
02288:  MOVFF  6F2,FEA
0228C:  MOVFF  6F1,FE9
02290:  MOVFF  00,FEF
02294:  MOVFF  01,FEC
02298:  MOVFF  02,FEC
0229C:  MOVFF  03,FEC
....................       } 
....................       if(rampas[i].Temperatura>60.0 || rampas[i].Temperatura<-12.0)rampas[i].Temperatura=30.0;       
022A0:  MOVLB  6
022A2:  CLRF   xFA
022A4:  MOVFF  1FF,6F9
022A8:  CLRF   xFC
022AA:  MOVLW  0F
022AC:  MOVWF  xFB
022AE:  MOVLB  0
022B0:  CALL   1566
022B4:  MOVFF  01,6F1
022B8:  MOVLW  0B
022BA:  MOVLB  6
022BC:  ADDWF  01,W
022BE:  MOVWF  01
022C0:  MOVLW  00
022C2:  ADDWFC 02,W
022C4:  MOVWF  03
022C6:  MOVF   01,W
022C8:  ADDLW  C5
022CA:  MOVWF  FE9
022CC:  MOVLW  05
022CE:  ADDWFC 03,W
022D0:  MOVWF  FEA
022D2:  MOVFF  FEF,6F1
022D6:  MOVFF  FEC,6F2
022DA:  MOVFF  FEC,6F3
022DE:  MOVFF  FEC,6F4
022E2:  CLRF   xF8
022E4:  CLRF   xF7
022E6:  MOVLW  70
022E8:  MOVWF  xF6
022EA:  MOVLW  84
022EC:  MOVWF  xF5
022EE:  MOVFF  6F4,6FC
022F2:  MOVFF  6F3,6FB
022F6:  MOVFF  6F2,6FA
022FA:  MOVFF  6F1,6F9
022FE:  MOVLB  0
02300:  CALL   16C0
02304:  BC    236C
02306:  MOVLB  6
02308:  CLRF   xFA
0230A:  MOVFF  1FF,6F9
0230E:  CLRF   xFC
02310:  MOVLW  0F
02312:  MOVWF  xFB
02314:  MOVLB  0
02316:  CALL   1566
0231A:  MOVFF  01,6F1
0231E:  MOVLW  0B
02320:  MOVLB  6
02322:  ADDWF  01,W
02324:  MOVWF  01
02326:  MOVLW  00
02328:  ADDWFC 02,W
0232A:  MOVWF  03
0232C:  MOVF   01,W
0232E:  ADDLW  C5
02330:  MOVWF  FE9
02332:  MOVLW  05
02334:  ADDWFC 03,W
02336:  MOVWF  FEA
02338:  MOVFF  FEF,6F1
0233C:  MOVFF  FEC,6F2
02340:  MOVFF  FEC,6F3
02344:  MOVFF  FEC,6F4
02348:  MOVFF  6F4,6F8
0234C:  MOVFF  6F3,6F7
02350:  MOVFF  6F2,6F6
02354:  MOVFF  6F1,6F5
02358:  CLRF   xFC
0235A:  CLRF   xFB
0235C:  MOVLW  C0
0235E:  MOVWF  xFA
02360:  MOVLW  82
02362:  MOVWF  xF9
02364:  MOVLB  0
02366:  CALL   16C0
0236A:  BNC   23AA
0236C:  MOVLB  6
0236E:  CLRF   xFA
02370:  MOVFF  1FF,6F9
02374:  CLRF   xFC
02376:  MOVLW  0F
02378:  MOVWF  xFB
0237A:  MOVLB  0
0237C:  CALL   1566
02380:  MOVFF  01,6F1
02384:  MOVLW  0B
02386:  MOVLB  6
02388:  ADDWF  01,W
0238A:  MOVWF  01
0238C:  MOVLW  00
0238E:  ADDWFC 02,W
02390:  MOVWF  03
02392:  MOVF   01,W
02394:  ADDLW  C5
02396:  MOVWF  FE9
02398:  MOVLW  05
0239A:  ADDWFC 03,W
0239C:  MOVWF  FEA
0239E:  MOVLW  83
023A0:  MOVWF  FEF
023A2:  MOVLW  70
023A4:  MOVWF  FEC
023A6:  CLRF   FEC
023A8:  CLRF   FEC
....................       if(rampas[i].Horas>99.0)rampas[i].Horas=10.0; 
023AA:  MOVLB  6
023AC:  CLRF   xFA
023AE:  MOVFF  1FF,6F9
023B2:  CLRF   xFC
023B4:  MOVLW  0F
023B6:  MOVWF  xFB
023B8:  MOVLB  0
023BA:  CALL   1566
023BE:  MOVFF  01,6F1
023C2:  MOVLW  03
023C4:  MOVLB  6
023C6:  ADDWF  01,W
023C8:  MOVWF  01
023CA:  MOVLW  00
023CC:  ADDWFC 02,W
023CE:  MOVWF  03
023D0:  MOVF   01,W
023D2:  ADDLW  C5
023D4:  MOVWF  FE9
023D6:  MOVLW  05
023D8:  ADDWFC 03,W
023DA:  MOVWF  FEA
023DC:  MOVFF  FEF,6F1
023E0:  MOVFF  FEC,6F2
023E4:  MOVFF  FEC,6F3
023E8:  MOVFF  FEC,6F4
023EC:  CLRF   xF8
023EE:  CLRF   xF7
023F0:  MOVLW  46
023F2:  MOVWF  xF6
023F4:  MOVLW  85
023F6:  MOVWF  xF5
023F8:  MOVFF  6F4,6FC
023FC:  MOVFF  6F3,6FB
02400:  MOVFF  6F2,6FA
02404:  MOVFF  6F1,6F9
02408:  MOVLB  0
0240A:  CALL   16C0
0240E:  BNC   244E
02410:  MOVLB  6
02412:  CLRF   xFA
02414:  MOVFF  1FF,6F9
02418:  CLRF   xFC
0241A:  MOVLW  0F
0241C:  MOVWF  xFB
0241E:  MOVLB  0
02420:  CALL   1566
02424:  MOVFF  01,6F1
02428:  MOVLW  03
0242A:  MOVLB  6
0242C:  ADDWF  01,W
0242E:  MOVWF  01
02430:  MOVLW  00
02432:  ADDWFC 02,W
02434:  MOVWF  03
02436:  MOVF   01,W
02438:  ADDLW  C5
0243A:  MOVWF  FE9
0243C:  MOVLW  05
0243E:  ADDWFC 03,W
02440:  MOVWF  FEA
02442:  MOVLW  82
02444:  MOVWF  FEF
02446:  MOVLW  20
02448:  MOVWF  FEC
0244A:  CLRF   FEC
0244C:  CLRF   FEC
....................       if(rampas[i].Minutos>59.0)rampas[i].Minutos=10.0; 
0244E:  MOVLB  6
02450:  CLRF   xFA
02452:  MOVFF  1FF,6F9
02456:  CLRF   xFC
02458:  MOVLW  0F
0245A:  MOVWF  xFB
0245C:  MOVLB  0
0245E:  CALL   1566
02462:  MOVFF  01,6F1
02466:  MOVLW  07
02468:  MOVLB  6
0246A:  ADDWF  01,W
0246C:  MOVWF  01
0246E:  MOVLW  00
02470:  ADDWFC 02,W
02472:  MOVWF  03
02474:  MOVF   01,W
02476:  ADDLW  C5
02478:  MOVWF  FE9
0247A:  MOVLW  05
0247C:  ADDWFC 03,W
0247E:  MOVWF  FEA
02480:  MOVFF  FEF,6F1
02484:  MOVFF  FEC,6F2
02488:  MOVFF  FEC,6F3
0248C:  MOVFF  FEC,6F4
02490:  CLRF   xF8
02492:  CLRF   xF7
02494:  MOVLW  6C
02496:  MOVWF  xF6
02498:  MOVLW  84
0249A:  MOVWF  xF5
0249C:  MOVFF  6F4,6FC
024A0:  MOVFF  6F3,6FB
024A4:  MOVFF  6F2,6FA
024A8:  MOVFF  6F1,6F9
024AC:  MOVLB  0
024AE:  CALL   16C0
024B2:  BNC   24F4
024B4:  MOVLB  6
024B6:  CLRF   xFA
024B8:  MOVFF  1FF,6F9
024BC:  CLRF   xFC
024BE:  MOVLW  0F
024C0:  MOVWF  xFB
024C2:  MOVLB  0
024C4:  CALL   1566
024C8:  MOVFF  01,6F1
024CC:  MOVLW  07
024CE:  MOVLB  6
024D0:  ADDWF  01,W
024D2:  MOVWF  01
024D4:  MOVLW  00
024D6:  ADDWFC 02,W
024D8:  MOVWF  03
024DA:  MOVF   01,W
024DC:  ADDLW  C5
024DE:  MOVWF  FE9
024E0:  MOVLW  05
024E2:  ADDWFC 03,W
024E4:  MOVWF  FEA
024E6:  MOVLW  82
024E8:  MOVWF  FEF
024EA:  MOVLW  20
024EC:  MOVWF  FEC
024EE:  CLRF   FEC
024F0:  CLRF   FEC
024F2:  MOVLB  0
....................    } 
024F4:  MOVLB  1
024F6:  INCF   xFF,F
024F8:  BRA    1D82
.................... } 
024FA:  MOVLB  0
024FC:  GOTO   6F78 (RETURN)
....................  
.................... void LimitaValores(){ 
....................    if(mEstp>59){ 
02500:  MOVLB  6
02502:  CLRF   xF8
02504:  CLRF   xF7
02506:  MOVLW  6C
02508:  MOVWF  xF6
0250A:  MOVLW  84
0250C:  MOVWF  xF5
0250E:  MOVFF  1E6,6FC
02512:  MOVFF  1E5,6FB
02516:  MOVFF  1E4,6FA
0251A:  MOVFF  1E3,6F9
0251E:  MOVLB  0
02520:  CALL   16C0
02524:  BNC   256C
....................       mEstp=10;write_eeprom(0,10);delay_ms(20); 
02526:  MOVLB  1
02528:  CLRF   xE6
0252A:  CLRF   xE5
0252C:  MOVLW  20
0252E:  MOVWF  xE4
02530:  MOVLW  82
02532:  MOVWF  xE3
02534:  CLRF   FAA
02536:  CLRF   FA9
02538:  MOVLW  0A
0253A:  MOVWF  FA8
0253C:  BCF    FA6.6
0253E:  BCF    FA6.7
02540:  BSF    FA6.2
02542:  MOVF   FF2,W
02544:  MOVWF  00
02546:  BCF    FF2.6
02548:  BCF    FF2.7
0254A:  MOVLB  F
0254C:  MOVLW  55
0254E:  MOVWF  FA7
02550:  MOVLW  AA
02552:  MOVWF  FA7
02554:  BSF    FA6.1
02556:  BTFSC  FA6.1
02558:  BRA    2556
0255A:  BCF    FA6.2
0255C:  MOVF   00,W
0255E:  IORWF  FF2,F
02560:  MOVLW  14
02562:  MOVLB  6
02564:  MOVWF  xFA
02566:  MOVLB  0
02568:  CALL   1148
....................    } 
....................    if(hEstp>99){ 
0256C:  MOVLB  6
0256E:  CLRF   xF8
02570:  CLRF   xF7
02572:  MOVLW  46
02574:  MOVWF  xF6
02576:  MOVLW  85
02578:  MOVWF  xF5
0257A:  MOVFF  1EA,6FC
0257E:  MOVFF  1E9,6FB
02582:  MOVFF  1E8,6FA
02586:  MOVFF  1E7,6F9
0258A:  MOVLB  0
0258C:  CALL   16C0
02590:  BNC   25DA
....................       hEstp=10;write_eeprom(1,10);delay_ms(20); 
02592:  MOVLB  1
02594:  CLRF   xEA
02596:  CLRF   xE9
02598:  MOVLW  20
0259A:  MOVWF  xE8
0259C:  MOVLW  82
0259E:  MOVWF  xE7
025A0:  CLRF   FAA
025A2:  MOVLW  01
025A4:  MOVWF  FA9
025A6:  MOVLW  0A
025A8:  MOVWF  FA8
025AA:  BCF    FA6.6
025AC:  BCF    FA6.7
025AE:  BSF    FA6.2
025B0:  MOVF   FF2,W
025B2:  MOVWF  00
025B4:  BCF    FF2.6
025B6:  BCF    FF2.7
025B8:  MOVLB  F
025BA:  MOVLW  55
025BC:  MOVWF  FA7
025BE:  MOVLW  AA
025C0:  MOVWF  FA7
025C2:  BSF    FA6.1
025C4:  BTFSC  FA6.1
025C6:  BRA    25C4
025C8:  BCF    FA6.2
025CA:  MOVF   00,W
025CC:  IORWF  FF2,F
025CE:  MOVLW  14
025D0:  MOVLB  6
025D2:  MOVWF  xFA
025D4:  MOVLB  0
025D6:  CALL   1148
....................    } 
....................    if(Password[0]>9 || Password[0]<0){ 
025DA:  MOVLB  2
025DC:  BTFSC  x2C.7
025DE:  BRA    25E6
025E0:  MOVF   x2C,W
025E2:  SUBLW  09
025E4:  BNC   25EC
025E6:  BTFSC  x2C.7
025E8:  BRA    25EC
025EA:  BRA    2628
....................       Password[0]=0;write_eeprom(10,0);delay_ms(20); 
025EC:  CLRF   x2C
025EE:  CLRF   FAA
025F0:  MOVLW  0A
025F2:  MOVWF  FA9
025F4:  CLRF   FA8
025F6:  BCF    FA6.6
025F8:  BCF    FA6.7
025FA:  BSF    FA6.2
025FC:  MOVF   FF2,W
025FE:  MOVWF  00
02600:  BCF    FF2.6
02602:  BCF    FF2.7
02604:  MOVLB  F
02606:  MOVLW  55
02608:  MOVWF  FA7
0260A:  MOVLW  AA
0260C:  MOVWF  FA7
0260E:  BSF    FA6.1
02610:  BTFSC  FA6.1
02612:  BRA    2610
02614:  BCF    FA6.2
02616:  MOVF   00,W
02618:  IORWF  FF2,F
0261A:  MOVLW  14
0261C:  MOVLB  6
0261E:  MOVWF  xFA
02620:  MOVLB  0
02622:  CALL   1148
02626:  MOVLB  2
....................    } 
....................    if(Password[1]>9 || Password[1]<0){ 
02628:  BTFSC  x2D.7
0262A:  BRA    2632
0262C:  MOVF   x2D,W
0262E:  SUBLW  09
02630:  BNC   2638
02632:  BTFSC  x2D.7
02634:  BRA    2638
02636:  BRA    2674
....................       Password[1]=0;write_eeprom(11,0);delay_ms(20); 
02638:  CLRF   x2D
0263A:  CLRF   FAA
0263C:  MOVLW  0B
0263E:  MOVWF  FA9
02640:  CLRF   FA8
02642:  BCF    FA6.6
02644:  BCF    FA6.7
02646:  BSF    FA6.2
02648:  MOVF   FF2,W
0264A:  MOVWF  00
0264C:  BCF    FF2.6
0264E:  BCF    FF2.7
02650:  MOVLB  F
02652:  MOVLW  55
02654:  MOVWF  FA7
02656:  MOVLW  AA
02658:  MOVWF  FA7
0265A:  BSF    FA6.1
0265C:  BTFSC  FA6.1
0265E:  BRA    265C
02660:  BCF    FA6.2
02662:  MOVF   00,W
02664:  IORWF  FF2,F
02666:  MOVLW  14
02668:  MOVLB  6
0266A:  MOVWF  xFA
0266C:  MOVLB  0
0266E:  CALL   1148
02672:  MOVLB  2
....................    } 
....................    if(Password[2]>9 || Password[2]<0){ 
02674:  BTFSC  x2E.7
02676:  BRA    267E
02678:  MOVF   x2E,W
0267A:  SUBLW  09
0267C:  BNC   2684
0267E:  BTFSC  x2E.7
02680:  BRA    2684
02682:  BRA    26C0
....................       Password[2]=0;write_eeprom(12,0);delay_ms(20); 
02684:  CLRF   x2E
02686:  CLRF   FAA
02688:  MOVLW  0C
0268A:  MOVWF  FA9
0268C:  CLRF   FA8
0268E:  BCF    FA6.6
02690:  BCF    FA6.7
02692:  BSF    FA6.2
02694:  MOVF   FF2,W
02696:  MOVWF  00
02698:  BCF    FF2.6
0269A:  BCF    FF2.7
0269C:  MOVLB  F
0269E:  MOVLW  55
026A0:  MOVWF  FA7
026A2:  MOVLW  AA
026A4:  MOVWF  FA7
026A6:  BSF    FA6.1
026A8:  BTFSC  FA6.1
026AA:  BRA    26A8
026AC:  BCF    FA6.2
026AE:  MOVF   00,W
026B0:  IORWF  FF2,F
026B2:  MOVLW  14
026B4:  MOVLB  6
026B6:  MOVWF  xFA
026B8:  MOVLB  0
026BA:  CALL   1148
026BE:  MOVLB  2
....................    } 
....................    if(Password[3]>9 || Password[3]<0){ 
026C0:  BTFSC  x2F.7
026C2:  BRA    26CA
026C4:  MOVF   x2F,W
026C6:  SUBLW  09
026C8:  BNC   26D0
026CA:  BTFSC  x2F.7
026CC:  BRA    26D0
026CE:  BRA    270A
....................       Password[3]=0;write_eeprom(13,0);delay_ms(20); 
026D0:  CLRF   x2F
026D2:  CLRF   FAA
026D4:  MOVLW  0D
026D6:  MOVWF  FA9
026D8:  CLRF   FA8
026DA:  BCF    FA6.6
026DC:  BCF    FA6.7
026DE:  BSF    FA6.2
026E0:  MOVF   FF2,W
026E2:  MOVWF  00
026E4:  BCF    FF2.6
026E6:  BCF    FF2.7
026E8:  MOVLB  F
026EA:  MOVLW  55
026EC:  MOVWF  FA7
026EE:  MOVLW  AA
026F0:  MOVWF  FA7
026F2:  BSF    FA6.1
026F4:  BTFSC  FA6.1
026F6:  BRA    26F4
026F8:  BCF    FA6.2
026FA:  MOVF   00,W
026FC:  IORWF  FF2,F
026FE:  MOVLW  14
02700:  MOVLB  6
02702:  MOVWF  xFA
02704:  MOVLB  0
02706:  CALL   1148
....................    } 
....................    if(Setpoint>60.0 || Setpoint<-12.0){ 
0270A:  MOVLB  6
0270C:  CLRF   xF8
0270E:  CLRF   xF7
02710:  MOVLW  70
02712:  MOVWF  xF6
02714:  MOVLW  84
02716:  MOVWF  xF5
02718:  MOVFF  273,6FC
0271C:  MOVFF  272,6FB
02720:  MOVFF  271,6FA
02724:  MOVFF  270,6F9
02728:  MOVLB  0
0272A:  CALL   16C0
0272E:  BC    2756
02730:  MOVFF  273,6F8
02734:  MOVFF  272,6F7
02738:  MOVFF  271,6F6
0273C:  MOVFF  270,6F5
02740:  MOVLB  6
02742:  CLRF   xFC
02744:  CLRF   xFB
02746:  MOVLW  C0
02748:  MOVWF  xFA
0274A:  MOVLW  82
0274C:  MOVWF  xF9
0274E:  MOVLB  0
02750:  CALL   16C0
02754:  BNC   27D6
....................       Setpoint=30.0;write_eeprom(80,30);delay_ms(20);write_eeprom(81,0);delay_ms(20); 
02756:  MOVLB  2
02758:  CLRF   x73
0275A:  CLRF   x72
0275C:  MOVLW  70
0275E:  MOVWF  x71
02760:  MOVLW  83
02762:  MOVWF  x70
02764:  CLRF   FAA
02766:  MOVLW  50
02768:  MOVWF  FA9
0276A:  MOVLW  1E
0276C:  MOVWF  FA8
0276E:  BCF    FA6.6
02770:  BCF    FA6.7
02772:  BSF    FA6.2
02774:  MOVF   FF2,W
02776:  MOVWF  00
02778:  BCF    FF2.6
0277A:  BCF    FF2.7
0277C:  MOVLB  F
0277E:  MOVLW  55
02780:  MOVWF  FA7
02782:  MOVLW  AA
02784:  MOVWF  FA7
02786:  BSF    FA6.1
02788:  BTFSC  FA6.1
0278A:  BRA    2788
0278C:  BCF    FA6.2
0278E:  MOVF   00,W
02790:  IORWF  FF2,F
02792:  MOVLW  14
02794:  MOVLB  6
02796:  MOVWF  xFA
02798:  MOVLB  0
0279A:  CALL   1148
0279E:  CLRF   FAA
027A0:  MOVLW  51
027A2:  MOVWF  FA9
027A4:  CLRF   FA8
027A6:  BCF    FA6.6
027A8:  BCF    FA6.7
027AA:  BSF    FA6.2
027AC:  MOVF   FF2,W
027AE:  MOVWF  00
027B0:  BCF    FF2.6
027B2:  BCF    FF2.7
027B4:  MOVLB  F
027B6:  MOVLW  55
027B8:  MOVWF  FA7
027BA:  MOVLW  AA
027BC:  MOVWF  FA7
027BE:  BSF    FA6.1
027C0:  BTFSC  FA6.1
027C2:  BRA    27C0
027C4:  BCF    FA6.2
027C6:  MOVF   00,W
027C8:  IORWF  FF2,F
027CA:  MOVLW  14
027CC:  MOVLB  6
027CE:  MOVWF  xFA
027D0:  MOVLB  0
027D2:  CALL   1148
....................    } 
....................    //if(SetpointH>90.0 || SetpointH<10.0){ 
....................    //   SetpointH=50.0;write_eeprom(82,50);delay_ms(20);write_eeprom(83,0);delay_ms(20); 
....................    //} 
....................    if(Ganancia>4 || Ganancia<1){ 
027D6:  MOVLB  6
027D8:  CLRF   xF8
027DA:  CLRF   xF7
027DC:  CLRF   xF6
027DE:  MOVLW  81
027E0:  MOVWF  xF5
027E2:  MOVFF  24F,6FC
027E6:  MOVFF  24E,6FB
027EA:  MOVFF  24D,6FA
027EE:  MOVFF  24C,6F9
027F2:  MOVLB  0
027F4:  CALL   16C0
027F8:  BC    281E
027FA:  MOVFF  24F,6F8
027FE:  MOVFF  24E,6F7
02802:  MOVFF  24D,6F6
02806:  MOVFF  24C,6F5
0280A:  MOVLB  6
0280C:  CLRF   xFC
0280E:  CLRF   xFB
02810:  CLRF   xFA
02812:  MOVLW  7F
02814:  MOVWF  xF9
02816:  MOVLB  0
02818:  CALL   16C0
0281C:  BNC   2864
....................       Ganancia=2;write_eeprom(30,2);delay_ms(20); 
0281E:  MOVLB  2
02820:  CLRF   x4F
02822:  CLRF   x4E
02824:  CLRF   x4D
02826:  MOVLW  80
02828:  MOVWF  x4C
0282A:  CLRF   FAA
0282C:  MOVLW  1E
0282E:  MOVWF  FA9
02830:  MOVLW  02
02832:  MOVWF  FA8
02834:  BCF    FA6.6
02836:  BCF    FA6.7
02838:  BSF    FA6.2
0283A:  MOVF   FF2,W
0283C:  MOVWF  00
0283E:  BCF    FF2.6
02840:  BCF    FF2.7
02842:  MOVLB  F
02844:  MOVLW  55
02846:  MOVWF  FA7
02848:  MOVLW  AA
0284A:  MOVWF  FA7
0284C:  BSF    FA6.1
0284E:  BTFSC  FA6.1
02850:  BRA    284E
02852:  BCF    FA6.2
02854:  MOVF   00,W
02856:  IORWF  FF2,F
02858:  MOVLW  14
0285A:  MOVLB  6
0285C:  MOVWF  xFA
0285E:  MOVLB  0
02860:  CALL   1148
....................    } 
....................    if(Derivativo>80 || Derivativo<5){ 
02864:  MOVLB  1
02866:  MOVF   xD8,W
02868:  SUBLW  50
0286A:  BNC   2872
0286C:  MOVF   xD8,W
0286E:  SUBLW  04
02870:  BNC   28B2
....................       Derivativo=80;write_eeprom(31,80);delay_ms(20); 
02872:  MOVLW  50
02874:  MOVWF  xD8
02876:  CLRF   FAA
02878:  MOVLW  1F
0287A:  MOVWF  FA9
0287C:  MOVLW  50
0287E:  MOVWF  FA8
02880:  BCF    FA6.6
02882:  BCF    FA6.7
02884:  BSF    FA6.2
02886:  MOVF   FF2,W
02888:  MOVWF  00
0288A:  BCF    FF2.6
0288C:  BCF    FF2.7
0288E:  MOVLB  F
02890:  MOVLW  55
02892:  MOVWF  FA7
02894:  MOVLW  AA
02896:  MOVWF  FA7
02898:  BSF    FA6.1
0289A:  BTFSC  FA6.1
0289C:  BRA    289A
0289E:  BCF    FA6.2
028A0:  MOVF   00,W
028A2:  IORWF  FF2,F
028A4:  MOVLW  14
028A6:  MOVLB  6
028A8:  MOVWF  xFA
028AA:  MOVLB  0
028AC:  CALL   1148
028B0:  MOVLB  1
....................    } 
....................    if(Integral>4 || Integral<1){ 
028B2:  MOVF   xD9,W
028B4:  SUBLW  04
028B6:  BNC   28BC
028B8:  MOVF   xD9,F
028BA:  BNZ   28FA
....................       Integral=1;write_eeprom(32,1);delay_ms(20); 
028BC:  MOVLW  01
028BE:  MOVWF  xD9
028C0:  CLRF   FAA
028C2:  MOVLW  20
028C4:  MOVWF  FA9
028C6:  MOVLW  01
028C8:  MOVWF  FA8
028CA:  BCF    FA6.6
028CC:  BCF    FA6.7
028CE:  BSF    FA6.2
028D0:  MOVF   FF2,W
028D2:  MOVWF  00
028D4:  BCF    FF2.6
028D6:  BCF    FF2.7
028D8:  MOVLB  F
028DA:  MOVLW  55
028DC:  MOVWF  FA7
028DE:  MOVLW  AA
028E0:  MOVWF  FA7
028E2:  BSF    FA6.1
028E4:  BTFSC  FA6.1
028E6:  BRA    28E4
028E8:  BCF    FA6.2
028EA:  MOVF   00,W
028EC:  IORWF  FF2,F
028EE:  MOVLW  14
028F0:  MOVLB  6
028F2:  MOVWF  xFA
028F4:  MOVLB  0
028F6:  CALL   1148
....................    } 
....................    if(Tciclo>40 || Tciclo<5){ 
028FA:  MOVLB  6
028FC:  CLRF   xF8
028FE:  CLRF   xF7
02900:  MOVLW  20
02902:  MOVWF  xF6
02904:  MOVLW  84
02906:  MOVWF  xF5
02908:  MOVFF  237,6FC
0290C:  MOVFF  236,6FB
02910:  MOVFF  235,6FA
02914:  MOVFF  234,6F9
02918:  MOVLB  0
0291A:  CALL   16C0
0291E:  BC    2946
02920:  MOVFF  237,6F8
02924:  MOVFF  236,6F7
02928:  MOVFF  235,6F6
0292C:  MOVFF  234,6F5
02930:  MOVLB  6
02932:  CLRF   xFC
02934:  CLRF   xFB
02936:  MOVLW  20
02938:  MOVWF  xFA
0293A:  MOVLW  81
0293C:  MOVWF  xF9
0293E:  MOVLB  0
02940:  CALL   16C0
02944:  BNC   298E
....................       Tciclo=5;write_eeprom(33,5);delay_ms(20); 
02946:  MOVLB  2
02948:  CLRF   x37
0294A:  CLRF   x36
0294C:  MOVLW  20
0294E:  MOVWF  x35
02950:  MOVLW  81
02952:  MOVWF  x34
02954:  CLRF   FAA
02956:  MOVLW  21
02958:  MOVWF  FA9
0295A:  MOVLW  05
0295C:  MOVWF  FA8
0295E:  BCF    FA6.6
02960:  BCF    FA6.7
02962:  BSF    FA6.2
02964:  MOVF   FF2,W
02966:  MOVWF  00
02968:  BCF    FF2.6
0296A:  BCF    FF2.7
0296C:  MOVLB  F
0296E:  MOVLW  55
02970:  MOVWF  FA7
02972:  MOVLW  AA
02974:  MOVWF  FA7
02976:  BSF    FA6.1
02978:  BTFSC  FA6.1
0297A:  BRA    2978
0297C:  BCF    FA6.2
0297E:  MOVF   00,W
02980:  IORWF  FF2,F
02982:  MOVLW  14
02984:  MOVLB  6
02986:  MOVWF  xFA
02988:  MOVLB  0
0298A:  CALL   1148
....................    } 
....................    if(Sensor[0].Ajuste>200){ 
0298E:  MOVLB  3
02990:  MOVF   x1B,W
02992:  SUBLW  C8
02994:  BC    29D2
....................       Sensor[0].Ajuste=0; 
02996:  CLRF   x1B
....................       write_eeprom(21,0); 
02998:  CLRF   FAA
0299A:  MOVLW  15
0299C:  MOVWF  FA9
0299E:  CLRF   FA8
029A0:  BCF    FA6.6
029A2:  BCF    FA6.7
029A4:  BSF    FA6.2
029A6:  MOVF   FF2,W
029A8:  MOVWF  00
029AA:  BCF    FF2.6
029AC:  BCF    FF2.7
029AE:  MOVLB  F
029B0:  MOVLW  55
029B2:  MOVWF  FA7
029B4:  MOVLW  AA
029B6:  MOVWF  FA7
029B8:  BSF    FA6.1
029BA:  BTFSC  FA6.1
029BC:  BRA    29BA
029BE:  BCF    FA6.2
029C0:  MOVF   00,W
029C2:  IORWF  FF2,F
....................       delay_ms(10); 
029C4:  MOVLW  0A
029C6:  MOVLB  6
029C8:  MOVWF  xFA
029CA:  MOVLB  0
029CC:  CALL   1148
029D0:  MOVLB  3
....................    } 
....................    if(Sensor[0].Ajusten>200){ 
029D2:  MOVF   x1C,W
029D4:  SUBLW  C8
029D6:  BC    2A12
....................       Sensor[0].Ajusten=0; 
029D8:  CLRF   x1C
....................       write_eeprom(22,0); 
029DA:  CLRF   FAA
029DC:  MOVLW  16
029DE:  MOVWF  FA9
029E0:  CLRF   FA8
029E2:  BCF    FA6.6
029E4:  BCF    FA6.7
029E6:  BSF    FA6.2
029E8:  MOVF   FF2,W
029EA:  MOVWF  00
029EC:  BCF    FF2.6
029EE:  BCF    FF2.7
029F0:  MOVLB  F
029F2:  MOVLW  55
029F4:  MOVWF  FA7
029F6:  MOVLW  AA
029F8:  MOVWF  FA7
029FA:  BSF    FA6.1
029FC:  BTFSC  FA6.1
029FE:  BRA    29FC
02A00:  BCF    FA6.2
02A02:  MOVF   00,W
02A04:  IORWF  FF2,F
....................       delay_ms(10); 
02A06:  MOVLW  0A
02A08:  MOVLB  6
02A0A:  MOVWF  xFA
02A0C:  MOVLB  0
02A0E:  CALL   1148
....................    } 
....................    if(Sensor[1].Ajuste>200){ 
02A12:  MOVLB  4
02A14:  MOVF   x7F,W
02A16:  SUBLW  C8
02A18:  BC    2A56
....................       Sensor[1].Ajuste=0; 
02A1A:  CLRF   x7F
....................       write_eeprom(23,0); 
02A1C:  CLRF   FAA
02A1E:  MOVLW  17
02A20:  MOVWF  FA9
02A22:  CLRF   FA8
02A24:  BCF    FA6.6
02A26:  BCF    FA6.7
02A28:  BSF    FA6.2
02A2A:  MOVF   FF2,W
02A2C:  MOVWF  00
02A2E:  BCF    FF2.6
02A30:  BCF    FF2.7
02A32:  MOVLB  F
02A34:  MOVLW  55
02A36:  MOVWF  FA7
02A38:  MOVLW  AA
02A3A:  MOVWF  FA7
02A3C:  BSF    FA6.1
02A3E:  BTFSC  FA6.1
02A40:  BRA    2A3E
02A42:  BCF    FA6.2
02A44:  MOVF   00,W
02A46:  IORWF  FF2,F
....................       delay_ms(10); 
02A48:  MOVLW  0A
02A4A:  MOVLB  6
02A4C:  MOVWF  xFA
02A4E:  MOVLB  0
02A50:  CALL   1148
02A54:  MOVLB  4
....................    } 
....................    if(Sensor[1].Ajusten>200){ 
02A56:  MOVF   x80,W
02A58:  SUBLW  C8
02A5A:  BC    2A96
....................       Sensor[1].Ajusten=0; 
02A5C:  CLRF   x80
....................       write_eeprom(24,0); 
02A5E:  CLRF   FAA
02A60:  MOVLW  18
02A62:  MOVWF  FA9
02A64:  CLRF   FA8
02A66:  BCF    FA6.6
02A68:  BCF    FA6.7
02A6A:  BSF    FA6.2
02A6C:  MOVF   FF2,W
02A6E:  MOVWF  00
02A70:  BCF    FF2.6
02A72:  BCF    FF2.7
02A74:  MOVLB  F
02A76:  MOVLW  55
02A78:  MOVWF  FA7
02A7A:  MOVLW  AA
02A7C:  MOVWF  FA7
02A7E:  BSF    FA6.1
02A80:  BTFSC  FA6.1
02A82:  BRA    2A80
02A84:  BCF    FA6.2
02A86:  MOVF   00,W
02A88:  IORWF  FF2,F
....................       delay_ms(10); 
02A8A:  MOVLW  0A
02A8C:  MOVLB  6
02A8E:  MOVWF  xFA
02A90:  MOVLB  0
02A92:  CALL   1148
....................    } 
....................    if(MediaMovil>80 || MediaMovil<10){ 
02A96:  MOVLB  1
02A98:  MOVF   xD1,W
02A9A:  SUBLW  50
02A9C:  BNC   2AA4
02A9E:  MOVF   xD1,W
02AA0:  SUBLW  09
02AA2:  BNC   2AE2
....................       MediaMovil=80;write_eeprom(36,80);delay_ms(20); 
02AA4:  MOVLW  50
02AA6:  MOVWF  xD1
02AA8:  CLRF   FAA
02AAA:  MOVLW  24
02AAC:  MOVWF  FA9
02AAE:  MOVLW  50
02AB0:  MOVWF  FA8
02AB2:  BCF    FA6.6
02AB4:  BCF    FA6.7
02AB6:  BSF    FA6.2
02AB8:  MOVF   FF2,W
02ABA:  MOVWF  00
02ABC:  BCF    FF2.6
02ABE:  BCF    FF2.7
02AC0:  MOVLB  F
02AC2:  MOVLW  55
02AC4:  MOVWF  FA7
02AC6:  MOVLW  AA
02AC8:  MOVWF  FA7
02ACA:  BSF    FA6.1
02ACC:  BTFSC  FA6.1
02ACE:  BRA    2ACC
02AD0:  BCF    FA6.2
02AD2:  MOVF   00,W
02AD4:  IORWF  FF2,F
02AD6:  MOVLW  14
02AD8:  MOVLB  6
02ADA:  MOVWF  xFA
02ADC:  MOVLB  0
02ADE:  CALL   1148
....................    } 
....................    if(Histeresis>5.0 || Histeresis==0.0){ 
02AE2:  MOVLB  6
02AE4:  CLRF   xF8
02AE6:  CLRF   xF7
02AE8:  MOVLW  20
02AEA:  MOVWF  xF6
02AEC:  MOVLW  81
02AEE:  MOVWF  xF5
02AF0:  MOVFF  283,6FC
02AF4:  MOVFF  282,6FB
02AF8:  MOVFF  281,6FA
02AFC:  MOVFF  280,6F9
02B00:  MOVLB  0
02B02:  CALL   16C0
02B06:  BC    2B2A
02B08:  MOVFF  283,6F8
02B0C:  MOVFF  282,6F7
02B10:  MOVFF  281,6F6
02B14:  MOVFF  280,6F5
02B18:  MOVLB  6
02B1A:  CLRF   xFC
02B1C:  CLRF   xFB
02B1E:  CLRF   xFA
02B20:  CLRF   xF9
02B22:  MOVLB  0
02B24:  CALL   16C0
02B28:  BNZ   2B76
....................       Histeresis=0.2;write_eeprom(34,2);delay_ms(20); 
02B2A:  MOVLW  CD
02B2C:  MOVLB  2
02B2E:  MOVWF  x83
02B30:  MOVLW  CC
02B32:  MOVWF  x82
02B34:  MOVLW  4C
02B36:  MOVWF  x81
02B38:  MOVLW  7C
02B3A:  MOVWF  x80
02B3C:  CLRF   FAA
02B3E:  MOVLW  22
02B40:  MOVWF  FA9
02B42:  MOVLW  02
02B44:  MOVWF  FA8
02B46:  BCF    FA6.6
02B48:  BCF    FA6.7
02B4A:  BSF    FA6.2
02B4C:  MOVF   FF2,W
02B4E:  MOVWF  00
02B50:  BCF    FF2.6
02B52:  BCF    FF2.7
02B54:  MOVLB  F
02B56:  MOVLW  55
02B58:  MOVWF  FA7
02B5A:  MOVLW  AA
02B5C:  MOVWF  FA7
02B5E:  BSF    FA6.1
02B60:  BTFSC  FA6.1
02B62:  BRA    2B60
02B64:  BCF    FA6.2
02B66:  MOVF   00,W
02B68:  IORWF  FF2,F
02B6A:  MOVLW  14
02B6C:  MOVLB  6
02B6E:  MOVWF  xFA
02B70:  MOVLB  0
02B72:  CALL   1148
....................    } 
....................    if(Signo>20){ 
02B76:  MOVLB  1
02B78:  MOVF   xE2,W
02B7A:  SUBLW  14
02B7C:  BC    2BBE
....................       Signo=10;write_eeprom(79,10);delay_ms(20); 
02B7E:  MOVLW  0A
02B80:  MOVWF  xE2
02B82:  CLRF   FAA
02B84:  MOVLW  4F
02B86:  MOVWF  FA9
02B88:  MOVLW  0A
02B8A:  MOVWF  FA8
02B8C:  BCF    FA6.6
02B8E:  BCF    FA6.7
02B90:  BSF    FA6.2
02B92:  MOVF   FF2,W
02B94:  MOVWF  00
02B96:  BCF    FF2.6
02B98:  BCF    FF2.7
02B9A:  MOVLB  F
02B9C:  MOVLW  55
02B9E:  MOVWF  FA7
02BA0:  MOVLW  AA
02BA2:  MOVWF  FA7
02BA4:  BSF    FA6.1
02BA6:  BTFSC  FA6.1
02BA8:  BRA    2BA6
02BAA:  BCF    FA6.2
02BAC:  MOVF   00,W
02BAE:  IORWF  FF2,F
02BB0:  MOVLW  14
02BB2:  MOVLB  6
02BB4:  MOVWF  xFA
02BB6:  MOVLB  0
02BB8:  CALL   1148
02BBC:  MOVLB  1
....................    } 
....................    if(Signo==20){ 
02BBE:  MOVF   xE2,W
02BC0:  SUBLW  14
02BC2:  BNZ   2BFA
....................       Setpoint=Setpoint*-1; 
02BC4:  MOVFF  273,710
02BC8:  MOVFF  272,70F
02BCC:  MOVFF  271,70E
02BD0:  MOVFF  270,70D
02BD4:  MOVLB  7
02BD6:  CLRF   x14
02BD8:  CLRF   x13
02BDA:  MOVLW  80
02BDC:  MOVWF  x12
02BDE:  MOVLW  7F
02BE0:  MOVWF  x11
02BE2:  MOVLB  0
02BE4:  CALL   15CA
02BE8:  MOVFF  03,273
02BEC:  MOVFF  02,272
02BF0:  MOVFF  01,271
02BF4:  MOVFF  00,270
02BF8:  MOVLB  1
....................    } 
.................... } 
02BFA:  MOVLB  0
02BFC:  GOTO   6F7C (RETURN)
....................  
.................... void DelayPuls(){ 
....................    delay_ms(2); 
.................... } 
....................  
.................... void CuentaTiempo(){ 
....................       if(tinicio>=60){ 
*
068A2:  MOVLB  2
068A4:  MOVF   x0F,F
068A6:  BNZ   68AE
068A8:  MOVF   x0E,W
068AA:  SUBLW  3B
068AC:  BC    694C
....................          tinicio=0; 
068AE:  CLRF   x0F
068B0:  CLRF   x0E
....................          mEst+=1.0; 
068B2:  BCF    FD8.1
068B4:  MOVFF  1F6,705
068B8:  MOVFF  1F5,704
068BC:  MOVFF  1F4,703
068C0:  MOVFF  1F3,702
068C4:  MOVLB  7
068C6:  CLRF   x09
068C8:  CLRF   x08
068CA:  CLRF   x07
068CC:  MOVLW  7F
068CE:  MOVWF  x06
068D0:  MOVLB  0
068D2:  CALL   12EE
068D6:  MOVFF  03,1F6
068DA:  MOVFF  02,1F5
068DE:  MOVFF  01,1F4
068E2:  MOVFF  00,1F3
....................          if(mEst>59){ 
068E6:  MOVLB  6
068E8:  CLRF   xF8
068EA:  CLRF   xF7
068EC:  MOVLW  6C
068EE:  MOVWF  xF6
068F0:  MOVLW  84
068F2:  MOVWF  xF5
068F4:  MOVFF  1F6,6FC
068F8:  MOVFF  1F5,6FB
068FC:  MOVFF  1F4,6FA
06900:  MOVFF  1F3,6F9
06904:  MOVLB  0
06906:  CALL   16C0
0690A:  BNC   694A
....................             mEst=0; 
0690C:  MOVLB  1
0690E:  CLRF   xF6
06910:  CLRF   xF5
06912:  CLRF   xF4
06914:  CLRF   xF3
....................             hEst+=1.0; 
06916:  BCF    FD8.1
06918:  MOVFF  1FA,705
0691C:  MOVFF  1F9,704
06920:  MOVFF  1F8,703
06924:  MOVFF  1F7,702
06928:  MOVLB  7
0692A:  CLRF   x09
0692C:  CLRF   x08
0692E:  CLRF   x07
06930:  MOVLW  7F
06932:  MOVWF  x06
06934:  MOVLB  0
06936:  CALL   12EE
0693A:  MOVFF  03,1FA
0693E:  MOVFF  02,1F9
06942:  MOVFF  01,1F8
06946:  MOVFF  00,1F7
0694A:  MOVLB  2
....................          } 
....................       } 
.................... } 
0694C:  MOVLB  0
0694E:  GOTO   BA02 (RETURN)
....................  
.................... void LeeDisplay(void){ 
....................    if(Dato_Exitoso==5){ 
*
03938:  MOVLB  2
0393A:  MOVF   x06,W
0393C:  SUBLW  05
0393E:  BTFSS  FD8.2
03940:  BRA    3ABE
....................          RX_Buffer[0]=RX_Buffer2[0]; 
03942:  MOVFF  35,2A
....................          RX_Buffer[1]=RX_Buffer2[1]; 
03946:  MOVFF  36,2B
....................          RX_Buffer[2]=RX_Buffer2[2]; 
0394A:  MOVFF  37,2C
....................          RX_Buffer[3]=RX_Buffer2[3]; 
0394E:  MOVFF  38,2D
....................          RX_Buffer[4]=RX_Buffer2[4]; 
03952:  MOVFF  39,2E
....................          RX_Buffer[5]=RX_Buffer2[5]; 
03956:  MOVFF  3A,2F
....................          RX_Buffer[6]=RX_Buffer2[6]; 
0395A:  MOVFF  3B,30
....................          RX_Buffer[7]=RX_Buffer2[7]; 
0395E:  MOVFF  3C,31
....................          RX_Buffer[8]=RX_Buffer2[8]; 
03962:  MOVFF  3D,32
....................          RX_Buffer[9]=RX_Buffer2[9]; 
03966:  MOVFF  3E,33
....................           
....................       if(RX_Buffer[3]==0x01){// Pregunta por la pagina en la que esta el display,01 es Contrasea de Acceso 
0396A:  DECFSZ 2D,W
0396C:  BRA    3980
....................          Menu=0; 
0396E:  MOVLB  1
03970:  CLRF   xFE
....................          if(MenuAntt!=Menu) 
03972:  MOVF   xFE,W
03974:  MOVLB  2
03976:  SUBWF  x07,W
03978:  BZ    397E
....................             MenuAntt=Menu; 
0397A:  MOVFF  1FE,207
....................       }else if(RX_Buffer[3]==0x02){//02 es Menu Principal con PantallaPriincipal=0, y con PantallaPrincipal=1 es Ciclo Libre 
0397E:  BRA    3ABC
03980:  MOVF   2D,W
03982:  SUBLW  02
03984:  BNZ   399A
....................          Menu=1; 
03986:  MOVLW  01
03988:  MOVLB  1
0398A:  MOVWF  xFE
....................          if(MenuAntt!=Menu) 
0398C:  MOVF   xFE,W
0398E:  MOVLB  2
03990:  SUBWF  x07,W
03992:  BZ    3998
....................             MenuAntt=Menu; 
03994:  MOVFF  1FE,207
....................       }else if(RX_Buffer[3]==0x04){//04 es Tiempo  
03998:  BRA    3ABC
0399A:  MOVF   2D,W
0399C:  SUBLW  04
0399E:  BNZ   39B4
....................          Menu=2; 
039A0:  MOVLW  02
039A2:  MOVLB  1
039A4:  MOVWF  xFE
....................          if(MenuAntt!=Menu) 
039A6:  MOVF   xFE,W
039A8:  MOVLB  2
039AA:  SUBWF  x07,W
039AC:  BZ    39B2
....................             MenuAntt=Menu; 
039AE:  MOVFF  1FE,207
....................       }else if(RX_Buffer[3]==0x05){//05 es Temperatura 
039B2:  BRA    3ABC
039B4:  MOVF   2D,W
039B6:  SUBLW  05
039B8:  BNZ   39CE
....................          Menu=3; 
039BA:  MOVLW  03
039BC:  MOVLB  1
039BE:  MOVWF  xFE
....................          if(MenuAntt!=Menu) 
039C0:  MOVF   xFE,W
039C2:  MOVLB  2
039C4:  SUBWF  x07,W
039C6:  BZ    39CC
....................             MenuAntt=Menu; 
039C8:  MOVFF  1FE,207
....................       }else if(RX_Buffer[3]==0x06){//06 es Humedad 
039CC:  BRA    3ABC
039CE:  MOVF   2D,W
039D0:  SUBLW  06
039D2:  BNZ   39E8
....................          Menu=4; 
039D4:  MOVLW  04
039D6:  MOVLB  1
039D8:  MOVWF  xFE
....................          if(MenuAntt!=Menu) 
039DA:  MOVF   xFE,W
039DC:  MOVLB  2
039DE:  SUBWF  x07,W
039E0:  BZ    39E6
....................             MenuAntt=Menu; 
039E2:  MOVFF  1FE,207
....................       }else if(RX_Buffer[3]==0x07){//07 es Test de Componentes 
039E6:  BRA    3ABC
039E8:  MOVF   2D,W
039EA:  SUBLW  07
039EC:  BNZ   3A02
....................          Menu=6; 
039EE:  MOVLW  06
039F0:  MOVLB  1
039F2:  MOVWF  xFE
....................          if(MenuAntt!=Menu) 
039F4:  MOVF   xFE,W
039F6:  MOVLB  2
039F8:  SUBWF  x07,W
039FA:  BZ    3A00
....................             MenuAntt=Menu; 
039FC:  MOVFF  1FE,207
....................       }else if(RX_Buffer[3]==0x08){//08 es Fecha y hora 
03A00:  BRA    3ABC
03A02:  MOVF   2D,W
03A04:  SUBLW  08
03A06:  BNZ   3A1C
....................          Menu=7; 
03A08:  MOVLW  07
03A0A:  MOVLB  1
03A0C:  MOVWF  xFE
....................          if(MenuAntt!=Menu) 
03A0E:  MOVF   xFE,W
03A10:  MOVLB  2
03A12:  SUBWF  x07,W
03A14:  BZ    3A1A
....................             MenuAntt=Menu; 
03A16:  MOVFF  1FE,207
....................       }else if(RX_Buffer[3]==0x09){//09 es Ciclos Personalizados 
03A1A:  BRA    3ABC
03A1C:  MOVF   2D,W
03A1E:  SUBLW  09
03A20:  BNZ   3A36
....................          Menu=8; 
03A22:  MOVLW  08
03A24:  MOVLB  1
03A26:  MOVWF  xFE
....................          if(MenuAntt!=Menu) 
03A28:  MOVF   xFE,W
03A2A:  MOVLB  2
03A2C:  SUBWF  x07,W
03A2E:  BZ    3A34
....................             MenuAntt=Menu; 
03A30:  MOVFF  1FE,207
....................       }else if(RX_Buffer[3]==0x0f){//0f es Recibe caracteres de contrasea desde display 
03A34:  BRA    3ABC
03A36:  MOVF   2D,W
03A38:  SUBLW  0F
03A3A:  BNZ   3A3E
....................           
....................       }else if(RX_Buffer[3]==0x1a){//1a es Menu de Funcionamiento 
03A3C:  BRA    3ABC
03A3E:  MOVF   2D,W
03A40:  SUBLW  1A
03A42:  BNZ   3A58
....................          Menu=20; 
03A44:  MOVLW  14
03A46:  MOVLB  1
03A48:  MOVWF  xFE
....................          if(MenuAntt!=Menu) 
03A4A:  MOVF   xFE,W
03A4C:  MOVLB  2
03A4E:  SUBWF  x07,W
03A50:  BZ    3A56
....................             MenuAntt=Menu; 
03A52:  MOVFF  1FE,207
....................       }else if(RX_Buffer[3]==0x1b){//1b es Menu de clave correcta 
03A56:  BRA    3ABC
03A58:  MOVF   2D,W
03A5A:  SUBLW  1B
03A5C:  BNZ   3A72
....................          Menu=15; 
03A5E:  MOVLW  0F
03A60:  MOVLB  1
03A62:  MOVWF  xFE
....................          if(MenuAntt!=Menu) 
03A64:  MOVF   xFE,W
03A66:  MOVLB  2
03A68:  SUBWF  x07,W
03A6A:  BZ    3A70
....................             MenuAntt=Menu; 
03A6C:  MOVFF  1FE,207
....................       }else if(RX_Buffer[3]==0x1c){//1c es Menu de clave incorrecta 
03A70:  BRA    3ABC
03A72:  MOVF   2D,W
03A74:  SUBLW  1C
03A76:  BNZ   3A8C
....................          Menu=16; 
03A78:  MOVLW  10
03A7A:  MOVLB  1
03A7C:  MOVWF  xFE
....................          if(MenuAntt!=Menu) 
03A7E:  MOVF   xFE,W
03A80:  MOVLB  2
03A82:  SUBWF  x07,W
03A84:  BZ    3A8A
....................             MenuAntt=Menu; 
03A86:  MOVFF  1FE,207
....................       }else if(RX_Buffer[3]==0x2c){//2c es Menu de Configuracion de Parametros 
03A8A:  BRA    3ABC
03A8C:  MOVF   2D,W
03A8E:  SUBLW  2C
03A90:  BNZ   3AA6
....................          Menu=100; 
03A92:  MOVLW  64
03A94:  MOVLB  1
03A96:  MOVWF  xFE
....................          if(MenuAntt!=Menu) 
03A98:  MOVF   xFE,W
03A9A:  MOVLB  2
03A9C:  SUBWF  x07,W
03A9E:  BZ    3AA4
....................             MenuAntt=Menu; 
03AA0:  MOVFF  1FE,207
....................       }else if(RX_Buffer[3]==0xcc){//cc es Menu de Bienvenida 
03AA4:  BRA    3ABC
03AA6:  MOVF   2D,W
03AA8:  SUBLW  CC
03AAA:  BNZ   3ABC
....................          Menu=240; 
03AAC:  MOVLW  F0
03AAE:  MOVLB  1
03AB0:  MOVWF  xFE
....................          if(MenuAntt!=240) 
03AB2:  MOVLB  2
03AB4:  MOVF   x07,W
03AB6:  SUBLW  F0
03AB8:  BZ    3ABC
....................             reset_cpu(); 
03ABA:  RESET
....................       } 
....................    }else{ 
03ABC:  BRA    3ACE
....................       for(z=0;z<RX_BUFFER_SIZE;z++){ 
03ABE:  MOVLB  1
03AC0:  CLRF   xDA
03AC2:  MOVF   xDA,W
03AC4:  SUBLW  09
03AC6:  BNC   3ACC
....................             //Rx_Buffer[z]=0; 
....................             //Rx_Buffer2[z]=0; 
....................          } 
03AC8:  INCF   xDA,F
03ACA:  BRA    3AC2
03ACC:  MOVLB  2
....................    } 
.................... } 
03ACE:  MOVLB  0
03AD0:  GOTO   7498 (RETURN)
....................  
.................... void ApagaSalidas(){ 
....................    Buzzer_off; 
*
010CE:  BCF    F8C.7
010D0:  BCF    F95.7
....................    SSR_off; 
010D2:  BCF    F8D.1
010D4:  BCF    F96.1
....................    SSR2_off; 
010D6:  BCF    F8D.2
010D8:  BCF    F96.2
....................    Ventilador_off; 
010DA:  BSF    F8C.2
010DC:  BCF    F95.2
....................    Compresor_off;   
010DE:  BSF    F8C.3
010E0:  BCF    F95.3
....................    Valvula1_off; 
010E2:  BSF    F8C.1
010E4:  BCF    F95.1
....................    Valvula2_off; 
010E6:  BSF    F8B.5
010E8:  BCF    F94.5
.................... } 
010EA:  RETLW  00
....................  
.................... void iniciaConteo(){ 
....................    if(flagRampa && Pendiente!=0){ 
*
04128:  MOVLB  1
0412A:  BTFSS  xCB.6
0412C:  BRA    4160
0412E:  MOVFF  2BB,6F8
04132:  MOVFF  2BA,6F7
04136:  MOVFF  2B9,6F6
0413A:  MOVFF  2B8,6F5
0413E:  MOVLB  6
04140:  CLRF   xFC
04142:  CLRF   xFB
04144:  CLRF   xFA
04146:  CLRF   xF9
04148:  MOVLB  0
0414A:  CALL   16C0
0414E:  BTFSS  FD8.2
04150:  BRA    4156
04152:  MOVLB  1
04154:  BRA    4160
....................       tiempo_esterilizacion=1; 
04156:  MOVLW  01
04158:  MOVLB  2
0415A:  MOVWF  x03
....................    }else if(flagRampa && Pendiente==0){ 
0415C:  BRA    41C2
0415E:  MOVLB  1
04160:  BTFSS  xCB.6
04162:  BRA    41A2
04164:  MOVFF  2BB,6F8
04168:  MOVFF  2BA,6F7
0416C:  MOVFF  2B9,6F6
04170:  MOVFF  2B8,6F5
04174:  MOVLB  6
04176:  CLRF   xFC
04178:  CLRF   xFB
0417A:  CLRF   xFA
0417C:  CLRF   xF9
0417E:  MOVLB  0
04180:  CALL   16C0
04184:  BTFSC  FD8.2
04186:  BRA    418C
04188:  MOVLB  1
0418A:  BRA    41A2
....................       if(flagTemperatura) 
0418C:  MOVLB  1
0418E:  BTFSS  xCA.6
04190:  BRA    419A
....................          tiempo_esterilizacion=1; 
04192:  MOVLW  01
04194:  MOVLB  2
04196:  MOVWF  x03
....................       else 
04198:  BRA    419E
....................          tiempo_esterilizacion=0; 
0419A:  MOVLB  2
0419C:  CLRF   x03
....................    }else{ 
0419E:  BRA    41C2
041A0:  MOVLB  1
....................       if(!flagControlT){ 
041A2:  BTFSC  xCB.3
041A4:  BRA    41AE
....................          tiempo_esterilizacion=0; 
041A6:  MOVLB  2
041A8:  CLRF   x03
....................        }else if(flagControlT){ 
041AA:  BRA    41C2
041AC:  MOVLB  1
041AE:  BTFSS  xCB.3
041B0:  BRA    41C4
....................           if(flagTemperatura) 
041B2:  BTFSS  xCA.6
041B4:  BRA    41BE
....................              tiempo_esterilizacion=1; 
041B6:  MOVLW  01
041B8:  MOVLB  2
041BA:  MOVWF  x03
....................           else 
041BC:  BRA    41C2
....................              tiempo_esterilizacion=0; 
041BE:  MOVLB  2
041C0:  CLRF   x03
041C2:  MOVLB  1
....................        } 
....................    } 
.................... } 
041C4:  MOVLB  0
041C6:  RETLW  00
....................  
.................... void controlaTemperatura(){ 
....................    if(Enfria==1){ 
*
063A4:  MOVLB  1
063A6:  DECFSZ xD5,W
063A8:  BRA    65EA
....................       if(Temperatura<=Setpoint+1.1 && Temperatura>=Setpoint-1.1){ 
063AA:  BCF    FD8.1
063AC:  MOVFF  273,705
063B0:  MOVFF  272,704
063B4:  MOVFF  271,703
063B8:  MOVFF  270,702
063BC:  MOVLW  CD
063BE:  MOVLB  7
063C0:  MOVWF  x09
063C2:  MOVLW  CC
063C4:  MOVWF  x08
063C6:  MOVLW  0C
063C8:  MOVWF  x07
063CA:  MOVLW  7F
063CC:  MOVWF  x06
063CE:  MOVLB  0
063D0:  CALL   12EE
063D4:  MOVFF  26B,6F8
063D8:  MOVFF  26A,6F7
063DC:  MOVFF  269,6F6
063E0:  MOVFF  268,6F5
063E4:  MOVFF  03,6FC
063E8:  MOVFF  02,6FB
063EC:  MOVFF  01,6FA
063F0:  MOVFF  00,6F9
063F4:  CALL   16C0
063F8:  BC    63FC
063FA:  BNZ   647C
063FC:  BSF    FD8.1
063FE:  MOVFF  273,705
06402:  MOVFF  272,704
06406:  MOVFF  271,703
0640A:  MOVFF  270,702
0640E:  MOVLW  CD
06410:  MOVLB  7
06412:  MOVWF  x09
06414:  MOVLW  CC
06416:  MOVWF  x08
06418:  MOVLW  0C
0641A:  MOVWF  x07
0641C:  MOVLW  7F
0641E:  MOVWF  x06
06420:  MOVLB  0
06422:  CALL   12EE
06426:  MOVFF  03,6F8
0642A:  MOVFF  02,6F7
0642E:  MOVFF  01,6F6
06432:  MOVFF  00,6F5
06436:  MOVFF  26B,6FC
0643A:  MOVFF  26A,6FB
0643E:  MOVFF  269,6FA
06442:  MOVFF  268,6F9
06446:  CALL   16C0
0644A:  BC    644E
0644C:  BNZ   647C
....................          printf("statusT.txt=\"Controlando\""); 
0644E:  MOVLW  44
06450:  MOVWF  FF6
06452:  MOVLW  01
06454:  MOVWF  FF7
06456:  MOVLW  00
06458:  MOVWF  FF8
0645A:  CALL   2CE6
....................          SendDataDisplay(); 
0645E:  CALL   2D18
....................          if(!Infinito) 
06462:  MOVLB  1
06464:  BTFSC  xCA.3
06466:  BRA    646C
....................             flagTemperatura=ON; 
06468:  BSF    xCA.6
....................             //tiempo_esterilizacion=1; 
....................          else 
0646A:  BRA    646E
....................             flagTemperatura=OFF; 
0646C:  BCF    xCA.6
....................             //tiempo_esterilizacion=0; 
....................             Controla(); 
0646E:  MOVLB  0
06470:  CALL   4454
....................             flag_tiempocalentamiento=0; 
06474:  MOVLB  1
06476:  BCF    xFB.2
....................       }else if(Temperatura<Setpoint-1.1){ 
06478:  BRA    65E8
0647A:  MOVLB  0
0647C:  BSF    FD8.1
0647E:  MOVFF  273,705
06482:  MOVFF  272,704
06486:  MOVFF  271,703
0648A:  MOVFF  270,702
0648E:  MOVLW  CD
06490:  MOVLB  7
06492:  MOVWF  x09
06494:  MOVLW  CC
06496:  MOVWF  x08
06498:  MOVLW  0C
0649A:  MOVWF  x07
0649C:  MOVLW  7F
0649E:  MOVWF  x06
064A0:  MOVLB  0
064A2:  CALL   12EE
064A6:  MOVFF  26B,6F8
064AA:  MOVFF  26A,6F7
064AE:  MOVFF  269,6F6
064B2:  MOVFF  268,6F5
064B6:  MOVFF  03,6FC
064BA:  MOVFF  02,6FB
064BE:  MOVFF  01,6FA
064C2:  MOVFF  00,6F9
064C6:  CALL   16C0
064CA:  BNC   6572
....................          Enfria=0; 
064CC:  MOVLB  1
064CE:  CLRF   xD5
....................          Ganancia=GananciaR*(Setpoint/150); 
064D0:  MOVFF  273,6FE
064D4:  MOVFF  272,6FD
064D8:  MOVFF  271,6FC
064DC:  MOVFF  270,6FB
064E0:  MOVLB  7
064E2:  CLRF   x02
064E4:  CLRF   x01
064E6:  MOVLW  16
064E8:  MOVWF  x00
064EA:  MOVLW  86
064EC:  MOVLB  6
064EE:  MOVWF  xFF
064F0:  MOVLB  0
064F2:  CALL   1170
064F6:  MOVFF  253,710
064FA:  MOVFF  252,70F
064FE:  MOVFF  251,70E
06502:  MOVFF  250,70D
06506:  MOVFF  03,714
0650A:  MOVFF  02,713
0650E:  MOVFF  01,712
06512:  MOVFF  00,711
06516:  CALL   15CA
0651A:  MOVFF  03,24F
0651E:  MOVFF  02,24E
06522:  MOVFF  01,24D
06526:  MOVFF  00,24C
....................          Gananciamax=(0.21)*Setpoint; 
0652A:  MOVLW  3D
0652C:  MOVLB  7
0652E:  MOVWF  x10
06530:  MOVLW  0A
06532:  MOVWF  x0F
06534:  MOVLW  57
06536:  MOVWF  x0E
06538:  MOVLW  7C
0653A:  MOVWF  x0D
0653C:  MOVFF  273,714
06540:  MOVFF  272,713
06544:  MOVFF  271,712
06548:  MOVFF  270,711
0654C:  MOVLB  0
0654E:  CALL   15CA
06552:  MOVFF  03,22B
06556:  MOVFF  02,22A
0655A:  MOVFF  01,229
0655E:  MOVFF  00,228
....................          SSR_off; 
06562:  BCF    F8D.1
06564:  BCF    F96.1
....................          SSR2_off;          
06566:  BCF    F8D.2
06568:  BCF    F96.2
....................          Controlando=0; 
0656A:  MOVLB  1
0656C:  CLRF   xD6
....................       }else if(Temperatura>Setpoint+1.1){ 
0656E:  BRA    65E8
06570:  MOVLB  0
06572:  BCF    FD8.1
06574:  MOVFF  273,705
06578:  MOVFF  272,704
0657C:  MOVFF  271,703
06580:  MOVFF  270,702
06584:  MOVLW  CD
06586:  MOVLB  7
06588:  MOVWF  x09
0658A:  MOVLW  CC
0658C:  MOVWF  x08
0658E:  MOVLW  0C
06590:  MOVWF  x07
06592:  MOVLW  7F
06594:  MOVWF  x06
06596:  MOVLB  0
06598:  CALL   12EE
0659C:  MOVFF  03,6F8
065A0:  MOVFF  02,6F7
065A4:  MOVFF  01,6F6
065A8:  MOVFF  00,6F5
065AC:  MOVFF  26B,6FC
065B0:  MOVFF  26A,6FB
065B4:  MOVFF  269,6FA
065B8:  MOVFF  268,6F9
065BC:  CALL   16C0
065C0:  BNC   65E6
....................          flag_tiempocalentamiento=0; 
065C2:  MOVLB  1
065C4:  BCF    xFB.2
....................          printf("statusT.txt=\"Enfriando\""); 
065C6:  MOVLW  5E
065C8:  MOVWF  FF6
065CA:  MOVLW  01
065CC:  MOVWF  FF7
065CE:  MOVLW  00
065D0:  MOVWF  FF8
065D2:  MOVLB  0
065D4:  CALL   2CE6
....................          SendDataDisplay(); 
065D8:  CALL   2D18
....................          //tiempo_esterilizacion=0; 
....................          flagTemperatura=OFF; 
065DC:  MOVLB  1
065DE:  BCF    xCA.6
....................          Controla(); 
065E0:  MOVLB  0
065E2:  CALL   4454
065E6:  MOVLB  1
....................       } 
....................    }else{   
065E8:  BRA    67F2
....................       if(Temperatura>=Setpoint-1.1 && Temperatura<=Setpoint+1.1){ 
065EA:  BSF    FD8.1
065EC:  MOVFF  273,705
065F0:  MOVFF  272,704
065F4:  MOVFF  271,703
065F8:  MOVFF  270,702
065FC:  MOVLW  CD
065FE:  MOVLB  7
06600:  MOVWF  x09
06602:  MOVLW  CC
06604:  MOVWF  x08
06606:  MOVLW  0C
06608:  MOVWF  x07
0660A:  MOVLW  7F
0660C:  MOVWF  x06
0660E:  MOVLB  0
06610:  CALL   12EE
06614:  MOVFF  03,6F8
06618:  MOVFF  02,6F7
0661C:  MOVFF  01,6F6
06620:  MOVFF  00,6F5
06624:  MOVFF  26B,6FC
06628:  MOVFF  26A,6FB
0662C:  MOVFF  269,6FA
06630:  MOVFF  268,6F9
06634:  CALL   16C0
06638:  BC    663C
0663A:  BNZ   66BC
0663C:  BCF    FD8.1
0663E:  MOVFF  273,705
06642:  MOVFF  272,704
06646:  MOVFF  271,703
0664A:  MOVFF  270,702
0664E:  MOVLW  CD
06650:  MOVLB  7
06652:  MOVWF  x09
06654:  MOVLW  CC
06656:  MOVWF  x08
06658:  MOVLW  0C
0665A:  MOVWF  x07
0665C:  MOVLW  7F
0665E:  MOVWF  x06
06660:  MOVLB  0
06662:  CALL   12EE
06666:  MOVFF  26B,6F8
0666A:  MOVFF  26A,6F7
0666E:  MOVFF  269,6F6
06672:  MOVFF  268,6F5
06676:  MOVFF  03,6FC
0667A:  MOVFF  02,6FB
0667E:  MOVFF  01,6FA
06682:  MOVFF  00,6F9
06686:  CALL   16C0
0668A:  BC    668E
0668C:  BNZ   66BC
....................          printf("statusT.txt=\"Controlando\""); 
0668E:  MOVLW  76
06690:  MOVWF  FF6
06692:  MOVLW  01
06694:  MOVWF  FF7
06696:  MOVLW  00
06698:  MOVWF  FF8
0669A:  CALL   2CE6
....................          SendDataDisplay(); 
0669E:  CALL   2D18
....................          if(!Infinito) 
066A2:  MOVLB  1
066A4:  BTFSC  xCA.3
066A6:  BRA    66AC
....................             //tiempo_esterilizacion=1; 
....................             flagTemperatura=ON; 
066A8:  BSF    xCA.6
....................          else 
066AA:  BRA    66AE
....................             //tiempo_esterilizacion=0;    
....................             flagTemperatura=OFF; 
066AC:  BCF    xCA.6
....................             Controla(); 
066AE:  MOVLB  0
066B0:  CALL   4454
....................             flag_tiempocalentamiento=0; 
066B4:  MOVLB  1
066B6:  BCF    xFB.2
....................       }else if(Temperatura>Setpoint+1.1){ 
066B8:  BRA    67F2
066BA:  MOVLB  0
066BC:  BCF    FD8.1
066BE:  MOVFF  273,705
066C2:  MOVFF  272,704
066C6:  MOVFF  271,703
066CA:  MOVFF  270,702
066CE:  MOVLW  CD
066D0:  MOVLB  7
066D2:  MOVWF  x09
066D4:  MOVLW  CC
066D6:  MOVWF  x08
066D8:  MOVLW  0C
066DA:  MOVWF  x07
066DC:  MOVLW  7F
066DE:  MOVWF  x06
066E0:  MOVLB  0
066E2:  CALL   12EE
066E6:  MOVFF  03,6F8
066EA:  MOVFF  02,6F7
066EE:  MOVFF  01,6F6
066F2:  MOVFF  00,6F5
066F6:  MOVFF  26B,6FC
066FA:  MOVFF  26A,6FB
066FE:  MOVFF  269,6FA
06702:  MOVFF  268,6F9
06706:  CALL   16C0
0670A:  BNC   677C
....................          Enfria=1; 
0670C:  MOVLW  01
0670E:  MOVLB  1
06710:  MOVWF  xD5
....................          Ganancia=GananciaR*(Setpoint/150); 
06712:  MOVFF  273,6FE
06716:  MOVFF  272,6FD
0671A:  MOVFF  271,6FC
0671E:  MOVFF  270,6FB
06722:  MOVLB  7
06724:  CLRF   x02
06726:  CLRF   x01
06728:  MOVLW  16
0672A:  MOVWF  x00
0672C:  MOVLW  86
0672E:  MOVLB  6
06730:  MOVWF  xFF
06732:  MOVLB  0
06734:  CALL   1170
06738:  MOVFF  253,710
0673C:  MOVFF  252,70F
06740:  MOVFF  251,70E
06744:  MOVFF  250,70D
06748:  MOVFF  03,714
0674C:  MOVFF  02,713
06750:  MOVFF  01,712
06754:  MOVFF  00,711
06758:  CALL   15CA
0675C:  MOVFF  03,24F
06760:  MOVFF  02,24E
06764:  MOVFF  01,24D
06768:  MOVFF  00,24C
....................          SSR_off; 
0676C:  BCF    F8D.1
0676E:  BCF    F96.1
....................          SSR2_off; 
06770:  BCF    F8D.2
06772:  BCF    F96.2
....................          Controlando=0; 
06774:  MOVLB  1
06776:  CLRF   xD6
....................       }else if(Temperatura<Setpoint-1.1){ 
06778:  BRA    67F2
0677A:  MOVLB  0
0677C:  BSF    FD8.1
0677E:  MOVFF  273,705
06782:  MOVFF  272,704
06786:  MOVFF  271,703
0678A:  MOVFF  270,702
0678E:  MOVLW  CD
06790:  MOVLB  7
06792:  MOVWF  x09
06794:  MOVLW  CC
06796:  MOVWF  x08
06798:  MOVLW  0C
0679A:  MOVWF  x07
0679C:  MOVLW  7F
0679E:  MOVWF  x06
067A0:  MOVLB  0
067A2:  CALL   12EE
067A6:  MOVFF  26B,6F8
067AA:  MOVFF  26A,6F7
067AE:  MOVFF  269,6F6
067B2:  MOVFF  268,6F5
067B6:  MOVFF  03,6FC
067BA:  MOVFF  02,6FB
067BE:  MOVFF  01,6FA
067C2:  MOVFF  00,6F9
067C6:  CALL   16C0
067CA:  BNC   67F0
....................          flag_tiempocalentamiento=1; 
067CC:  MOVLB  1
067CE:  BSF    xFB.2
....................          printf("statusT.txt=\"Calentando\""); 
067D0:  MOVLW  90
067D2:  MOVWF  FF6
067D4:  MOVLW  01
067D6:  MOVWF  FF7
067D8:  MOVLW  00
067DA:  MOVWF  FF8
067DC:  MOVLB  0
067DE:  CALL   2CE6
....................          SendDataDisplay(); 
067E2:  CALL   2D18
....................          //tiempo_esterilizacion=0; 
....................          flagTemperatura=OFF; 
067E6:  MOVLB  1
067E8:  BCF    xCA.6
....................          Controla(); 
067EA:  MOVLB  0
067EC:  CALL   4454
067F0:  MOVLB  1
....................       } 
....................    } 
.................... } 
067F2:  MOVLB  0
067F4:  GOTO   B3F0 (RETURN)
....................  
.................... void controlaRampa(){ 
....................    if(Enfria==1){ 
*
05DFC:  MOVLB  1
05DFE:  DECFSZ xD5,W
05E00:  BRA    60EC
....................       if(Temperatura<=Setpoint+1.1 && Temperatura>=Setpoint-1.1){ 
05E02:  BCF    FD8.1
05E04:  MOVFF  273,705
05E08:  MOVFF  272,704
05E0C:  MOVFF  271,703
05E10:  MOVFF  270,702
05E14:  MOVLW  CD
05E16:  MOVLB  7
05E18:  MOVWF  x09
05E1A:  MOVLW  CC
05E1C:  MOVWF  x08
05E1E:  MOVLW  0C
05E20:  MOVWF  x07
05E22:  MOVLW  7F
05E24:  MOVWF  x06
05E26:  MOVLB  0
05E28:  CALL   12EE
05E2C:  MOVFF  26B,6F8
05E30:  MOVFF  26A,6F7
05E34:  MOVFF  269,6F6
05E38:  MOVFF  268,6F5
05E3C:  MOVFF  03,6FC
05E40:  MOVFF  02,6FB
05E44:  MOVFF  01,6FA
05E48:  MOVFF  00,6F9
05E4C:  CALL   16C0
05E50:  BC    5E54
05E52:  BNZ   5F28
05E54:  BSF    FD8.1
05E56:  MOVFF  273,705
05E5A:  MOVFF  272,704
05E5E:  MOVFF  271,703
05E62:  MOVFF  270,702
05E66:  MOVLW  CD
05E68:  MOVLB  7
05E6A:  MOVWF  x09
05E6C:  MOVLW  CC
05E6E:  MOVWF  x08
05E70:  MOVLW  0C
05E72:  MOVWF  x07
05E74:  MOVLW  7F
05E76:  MOVWF  x06
05E78:  MOVLB  0
05E7A:  CALL   12EE
05E7E:  MOVFF  03,6F8
05E82:  MOVFF  02,6F7
05E86:  MOVFF  01,6F6
05E8A:  MOVFF  00,6F5
05E8E:  MOVFF  26B,6FC
05E92:  MOVFF  26A,6FB
05E96:  MOVFF  269,6FA
05E9A:  MOVFF  268,6F9
05E9E:  CALL   16C0
05EA2:  BC    5EA6
05EA4:  BNZ   5F28
....................          if(Pendiente!=0){ 
05EA6:  MOVFF  2BB,6F8
05EAA:  MOVFF  2BA,6F7
05EAE:  MOVFF  2B9,6F6
05EB2:  MOVFF  2B8,6F5
05EB6:  MOVLB  6
05EB8:  CLRF   xFC
05EBA:  CLRF   xFB
05EBC:  CLRF   xFA
05EBE:  CLRF   xF9
05EC0:  MOVLB  0
05EC2:  CALL   16C0
05EC6:  BZ    5EE0
....................             printf("statusT.txt=\"Controlando\""); 
05EC8:  MOVLW  AA
05ECA:  MOVWF  FF6
05ECC:  MOVLW  01
05ECE:  MOVWF  FF7
05ED0:  MOVLW  00
05ED2:  MOVWF  FF8
05ED4:  CALL   2CE6
....................             SendDataDisplay(); 
05ED8:  CALL   2D18
....................             flagTemperatura=ON;             
05EDC:  MOVLB  1
05EDE:  BSF    xCA.6
....................          } 
....................           
....................          if(Pendiente==0){ 
05EE0:  MOVFF  2BB,6F8
05EE4:  MOVFF  2BA,6F7
05EE8:  MOVFF  2B9,6F6
05EEC:  MOVFF  2B8,6F5
05EF0:  MOVLB  6
05EF2:  CLRF   xFC
05EF4:  CLRF   xFB
05EF6:  CLRF   xFA
05EF8:  CLRF   xF9
05EFA:  MOVLB  0
05EFC:  CALL   16C0
05F00:  BNZ   5F1C
....................             printf("statusT.txt=\"Meseta\""); 
05F02:  MOVLW  C4
05F04:  MOVWF  FF6
05F06:  MOVLW  01
05F08:  MOVWF  FF7
05F0A:  MOVLW  00
05F0C:  MOVWF  FF8
05F0E:  CALL   2CE6
....................             SendDataDisplay(); 
05F12:  CALL   2D18
....................             flagTemperatura=ON; 
05F16:  MOVLB  1
05F18:  BSF    xCA.6
05F1A:  MOVLB  0
....................          } 
....................          Controla(); 
05F1C:  CALL   4454
....................          flag_tiempocalentamiento=0; 
05F20:  MOVLB  1
05F22:  BCF    xFB.2
....................       }else if(Temperatura<Setpoint-1.1){ 
05F24:  BRA    60EA
05F26:  MOVLB  0
05F28:  BSF    FD8.1
05F2A:  MOVFF  273,705
05F2E:  MOVFF  272,704
05F32:  MOVFF  271,703
05F36:  MOVFF  270,702
05F3A:  MOVLW  CD
05F3C:  MOVLB  7
05F3E:  MOVWF  x09
05F40:  MOVLW  CC
05F42:  MOVWF  x08
05F44:  MOVLW  0C
05F46:  MOVWF  x07
05F48:  MOVLW  7F
05F4A:  MOVWF  x06
05F4C:  MOVLB  0
05F4E:  CALL   12EE
05F52:  MOVFF  26B,6F8
05F56:  MOVFF  26A,6F7
05F5A:  MOVFF  269,6F6
05F5E:  MOVFF  268,6F5
05F62:  MOVFF  03,6FC
05F66:  MOVFF  02,6FB
05F6A:  MOVFF  01,6FA
05F6E:  MOVFF  00,6F9
05F72:  CALL   16C0
05F76:  BNC   601E
....................          Enfria=0; 
05F78:  MOVLB  1
05F7A:  CLRF   xD5
....................          Ganancia=GananciaR*(Setpoint/150); 
05F7C:  MOVFF  273,6FE
05F80:  MOVFF  272,6FD
05F84:  MOVFF  271,6FC
05F88:  MOVFF  270,6FB
05F8C:  MOVLB  7
05F8E:  CLRF   x02
05F90:  CLRF   x01
05F92:  MOVLW  16
05F94:  MOVWF  x00
05F96:  MOVLW  86
05F98:  MOVLB  6
05F9A:  MOVWF  xFF
05F9C:  MOVLB  0
05F9E:  CALL   1170
05FA2:  MOVFF  253,710
05FA6:  MOVFF  252,70F
05FAA:  MOVFF  251,70E
05FAE:  MOVFF  250,70D
05FB2:  MOVFF  03,714
05FB6:  MOVFF  02,713
05FBA:  MOVFF  01,712
05FBE:  MOVFF  00,711
05FC2:  CALL   15CA
05FC6:  MOVFF  03,24F
05FCA:  MOVFF  02,24E
05FCE:  MOVFF  01,24D
05FD2:  MOVFF  00,24C
....................          Gananciamax=(0.21)*Setpoint; 
05FD6:  MOVLW  3D
05FD8:  MOVLB  7
05FDA:  MOVWF  x10
05FDC:  MOVLW  0A
05FDE:  MOVWF  x0F
05FE0:  MOVLW  57
05FE2:  MOVWF  x0E
05FE4:  MOVLW  7C
05FE6:  MOVWF  x0D
05FE8:  MOVFF  273,714
05FEC:  MOVFF  272,713
05FF0:  MOVFF  271,712
05FF4:  MOVFF  270,711
05FF8:  MOVLB  0
05FFA:  CALL   15CA
05FFE:  MOVFF  03,22B
06002:  MOVFF  02,22A
06006:  MOVFF  01,229
0600A:  MOVFF  00,228
....................          SSR_off; 
0600E:  BCF    F8D.1
06010:  BCF    F96.1
....................          SSR2_off; 
06012:  BCF    F8D.2
06014:  BCF    F96.2
....................          Controlando=0; 
06016:  MOVLB  1
06018:  CLRF   xD6
....................       }else if(Temperatura>Setpoint+1.1){ 
0601A:  BRA    60EA
0601C:  MOVLB  0
0601E:  BCF    FD8.1
06020:  MOVFF  273,705
06024:  MOVFF  272,704
06028:  MOVFF  271,703
0602C:  MOVFF  270,702
06030:  MOVLW  CD
06032:  MOVLB  7
06034:  MOVWF  x09
06036:  MOVLW  CC
06038:  MOVWF  x08
0603A:  MOVLW  0C
0603C:  MOVWF  x07
0603E:  MOVLW  7F
06040:  MOVWF  x06
06042:  MOVLB  0
06044:  CALL   12EE
06048:  MOVFF  03,6F8
0604C:  MOVFF  02,6F7
06050:  MOVFF  01,6F6
06054:  MOVFF  00,6F5
06058:  MOVFF  26B,6FC
0605C:  MOVFF  26A,6FB
06060:  MOVFF  269,6FA
06064:  MOVFF  268,6F9
06068:  CALL   16C0
0606C:  BNC   60E8
....................          if(Pendiente!=0){ 
0606E:  MOVFF  2BB,6F8
06072:  MOVFF  2BA,6F7
06076:  MOVFF  2B9,6F6
0607A:  MOVFF  2B8,6F5
0607E:  MOVLB  6
06080:  CLRF   xFC
06082:  CLRF   xFB
06084:  CLRF   xFA
06086:  CLRF   xF9
06088:  MOVLB  0
0608A:  CALL   16C0
0608E:  BZ    60A8
....................             printf("statusT.txt=\"Rampa -\""); 
06090:  MOVLW  DA
06092:  MOVWF  FF6
06094:  MOVLW  01
06096:  MOVWF  FF7
06098:  MOVLW  00
0609A:  MOVWF  FF8
0609C:  CALL   2CE6
....................             SendDataDisplay(); 
060A0:  CALL   2D18
....................             flagTemperatura=ON;             
060A4:  MOVLB  1
060A6:  BSF    xCA.6
....................          } 
....................          if(Pendiente==0){ 
060A8:  MOVFF  2BB,6F8
060AC:  MOVFF  2BA,6F7
060B0:  MOVFF  2B9,6F6
060B4:  MOVFF  2B8,6F5
060B8:  MOVLB  6
060BA:  CLRF   xFC
060BC:  CLRF   xFB
060BE:  CLRF   xFA
060C0:  CLRF   xF9
060C2:  MOVLB  0
060C4:  CALL   16C0
060C8:  BNZ   60E4
....................             printf("statusT.txt=\"Enfriando\""); 
060CA:  MOVLW  F0
060CC:  MOVWF  FF6
060CE:  MOVLW  01
060D0:  MOVWF  FF7
060D2:  MOVLW  00
060D4:  MOVWF  FF8
060D6:  CALL   2CE6
....................             SendDataDisplay(); 
060DA:  CALL   2D18
....................             flagTemperatura=OFF;             
060DE:  MOVLB  1
060E0:  BCF    xCA.6
060E2:  MOVLB  0
....................          } 
....................          Controla(); 
060E4:  CALL   4454
060E8:  MOVLB  1
....................       } 
....................    }else{   
060EA:  BRA    639E
....................       if(Temperatura>=Setpoint-1.1 && Temperatura<=Setpoint+1.1){ 
060EC:  BSF    FD8.1
060EE:  MOVFF  273,705
060F2:  MOVFF  272,704
060F6:  MOVFF  271,703
060FA:  MOVFF  270,702
060FE:  MOVLW  CD
06100:  MOVLB  7
06102:  MOVWF  x09
06104:  MOVLW  CC
06106:  MOVWF  x08
06108:  MOVLW  0C
0610A:  MOVWF  x07
0610C:  MOVLW  7F
0610E:  MOVWF  x06
06110:  MOVLB  0
06112:  CALL   12EE
06116:  MOVFF  03,6F8
0611A:  MOVFF  02,6F7
0611E:  MOVFF  01,6F6
06122:  MOVFF  00,6F5
06126:  MOVFF  26B,6FC
0612A:  MOVFF  26A,6FB
0612E:  MOVFF  269,6FA
06132:  MOVFF  268,6F9
06136:  CALL   16C0
0613A:  BC    613E
0613C:  BNZ   6212
0613E:  BCF    FD8.1
06140:  MOVFF  273,705
06144:  MOVFF  272,704
06148:  MOVFF  271,703
0614C:  MOVFF  270,702
06150:  MOVLW  CD
06152:  MOVLB  7
06154:  MOVWF  x09
06156:  MOVLW  CC
06158:  MOVWF  x08
0615A:  MOVLW  0C
0615C:  MOVWF  x07
0615E:  MOVLW  7F
06160:  MOVWF  x06
06162:  MOVLB  0
06164:  CALL   12EE
06168:  MOVFF  26B,6F8
0616C:  MOVFF  26A,6F7
06170:  MOVFF  269,6F6
06174:  MOVFF  268,6F5
06178:  MOVFF  03,6FC
0617C:  MOVFF  02,6FB
06180:  MOVFF  01,6FA
06184:  MOVFF  00,6F9
06188:  CALL   16C0
0618C:  BC    6190
0618E:  BNZ   6212
....................          if(Pendiente!=0){ 
06190:  MOVFF  2BB,6F8
06194:  MOVFF  2BA,6F7
06198:  MOVFF  2B9,6F6
0619C:  MOVFF  2B8,6F5
061A0:  MOVLB  6
061A2:  CLRF   xFC
061A4:  CLRF   xFB
061A6:  CLRF   xFA
061A8:  CLRF   xF9
061AA:  MOVLB  0
061AC:  CALL   16C0
061B0:  BZ    61CA
....................             printf("statusT.txt=\"Controlando\""); 
061B2:  MOVLW  08
061B4:  MOVWF  FF6
061B6:  MOVLW  02
061B8:  MOVWF  FF7
061BA:  MOVLW  00
061BC:  MOVWF  FF8
061BE:  CALL   2CE6
....................             SendDataDisplay(); 
061C2:  CALL   2D18
....................             flagTemperatura=ON;             
061C6:  MOVLB  1
061C8:  BSF    xCA.6
....................          } 
....................           
....................          if(Pendiente==0){ 
061CA:  MOVFF  2BB,6F8
061CE:  MOVFF  2BA,6F7
061D2:  MOVFF  2B9,6F6
061D6:  MOVFF  2B8,6F5
061DA:  MOVLB  6
061DC:  CLRF   xFC
061DE:  CLRF   xFB
061E0:  CLRF   xFA
061E2:  CLRF   xF9
061E4:  MOVLB  0
061E6:  CALL   16C0
061EA:  BNZ   6206
....................             printf("statusT.txt=\"Meseta\""); 
061EC:  MOVLW  22
061EE:  MOVWF  FF6
061F0:  MOVLW  02
061F2:  MOVWF  FF7
061F4:  MOVLW  00
061F6:  MOVWF  FF8
061F8:  CALL   2CE6
....................             SendDataDisplay(); 
061FC:  CALL   2D18
....................             flagTemperatura=ON; 
06200:  MOVLB  1
06202:  BSF    xCA.6
06204:  MOVLB  0
....................          } 
....................          Controla(); 
06206:  CALL   4454
....................          flag_tiempocalentamiento=0; 
0620A:  MOVLB  1
0620C:  BCF    xFB.2
....................       }else if(Temperatura>Setpoint+1.1){ 
0620E:  BRA    639E
06210:  MOVLB  0
06212:  BCF    FD8.1
06214:  MOVFF  273,705
06218:  MOVFF  272,704
0621C:  MOVFF  271,703
06220:  MOVFF  270,702
06224:  MOVLW  CD
06226:  MOVLB  7
06228:  MOVWF  x09
0622A:  MOVLW  CC
0622C:  MOVWF  x08
0622E:  MOVLW  0C
06230:  MOVWF  x07
06232:  MOVLW  7F
06234:  MOVWF  x06
06236:  MOVLB  0
06238:  CALL   12EE
0623C:  MOVFF  03,6F8
06240:  MOVFF  02,6F7
06244:  MOVFF  01,6F6
06248:  MOVFF  00,6F5
0624C:  MOVFF  26B,6FC
06250:  MOVFF  26A,6FB
06254:  MOVFF  269,6FA
06258:  MOVFF  268,6F9
0625C:  CALL   16C0
06260:  BNC   62D2
....................          Enfria=1; 
06262:  MOVLW  01
06264:  MOVLB  1
06266:  MOVWF  xD5
....................          Ganancia=GananciaR*(Setpoint/150); 
06268:  MOVFF  273,6FE
0626C:  MOVFF  272,6FD
06270:  MOVFF  271,6FC
06274:  MOVFF  270,6FB
06278:  MOVLB  7
0627A:  CLRF   x02
0627C:  CLRF   x01
0627E:  MOVLW  16
06280:  MOVWF  x00
06282:  MOVLW  86
06284:  MOVLB  6
06286:  MOVWF  xFF
06288:  MOVLB  0
0628A:  CALL   1170
0628E:  MOVFF  253,710
06292:  MOVFF  252,70F
06296:  MOVFF  251,70E
0629A:  MOVFF  250,70D
0629E:  MOVFF  03,714
062A2:  MOVFF  02,713
062A6:  MOVFF  01,712
062AA:  MOVFF  00,711
062AE:  CALL   15CA
062B2:  MOVFF  03,24F
062B6:  MOVFF  02,24E
062BA:  MOVFF  01,24D
062BE:  MOVFF  00,24C
....................          SSR_off; 
062C2:  BCF    F8D.1
062C4:  BCF    F96.1
....................          SSR2_off; 
062C6:  BCF    F8D.2
062C8:  BCF    F96.2
....................          Controlando=0; 
062CA:  MOVLB  1
062CC:  CLRF   xD6
....................       }else if(Temperatura<Setpoint-1.1){ 
062CE:  BRA    639E
062D0:  MOVLB  0
062D2:  BSF    FD8.1
062D4:  MOVFF  273,705
062D8:  MOVFF  272,704
062DC:  MOVFF  271,703
062E0:  MOVFF  270,702
062E4:  MOVLW  CD
062E6:  MOVLB  7
062E8:  MOVWF  x09
062EA:  MOVLW  CC
062EC:  MOVWF  x08
062EE:  MOVLW  0C
062F0:  MOVWF  x07
062F2:  MOVLW  7F
062F4:  MOVWF  x06
062F6:  MOVLB  0
062F8:  CALL   12EE
062FC:  MOVFF  26B,6F8
06300:  MOVFF  26A,6F7
06304:  MOVFF  269,6F6
06308:  MOVFF  268,6F5
0630C:  MOVFF  03,6FC
06310:  MOVFF  02,6FB
06314:  MOVFF  01,6FA
06318:  MOVFF  00,6F9
0631C:  CALL   16C0
06320:  BNC   639C
....................          if(Pendiente!=0){ 
06322:  MOVFF  2BB,6F8
06326:  MOVFF  2BA,6F7
0632A:  MOVFF  2B9,6F6
0632E:  MOVFF  2B8,6F5
06332:  MOVLB  6
06334:  CLRF   xFC
06336:  CLRF   xFB
06338:  CLRF   xFA
0633A:  CLRF   xF9
0633C:  MOVLB  0
0633E:  CALL   16C0
06342:  BZ    635C
....................             printf("statusT.txt=\"Rampa +\""); 
06344:  MOVLW  38
06346:  MOVWF  FF6
06348:  MOVLW  02
0634A:  MOVWF  FF7
0634C:  MOVLW  00
0634E:  MOVWF  FF8
06350:  CALL   2CE6
....................             SendDataDisplay(); 
06354:  CALL   2D18
....................             flagTemperatura=ON;             
06358:  MOVLB  1
0635A:  BSF    xCA.6
....................          } 
....................          if(Pendiente==0){ 
0635C:  MOVFF  2BB,6F8
06360:  MOVFF  2BA,6F7
06364:  MOVFF  2B9,6F6
06368:  MOVFF  2B8,6F5
0636C:  MOVLB  6
0636E:  CLRF   xFC
06370:  CLRF   xFB
06372:  CLRF   xFA
06374:  CLRF   xF9
06376:  MOVLB  0
06378:  CALL   16C0
0637C:  BNZ   6398
....................             printf("statusT.txt=\"Calentando\""); 
0637E:  MOVLW  4E
06380:  MOVWF  FF6
06382:  MOVLW  02
06384:  MOVWF  FF7
06386:  MOVLW  00
06388:  MOVWF  FF8
0638A:  CALL   2CE6
....................             SendDataDisplay(); 
0638E:  CALL   2D18
....................             flagTemperatura=OFF;             
06392:  MOVLB  1
06394:  BCF    xCA.6
06396:  MOVLB  0
....................          } 
....................          Controla(); 
06398:  CALL   4454
0639C:  MOVLB  1
....................       } 
....................    } 
.................... } 
0639E:  MOVLB  0
063A0:  GOTO   B362 (RETURN)
....................  
....................  
.................... #int_rda HIGH 
.................... void serial_rx_isr(){ 
....................    Dato2=fgetc(); 
*
00268:  BTFSS  F9E.5
0026A:  BRA    0268
0026C:  MOVFF  FAE,1DB
00270:  MOVLB  1
....................    if(Dato2==0x65){//Inicio Comunicacion 
00272:  MOVF   xDB,W
00274:  SUBLW  65
00276:  BNZ   027E
....................       Inicio=1; 
00278:  MOVLW  01
0027A:  MOVWF  xDC
....................       RX_Wr_Index =0; 
0027C:  CLRF   40
....................    } 
....................     
....................    if(Inicio==1){ 
0027E:  DECFSZ xDC,W
00280:  BRA    0296
....................       Rx_Buffer2[RX_Wr_Index] = Dato2; 
00282:  CLRF   03
00284:  MOVF   40,W
00286:  ADDLW  35
00288:  MOVWF  FE9
0028A:  MOVLW  00
0028C:  ADDWFC 03,W
0028E:  MOVWF  FEA
00290:  MOVFF  1DB,FEF
....................       RX_Wr_Index++; 
00294:  INCF   40,F
....................    } 
....................    if(RX_Wr_Index >= RX_BUFFER_SIZE){ 
00296:  MOVF   40,W
00298:  SUBLW  09
0029A:  BC    02A0
....................       RX_Wr_Index =0; 
0029C:  CLRF   40
....................       Inicio=0; 
0029E:  CLRF   xDC
....................    } 
....................  
....................    if(RX_Wr_Index==0){ 
002A0:  MOVF   40,F
002A2:  BNZ   02CC
....................       if(Rx_Buffer2[0]==0x65 && Rx_Buffer2[1]==0xff && Rx_Buffer2[2]==0xff && Rx_Buffer2[8]==0x00 && Rx_Buffer2[9]==0xff ){ 
002A4:  MOVF   35,W
002A6:  SUBLW  65
002A8:  BNZ   02C4
002AA:  INCFSZ 36,W
002AC:  BRA    02C4
002AE:  INCFSZ 37,W
002B0:  BRA    02C4
002B2:  MOVF   3D,F
002B4:  BNZ   02C4
002B6:  INCFSZ 3E,W
002B8:  BRA    02C4
....................          Dato_Exitoso=5; 
002BA:  MOVLW  05
002BC:  MOVLB  2
002BE:  MOVWF  x06
....................       }else{ 
002C0:  BRA    02CA
002C2:  MOVLB  1
....................          Dato_Exitoso=10; 
002C4:  MOVLW  0A
002C6:  MOVLB  2
002C8:  MOVWF  x06
002CA:  MOVLB  1
....................       } 
....................    } 
....................    //output_toggle(PIN_D7); 
....................    //if(Menu==20) 
....................      //Buzzer_on; 
.................... } 
....................  
002CC:  BCF    F9E.5
002CE:  MOVLB  0
002D0:  GOTO   00FE
.................... #int_TIMER1 
.................... void temp1s(void){ 
....................    set_timer1(40536); 
002D4:  MOVLW  9E
002D6:  MOVWF  FCF
002D8:  MOVLW  58
002DA:  MOVWF  FCE
....................    tiempos++; 
002DC:  MOVLB  2
002DE:  INCF   x08,F
002E0:  BTFSC  FD8.2
002E2:  INCF   x09,F
....................    tiempos3++; 
002E4:  INCF   x0A,F
002E6:  BTFSC  FD8.2
002E8:  INCF   x0B,F
....................    tiempoctrl++; 
002EA:  INCF   x0C,F
002EC:  BTFSC  FD8.2
002EE:  INCF   x0D,F
....................     
....................    if(TERM){ 
002F0:  BSF    F93.5
002F2:  BTFSS  F81.5
002F4:  BRA    0308
....................       if(tterm<100) 
002F6:  MOVF   x21,F
002F8:  BNZ   0306
002FA:  MOVF   x20,W
002FC:  SUBLW  63
002FE:  BNC   0306
....................          tterm++; 
00300:  INCF   x20,F
00302:  BTFSC  FD8.2
00304:  INCF   x21,F
....................    }else{ 
00306:  BRA    030C
....................       tterm=0; 
00308:  CLRF   x21
0030A:  CLRF   x20
....................    } 
....................        
....................    if(DOOR){ 
0030C:  BSF    F93.7
0030E:  BTFSS  F81.7
00310:  BRA    0324
....................       if(tdoor<100) 
00312:  MOVF   x23,F
00314:  BNZ   0322
00316:  MOVF   x22,W
00318:  SUBLW  63
0031A:  BNC   0322
....................          tdoor++; 
0031C:  INCF   x22,F
0031E:  BTFSC  FD8.2
00320:  INCF   x23,F
....................    }else{ 
00322:  BRA    0328
....................       tdoor=0; 
00324:  CLRF   x23
00326:  CLRF   x22
....................    } 
....................     
....................    if(tiempos3>=200) 
00328:  MOVF   x0B,F
0032A:  BNZ   0332
0032C:  MOVF   x0A,W
0032E:  SUBLW  C7
00330:  BC    0338
....................       Lectura2=1; 
00332:  MOVLW  01
00334:  MOVLB  1
00336:  MOVWF  xD4
....................     
....................    if(Controlando==1){ 
00338:  MOVLB  1
0033A:  DECFSZ xD6,W
0033C:  BRA    036A
....................       if(tiempoctrl<Tp){ // Si el tiempo es menor o igual al tiempo de control se enciende la resistencia de lo contrario se apaga. 
0033E:  MOVLB  2
00340:  MOVF   x0D,W
00342:  SUBWF  x15,W
00344:  BNC   0354
00346:  BNZ   034E
00348:  MOVF   x14,W
0034A:  SUBWF  x0C,W
0034C:  BC    0354
....................          SSR2_on; 
0034E:  BSF    F8D.2
00350:  BCF    F96.2
....................       }else{ 
00352:  BRA    0358
....................          SSR2_off;          
00354:  BCF    F8D.2
00356:  BCF    F96.2
....................       } 
....................        
....................       if(tiempoctrl>=Tc) // Si el tiempo de control es mayor al tiempo de ciclo se reinicia tiempo de control       
00358:  MOVF   x17,W
0035A:  SUBWF  x0D,W
0035C:  BNC   036A
0035E:  BNZ   0366
00360:  MOVF   x16,W
00362:  SUBWF  x0C,W
00364:  BNC   036A
....................          tiempoctrl=0;// tiempoctrl incrementa una unidad cada 5ms, por eso se dividen los tiempos por 0.005. 
00366:  CLRF   x0D
00368:  CLRF   x0C
....................    } 
....................      
....................    if(tiempos>=200){  // 12000 para que incremente cada minuto, 200para que incremente cada segundo. 
0036A:  MOVLB  2
0036C:  MOVF   x09,F
0036E:  BNZ   0376
00370:  MOVF   x08,W
00372:  SUBLW  C7
00374:  BC    03F6
....................       tiempos=0;Lectura=1;tiemporeset++;TiempoControl++;tiemporecta++; 
00376:  CLRF   x09
00378:  CLRF   x08
0037A:  MOVLB  1
0037C:  BSF    xCC.4
0037E:  INCF   xFD,F
00380:  MOVLB  2
00382:  INCF   x01,F
00384:  MOVLB  1
00386:  INCF   xD2,F
....................     
....................       if(input_state(PIN_D3)){ //Salida Compresor- Compresor Apagado 
00388:  BTFSS  F83.3
0038A:  BRA    03A2
....................          if(tApagadoCompresor>0){ 
0038C:  MOVLB  2
0038E:  MOVF   x1C,F
00390:  BNZ   0396
00392:  MOVF   x1D,F
00394:  BZ    039E
....................             tApagadoCompresor--; 
00396:  MOVF   x1C,W
00398:  BTFSC  FD8.2
0039A:  DECF   x1D,F
0039C:  DECF   x1C,F
....................          } 
....................       }else{ 
0039E:  BRA    03B2
003A0:  MOVLB  1
....................          if(input_state(PIN_D1) && input_state(PIN_C5)){//Salidas de valvulas- apagadas 
003A2:  BTFSS  F83.1
003A4:  BRA    03B2
003A6:  BTFSS  F82.5
003A8:  BRA    03B2
....................             Valvula1_on; 
003AA:  BCF    F8C.1
003AC:  BCF    F95.1
....................             Valvula2_off; 
003AE:  BSF    F8B.5
003B0:  BCF    F94.5
....................          } 
....................       } 
....................        
....................       if(flagTDefrost) 
003B2:  MOVLB  1
003B4:  BTFSS  xCB.1
003B6:  BRA    03C2
....................          tCongelamiento++; 
003B8:  MOVLB  2
003BA:  INCF   x1A,F
003BC:  BTFSC  FD8.2
003BE:  INCF   x1B,F
003C0:  MOVLB  1
....................           
....................       if(flagDefrost) 
003C2:  BTFSS  xCB.2
003C4:  BRA    03D0
....................          tDefrost++; 
003C6:  MOVLB  2
003C8:  INCF   x18,F
003CA:  BTFSC  FD8.2
003CC:  INCF   x19,F
003CE:  MOVLB  1
....................           
....................       if(flag_setpoint==1) 
003D0:  BTFSS  xFB.3
003D2:  BRA    03DC
....................          tiemposetpoint++; 
003D4:  MOVLB  2
003D6:  INCF   x12,F
003D8:  BTFSC  FD8.2
003DA:  INCF   x13,F
....................           
....................       if(tiempo_esterilizacion==1) 
003DC:  MOVLB  2
003DE:  DECFSZ x03,W
003E0:  BRA    03E8
....................          tinicio++; 
003E2:  INCF   x0E,F
003E4:  BTFSC  FD8.2
003E6:  INCF   x0F,F
....................        
....................       if(flag_tiempocalentamiento==1) 
003E8:  MOVLB  1
003EA:  BTFSS  xFB.2
003EC:  BRA    03F8
....................          tiempocalentamiento++; 
003EE:  MOVLB  2
003F0:  INCF   x10,F
003F2:  BTFSC  FD8.2
003F4:  INCF   x11,F
003F6:  MOVLB  1
....................        
....................    }         
.................... } 
....................  
003F8:  BCF    F9E.0
003FA:  MOVLB  0
003FC:  GOTO   0068
.................... void main() 
.................... { 
*
06952:  CLRF   FF8
06954:  BCF    F9F.0
06956:  BSF    F9F.5
06958:  BSF    FD0.7
0695A:  BSF    07.7
0695C:  CLRF   FEA
0695E:  CLRF   FE9
06960:  BSF    FB8.3
06962:  MOVLW  08
06964:  MOVWF  FAF
06966:  MOVLW  02
06968:  MOVWF  FB0
0696A:  MOVLW  A6
0696C:  MOVWF  FAC
0696E:  MOVLW  90
06970:  MOVWF  FAB
06972:  CLRF   40
06974:  MOVLB  1
06976:  BCF    xC9.0
06978:  BCF    xC9.1
0697A:  BCF    xC9.2
0697C:  BCF    xC9.3
0697E:  BCF    xC9.4
06980:  BCF    xC9.5
06982:  BCF    xC9.6
06984:  BCF    xC9.7
06986:  BCF    xCA.0
06988:  BCF    xCA.1
0698A:  BCF    xCA.2
0698C:  BCF    xCA.3
0698E:  BCF    xCA.4
06990:  BCF    xCA.5
06992:  BCF    xCA.6
06994:  BCF    xCA.7
06996:  BCF    xCB.0
06998:  BCF    xCB.1
0699A:  BCF    xCB.2
0699C:  BCF    xCB.3
0699E:  BCF    xCB.4
069A0:  BCF    xCB.5
069A2:  BCF    xCB.6
069A4:  BCF    xCB.7
069A6:  BCF    xCC.0
069A8:  BSF    xCC.1
069AA:  BCF    xCC.2
069AC:  BCF    xCC.3
069AE:  CLRF   xCD
069B0:  CLRF   xCE
069B2:  CLRF   xCF
069B4:  CLRF   xD0
069B6:  MOVLW  0A
069B8:  MOVWF  xD1
069BA:  CLRF   xD2
069BC:  CLRF   xD3
069BE:  CLRF   xD4
069C0:  CLRF   xD5
069C2:  CLRF   xD6
069C4:  MOVWF  xD7
069C6:  MOVLW  28
069C8:  MOVWF  xD8
069CA:  CLRF   xD9
069CC:  CLRF   xDA
069CE:  CLRF   xDB
069D0:  CLRF   xDC
069D2:  CLRF   xDD
069D4:  CLRF   xDE
069D6:  CLRF   xDF
069D8:  CLRF   xE0
069DA:  CLRF   xE1
069DC:  MOVLW  0A
069DE:  MOVWF  xE2
069E0:  CLRF   xE6
069E2:  CLRF   xE5
069E4:  CLRF   xE4
069E6:  CLRF   xE3
069E8:  CLRF   xEA
069EA:  CLRF   xE9
069EC:  CLRF   xE8
069EE:  CLRF   xE7
069F0:  CLRF   xEE
069F2:  CLRF   xED
069F4:  CLRF   xEC
069F6:  CLRF   xEB
069F8:  CLRF   xF2
069FA:  CLRF   xF1
069FC:  CLRF   xF0
069FE:  CLRF   xEF
06A00:  CLRF   xF6
06A02:  CLRF   xF5
06A04:  CLRF   xF4
06A06:  CLRF   xF3
06A08:  CLRF   xFA
06A0A:  CLRF   xF9
06A0C:  CLRF   xF8
06A0E:  CLRF   xF7
06A10:  BCF    xCC.4
06A12:  BCF    xCC.5
06A14:  BCF    xCC.6
06A16:  BCF    xCC.7
06A18:  BCF    xFB.0
06A1A:  BCF    xFB.1
06A1C:  BCF    xFB.2
06A1E:  BCF    xFB.3
06A20:  CLRF   xFC
06A22:  CLRF   xFD
06A24:  CLRF   xFE
06A26:  CLRF   xFF
06A28:  MOVLB  2
06A2A:  CLRF   x00
06A2C:  CLRF   x01
06A2E:  MOVLW  01
06A30:  MOVWF  x02
06A32:  CLRF   x03
06A34:  CLRF   x04
06A36:  CLRF   x05
06A38:  CLRF   x06
06A3A:  MOVLW  F0
06A3C:  MOVWF  x07
06A3E:  CLRF   x09
06A40:  CLRF   x08
06A42:  CLRF   x0B
06A44:  CLRF   x0A
06A46:  CLRF   x0D
06A48:  CLRF   x0C
06A4A:  CLRF   x0F
06A4C:  CLRF   x0E
06A4E:  CLRF   x11
06A50:  CLRF   x10
06A52:  CLRF   x13
06A54:  CLRF   x12
06A56:  CLRF   x15
06A58:  CLRF   x14
06A5A:  CLRF   x17
06A5C:  CLRF   x16
06A5E:  CLRF   x19
06A60:  CLRF   x18
06A62:  CLRF   x1B
06A64:  CLRF   x1A
06A66:  CLRF   x1D
06A68:  MOVWF  x1C
06A6A:  CLRF   x1F
06A6C:  CLRF   x1E
06A6E:  CLRF   x21
06A70:  CLRF   x20
06A72:  CLRF   x23
06A74:  CLRF   x22
06A76:  CLRF   x27
06A78:  CLRF   x26
06A7A:  CLRF   x25
06A7C:  CLRF   x24
06A7E:  CLRF   x2B
06A80:  CLRF   x2A
06A82:  CLRF   x29
06A84:  CLRF   x28
06A86:  CLRF   x33
06A88:  CLRF   x32
06A8A:  CLRF   x31
06A8C:  CLRF   x30
06A8E:  CLRF   x37
06A90:  CLRF   x36
06A92:  MOVLW  20
06A94:  MOVWF  x35
06A96:  MOVLW  82
06A98:  MOVWF  x34
06A9A:  CLRF   x3B
06A9C:  CLRF   x3A
06A9E:  CLRF   x39
06AA0:  CLRF   x38
06AA2:  CLRF   x3F
06AA4:  CLRF   x3E
06AA6:  CLRF   x3D
06AA8:  CLRF   x3C
06AAA:  CLRF   x43
06AAC:  CLRF   x42
06AAE:  CLRF   x41
06AB0:  CLRF   x40
06AB2:  CLRF   x47
06AB4:  CLRF   x46
06AB6:  CLRF   x45
06AB8:  CLRF   x44
06ABA:  CLRF   x4B
06ABC:  CLRF   x4A
06ABE:  CLRF   x49
06AC0:  CLRF   x48
06AC2:  CLRF   x4F
06AC4:  CLRF   x4E
06AC6:  CLRF   x4D
06AC8:  MOVLW  80
06ACA:  MOVWF  x4C
06ACC:  CLRF   x53
06ACE:  CLRF   x52
06AD0:  CLRF   x51
06AD2:  MOVWF  x50
06AD4:  CLRF   x57
06AD6:  CLRF   x56
06AD8:  CLRF   x55
06ADA:  MOVLW  7E
06ADC:  MOVWF  x54
06ADE:  CLRF   x5B
06AE0:  CLRF   x5A
06AE2:  MOVLW  32
06AE4:  MOVWF  x59
06AE6:  MOVLW  84
06AE8:  MOVWF  x58
06AEA:  CLRF   x5F
06AEC:  CLRF   x5E
06AEE:  CLRF   x5D
06AF0:  CLRF   x5C
06AF2:  CLRF   x63
06AF4:  CLRF   x62
06AF6:  CLRF   x61
06AF8:  CLRF   x60
06AFA:  CLRF   x67
06AFC:  CLRF   x66
06AFE:  CLRF   x65
06B00:  CLRF   x64
06B02:  CLRF   x6B
06B04:  CLRF   x6A
06B06:  CLRF   x69
06B08:  CLRF   x68
06B0A:  CLRF   x6F
06B0C:  CLRF   x6E
06B0E:  MOVLW  20
06B10:  MOVWF  x6D
06B12:  MOVLW  82
06B14:  MOVWF  x6C
06B16:  CLRF   x73
06B18:  CLRF   x72
06B1A:  CLRF   x71
06B1C:  CLRF   x70
06B1E:  CLRF   x77
06B20:  CLRF   x76
06B22:  CLRF   x75
06B24:  CLRF   x74
06B26:  CLRF   x7B
06B28:  CLRF   x7A
06B2A:  CLRF   x79
06B2C:  CLRF   x78
06B2E:  CLRF   x7F
06B30:  CLRF   x7E
06B32:  CLRF   x7D
06B34:  CLRF   x7C
06B36:  CLRF   x83
06B38:  CLRF   x82
06B3A:  CLRF   x81
06B3C:  CLRF   x80
06B3E:  MOVLW  E0
06B40:  MOVWF  x87
06B42:  MOVLW  2D
06B44:  MOVWF  x86
06B46:  MOVLW  10
06B48:  MOVWF  x85
06B4A:  MOVLW  75
06B4C:  MOVWF  x84
06B4E:  MOVLW  FF
06B50:  MOVWF  x8B
06B52:  MOVLW  21
06B54:  MOVWF  x8A
06B56:  MOVLW  15
06B58:  MOVWF  x89
06B5A:  MOVLW  80
06B5C:  MOVWF  x88
06B5E:  MOVLW  82
06B60:  MOVWF  x8F
06B62:  MOVLW  12
06B64:  MOVWF  x8E
06B66:  MOVLW  F4
06B68:  MOVWF  x8D
06B6A:  MOVLW  86
06B6C:  MOVWF  x8C
06B6E:  CLRF   x93
06B70:  CLRF   x92
06B72:  MOVLW  20
06B74:  MOVWF  x91
06B76:  MOVLW  83
06B78:  MOVWF  x90
06B7A:  CLRF   x97
06B7C:  CLRF   x96
06B7E:  CLRF   x95
06B80:  CLRF   x94
06B82:  CLRF   x9B
06B84:  CLRF   x9A
06B86:  CLRF   x99
06B88:  CLRF   x98
06B8A:  CLRF   x9F
06B8C:  CLRF   x9E
06B8E:  CLRF   x9D
06B90:  CLRF   x9C
06B92:  CLRF   xA3
06B94:  CLRF   xA2
06B96:  CLRF   xA1
06B98:  CLRF   xA0
06B9A:  CLRF   xA7
06B9C:  CLRF   xA6
06B9E:  CLRF   xA5
06BA0:  CLRF   xA4
06BA2:  CLRF   xAB
06BA4:  CLRF   xAA
06BA6:  CLRF   xA9
06BA8:  CLRF   xA8
06BAA:  CLRF   xAF
06BAC:  CLRF   xAE
06BAE:  CLRF   xAD
06BB0:  CLRF   xAC
06BB2:  CLRF   xB3
06BB4:  CLRF   xB2
06BB6:  CLRF   xB1
06BB8:  CLRF   xB0
06BBA:  CLRF   xB7
06BBC:  CLRF   xB6
06BBE:  CLRF   xB5
06BC0:  CLRF   xB4
06BC2:  CLRF   xBB
06BC4:  CLRF   xBA
06BC6:  CLRF   xB9
06BC8:  CLRF   xB8
06BCA:  CLRF   xBF
06BCC:  CLRF   xBE
06BCE:  CLRF   xBD
06BD0:  CLRF   xBC
06BD2:  CLRF   xC3
06BD4:  CLRF   xC2
06BD6:  CLRF   xC1
06BD8:  CLRF   xC0
06BDA:  CLRF   xC7
06BDC:  CLRF   xC6
06BDE:  MOVLW  20
06BE0:  MOVWF  xC5
06BE2:  MOVLW  80
06BE4:  MOVWF  xC4
06BE6:  CLRF   xCB
06BE8:  CLRF   xCA
06BEA:  CLRF   xC9
06BEC:  CLRF   xC8
06BEE:  MOVLW  12
06BF0:  MOVWF  xCC
06BF2:  MOVLW  09
06BF4:  MOVWF  xCD
06BF6:  MOVLW  0D
06BF8:  MOVWF  xCE
06BFA:  CLRF   xCF
06BFC:  CLRF   xD0
06BFE:  CLRF   xD1
06C00:  CLRF   xD2
06C02:  CLRF   xD3
06C04:  CLRF   xD4
06C06:  CLRF   xD5
06C08:  CLRF   xD6
06C0A:  CLRF   xD7
06C0C:  CLRF   xD8
06C0E:  CLRF   xD9
06C10:  CLRF   xFA
06C12:  CLRF   xFB
06C14:  CLRF   xFC
06C16:  MOVF   FC1,W
06C18:  ANDLW  C0
06C1A:  IORLW  0F
06C1C:  MOVWF  FC1
06C1E:  MOVLW  07
06C20:  MOVWF  FB4
06C22:  CLRF   41
06C24:  MOVLW  03
06C26:  MOVWF  42
06C28:  MOVWF  43
06C2A:  MOVLW  06
06C2C:  MOVWF  44
06C2E:  MOVLW  01
06C30:  MOVWF  45
06C32:  MOVLW  04
06C34:  MOVWF  46
06C36:  MOVLW  06
06C38:  MOVWF  47
06C3A:  MOVLW  02
06C3C:  MOVWF  48
06C3E:  MOVLW  05
06C40:  MOVWF  49
06C42:  CLRF   4A
06C44:  MOVLW  03
06C46:  MOVWF  4B
06C48:  MOVLW  05
06C4A:  MOVWF  4C
06C4C:  CLRF   4D
06C4E:  MOVLW  03
06C50:  MOVWF  4E
06C52:  MOVLW  04
06C54:  MOVWF  4F
06C56:  CLRF   50
06C58:  MOVLW  02
06C5A:  MOVWF  51
06C5C:  MOVLW  05
06C5E:  MOVWF  52
06C60:  CLRF   53
06C62:  MOVLW  03
06C64:  MOVWF  54
06C66:  MOVLW  06
06C68:  MOVWF  55
06C6A:  MOVLW  01
06C6C:  MOVWF  56
06C6E:  MOVLW  04
06C70:  MOVWF  57
06C72:  MOVLW  06
06C74:  MOVWF  58
06C76:  CLRF   59
06C78:  CLRF   5A
06C7A:  CLRF   5B
06C7C:  CLRF   5C
06C7E:  CLRF   5D
06C80:  CLRF   5E
06C82:  CLRF   5F
06C84:  MOVLB  0
06C86:  CLRF   x60
06C88:  CLRF   x61
06C8A:  CLRF   x62
06C8C:  CLRF   x63
06C8E:  CLRF   x64
06C90:  CLRF   x65
06C92:  CLRF   x66
06C94:  CLRF   x67
06C96:  CLRF   x68
06C98:  CLRF   x69
06C9A:  CLRF   x6A
06C9C:  CLRF   x6B
06C9E:  CLRF   x6C
06CA0:  CLRF   x6D
06CA2:  CLRF   x6E
06CA4:  CLRF   x6F
06CA6:  CLRF   x70
06CA8:  CLRF   x71
06CAA:  CLRF   x72
06CAC:  CLRF   x73
06CAE:  CLRF   x74
06CB0:  CLRF   x75
06CB2:  CLRF   x76
06CB4:  CLRF   x77
06CB6:  CLRF   x78
06CB8:  CLRF   x79
06CBA:  CLRF   x7A
06CBC:  CLRF   x7B
06CBE:  CLRF   x7C
06CC0:  CLRF   x7D
06CC2:  CLRF   x7E
06CC4:  CLRF   x7F
06CC6:  CLRF   x80
06CC8:  CLRF   x81
06CCA:  CLRF   x82
06CCC:  CLRF   x83
06CCE:  CLRF   x84
06CD0:  CLRF   x85
06CD2:  CLRF   x86
06CD4:  CLRF   x87
06CD6:  CLRF   x88
06CD8:  CLRF   x89
06CDA:  CLRF   x8A
06CDC:  CLRF   x8B
06CDE:  CLRF   x8C
06CE0:  CLRF   x8D
06CE2:  CLRF   x8E
06CE4:  CLRF   x8F
06CE6:  CLRF   x90
06CE8:  CLRF   x91
06CEA:  CLRF   x92
06CEC:  CLRF   x93
06CEE:  CLRF   x94
06CF0:  CLRF   x95
06CF2:  CLRF   x96
06CF4:  CLRF   x97
06CF6:  CLRF   x98
06CF8:  CLRF   x99
06CFA:  CLRF   x9A
06CFC:  CLRF   x9B
06CFE:  CLRF   x9C
06D00:  CLRF   x9D
06D02:  CLRF   x9E
06D04:  CLRF   x9F
06D06:  CLRF   xA0
06D08:  CLRF   xA1
06D0A:  CLRF   xA2
06D0C:  CLRF   xA3
06D0E:  CLRF   xA4
06D10:  CLRF   xA5
06D12:  CLRF   xA6
06D14:  CLRF   xA7
06D16:  CLRF   xA8
06D18:  CLRF   xA9
06D1A:  CLRF   xAA
06D1C:  CLRF   xAB
06D1E:  CLRF   xAC
06D20:  CLRF   xAD
06D22:  CLRF   xAE
06D24:  CLRF   xAF
06D26:  CLRF   xB0
06D28:  CLRF   xB1
06D2A:  CLRF   xB2
06D2C:  CLRF   xB3
06D2E:  CLRF   xB4
06D30:  CLRF   xB5
06D32:  CLRF   xB6
06D34:  CLRF   xB7
06D36:  CLRF   xB8
06D38:  CLRF   xB9
06D3A:  CLRF   xBA
06D3C:  CLRF   xBB
06D3E:  CLRF   xBC
06D40:  CLRF   xBD
06D42:  CLRF   xBE
06D44:  CLRF   xBF
06D46:  CLRF   xC0
06D48:  CLRF   xC1
06D4A:  CLRF   xC2
06D4C:  CLRF   xC3
06D4E:  CLRF   xC4
06D50:  CLRF   xC5
06D52:  CLRF   xC6
06D54:  CLRF   xC7
06D56:  CLRF   xC8
06D58:  CLRF   xC9
06D5A:  CLRF   xCA
06D5C:  CLRF   xCB
06D5E:  CLRF   xCC
06D60:  CLRF   xCD
06D62:  CLRF   xCE
06D64:  CLRF   xCF
06D66:  CLRF   xD0
06D68:  CLRF   xD1
06D6A:  CLRF   xD2
06D6C:  CLRF   xD3
06D6E:  CLRF   xD4
06D70:  CLRF   xD5
06D72:  CLRF   xD6
06D74:  CLRF   xD7
06D76:  CLRF   xD8
06D78:  CLRF   xD9
06D7A:  CLRF   xDA
06D7C:  CLRF   xDB
06D7E:  CLRF   xDC
06D80:  CLRF   xDD
06D82:  CLRF   xDE
06D84:  CLRF   xDF
06D86:  CLRF   xE0
06D88:  CLRF   xE1
06D8A:  CLRF   xE2
06D8C:  CLRF   xE3
06D8E:  CLRF   xE4
06D90:  CLRF   xE5
06D92:  CLRF   xE6
06D94:  CLRF   xE7
06D96:  CLRF   xE8
06D98:  CLRF   xE9
06D9A:  CLRF   xEA
06D9C:  CLRF   xEB
06D9E:  CLRF   xEC
06DA0:  CLRF   xED
06DA2:  CLRF   xEE
06DA4:  CLRF   xEF
06DA6:  CLRF   xF0
06DA8:  CLRF   xF1
06DAA:  CLRF   xF2
06DAC:  CLRF   xF3
06DAE:  CLRF   xF4
06DB0:  CLRF   xF5
06DB2:  CLRF   xF6
06DB4:  CLRF   xF7
06DB6:  CLRF   xF8
06DB8:  CLRF   xF9
06DBA:  CLRF   xFA
06DBC:  CLRF   xFB
06DBE:  CLRF   xFC
06DC0:  CLRF   xFD
06DC2:  CLRF   xFE
06DC4:  CLRF   xFF
06DC6:  MOVLB  1
06DC8:  CLRF   x00
06DCA:  CLRF   x01
06DCC:  CLRF   x02
06DCE:  CLRF   x03
06DD0:  CLRF   x04
06DD2:  CLRF   x05
06DD4:  CLRF   x06
06DD6:  CLRF   x07
06DD8:  CLRF   x08
06DDA:  CLRF   x09
06DDC:  CLRF   x0A
06DDE:  CLRF   x0B
06DE0:  CLRF   x0C
06DE2:  CLRF   x0D
06DE4:  CLRF   x0E
06DE6:  CLRF   x0F
06DE8:  CLRF   x10
06DEA:  CLRF   x11
06DEC:  CLRF   x12
06DEE:  CLRF   x13
06DF0:  CLRF   x14
06DF2:  CLRF   x15
06DF4:  CLRF   x16
06DF6:  CLRF   x17
06DF8:  CLRF   x18
06DFA:  CLRF   x19
06DFC:  CLRF   x1A
06DFE:  CLRF   x1B
06E00:  CLRF   x1C
06E02:  CLRF   x1D
06E04:  CLRF   x1E
06E06:  CLRF   x1F
06E08:  CLRF   x20
06E0A:  CLRF   x21
06E0C:  CLRF   x22
06E0E:  CLRF   x23
06E10:  CLRF   x24
06E12:  CLRF   x25
06E14:  CLRF   x26
06E16:  CLRF   x27
06E18:  CLRF   x28
06E1A:  CLRF   x29
06E1C:  CLRF   x2A
06E1E:  CLRF   x2B
06E20:  CLRF   x2C
06E22:  CLRF   x2D
06E24:  CLRF   x2E
06E26:  CLRF   x2F
06E28:  CLRF   x30
06E2A:  CLRF   x31
06E2C:  CLRF   x32
06E2E:  CLRF   x33
06E30:  CLRF   x34
06E32:  CLRF   x35
06E34:  CLRF   x36
06E36:  CLRF   x37
06E38:  CLRF   x38
06E3A:  CLRF   x39
06E3C:  CLRF   x3A
06E3E:  CLRF   x3B
06E40:  CLRF   x3C
06E42:  CLRF   x3D
06E44:  CLRF   x3E
06E46:  CLRF   x3F
06E48:  CLRF   x40
06E4A:  CLRF   x41
06E4C:  CLRF   x42
06E4E:  CLRF   x43
06E50:  CLRF   x44
06E52:  CLRF   x45
06E54:  CLRF   x46
06E56:  CLRF   x47
06E58:  CLRF   x48
06E5A:  CLRF   x49
06E5C:  CLRF   x4A
06E5E:  CLRF   x4B
06E60:  CLRF   x4C
06E62:  CLRF   x4D
06E64:  CLRF   x4E
06E66:  CLRF   x4F
06E68:  CLRF   x50
06E6A:  CLRF   x51
06E6C:  CLRF   x52
06E6E:  CLRF   x53
06E70:  CLRF   x54
06E72:  CLRF   x55
06E74:  CLRF   x56
06E76:  CLRF   x57
06E78:  CLRF   x58
06E7A:  CLRF   x59
06E7C:  CLRF   x5A
06E7E:  CLRF   x5B
06E80:  CLRF   x5C
06E82:  CLRF   x5D
06E84:  CLRF   x5E
06E86:  CLRF   x5F
06E88:  CLRF   x60
06E8A:  CLRF   x61
06E8C:  CLRF   x62
06E8E:  CLRF   x63
06E90:  CLRF   x64
06E92:  CLRF   x65
06E94:  CLRF   x66
06E96:  CLRF   x67
06E98:  CLRF   x68
06E9A:  CLRF   x69
06E9C:  CLRF   x6A
06E9E:  CLRF   x6B
06EA0:  CLRF   x6C
06EA2:  CLRF   x6D
06EA4:  CLRF   x6E
06EA6:  CLRF   x6F
06EA8:  CLRF   x70
06EAA:  CLRF   x71
06EAC:  CLRF   x72
06EAE:  CLRF   x73
06EB0:  CLRF   x74
06EB2:  CLRF   x75
06EB4:  CLRF   x76
06EB6:  CLRF   x77
06EB8:  CLRF   x78
06EBA:  CLRF   x79
06EBC:  CLRF   x7A
06EBE:  CLRF   x7B
06EC0:  CLRF   x7C
06EC2:  CLRF   x7D
06EC4:  CLRF   x7E
06EC6:  CLRF   x7F
06EC8:  CLRF   x80
06ECA:  CLRF   x81
06ECC:  CLRF   x82
06ECE:  CLRF   x83
06ED0:  CLRF   x84
06ED2:  CLRF   x85
06ED4:  CLRF   x86
06ED6:  CLRF   x87
06ED8:  CLRF   x88
06EDA:  CLRF   x89
06EDC:  CLRF   x8A
06EDE:  CLRF   x8B
06EE0:  CLRF   x8C
06EE2:  CLRF   x8D
06EE4:  CLRF   x8E
06EE6:  CLRF   x8F
06EE8:  CLRF   x90
06EEA:  CLRF   x91
06EEC:  CLRF   x92
06EEE:  CLRF   x93
06EF0:  CLRF   x94
06EF2:  CLRF   x95
06EF4:  CLRF   x96
06EF6:  CLRF   x97
06EF8:  CLRF   x98
06EFA:  CLRF   x99
06EFC:  CLRF   x9A
06EFE:  CLRF   x9B
06F00:  CLRF   x9C
06F02:  CLRF   x9D
06F04:  CLRF   x9E
06F06:  CLRF   x9F
06F08:  CLRF   xA0
06F0A:  CLRF   xA1
06F0C:  CLRF   xA2
06F0E:  CLRF   xA3
06F10:  CLRF   xA4
06F12:  CLRF   xA5
06F14:  CLRF   xA6
06F16:  CLRF   xA7
06F18:  CLRF   xA8
06F1A:  CLRF   xA9
06F1C:  CLRF   xAA
06F1E:  CLRF   xAB
06F20:  CLRF   xAC
06F22:  CLRF   xAD
06F24:  CLRF   xAE
06F26:  CLRF   xAF
06F28:  CLRF   xB0
06F2A:  CLRF   xB1
06F2C:  CLRF   xB2
06F2E:  CLRF   xB3
06F30:  CLRF   xB4
06F32:  CLRF   xB5
06F34:  CLRF   xB6
06F36:  CLRF   xB7
06F38:  CLRF   xB8
06F3A:  CLRF   xB9
06F3C:  CLRF   xBA
06F3E:  CLRF   xBB
06F40:  CLRF   xBC
06F42:  CLRF   xBD
06F44:  CLRF   xBE
06F46:  CLRF   xBF
06F48:  CLRF   xC0
06F4A:  CLRF   xC1
06F4C:  CLRF   xC2
06F4E:  CLRF   xC3
06F50:  CLRF   xC4
06F52:  CLRF   xC5
06F54:  CLRF   xC6
06F56:  CLRF   xC7
06F58:  CLRF   xC8
06F5A:  MOVLB  2
06F5C:  CLRF   x2C
06F5E:  CLRF   x2D
06F60:  CLRF   x2E
06F62:  CLRF   x2F
....................    ApagaSalidas(); 
06F64:  MOVLB  0
06F66:  CALL   10CE
....................    enable_interrupts(int_rda); 
06F6A:  BSF    F9D.5
....................    enable_interrupts(global); 
06F6C:  MOVLW  C0
06F6E:  IORWF  FF2,F
....................    //delay_ms(1000);    
....................    ConfiguraInterrupciones(); 
06F70:  GOTO   10EC
....................    LeeEEPROM(); 
06F74:  GOTO   173A
....................    LimitaValores(); 
06F78:  GOTO   2500
....................    rtc_init(); 
06F7C:  GOTO   2C94
....................    delay_ms(1); 
06F80:  MOVLW  01
06F82:  MOVLB  6
06F84:  MOVWF  xFA
06F86:  MOVLB  0
06F88:  CALL   1148
....................    Buzzer_on; 
06F8C:  BSF    F8C.7
06F8E:  BCF    F95.7
....................    delay_ms(500); 
06F90:  MOVLW  02
06F92:  MOVLB  6
06F94:  MOVWF  xF1
06F96:  MOVLW  FA
06F98:  MOVWF  xFA
06F9A:  MOVLB  0
06F9C:  CALL   1148
06FA0:  MOVLB  6
06FA2:  DECFSZ xF1,F
06FA4:  BRA    6F96
....................    Buzzer_off; 
06FA6:  BCF    F8C.7
06FA8:  BCF    F95.7
....................    printf("page Bienvenida"); 
06FAA:  MOVLW  00
06FAC:  MOVWF  FF6
06FAE:  MOVLW  04
06FB0:  MOVWF  FF7
06FB2:  MOVLW  00
06FB4:  MOVWF  FF8
06FB6:  MOVLB  0
06FB8:  CALL   2CE6
....................    SendDataDisplay(); 
06FBC:  CALL   2D18
....................    printf("bkcmd=0"); 
06FC0:  MOVLW  10
06FC2:  MOVWF  FF6
06FC4:  MOVLW  04
06FC6:  MOVWF  FF7
06FC8:  MOVLW  00
06FCA:  MOVWF  FF8
06FCC:  CALL   2CE6
....................    SendDataDisplay(); 
06FD0:  CALL   2D18
....................    delay_ms(3500);  
06FD4:  MOVLW  0E
06FD6:  MOVLB  6
06FD8:  MOVWF  xF1
06FDA:  MOVLW  FA
06FDC:  MOVWF  xFA
06FDE:  MOVLB  0
06FE0:  CALL   1148
06FE4:  MOVLB  6
06FE6:  DECFSZ xF1,F
06FE8:  BRA    6FDA
....................    printf("page Clave"); 
06FEA:  MOVLW  18
06FEC:  MOVWF  FF6
06FEE:  MOVLW  04
06FF0:  MOVWF  FF7
06FF2:  MOVLW  00
06FF4:  MOVWF  FF8
06FF6:  MOVLB  0
06FF8:  CALL   2CE6
....................    SendDataDisplay(); 
06FFC:  CALL   2D18
....................    output_bit(PIN_A2,0); 
07000:  BCF    F89.2
07002:  BCF    F92.2
....................    output_bit(PIN_A3,0); 
07004:  BCF    F89.3
07006:  BCF    F92.3
....................    output_bit(PIN_A5,0); 
07008:  BCF    F89.5
0700A:  BCF    F92.5
....................    output_bit(PIN_E0,0); 
0700C:  BCF    F8D.0
0700E:  BCF    F96.0
....................    //output_bit(PIN_C5,0); 
....................    //output_bit(PIN_D1,0); 
....................    output_bit(PIN_D0,0); 
07010:  BCF    F8C.0
07012:  BCF    F95.0
....................    output_bit(PIN_C2,0); 
07014:  BCF    F8B.2
07016:  BCF    F94.2
....................    output_bit(PIN_C1,0); 
07018:  BCF    F8B.1
0701A:  BCF    F94.1
....................    output_bit(PIN_C0,0); 
0701C:  BCF    F8B.0
0701E:  BCF    F94.0
....................        
....................    if(Setpoint<Temperatura){ 
07020:  MOVFF  273,6F8
07024:  MOVFF  272,6F7
07028:  MOVFF  271,6F6
0702C:  MOVFF  270,6F5
07030:  MOVFF  26B,6FC
07034:  MOVFF  26A,6FB
07038:  MOVFF  269,6FA
0703C:  MOVFF  268,6F9
07040:  CALL   16C0
07044:  BNC   70A8
....................       Enfria=1; 
07046:  MOVLW  01
07048:  MOVLB  1
0704A:  MOVWF  xD5
....................       Ganancia=GananciaR*(Setpoint/200); 
0704C:  MOVFF  273,6FE
07050:  MOVFF  272,6FD
07054:  MOVFF  271,6FC
07058:  MOVFF  270,6FB
0705C:  MOVLB  7
0705E:  CLRF   x02
07060:  CLRF   x01
07062:  MOVLW  48
07064:  MOVWF  x00
07066:  MOVLW  86
07068:  MOVLB  6
0706A:  MOVWF  xFF
0706C:  MOVLB  0
0706E:  CALL   1170
07072:  MOVFF  253,710
07076:  MOVFF  252,70F
0707A:  MOVFF  251,70E
0707E:  MOVFF  250,70D
07082:  MOVFF  03,714
07086:  MOVFF  02,713
0708A:  MOVFF  01,712
0708E:  MOVFF  00,711
07092:  CALL   15CA
07096:  MOVFF  03,24F
0709A:  MOVFF  02,24E
0709E:  MOVFF  01,24D
070A2:  MOVFF  00,24C
....................       //Ganancia=4; 
....................    }else{ 
070A6:  BRA    713E
....................       Enfria=0; 
070A8:  MOVLB  1
070AA:  CLRF   xD5
....................       Ganancia=GananciaR*(Setpoint/200); 
070AC:  MOVFF  273,6FE
070B0:  MOVFF  272,6FD
070B4:  MOVFF  271,6FC
070B8:  MOVFF  270,6FB
070BC:  MOVLB  7
070BE:  CLRF   x02
070C0:  CLRF   x01
070C2:  MOVLW  48
070C4:  MOVWF  x00
070C6:  MOVLW  86
070C8:  MOVLB  6
070CA:  MOVWF  xFF
070CC:  MOVLB  0
070CE:  CALL   1170
070D2:  MOVFF  253,710
070D6:  MOVFF  252,70F
070DA:  MOVFF  251,70E
070DE:  MOVFF  250,70D
070E2:  MOVFF  03,714
070E6:  MOVFF  02,713
070EA:  MOVFF  01,712
070EE:  MOVFF  00,711
070F2:  CALL   15CA
070F6:  MOVFF  03,24F
070FA:  MOVFF  02,24E
070FE:  MOVFF  01,24D
07102:  MOVFF  00,24C
....................       Gananciamax=(0.21)*Setpoint; 
07106:  MOVLW  3D
07108:  MOVLB  7
0710A:  MOVWF  x10
0710C:  MOVLW  0A
0710E:  MOVWF  x0F
07110:  MOVLW  57
07112:  MOVWF  x0E
07114:  MOVLW  7C
07116:  MOVWF  x0D
07118:  MOVFF  273,714
0711C:  MOVFF  272,713
07120:  MOVFF  271,712
07124:  MOVFF  270,711
07128:  MOVLB  0
0712A:  CALL   15CA
0712E:  MOVFF  03,22B
07132:  MOVFF  02,22A
07136:  MOVFF  01,229
0713A:  MOVFF  00,228
....................    }    
....................     
....................    if(SetpointH<Humedad){ 
0713E:  MOVFF  27B,6F8
07142:  MOVFF  27A,6F7
07146:  MOVFF  279,6F6
0714A:  MOVFF  278,6F5
0714E:  MOVFF  263,6FC
07152:  MOVFF  262,6FB
07156:  MOVFF  261,6FA
0715A:  MOVFF  260,6F9
0715E:  CALL   16C0
07162:  BNC   716C
....................       Humidificar=1;             
07164:  MOVLB  1
07166:  BSF    xCC.0
....................    }else{ 
07168:  BRA    7170
0716A:  MOVLB  0
....................       Humidificar=0; 
0716C:  MOVLB  1
0716E:  BCF    xCC.0
....................    }    
....................     
....................    if((mEstp==0)&&(hEstp==0)) 
07170:  MOVFF  1E6,6F8
07174:  MOVFF  1E5,6F7
07178:  MOVFF  1E4,6F6
0717C:  MOVFF  1E3,6F5
07180:  MOVLB  6
07182:  CLRF   xFC
07184:  CLRF   xFB
07186:  CLRF   xFA
07188:  CLRF   xF9
0718A:  MOVLB  0
0718C:  CALL   16C0
07190:  BNZ   71BA
07192:  MOVFF  1EA,6F8
07196:  MOVFF  1E9,6F7
0719A:  MOVFF  1E8,6F6
0719E:  MOVFF  1E7,6F5
071A2:  MOVLB  6
071A4:  CLRF   xFC
071A6:  CLRF   xFB
071A8:  CLRF   xFA
071AA:  CLRF   xF9
071AC:  MOVLB  0
071AE:  CALL   16C0
071B2:  BNZ   71BA
....................       Infinito=1; 
071B4:  MOVLB  1
071B6:  BSF    xCA.3
....................    else 
071B8:  BRA    71BE
....................       Infinito=0; 
071BA:  MOVLB  1
071BC:  BCF    xCA.3
....................     
....................    for(i=0;i<20;i++){ 
071BE:  CLRF   xFF
071C0:  MOVF   xFF,W
071C2:  SUBLW  13
071C4:  BNC   72A2
....................       if(rampas[i].Horas==0 && rampas[i].Minutos==0){ 
071C6:  MOVLB  6
071C8:  CLRF   xFA
071CA:  MOVFF  1FF,6F9
071CE:  CLRF   xFC
071D0:  MOVLW  0F
071D2:  MOVWF  xFB
071D4:  MOVLB  0
071D6:  CALL   1566
071DA:  MOVFF  01,6F1
071DE:  MOVLW  03
071E0:  MOVLB  6
071E2:  ADDWF  01,W
071E4:  MOVWF  01
071E6:  MOVLW  00
071E8:  ADDWFC 02,W
071EA:  MOVWF  03
071EC:  MOVF   01,W
071EE:  ADDLW  C5
071F0:  MOVWF  FE9
071F2:  MOVLW  05
071F4:  ADDWFC 03,W
071F6:  MOVWF  FEA
071F8:  MOVFF  FEF,6F1
071FC:  MOVFF  FEC,6F2
07200:  MOVFF  FEC,6F3
07204:  MOVFF  FEC,6F4
07208:  MOVFF  6F4,6F8
0720C:  MOVFF  6F3,6F7
07210:  MOVFF  6F2,6F6
07214:  MOVFF  6F1,6F5
07218:  CLRF   xFC
0721A:  CLRF   xFB
0721C:  CLRF   xFA
0721E:  CLRF   xF9
07220:  MOVLB  0
07222:  CALL   16C0
07226:  BNZ   7296
07228:  MOVLB  6
0722A:  CLRF   xFA
0722C:  MOVFF  1FF,6F9
07230:  CLRF   xFC
07232:  MOVLW  0F
07234:  MOVWF  xFB
07236:  MOVLB  0
07238:  CALL   1566
0723C:  MOVFF  01,6F1
07240:  MOVLW  07
07242:  MOVLB  6
07244:  ADDWF  01,W
07246:  MOVWF  01
07248:  MOVLW  00
0724A:  ADDWFC 02,W
0724C:  MOVWF  03
0724E:  MOVF   01,W
07250:  ADDLW  C5
07252:  MOVWF  FE9
07254:  MOVLW  05
07256:  ADDWFC 03,W
07258:  MOVWF  FEA
0725A:  MOVFF  FEF,6F1
0725E:  MOVFF  FEC,6F2
07262:  MOVFF  FEC,6F3
07266:  MOVFF  FEC,6F4
0726A:  MOVFF  6F4,6F8
0726E:  MOVFF  6F3,6F7
07272:  MOVFF  6F2,6F6
07276:  MOVFF  6F1,6F5
0727A:  CLRF   xFC
0727C:  CLRF   xFB
0727E:  CLRF   xFA
07280:  CLRF   xF9
07282:  MOVLB  0
07284:  CALL   16C0
07288:  BNZ   7296
....................          Segmentos=i;   
0728A:  MOVFF  1FF,1E0
....................          break; 
0728E:  MOVLB  1
07290:  BRA    72A2
....................       }else{ 
07292:  BRA    729E
07294:  MOVLB  0
....................          Segmentos=i+1;   
07296:  MOVLW  01
07298:  MOVLB  1
0729A:  ADDWF  xFF,W
0729C:  MOVWF  xE0
....................       } 
....................    } 
0729E:  INCF   xFF,F
072A0:  BRA    71C0
....................    Sensor[0].Gain=105.22; 
072A2:  MOVLW  A4
072A4:  MOVLB  4
072A6:  MOVWF  x60
072A8:  MOVLW  70
072AA:  MOVWF  x5F
072AC:  MOVLW  52
072AE:  MOVWF  x5E
072B0:  MOVLW  85
072B2:  MOVWF  x5D
....................    Sensor[1].Gain=105.22; 
072B4:  MOVLW  A4
072B6:  MOVLB  5
072B8:  MOVWF  xC4
072BA:  MOVLW  70
072BC:  MOVWF  xC3
072BE:  MOVLW  52
072C0:  MOVWF  xC2
072C2:  MOVLW  85
072C4:  MOVWF  xC1
....................    Vfijotmp=(VCC*Rfijo)/(6800+Rfijo); 
072C6:  MOVLW  80
072C8:  MOVLB  2
072CA:  MOVWF  xB3
072CC:  MOVLW  2F
072CE:  MOVWF  xB2
072D0:  MOVLW  53
072D2:  MOVWF  xB1
072D4:  MOVLW  7A
072D6:  MOVWF  xB0
....................    Vfijo=(Vfijotmp/VCC)*Vdiv; 
072D8:  MOVFF  2B3,6FE
072DC:  MOVFF  2B2,6FD
072E0:  MOVFF  2B1,6FC
072E4:  MOVFF  2B0,6FB
072E8:  MOVLW  2D
072EA:  MOVLB  7
072EC:  MOVWF  x02
072EE:  MOVLW  B2
072F0:  MOVWF  x01
072F2:  MOVLW  21
072F4:  MOVWF  x00
072F6:  MOVLW  81
072F8:  MOVLB  6
072FA:  MOVWF  xFF
072FC:  MOVLB  0
072FE:  CALL   1170
07302:  MOVFF  00,6F1
07306:  MOVFF  01,6F2
0730A:  MOVFF  02,6F3
0730E:  MOVFF  03,6F4
07312:  MOVFF  03,710
07316:  MOVFF  02,70F
0731A:  MOVFF  01,70E
0731E:  MOVFF  00,70D
07322:  MOVLB  7
07324:  CLRF   x14
07326:  MOVLW  C0
07328:  MOVWF  x13
0732A:  MOVLW  7F
0732C:  MOVWF  x12
0732E:  MOVLW  88
07330:  MOVWF  x11
07332:  MOVLB  0
07334:  CALL   15CA
07338:  MOVFF  03,2AF
0733C:  MOVFF  02,2AE
07340:  MOVFF  01,2AD
07344:  MOVFF  00,2AC
....................    for(i=0;i<80;i++){ 
07348:  MOVLB  1
0734A:  CLRF   xFF
0734C:  MOVF   xFF,W
0734E:  SUBLW  4F
07350:  BNC   7396
....................       Temperatura=LeerPT100(0,MediaMovil); 
07352:  MOVLB  6
07354:  CLRF   xF1
07356:  MOVFF  1D1,6F2
0735A:  MOVLB  0
0735C:  CALL   2DA6
07360:  MOVFF  03,26B
07364:  MOVFF  02,26A
07368:  MOVFF  01,269
0736C:  MOVFF  00,268
....................       TemperaturaEvaporador=LeerPT100(1,MediaMovil); 
07370:  MOVLW  01
07372:  MOVLB  6
07374:  MOVWF  xF1
07376:  MOVFF  1D1,6F2
0737A:  MOVLB  0
0737C:  CALL   2DA6
07380:  MOVFF  03,27F
07384:  MOVFF  02,27E
07388:  MOVFF  01,27D
0738C:  MOVFF  00,27C
....................    } 
07390:  MOVLB  1
07392:  INCF   xFF,F
07394:  BRA    734C
....................     
....................    while(true) 
....................    { 
....................       if(TemperaturaEvaporador<=-1.0){ // Si el evaporador esta congelando 
07396:  MOVFF  27F,6F8
0739A:  MOVFF  27E,6F7
0739E:  MOVFF  27D,6F6
073A2:  MOVFF  27C,6F5
073A6:  MOVLB  6
073A8:  CLRF   xFC
073AA:  CLRF   xFB
073AC:  MOVLW  80
073AE:  MOVWF  xFA
073B0:  MOVLW  7F
073B2:  MOVWF  xF9
073B4:  MOVLB  0
073B6:  CALL   16C0
073BA:  BC    73BE
073BC:  BNZ   73C6
....................          flagTDefrost=ON; // Activa conteo de tiempo de congelamiento 
073BE:  MOVLB  1
073C0:  BSF    xCB.1
....................       }else{ 
073C2:  BRA    73CA
073C4:  MOVLB  0
....................          flagTDefrost=OFF; // Desactiva conteo de tiempo de congelamiento 
073C6:  MOVLB  1
073C8:  BCF    xCB.1
....................       } 
....................       Envio_Esclavos(); 
073CA:  MOVLB  0
073CC:  GOTO   387A
....................       rtc_get_date(Dia,Mes,Year,dow); 
....................       rtc_get_time(Hora,Minuto,Segundo); 
....................       LeeDisplay(); 
*
07494:  GOTO   3938
....................       restart_wdt(); 
07498:  CLRWDT
....................  
....................       if(Lectura2==1){ 
0749A:  MOVLB  1
0749C:  DECFSZ xD4,W
0749E:  BRA    74E2
....................          Temperatura=LeerPT100(0,MediaMovil); 
074A0:  MOVLB  6
074A2:  CLRF   xF1
074A4:  MOVFF  1D1,6F2
074A8:  MOVLB  0
074AA:  CALL   2DA6
074AE:  MOVFF  03,26B
074B2:  MOVFF  02,26A
074B6:  MOVFF  01,269
074BA:  MOVFF  00,268
....................          TemperaturaEvaporador=LeerPT100(1,MediaMovil); 
074BE:  MOVLW  01
074C0:  MOVLB  6
074C2:  MOVWF  xF1
074C4:  MOVFF  1D1,6F2
074C8:  MOVLB  0
074CA:  CALL   2DA6
074CE:  MOVFF  03,27F
074D2:  MOVFF  02,27E
074D6:  MOVFF  01,27D
074DA:  MOVFF  00,27C
....................          Lectura2=0; 
074DE:  MOVLB  1
074E0:  CLRF   xD4
....................       } 
....................     
.................... //_-------------------------------------------------------------------------------------------------------------------------------------------------------- 
....................    if(Menu==240){ //Menu de Bienvenida. 
074E2:  MOVF   xFE,W
074E4:  SUBLW  F0
074E6:  BNZ   7530
....................       printf("bkcmd=0"); 
074E8:  MOVLW  24
074EA:  MOVWF  FF6
074EC:  MOVLW  04
074EE:  MOVWF  FF7
074F0:  MOVLW  00
074F2:  MOVWF  FF8
074F4:  MOVLB  0
074F6:  CALL   2CE6
....................       SendDataDisplay(); 
074FA:  CALL   2D18
....................       delay_ms(1500); 
074FE:  MOVLW  06
07500:  MOVLB  6
07502:  MOVWF  xF1
07504:  MOVLW  FA
07506:  MOVWF  xFA
07508:  MOVLB  0
0750A:  CALL   1148
0750E:  MOVLB  6
07510:  DECFSZ xF1,F
07512:  BRA    7504
....................       printf("page Clave"); 
07514:  MOVLW  2C
07516:  MOVWF  FF6
07518:  MOVLW  04
0751A:  MOVWF  FF7
0751C:  MOVLW  00
0751E:  MOVWF  FF8
07520:  MOVLB  0
07522:  CALL   2CE6
....................       SendDataDisplay(); 
07526:  CALL   2D18
....................       ApagaSalidas(); 
0752A:  CALL   10CE
0752E:  MOVLB  1
....................    } 
.................... //_-------------------------------------------------------------------------------------------------------------------------------------------------------- 
....................  
.................... //_-------------------------------------------------------------------------------------------------------------------------------------------------------- 
....................     if(Menu==0){ //Menu de Contrasea de acceso. 
07530:  MOVF   xFE,F
07532:  BTFSS  FD8.2
07534:  BRA    7A5A
....................       //ApagaSalidas(); 
....................       entro=OFF; 
07536:  BCF    xC9.1
....................        
....................       if(RX_Buffer[4]==0x11){//11 
07538:  MOVF   2E,W
0753A:  SUBLW  11
0753C:  BNZ   755A
....................          if(TipoClave!=0){ 
0753E:  MOVF   xDD,F
07540:  BZ    755A
....................             printf("page Principal"); 
07542:  MOVLW  38
07544:  MOVWF  FF6
07546:  MOVLW  04
07548:  MOVWF  FF7
0754A:  MOVLW  00
0754C:  MOVWF  FF8
0754E:  MOVLB  0
07550:  CALL   2CE6
....................             SendDataDisplay(); 
07554:  CALL   2D18
07558:  MOVLB  1
....................          } 
....................       } 
....................        
....................       if(TipoClave==3){ 
0755A:  MOVF   xDD,W
0755C:  SUBLW  03
0755E:  BNZ   758E
....................          printf("titulo.txt=\"Clave Nueva\""); 
07560:  MOVLW  48
07562:  MOVWF  FF6
07564:  MOVLW  04
07566:  MOVWF  FF7
07568:  MOVLW  00
0756A:  MOVWF  FF8
0756C:  MOVLB  0
0756E:  CALL   2CE6
....................          SendDataDisplay(); 
07572:  CALL   2D18
....................          printf("doevents"); 
07576:  MOVLW  62
07578:  MOVWF  FF6
0757A:  MOVLW  04
0757C:  MOVWF  FF7
0757E:  MOVLW  00
07580:  MOVWF  FF8
07582:  CALL   2CE6
....................          SendDataDisplay(); 
07586:  CALL   2D18
....................       }else if(TipoClave==2){ 
0758A:  BRA    7616
0758C:  MOVLB  1
0758E:  MOVF   xDD,W
07590:  SUBLW  02
07592:  BNZ   75C2
....................          printf("titulo.txt=\"Clave Actual\""); 
07594:  MOVLW  6C
07596:  MOVWF  FF6
07598:  MOVLW  04
0759A:  MOVWF  FF7
0759C:  MOVLW  00
0759E:  MOVWF  FF8
075A0:  MOVLB  0
075A2:  CALL   2CE6
....................          SendDataDisplay(); 
075A6:  CALL   2D18
....................          printf("doevents"); 
075AA:  MOVLW  86
075AC:  MOVWF  FF6
075AE:  MOVLW  04
075B0:  MOVWF  FF7
075B2:  MOVLW  00
075B4:  MOVWF  FF8
075B6:  CALL   2CE6
....................          SendDataDisplay(); 
075BA:  CALL   2D18
....................       }else if(TipoClave==1 || TipoClave==4){ 
075BE:  BRA    7616
075C0:  MOVLB  1
075C2:  DECFSZ xDD,W
075C4:  BRA    75C8
075C6:  BRA    75CE
075C8:  MOVF   xDD,W
075CA:  SUBLW  04
075CC:  BNZ   75FC
....................          printf("titulo.txt=\"Clave Tecnico\""); 
075CE:  MOVLW  90
075D0:  MOVWF  FF6
075D2:  MOVLW  04
075D4:  MOVWF  FF7
075D6:  MOVLW  00
075D8:  MOVWF  FF8
075DA:  MOVLB  0
075DC:  CALL   2CE6
....................          SendDataDisplay(); 
075E0:  CALL   2D18
....................          printf("doevents"); 
075E4:  MOVLW  AC
075E6:  MOVWF  FF6
075E8:  MOVLW  04
075EA:  MOVWF  FF7
075EC:  MOVLW  00
075EE:  MOVWF  FF8
075F0:  CALL   2CE6
....................          SendDataDisplay(); 
075F4:  CALL   2D18
....................       }else if(TipoClave==0){ 
075F8:  BRA    7616
075FA:  MOVLB  1
075FC:  MOVF   xDD,F
075FE:  BNZ   7618
....................          printf("titulo.txt=\"Ingrese Clave\""); 
07600:  MOVLW  B6
07602:  MOVWF  FF6
07604:  MOVLW  04
07606:  MOVWF  FF7
07608:  MOVLW  00
0760A:  MOVWF  FF8
0760C:  MOVLB  0
0760E:  CALL   2CE6
....................          SendDataDisplay(); 
07612:  CALL   2D18
07616:  MOVLB  1
....................       } 
....................        
....................       if(RX_Buffer[3]==0x0f){//0f, recibe caracteres ingresados desde el Display 
07618:  MOVF   2D,W
0761A:  SUBLW  0F
0761C:  BTFSS  FD8.2
0761E:  BRA    7A5A
....................          if(TipoClave==0){ 
07620:  MOVF   xDD,F
07622:  BTFSS  FD8.2
07624:  BRA    77AC
....................             if(RX_Buffer[4]==0x33&&RX_Buffer[5]==0x38&&RX_Buffer[6]==0x39&&RX_Buffer[7]==0x32){ // Si Ingresa clave para reset general del sistema. 
07626:  MOVF   2E,W
07628:  SUBLW  33
0762A:  BTFSS  FD8.2
0762C:  BRA    7726
0762E:  MOVF   2F,W
07630:  SUBLW  38
07632:  BTFSS  FD8.2
07634:  BRA    7726
07636:  MOVF   30,W
07638:  SUBLW  39
0763A:  BNZ   7726
0763C:  MOVF   31,W
0763E:  SUBLW  32
07640:  BNZ   7726
....................                write_eeprom(10,0);delay_ms(20);write_eeprom(11,0);delay_ms(20);// Reestablece a contrasea de Fabrica y reinicia Programa. 
07642:  CLRF   FAA
07644:  MOVLW  0A
07646:  MOVWF  FA9
07648:  CLRF   FA8
0764A:  BCF    FA6.6
0764C:  BCF    FA6.7
0764E:  BSF    FA6.2
07650:  MOVF   FF2,W
07652:  MOVWF  00
07654:  BCF    FF2.6
07656:  BCF    FF2.7
07658:  MOVLB  F
0765A:  MOVLW  55
0765C:  MOVWF  FA7
0765E:  MOVLW  AA
07660:  MOVWF  FA7
07662:  BSF    FA6.1
07664:  BTFSC  FA6.1
07666:  BRA    7664
07668:  BCF    FA6.2
0766A:  MOVF   00,W
0766C:  IORWF  FF2,F
0766E:  MOVLW  14
07670:  MOVLB  6
07672:  MOVWF  xFA
07674:  MOVLB  0
07676:  CALL   1148
0767A:  CLRF   FAA
0767C:  MOVLW  0B
0767E:  MOVWF  FA9
07680:  CLRF   FA8
07682:  BCF    FA6.6
07684:  BCF    FA6.7
07686:  BSF    FA6.2
07688:  MOVF   FF2,W
0768A:  MOVWF  00
0768C:  BCF    FF2.6
0768E:  BCF    FF2.7
07690:  MOVLB  F
07692:  MOVLW  55
07694:  MOVWF  FA7
07696:  MOVLW  AA
07698:  MOVWF  FA7
0769A:  BSF    FA6.1
0769C:  BTFSC  FA6.1
0769E:  BRA    769C
076A0:  BCF    FA6.2
076A2:  MOVF   00,W
076A4:  IORWF  FF2,F
076A6:  MOVLW  14
076A8:  MOVLB  6
076AA:  MOVWF  xFA
076AC:  MOVLB  0
076AE:  CALL   1148
....................                write_eeprom(12,0);delay_ms(20);write_eeprom(13,0);delay_ms(20); 
076B2:  CLRF   FAA
076B4:  MOVLW  0C
076B6:  MOVWF  FA9
076B8:  CLRF   FA8
076BA:  BCF    FA6.6
076BC:  BCF    FA6.7
076BE:  BSF    FA6.2
076C0:  MOVF   FF2,W
076C2:  MOVWF  00
076C4:  BCF    FF2.6
076C6:  BCF    FF2.7
076C8:  MOVLB  F
076CA:  MOVLW  55
076CC:  MOVWF  FA7
076CE:  MOVLW  AA
076D0:  MOVWF  FA7
076D2:  BSF    FA6.1
076D4:  BTFSC  FA6.1
076D6:  BRA    76D4
076D8:  BCF    FA6.2
076DA:  MOVF   00,W
076DC:  IORWF  FF2,F
076DE:  MOVLW  14
076E0:  MOVLB  6
076E2:  MOVWF  xFA
076E4:  MOVLB  0
076E6:  CALL   1148
076EA:  CLRF   FAA
076EC:  MOVLW  0D
076EE:  MOVWF  FA9
076F0:  CLRF   FA8
076F2:  BCF    FA6.6
076F4:  BCF    FA6.7
076F6:  BSF    FA6.2
076F8:  MOVF   FF2,W
076FA:  MOVWF  00
076FC:  BCF    FF2.6
076FE:  BCF    FF2.7
07700:  MOVLB  F
07702:  MOVLW  55
07704:  MOVWF  FA7
07706:  MOVLW  AA
07708:  MOVWF  FA7
0770A:  BSF    FA6.1
0770C:  BTFSC  FA6.1
0770E:  BRA    770C
07710:  BCF    FA6.2
07712:  MOVF   00,W
07714:  IORWF  FF2,F
07716:  MOVLW  14
07718:  MOVLB  6
0771A:  MOVWF  xFA
0771C:  MOVLB  0
0771E:  CALL   1148
....................                reset_cpu(); 
07722:  RESET
07724:  MOVLB  1
....................             } 
....................             if(RX_Buffer[4]>=0x30 && RX_Buffer[5]>=0x30 && RX_Buffer[6]>=0x30 && RX_Buffer[7]>=0x30 
....................             && RX_Buffer[4]<=0x39 && RX_Buffer[5]<=0x39 && RX_Buffer[6]<=0x39 && RX_Buffer[7]<=0x39){ 
07726:  MOVF   2E,W
07728:  SUBLW  2F
0772A:  BC    77AA
0772C:  MOVF   2F,W
0772E:  SUBLW  2F
07730:  BC    77AA
07732:  MOVF   30,W
07734:  SUBLW  2F
07736:  BC    77AA
07738:  MOVF   31,W
0773A:  SUBLW  2F
0773C:  BC    77AA
0773E:  MOVF   2E,W
07740:  SUBLW  39
07742:  BNC   77AA
07744:  MOVF   2F,W
07746:  SUBLW  39
07748:  BNC   77AA
0774A:  MOVF   30,W
0774C:  SUBLW  39
0774E:  BNC   77AA
07750:  MOVF   31,W
07752:  SUBLW  39
07754:  BNC   77AA
....................             if((RX_Buffer[4]==Password[0]+0x30)&&(RX_Buffer[5]==Password[1]+0x30)&&(RX_Buffer[6]==Password[2]+0x30)&&(RX_Buffer[7]==Password[3]+0x30)){ 
07756:  MOVLW  30
07758:  MOVLB  2
0775A:  ADDWF  x2C,W
0775C:  SUBWF  2E,W
0775E:  BNZ   7792
07760:  MOVLW  30
07762:  ADDWF  x2D,W
07764:  SUBWF  2F,W
07766:  BNZ   7792
07768:  MOVLW  30
0776A:  ADDWF  x2E,W
0776C:  SUBWF  30,W
0776E:  BNZ   7792
07770:  MOVLW  30
07772:  ADDWF  x2F,W
07774:  SUBWF  31,W
07776:  BNZ   7792
....................                   printf("page ClaveCorrecta"); 
07778:  MOVLW  D2
0777A:  MOVWF  FF6
0777C:  MOVLW  04
0777E:  MOVWF  FF7
07780:  MOVLW  00
07782:  MOVWF  FF8
07784:  MOVLB  0
07786:  CALL   2CE6
....................                   SendDataDisplay(); 
0778A:  CALL   2D18
....................                   //RX_Buffer[3]=0x00;RX_Buffer2[3]=0x00;   
....................                }else{ 
0778E:  BRA    77A8
07790:  MOVLB  2
....................                   printf("page ClaveBad"); 
07792:  MOVLW  E6
07794:  MOVWF  FF6
07796:  MOVLW  04
07798:  MOVWF  FF7
0779A:  MOVLW  00
0779C:  MOVWF  FF8
0779E:  MOVLB  0
077A0:  CALL   2CE6
....................                   SendDataDisplay(); 
077A4:  CALL   2D18
077A8:  MOVLB  1
....................                   //RX_Buffer[3]=0x00;RX_Buffer2[3]=0x00;   
....................                }  
....................             } 
....................          }else if(TipoClave==1){ 
077AA:  BRA    7A56
077AC:  DECFSZ xDD,W
077AE:  BRA    77FC
....................             if(RX_Buffer[4]==0x34&&RX_Buffer[5]==0x34&&RX_Buffer[6]==0x34&&RX_Buffer[7]==0x34){ // Si Ingresa clave de Servicio Tecnico 
077B0:  MOVF   2E,W
077B2:  SUBLW  34
077B4:  BNZ   77E2
077B6:  MOVF   2F,W
077B8:  SUBLW  34
077BA:  BNZ   77E2
077BC:  MOVF   30,W
077BE:  SUBLW  34
077C0:  BNZ   77E2
077C2:  MOVF   31,W
077C4:  SUBLW  34
077C6:  BNZ   77E2
....................                printf("page Config"); 
077C8:  MOVLW  F4
077CA:  MOVWF  FF6
077CC:  MOVLW  04
077CE:  MOVWF  FF7
077D0:  MOVLW  00
077D2:  MOVWF  FF8
077D4:  MOVLB  0
077D6:  CALL   2CE6
....................                SendDataDisplay(); 
077DA:  CALL   2D18
....................             }else{ 
077DE:  BRA    77F8
077E0:  MOVLB  1
....................                printf("page Principal"); 
077E2:  MOVLW  00
077E4:  MOVWF  FF6
077E6:  MOVLW  05
077E8:  MOVWF  FF7
077EA:  MOVLW  00
077EC:  MOVWF  FF8
077EE:  MOVLB  0
077F0:  CALL   2CE6
....................                SendDataDisplay(); 
077F4:  CALL   2D18
....................             } 
....................          }else if(TipoClave==2){ 
077F8:  BRA    7A56
077FA:  MOVLB  1
077FC:  MOVF   xDD,W
077FE:  SUBLW  02
07800:  BNZ   78A6
....................             if(RX_Buffer[4]>=0x30 && RX_Buffer[5]>=0x30 && RX_Buffer[6]>=0x30 && RX_Buffer[7]>=0x30 
....................             && RX_Buffer[4]<=0x39 && RX_Buffer[5]<=0x39 && RX_Buffer[6]<=0x39 && RX_Buffer[7]<=0x39){ 
07802:  MOVF   2E,W
07804:  SUBLW  2F
07806:  BC    78A4
07808:  MOVF   2F,W
0780A:  SUBLW  2F
0780C:  BC    78A4
0780E:  MOVF   30,W
07810:  SUBLW  2F
07812:  BC    78A4
07814:  MOVF   31,W
07816:  SUBLW  2F
07818:  BC    78A4
0781A:  MOVF   2E,W
0781C:  SUBLW  39
0781E:  BNC   78A4
07820:  MOVF   2F,W
07822:  SUBLW  39
07824:  BNC   78A4
07826:  MOVF   30,W
07828:  SUBLW  39
0782A:  BNC   78A4
0782C:  MOVF   31,W
0782E:  SUBLW  39
07830:  BNC   78A4
....................             if((RX_Buffer[4]==Password[0]+0x30)&&(RX_Buffer[5]==Password[1]+0x30)&&(RX_Buffer[6]==Password[2]+0x30)&&(RX_Buffer[7]==Password[3]+0x30)){ 
07832:  MOVLW  30
07834:  MOVLB  2
07836:  ADDWF  x2C,W
07838:  SUBWF  2E,W
0783A:  BNZ   788C
0783C:  MOVLW  30
0783E:  ADDWF  x2D,W
07840:  SUBWF  2F,W
07842:  BNZ   788C
07844:  MOVLW  30
07846:  ADDWF  x2E,W
07848:  SUBWF  30,W
0784A:  BNZ   788C
0784C:  MOVLW  30
0784E:  ADDWF  x2F,W
07850:  SUBWF  31,W
07852:  BNZ   788C
....................                printf("page Clave"); 
07854:  MOVLW  10
07856:  MOVWF  FF6
07858:  MOVLW  05
0785A:  MOVWF  FF7
0785C:  MOVLW  00
0785E:  MOVWF  FF8
07860:  MOVLB  0
07862:  CALL   2CE6
....................                SendDataDisplay(); 
07866:  CALL   2D18
....................                printf("titulo.txt=\"Clave Nueva\""); 
0786A:  MOVLW  1C
0786C:  MOVWF  FF6
0786E:  MOVLW  05
07870:  MOVWF  FF7
07872:  MOVLW  00
07874:  MOVWF  FF8
07876:  CALL   2CE6
....................                SendDataDisplay(); 
0787A:  CALL   2D18
....................                TipoClave=3; 
0787E:  MOVLW  03
07880:  MOVLB  1
07882:  MOVWF  xDD
....................                RX_Buffer[3]=0x00; 
07884:  CLRF   2D
....................                RX_Buffer2[3]=0x00; 
07886:  CLRF   38
....................             }else{ 
07888:  BRA    78A4
0788A:  MOVLB  2
....................                printf("page Principal"); 
0788C:  MOVLW  36
0788E:  MOVWF  FF6
07890:  MOVLW  05
07892:  MOVWF  FF7
07894:  MOVLW  00
07896:  MOVWF  FF8
07898:  MOVLB  0
0789A:  CALL   2CE6
....................                SendDataDisplay(); 
0789E:  CALL   2D18
078A2:  MOVLB  1
....................                //RX_Buffer[3]=0x00; 
....................                //RX_Buffer2[3]=0x00; 
....................             }  
....................             } 
....................          }else if(TipoClave==3){ 
078A4:  BRA    7A56
078A6:  MOVF   xDD,W
078A8:  SUBLW  03
078AA:  BTFSS  FD8.2
078AC:  BRA    7A08
....................             printf("titulo.txt=\"Clave Nueva\""); 
078AE:  MOVLW  46
078B0:  MOVWF  FF6
078B2:  MOVLW  05
078B4:  MOVWF  FF7
078B6:  MOVLW  00
078B8:  MOVWF  FF8
078BA:  MOVLB  0
078BC:  CALL   2CE6
....................             SendDataDisplay(); 
078C0:  CALL   2D18
....................             printf("page Principal"); 
078C4:  MOVLW  60
078C6:  MOVWF  FF6
078C8:  MOVLW  05
078CA:  MOVWF  FF7
078CC:  MOVLW  00
078CE:  MOVWF  FF8
078D0:  CALL   2CE6
....................             SendDataDisplay(); 
078D4:  CALL   2D18
....................             if(!GuardaEEPROM){ 
078D8:  MOVLB  1
078DA:  BTFSC  xC9.2
078DC:  BRA    79EA
....................                write_eeprom(10,RX_Buffer[4]-0x30);delay_ms(20);write_eeprom(11,RX_Buffer[5]-0x30);delay_ms(20); 
078DE:  MOVLW  30
078E0:  SUBWF  2E,W
078E2:  MOVLB  6
078E4:  MOVWF  xF1
078E6:  CLRF   FAA
078E8:  MOVLW  0A
078EA:  MOVWF  FA9
078EC:  MOVFF  6F1,FA8
078F0:  BCF    FA6.6
078F2:  BCF    FA6.7
078F4:  BSF    FA6.2
078F6:  MOVF   FF2,W
078F8:  MOVWF  00
078FA:  BCF    FF2.6
078FC:  BCF    FF2.7
078FE:  MOVLB  F
07900:  MOVLW  55
07902:  MOVWF  FA7
07904:  MOVLW  AA
07906:  MOVWF  FA7
07908:  BSF    FA6.1
0790A:  BTFSC  FA6.1
0790C:  BRA    790A
0790E:  BCF    FA6.2
07910:  MOVF   00,W
07912:  IORWF  FF2,F
07914:  MOVLW  14
07916:  MOVLB  6
07918:  MOVWF  xFA
0791A:  MOVLB  0
0791C:  CALL   1148
07920:  MOVLW  30
07922:  SUBWF  2F,W
07924:  MOVLB  6
07926:  MOVWF  xF1
07928:  CLRF   FAA
0792A:  MOVLW  0B
0792C:  MOVWF  FA9
0792E:  MOVFF  6F1,FA8
07932:  BCF    FA6.6
07934:  BCF    FA6.7
07936:  BSF    FA6.2
07938:  MOVF   FF2,W
0793A:  MOVWF  00
0793C:  BCF    FF2.6
0793E:  BCF    FF2.7
07940:  MOVLB  F
07942:  MOVLW  55
07944:  MOVWF  FA7
07946:  MOVLW  AA
07948:  MOVWF  FA7
0794A:  BSF    FA6.1
0794C:  BTFSC  FA6.1
0794E:  BRA    794C
07950:  BCF    FA6.2
07952:  MOVF   00,W
07954:  IORWF  FF2,F
07956:  MOVLW  14
07958:  MOVLB  6
0795A:  MOVWF  xFA
0795C:  MOVLB  0
0795E:  CALL   1148
....................                write_eeprom(12,RX_Buffer[6]-0x30);delay_ms(20);write_eeprom(13,RX_Buffer[7]-0x30);delay_ms(20); 
07962:  MOVLW  30
07964:  SUBWF  30,W
07966:  MOVLB  6
07968:  MOVWF  xF1
0796A:  CLRF   FAA
0796C:  MOVLW  0C
0796E:  MOVWF  FA9
07970:  MOVFF  6F1,FA8
07974:  BCF    FA6.6
07976:  BCF    FA6.7
07978:  BSF    FA6.2
0797A:  MOVF   FF2,W
0797C:  MOVWF  00
0797E:  BCF    FF2.6
07980:  BCF    FF2.7
07982:  MOVLB  F
07984:  MOVLW  55
07986:  MOVWF  FA7
07988:  MOVLW  AA
0798A:  MOVWF  FA7
0798C:  BSF    FA6.1
0798E:  BTFSC  FA6.1
07990:  BRA    798E
07992:  BCF    FA6.2
07994:  MOVF   00,W
07996:  IORWF  FF2,F
07998:  MOVLW  14
0799A:  MOVLB  6
0799C:  MOVWF  xFA
0799E:  MOVLB  0
079A0:  CALL   1148
079A4:  MOVLW  30
079A6:  SUBWF  31,W
079A8:  MOVLB  6
079AA:  MOVWF  xF1
079AC:  CLRF   FAA
079AE:  MOVLW  0D
079B0:  MOVWF  FA9
079B2:  MOVFF  6F1,FA8
079B6:  BCF    FA6.6
079B8:  BCF    FA6.7
079BA:  BSF    FA6.2
079BC:  MOVF   FF2,W
079BE:  MOVWF  00
079C0:  BCF    FF2.6
079C2:  BCF    FF2.7
079C4:  MOVLB  F
079C6:  MOVLW  55
079C8:  MOVWF  FA7
079CA:  MOVLW  AA
079CC:  MOVWF  FA7
079CE:  BSF    FA6.1
079D0:  BTFSC  FA6.1
079D2:  BRA    79D0
079D4:  BCF    FA6.2
079D6:  MOVF   00,W
079D8:  IORWF  FF2,F
079DA:  MOVLW  14
079DC:  MOVLB  6
079DE:  MOVWF  xFA
079E0:  MOVLB  0
079E2:  CALL   1148
....................                GuardaEEPROM=ON; 
079E6:  MOVLB  1
079E8:  BSF    xC9.2
....................             } 
....................             Password[0]=RX_Buffer[4]-0x30;Password[1]=RX_Buffer[5]-0x30;Password[2]=RX_Buffer[6]-0x30;Password[3]=RX_Buffer[7]-0x30; 
079EA:  MOVLW  30
079EC:  SUBWF  2E,W
079EE:  MOVLB  2
079F0:  MOVWF  x2C
079F2:  MOVLW  30
079F4:  SUBWF  2F,W
079F6:  MOVWF  x2D
079F8:  MOVLW  30
079FA:  SUBWF  30,W
079FC:  MOVWF  x2E
079FE:  MOVLW  30
07A00:  SUBWF  31,W
07A02:  MOVWF  x2F
....................             //RX_Buffer[3]=0x00; 
....................             //RX_Buffer2[3]=0x00; 
....................          }else if(TipoClave==4){ 
07A04:  BRA    7A58
07A06:  MOVLB  1
07A08:  MOVF   xDD,W
07A0A:  SUBLW  04
07A0C:  BNZ   7A56
....................             if(RX_Buffer[4]==0x34&&RX_Buffer[5]==0x34&&RX_Buffer[6]==0x34&&RX_Buffer[7]==0x34){ // Si Ingresa clave de Servicio Tecnico 
07A0E:  MOVF   2E,W
07A10:  SUBLW  34
07A12:  BNZ   7A40
07A14:  MOVF   2F,W
07A16:  SUBLW  34
07A18:  BNZ   7A40
07A1A:  MOVF   30,W
07A1C:  SUBLW  34
07A1E:  BNZ   7A40
07A20:  MOVF   31,W
07A22:  SUBLW  34
07A24:  BNZ   7A40
....................                printf("page Test"); 
07A26:  MOVLW  70
07A28:  MOVWF  FF6
07A2A:  MOVLW  05
07A2C:  MOVWF  FF7
07A2E:  MOVLW  00
07A30:  MOVWF  FF8
07A32:  MOVLB  0
07A34:  CALL   2CE6
....................                SendDataDisplay(); 
07A38:  CALL   2D18
....................             }else{ 
07A3C:  BRA    7A56
07A3E:  MOVLB  1
....................                printf("page Principal"); 
07A40:  MOVLW  7A
07A42:  MOVWF  FF6
07A44:  MOVLW  05
07A46:  MOVWF  FF7
07A48:  MOVLW  00
07A4A:  MOVWF  FF8
07A4C:  MOVLB  0
07A4E:  CALL   2CE6
....................                SendDataDisplay(); 
07A52:  CALL   2D18
07A56:  MOVLB  2
07A58:  MOVLB  1
....................             } 
....................             //RX_Buffer[3]=0x00; 
....................             //RX_Buffer2[3]=0x00; 
....................          } 
....................       } 
....................     } 
.................... //_--------------------------------------------------------------------------------------------------------------------------------------------------------        
....................  
.................... //_-------------------------------------------------------------------------------------------------------------------------------------------------------- 
....................     if(Menu==2){ //Menu de Tiempo de Duracin 
07A5A:  MOVF   xFE,W
07A5C:  SUBLW  02
07A5E:  BTFSS  FD8.2
07A60:  GOTO   8B6C
....................          printf("fecha.txt=\"Fecha:%02u/%02u/20%02u    Hora: %02u:%02u:%02u\"",Dia,Mes,Year,Hora,Minuto,Segundo); 
07A64:  MOVLW  8A
07A66:  MOVWF  FF6
07A68:  MOVLW  05
07A6A:  MOVWF  FF7
07A6C:  MOVLW  00
07A6E:  MOVWF  FF8
07A70:  MOVLW  11
07A72:  MOVLB  6
07A74:  MOVWF  xF9
07A76:  MOVLB  0
07A78:  CALL   3AD4
07A7C:  MOVFF  2CE,6F2
07A80:  MOVLW  01
07A82:  MOVLB  6
07A84:  MOVWF  xF3
07A86:  MOVLB  0
07A88:  CALL   3B32
07A8C:  MOVLW  2F
07A8E:  BTFSS  F9E.4
07A90:  BRA    7A8E
07A92:  MOVWF  FAD
07A94:  MOVFF  2CD,6F2
07A98:  MOVLW  01
07A9A:  MOVLB  6
07A9C:  MOVWF  xF3
07A9E:  MOVLB  0
07AA0:  CALL   3B32
07AA4:  MOVLW  2F
07AA6:  BTFSS  F9E.4
07AA8:  BRA    7AA6
07AAA:  MOVWF  FAD
07AAC:  MOVLW  32
07AAE:  BTFSS  F9E.4
07AB0:  BRA    7AAE
07AB2:  MOVWF  FAD
07AB4:  MOVLW  30
07AB6:  BTFSS  F9E.4
07AB8:  BRA    7AB6
07ABA:  MOVWF  FAD
07ABC:  MOVFF  2CC,6F2
07AC0:  MOVLW  01
07AC2:  MOVLB  6
07AC4:  MOVWF  xF3
07AC6:  MOVLB  0
07AC8:  CALL   3B32
07ACC:  MOVLW  AB
07ACE:  MOVWF  FF6
07AD0:  MOVLW  05
07AD2:  MOVWF  FF7
07AD4:  MOVLW  00
07AD6:  MOVWF  FF8
07AD8:  MOVLW  0A
07ADA:  MOVLB  6
07ADC:  MOVWF  xF9
07ADE:  MOVLB  0
07AE0:  CALL   3AD4
07AE4:  MOVFF  2CF,6F2
07AE8:  MOVLW  01
07AEA:  MOVLB  6
07AEC:  MOVWF  xF3
07AEE:  MOVLB  0
07AF0:  CALL   3B32
07AF4:  MOVLW  3A
07AF6:  BTFSS  F9E.4
07AF8:  BRA    7AF6
07AFA:  MOVWF  FAD
07AFC:  MOVFF  2D0,6F2
07B00:  MOVLW  01
07B02:  MOVLB  6
07B04:  MOVWF  xF3
07B06:  MOVLB  0
07B08:  CALL   3B32
07B0C:  MOVLW  3A
07B0E:  BTFSS  F9E.4
07B10:  BRA    7B0E
07B12:  MOVWF  FAD
07B14:  MOVFF  2D1,6F2
07B18:  MOVLW  01
07B1A:  MOVLB  6
07B1C:  MOVWF  xF3
07B1E:  MOVLB  0
07B20:  CALL   3B32
07B24:  MOVLW  22
07B26:  BTFSS  F9E.4
07B28:  BRA    7B26
07B2A:  MOVWF  FAD
....................          SendDataDisplay(); 
07B2C:  CALL   2D18
....................           
....................          if(!rampa){ 
07B30:  MOVLB  1
07B32:  BTFSC  xCB.5
07B34:  BRA    806C
....................             if(RX_Buffer[4]==0x0a){//Selecciono Minutos 
07B36:  MOVF   2E,W
07B38:  SUBLW  0A
07B3A:  BNZ   7B40
....................                Minutos=OFF; 
07B3C:  BCF    xC9.4
....................                Horas=ON; 
07B3E:  BSF    xC9.3
....................             } 
....................              
....................             if(RX_Buffer[4]==0x0b){//Selecciono Segundos 
07B40:  MOVF   2E,W
07B42:  SUBLW  0B
07B44:  BNZ   7B4A
....................                Minutos=ON; 
07B46:  BSF    xC9.4
....................                Horas=OFF; 
07B48:  BCF    xC9.3
....................             }            
....................              
....................             if(RX_Buffer[4]==0x11 || LEFT){//Selecciono Regresar 
07B4A:  MOVF   2E,W
07B4C:  SUBLW  11
07B4E:  BZ    7B56
07B50:  BSF    F93.3
07B52:  BTFSC  F81.3
07B54:  BRA    7C84
....................                delay_ms(200); 
07B56:  MOVLW  C8
07B58:  MOVLB  6
07B5A:  MOVWF  xFA
07B5C:  MOVLB  0
07B5E:  CALL   1148
....................                if(RX_Buffer[4]==0x11 || LEFT){ 
07B62:  MOVF   2E,W
07B64:  SUBLW  11
07B66:  BZ    7B6E
07B68:  BSF    F93.3
07B6A:  BTFSC  F81.3
07B6C:  BRA    7C86
....................                   Minutos=OFF; 
07B6E:  MOVLB  1
07B70:  BCF    xC9.4
....................                   Horas=OFF; 
07B72:  BCF    xC9.3
....................                   printf("page Principal"); 
07B74:  MOVLW  C6
07B76:  MOVWF  FF6
07B78:  MOVLW  05
07B7A:  MOVWF  FF7
07B7C:  MOVLW  00
07B7E:  MOVWF  FF8
07B80:  MOVLB  0
07B82:  CALL   2CE6
....................                   SendDataDisplay();   
07B86:  CALL   2D18
....................                   if(!GuardaEEPROM){ 
07B8A:  MOVLB  1
07B8C:  BTFSC  xC9.2
07B8E:  BRA    7C84
....................                      write_eeprom(0,(int8)mEstp); 
07B90:  MOVFF  1E6,705
07B94:  MOVFF  1E5,704
07B98:  MOVFF  1E4,703
07B9C:  MOVFF  1E3,702
07BA0:  MOVLB  0
07BA2:  CALL   371E
07BA6:  MOVFF  01,6F1
07BAA:  CLRF   FAA
07BAC:  CLRF   FA9
07BAE:  MOVFF  6F1,FA8
07BB2:  BCF    FA6.6
07BB4:  BCF    FA6.7
07BB6:  BSF    FA6.2
07BB8:  MOVF   FF2,W
07BBA:  MOVWF  00
07BBC:  BCF    FF2.6
07BBE:  BCF    FF2.7
07BC0:  MOVLB  F
07BC2:  MOVLW  55
07BC4:  MOVWF  FA7
07BC6:  MOVLW  AA
07BC8:  MOVWF  FA7
07BCA:  BSF    FA6.1
07BCC:  BTFSC  FA6.1
07BCE:  BRA    7BCC
07BD0:  BCF    FA6.2
07BD2:  MOVF   00,W
07BD4:  IORWF  FF2,F
....................                      delay_ms(10); 
07BD6:  MOVLW  0A
07BD8:  MOVLB  6
07BDA:  MOVWF  xFA
07BDC:  MOVLB  0
07BDE:  CALL   1148
....................                      write_eeprom(1,(int8)hEstp); 
07BE2:  MOVFF  1EA,705
07BE6:  MOVFF  1E9,704
07BEA:  MOVFF  1E8,703
07BEE:  MOVFF  1E7,702
07BF2:  CALL   371E
07BF6:  MOVFF  01,6F1
07BFA:  CLRF   FAA
07BFC:  MOVLW  01
07BFE:  MOVWF  FA9
07C00:  MOVFF  6F1,FA8
07C04:  BCF    FA6.6
07C06:  BCF    FA6.7
07C08:  BSF    FA6.2
07C0A:  MOVF   FF2,W
07C0C:  MOVWF  00
07C0E:  BCF    FF2.6
07C10:  BCF    FF2.7
07C12:  MOVLB  F
07C14:  MOVLW  55
07C16:  MOVWF  FA7
07C18:  MOVLW  AA
07C1A:  MOVWF  FA7
07C1C:  BSF    FA6.1
07C1E:  BTFSC  FA6.1
07C20:  BRA    7C1E
07C22:  BCF    FA6.2
07C24:  MOVF   00,W
07C26:  IORWF  FF2,F
....................                      delay_ms(10); 
07C28:  MOVLW  0A
07C2A:  MOVLB  6
07C2C:  MOVWF  xFA
07C2E:  MOVLB  0
07C30:  CALL   1148
....................                      //mEst=mEstp; 
....................                      //hEst=hEstp; 
....................                      if((mEstp==0)&&(hEstp==0)) 
07C34:  MOVFF  1E6,6F8
07C38:  MOVFF  1E5,6F7
07C3C:  MOVFF  1E4,6F6
07C40:  MOVFF  1E3,6F5
07C44:  MOVLB  6
07C46:  CLRF   xFC
07C48:  CLRF   xFB
07C4A:  CLRF   xFA
07C4C:  CLRF   xF9
07C4E:  MOVLB  0
07C50:  CALL   16C0
07C54:  BNZ   7C7E
07C56:  MOVFF  1EA,6F8
07C5A:  MOVFF  1E9,6F7
07C5E:  MOVFF  1E8,6F6
07C62:  MOVFF  1E7,6F5
07C66:  MOVLB  6
07C68:  CLRF   xFC
07C6A:  CLRF   xFB
07C6C:  CLRF   xFA
07C6E:  CLRF   xF9
07C70:  MOVLB  0
07C72:  CALL   16C0
07C76:  BNZ   7C7E
....................                         Infinito=1; 
07C78:  MOVLB  1
07C7A:  BSF    xCA.3
....................                      else 
07C7C:  BRA    7C82
....................                         Infinito=0; 
07C7E:  MOVLB  1
07C80:  BCF    xCA.3
....................                      GuardaEEPROM=ON; 
07C82:  BSF    xC9.2
07C84:  MOVLB  0
....................                   } 
....................                } 
....................             } 
....................              
....................             if(RIGHT){ 
07C86:  BSF    F93.2
07C88:  BTFSC  F81.2
07C8A:  BRA    7D08
....................                delay_ms(200); 
07C8C:  MOVLW  C8
07C8E:  MOVLB  6
07C90:  MOVWF  xFA
07C92:  MOVLB  0
07C94:  CALL   1148
....................                if(RIGHT){ 
07C98:  BSF    F93.2
07C9A:  BTFSC  F81.2
07C9C:  BRA    7D08
....................                   if(!Minutos){ 
07C9E:  MOVLB  1
07CA0:  BTFSC  xC9.4
07CA2:  BRA    7CD6
....................                      Minutos=ON; 
07CA4:  BSF    xC9.4
....................                      Horas=OFF; 
07CA6:  BCF    xC9.3
....................                      printf("tsecest.pco=65535"); 
07CA8:  MOVLW  D6
07CAA:  MOVWF  FF6
07CAC:  MOVLW  05
07CAE:  MOVWF  FF7
07CB0:  MOVLW  00
07CB2:  MOVWF  FF8
07CB4:  MOVLB  0
07CB6:  CALL   2CE6
....................                      SendDataDisplay();   
07CBA:  CALL   2D18
....................                      printf("tminest.pco=0"); 
07CBE:  MOVLW  E8
07CC0:  MOVWF  FF6
07CC2:  MOVLW  05
07CC4:  MOVWF  FF7
07CC6:  MOVLW  00
07CC8:  MOVWF  FF8
07CCA:  CALL   2CE6
....................                      SendDataDisplay();   
07CCE:  CALL   2D18
....................                   }else if(!Horas){ 
07CD2:  BRA    7D08
07CD4:  MOVLB  1
07CD6:  BTFSC  xC9.3
07CD8:  BRA    7D0A
....................                      Minutos=OFF; 
07CDA:  BCF    xC9.4
....................                      Horas=ON; 
07CDC:  BSF    xC9.3
....................                      printf("tsecest.pco=0"); 
07CDE:  MOVLW  F6
07CE0:  MOVWF  FF6
07CE2:  MOVLW  05
07CE4:  MOVWF  FF7
07CE6:  MOVLW  00
07CE8:  MOVWF  FF8
07CEA:  MOVLB  0
07CEC:  CALL   2CE6
....................                      SendDataDisplay();   
07CF0:  CALL   2D18
....................                      printf("tminest.pco=65535"); 
07CF4:  MOVLW  04
07CF6:  MOVWF  FF6
07CF8:  MOVLW  06
07CFA:  MOVWF  FF7
07CFC:  MOVLW  00
07CFE:  MOVWF  FF8
07D00:  CALL   2CE6
....................                      SendDataDisplay();   
07D04:  CALL   2D18
07D08:  MOVLB  1
....................                   } 
....................                } 
....................             } 
....................              
....................             if(UP){ 
07D0A:  BSF    F93.0
07D0C:  BTFSC  F81.0
07D0E:  BRA    7D98
....................                delay_ms(200); 
07D10:  MOVLW  C8
07D12:  MOVLB  6
07D14:  MOVWF  xFA
07D16:  MOVLB  0
07D18:  CALL   1148
....................                if(UP){ 
07D1C:  BSF    F93.0
07D1E:  BTFSC  F81.0
07D20:  BRA    7D96
....................                   if(Minutos){ 
07D22:  MOVLB  1
07D24:  BTFSS  xC9.4
07D26:  BRA    7D5E
....................                      mEstp+=1.0; 
07D28:  BCF    FD8.1
07D2A:  MOVFF  1E6,705
07D2E:  MOVFF  1E5,704
07D32:  MOVFF  1E4,703
07D36:  MOVFF  1E3,702
07D3A:  MOVLB  7
07D3C:  CLRF   x09
07D3E:  CLRF   x08
07D40:  CLRF   x07
07D42:  MOVLW  7F
07D44:  MOVWF  x06
07D46:  MOVLB  0
07D48:  CALL   12EE
07D4C:  MOVFF  03,1E6
07D50:  MOVFF  02,1E5
07D54:  MOVFF  01,1E4
07D58:  MOVFF  00,1E3
07D5C:  MOVLB  1
....................                   } 
....................                   if(Horas){ 
07D5E:  BTFSS  xC9.3
07D60:  BRA    7D98
....................                      hEstp+=1.0; 
07D62:  BCF    FD8.1
07D64:  MOVFF  1EA,705
07D68:  MOVFF  1E9,704
07D6C:  MOVFF  1E8,703
07D70:  MOVFF  1E7,702
07D74:  MOVLB  7
07D76:  CLRF   x09
07D78:  CLRF   x08
07D7A:  CLRF   x07
07D7C:  MOVLW  7F
07D7E:  MOVWF  x06
07D80:  MOVLB  0
07D82:  CALL   12EE
07D86:  MOVFF  03,1EA
07D8A:  MOVFF  02,1E9
07D8E:  MOVFF  01,1E8
07D92:  MOVFF  00,1E7
07D96:  MOVLB  1
....................                   }     
....................                } 
....................             } 
....................              
....................             if(DOWN){ 
07D98:  BSF    F93.1
07D9A:  BTFSC  F81.1
07D9C:  BRA    7E4E
....................                delay_ms(200); 
07D9E:  MOVLW  C8
07DA0:  MOVLB  6
07DA2:  MOVWF  xFA
07DA4:  MOVLB  0
07DA6:  CALL   1148
....................                if(DOWN){ 
07DAA:  BSF    F93.1
07DAC:  BTFSC  F81.1
07DAE:  BRA    7E4C
....................                   if(Minutos && mEstp>0){ 
07DB0:  MOVLB  1
07DB2:  BTFSS  xC9.4
07DB4:  BRA    7E14
07DB6:  MOVLB  6
07DB8:  CLRF   xF8
07DBA:  CLRF   xF7
07DBC:  CLRF   xF6
07DBE:  CLRF   xF5
07DC0:  MOVFF  1E6,6FC
07DC4:  MOVFF  1E5,6FB
07DC8:  MOVFF  1E4,6FA
07DCC:  MOVFF  1E3,6F9
07DD0:  MOVLB  0
07DD2:  CALL   16C0
07DD6:  BTFSC  FD8.0
07DD8:  BRA    7DDE
07DDA:  MOVLB  1
07DDC:  BRA    7E14
....................                      mEstp-=1.0; 
07DDE:  BSF    FD8.1
07DE0:  MOVFF  1E6,705
07DE4:  MOVFF  1E5,704
07DE8:  MOVFF  1E4,703
07DEC:  MOVFF  1E3,702
07DF0:  MOVLB  7
07DF2:  CLRF   x09
07DF4:  CLRF   x08
07DF6:  CLRF   x07
07DF8:  MOVLW  7F
07DFA:  MOVWF  x06
07DFC:  MOVLB  0
07DFE:  CALL   12EE
07E02:  MOVFF  03,1E6
07E06:  MOVFF  02,1E5
07E0A:  MOVFF  01,1E4
07E0E:  MOVFF  00,1E3
07E12:  MOVLB  1
....................                   } 
....................                   if(Horas){ 
07E14:  BTFSS  xC9.3
07E16:  BRA    7E4E
....................                      hEstp-=1.0; 
07E18:  BSF    FD8.1
07E1A:  MOVFF  1EA,705
07E1E:  MOVFF  1E9,704
07E22:  MOVFF  1E8,703
07E26:  MOVFF  1E7,702
07E2A:  MOVLB  7
07E2C:  CLRF   x09
07E2E:  CLRF   x08
07E30:  CLRF   x07
07E32:  MOVLW  7F
07E34:  MOVWF  x06
07E36:  MOVLB  0
07E38:  CALL   12EE
07E3C:  MOVFF  03,1EA
07E40:  MOVFF  02,1E9
07E44:  MOVFF  01,1E8
07E48:  MOVFF  00,1E7
07E4C:  MOVLB  1
....................                   }     
....................                } 
....................             } 
....................              
....................             if(RX_Buffer[4]==0x0c || RX_Buffer[4]==0x0d){//Tecla arriba Oprimida 
07E4E:  MOVF   2E,W
07E50:  SUBLW  0C
07E52:  BZ    7E5A
07E54:  MOVF   2E,W
07E56:  SUBLW  0D
07E58:  BNZ   7ED2
....................                if(Minutos){ 
07E5A:  BTFSS  xC9.4
07E5C:  BRA    7E94
....................                   mEstp+=1.0; 
07E5E:  BCF    FD8.1
07E60:  MOVFF  1E6,705
07E64:  MOVFF  1E5,704
07E68:  MOVFF  1E4,703
07E6C:  MOVFF  1E3,702
07E70:  MOVLB  7
07E72:  CLRF   x09
07E74:  CLRF   x08
07E76:  CLRF   x07
07E78:  MOVLW  7F
07E7A:  MOVWF  x06
07E7C:  MOVLB  0
07E7E:  CALL   12EE
07E82:  MOVFF  03,1E6
07E86:  MOVFF  02,1E5
07E8A:  MOVFF  01,1E4
07E8E:  MOVFF  00,1E3
07E92:  MOVLB  1
....................                } 
....................                if(Horas){ 
07E94:  BTFSS  xC9.3
07E96:  BRA    7ECE
....................                   hEstp+=1.0; 
07E98:  BCF    FD8.1
07E9A:  MOVFF  1EA,705
07E9E:  MOVFF  1E9,704
07EA2:  MOVFF  1E8,703
07EA6:  MOVFF  1E7,702
07EAA:  MOVLB  7
07EAC:  CLRF   x09
07EAE:  CLRF   x08
07EB0:  CLRF   x07
07EB2:  MOVLW  7F
07EB4:  MOVWF  x06
07EB6:  MOVLB  0
07EB8:  CALL   12EE
07EBC:  MOVFF  03,1EA
07EC0:  MOVFF  02,1E9
07EC4:  MOVFF  01,1E8
07EC8:  MOVFF  00,1E7
07ECC:  MOVLB  1
....................                }   
....................                RX_Buffer[4]=0x00;   
07ECE:  CLRF   2E
....................                RX_Buffer2[4]=0x00; 
07ED0:  CLRF   39
....................             } 
....................              
....................             if(RX_Buffer[4]==0x0f || RX_Buffer[4]==0x0e){//Tecla abajo oprimida 
07ED2:  MOVF   2E,W
07ED4:  SUBLW  0F
07ED6:  BZ    7EDE
07ED8:  MOVF   2E,W
07EDA:  SUBLW  0E
07EDC:  BNZ   7F7E
....................                if(Minutos && mEstp>0){ 
07EDE:  BTFSS  xC9.4
07EE0:  BRA    7F40
07EE2:  MOVLB  6
07EE4:  CLRF   xF8
07EE6:  CLRF   xF7
07EE8:  CLRF   xF6
07EEA:  CLRF   xF5
07EEC:  MOVFF  1E6,6FC
07EF0:  MOVFF  1E5,6FB
07EF4:  MOVFF  1E4,6FA
07EF8:  MOVFF  1E3,6F9
07EFC:  MOVLB  0
07EFE:  CALL   16C0
07F02:  BTFSC  FD8.0
07F04:  BRA    7F0A
07F06:  MOVLB  1
07F08:  BRA    7F40
....................                   mEstp-=1.0; 
07F0A:  BSF    FD8.1
07F0C:  MOVFF  1E6,705
07F10:  MOVFF  1E5,704
07F14:  MOVFF  1E4,703
07F18:  MOVFF  1E3,702
07F1C:  MOVLB  7
07F1E:  CLRF   x09
07F20:  CLRF   x08
07F22:  CLRF   x07
07F24:  MOVLW  7F
07F26:  MOVWF  x06
07F28:  MOVLB  0
07F2A:  CALL   12EE
07F2E:  MOVFF  03,1E6
07F32:  MOVFF  02,1E5
07F36:  MOVFF  01,1E4
07F3A:  MOVFF  00,1E3
07F3E:  MOVLB  1
....................                } 
....................                if(Horas){ 
07F40:  BTFSS  xC9.3
07F42:  BRA    7F7A
....................                   hEstp-=1.0; 
07F44:  BSF    FD8.1
07F46:  MOVFF  1EA,705
07F4A:  MOVFF  1E9,704
07F4E:  MOVFF  1E8,703
07F52:  MOVFF  1E7,702
07F56:  MOVLB  7
07F58:  CLRF   x09
07F5A:  CLRF   x08
07F5C:  CLRF   x07
07F5E:  MOVLW  7F
07F60:  MOVWF  x06
07F62:  MOVLB  0
07F64:  CALL   12EE
07F68:  MOVFF  03,1EA
07F6C:  MOVFF  02,1E9
07F70:  MOVFF  01,1E8
07F74:  MOVFF  00,1E7
07F78:  MOVLB  1
....................                } 
....................                RX_Buffer[4]=0x00;   
07F7A:  CLRF   2E
....................                RX_Buffer2[4]=0x00; 
07F7C:  CLRF   39
....................             } 
....................              
....................             if(hEstp>99)hEstp=1; 
07F7E:  MOVLB  6
07F80:  CLRF   xF8
07F82:  CLRF   xF7
07F84:  MOVLW  46
07F86:  MOVWF  xF6
07F88:  MOVLW  85
07F8A:  MOVWF  xF5
07F8C:  MOVFF  1EA,6FC
07F90:  MOVFF  1E9,6FB
07F94:  MOVFF  1E8,6FA
07F98:  MOVFF  1E7,6F9
07F9C:  MOVLB  0
07F9E:  CALL   16C0
07FA2:  BNC   7FB0
07FA4:  MOVLB  1
07FA6:  CLRF   xEA
07FA8:  CLRF   xE9
07FAA:  CLRF   xE8
07FAC:  MOVLW  7F
07FAE:  MOVWF  xE7
....................             if(mEstp>59)mEstp=0; 
07FB0:  MOVLB  6
07FB2:  CLRF   xF8
07FB4:  CLRF   xF7
07FB6:  MOVLW  6C
07FB8:  MOVWF  xF6
07FBA:  MOVLW  84
07FBC:  MOVWF  xF5
07FBE:  MOVFF  1E6,6FC
07FC2:  MOVFF  1E5,6FB
07FC6:  MOVFF  1E4,6FA
07FCA:  MOVFF  1E3,6F9
07FCE:  MOVLB  0
07FD0:  CALL   16C0
07FD4:  BNC   7FE2
07FD6:  MOVLB  1
07FD8:  CLRF   xE6
07FDA:  CLRF   xE5
07FDC:  CLRF   xE4
07FDE:  CLRF   xE3
07FE0:  MOVLB  0
....................                 
....................             printf("tminsec.txt=\"%02.0f\"",hEstp); 
07FE2:  MOVLW  16
07FE4:  MOVWF  FF6
07FE6:  MOVLW  06
07FE8:  MOVWF  FF7
07FEA:  MOVLW  00
07FEC:  MOVWF  FF8
07FEE:  MOVLW  0D
07FF0:  MOVLB  6
07FF2:  MOVWF  xF9
07FF4:  MOVLB  0
07FF6:  CALL   3AD4
07FFA:  MOVLW  41
07FFC:  MOVWF  FE9
07FFE:  MOVFF  1EA,6FC
08002:  MOVFF  1E9,6FB
08006:  MOVFF  1E8,6FA
0800A:  MOVFF  1E7,6F9
0800E:  MOVLB  6
08010:  CLRF   xFD
08012:  MOVLB  0
08014:  CALL   3C74
08018:  MOVLW  22
0801A:  BTFSS  F9E.4
0801C:  BRA    801A
0801E:  MOVWF  FAD
....................             SendDataDisplay(); 
08020:  CALL   2D18
....................             printf("tsecsec.txt=\"%02.0f\"",mEstp); 
08024:  MOVLW  2C
08026:  MOVWF  FF6
08028:  MOVLW  06
0802A:  MOVWF  FF7
0802C:  MOVLW  00
0802E:  MOVWF  FF8
08030:  MOVLW  0D
08032:  MOVLB  6
08034:  MOVWF  xF9
08036:  MOVLB  0
08038:  CALL   3AD4
0803C:  MOVLW  41
0803E:  MOVWF  FE9
08040:  MOVFF  1E6,6FC
08044:  MOVFF  1E5,6FB
08048:  MOVFF  1E4,6FA
0804C:  MOVFF  1E3,6F9
08050:  MOVLB  6
08052:  CLRF   xFD
08054:  MOVLB  0
08056:  CALL   3C74
0805A:  MOVLW  22
0805C:  BTFSS  F9E.4
0805E:  BRA    805C
08060:  MOVWF  FAD
....................             SendDataDisplay(); 
08062:  CALL   2D18
....................          }else{ 
08066:  GOTO   8B6A
0806A:  MOVLB  1
....................             if(RX_Buffer[4]==0x0a){//Selecciono Minutos 
0806C:  MOVF   2E,W
0806E:  SUBLW  0A
08070:  BNZ   8076
....................                Minutos=OFF; 
08072:  BCF    xC9.4
....................                Horas=ON; 
08074:  BSF    xC9.3
....................             } 
....................              
....................             if(RX_Buffer[4]==0x0b){//Selecciono Segundos 
08076:  MOVF   2E,W
08078:  SUBLW  0B
0807A:  BNZ   8080
....................                Minutos=ON; 
0807C:  BSF    xC9.4
....................                Horas=OFF; 
0807E:  BCF    xC9.3
....................             }            
....................              
....................             if(RX_Buffer[4]==0x11 || LEFT){//Selecciono Regresar 
08080:  MOVF   2E,W
08082:  SUBLW  11
08084:  BZ    808C
08086:  BSF    F93.3
08088:  BTFSC  F81.3
0808A:  BRA    823A
....................                delay_ms(200); 
0808C:  MOVLW  C8
0808E:  MOVLB  6
08090:  MOVWF  xFA
08092:  MOVLB  0
08094:  CALL   1148
....................                if(RX_Buffer[4]==0x11 || LEFT){ 
08098:  MOVF   2E,W
0809A:  SUBLW  11
0809C:  BZ    80A4
0809E:  BSF    F93.3
080A0:  BTFSC  F81.3
080A2:  BRA    823C
....................                   Minutos=OFF; 
080A4:  MOVLB  1
080A6:  BCF    xC9.4
....................                   Horas=OFF; 
080A8:  BCF    xC9.3
....................                   printf("page Rampas"); 
080AA:  MOVLW  42
080AC:  MOVWF  FF6
080AE:  MOVLW  06
080B0:  MOVWF  FF7
080B2:  MOVLW  00
080B4:  MOVWF  FF8
080B6:  MOVLB  0
080B8:  CALL   2CE6
....................                   SendDataDisplay();   
080BC:  CALL   2D18
....................                   if(!GuardaEEPROM){ 
080C0:  MOVLB  1
080C2:  BTFSC  xC9.2
080C4:  BRA    823A
....................                      write_eeprom(103+((CicloLibre-1)*5),(int8)rampas[CicloLibre-1].Horas); 
080C6:  MOVLW  01
080C8:  MOVLB  2
080CA:  SUBWF  xD9,W
080CC:  MULLW  05
080CE:  MOVF   FF3,W
080D0:  ADDLW  67
080D2:  MOVLB  6
080D4:  MOVWF  xF1
080D6:  MOVLW  01
080D8:  MOVLB  2
080DA:  SUBWF  xD9,W
080DC:  MOVLB  6
080DE:  MOVWF  xF3
080E0:  CLRF   xFA
080E2:  MOVFF  6F3,6F9
080E6:  CLRF   xFC
080E8:  MOVLW  0F
080EA:  MOVWF  xFB
080EC:  MOVLB  0
080EE:  CALL   1566
080F2:  MOVFF  02,6F3
080F6:  MOVFF  01,6F2
080FA:  MOVLW  03
080FC:  MOVLB  6
080FE:  ADDWF  xF2,W
08100:  MOVWF  01
08102:  MOVLW  00
08104:  ADDWFC xF3,W
08106:  MOVWF  03
08108:  MOVF   01,W
0810A:  ADDLW  C5
0810C:  MOVWF  FE9
0810E:  MOVLW  05
08110:  ADDWFC 03,W
08112:  MOVWF  FEA
08114:  MOVFF  FEF,00
08118:  MOVFF  FEC,01
0811C:  MOVFF  FEC,02
08120:  MOVFF  FEC,03
08124:  MOVF   FED,F
08126:  MOVF   FED,F
08128:  MOVF   FED,F
0812A:  MOVFF  03,705
0812E:  MOVFF  02,704
08132:  MOVFF  01,703
08136:  MOVFF  00,702
0813A:  MOVLB  0
0813C:  CALL   371E
08140:  MOVFF  01,6F2
08144:  CLRF   FAA
08146:  MOVFF  6F1,FA9
0814A:  MOVFF  6F2,FA8
0814E:  BCF    FA6.6
08150:  BCF    FA6.7
08152:  BSF    FA6.2
08154:  MOVF   FF2,W
08156:  MOVWF  00
08158:  BCF    FF2.6
0815A:  BCF    FF2.7
0815C:  MOVLB  F
0815E:  MOVLW  55
08160:  MOVWF  FA7
08162:  MOVLW  AA
08164:  MOVWF  FA7
08166:  BSF    FA6.1
08168:  BTFSC  FA6.1
0816A:  BRA    8168
0816C:  BCF    FA6.2
0816E:  MOVF   00,W
08170:  IORWF  FF2,F
....................                      delay_ms(10); 
08172:  MOVLW  0A
08174:  MOVLB  6
08176:  MOVWF  xFA
08178:  MOVLB  0
0817A:  CALL   1148
....................                      write_eeprom(104+((CicloLibre-1)*5),(int8)rampas[CicloLibre-1].Minutos); 
0817E:  MOVLW  01
08180:  MOVLB  2
08182:  SUBWF  xD9,W
08184:  MULLW  05
08186:  MOVF   FF3,W
08188:  ADDLW  68
0818A:  MOVLB  6
0818C:  MOVWF  xF1
0818E:  MOVLW  01
08190:  MOVLB  2
08192:  SUBWF  xD9,W
08194:  MOVLB  6
08196:  MOVWF  xF3
08198:  CLRF   xFA
0819A:  MOVFF  6F3,6F9
0819E:  CLRF   xFC
081A0:  MOVLW  0F
081A2:  MOVWF  xFB
081A4:  MOVLB  0
081A6:  CALL   1566
081AA:  MOVFF  02,6F3
081AE:  MOVFF  01,6F2
081B2:  MOVLW  07
081B4:  MOVLB  6
081B6:  ADDWF  xF2,W
081B8:  MOVWF  01
081BA:  MOVLW  00
081BC:  ADDWFC xF3,W
081BE:  MOVWF  03
081C0:  MOVF   01,W
081C2:  ADDLW  C5
081C4:  MOVWF  FE9
081C6:  MOVLW  05
081C8:  ADDWFC 03,W
081CA:  MOVWF  FEA
081CC:  MOVFF  FEF,00
081D0:  MOVFF  FEC,01
081D4:  MOVFF  FEC,02
081D8:  MOVFF  FEC,03
081DC:  MOVF   FED,F
081DE:  MOVF   FED,F
081E0:  MOVF   FED,F
081E2:  MOVFF  03,705
081E6:  MOVFF  02,704
081EA:  MOVFF  01,703
081EE:  MOVFF  00,702
081F2:  MOVLB  0
081F4:  CALL   371E
081F8:  MOVFF  01,6F2
081FC:  CLRF   FAA
081FE:  MOVFF  6F1,FA9
08202:  MOVFF  6F2,FA8
08206:  BCF    FA6.6
08208:  BCF    FA6.7
0820A:  BSF    FA6.2
0820C:  MOVF   FF2,W
0820E:  MOVWF  00
08210:  BCF    FF2.6
08212:  BCF    FF2.7
08214:  MOVLB  F
08216:  MOVLW  55
08218:  MOVWF  FA7
0821A:  MOVLW  AA
0821C:  MOVWF  FA7
0821E:  BSF    FA6.1
08220:  BTFSC  FA6.1
08222:  BRA    8220
08224:  BCF    FA6.2
08226:  MOVF   00,W
08228:  IORWF  FF2,F
....................                      delay_ms(10); 
0822A:  MOVLW  0A
0822C:  MOVLB  6
0822E:  MOVWF  xFA
08230:  MOVLB  0
08232:  CALL   1148
....................                      GuardaEEPROM=ON; 
08236:  MOVLB  1
08238:  BSF    xC9.2
0823A:  MOVLB  0
....................                   } 
....................                } 
....................             } 
....................              
....................             if(RIGHT){ 
0823C:  BSF    F93.2
0823E:  BTFSC  F81.2
08240:  BRA    82BE
....................                delay_ms(200); 
08242:  MOVLW  C8
08244:  MOVLB  6
08246:  MOVWF  xFA
08248:  MOVLB  0
0824A:  CALL   1148
....................                if(RIGHT){ 
0824E:  BSF    F93.2
08250:  BTFSC  F81.2
08252:  BRA    82BE
....................                   if(!Minutos){ 
08254:  MOVLB  1
08256:  BTFSC  xC9.4
08258:  BRA    828C
....................                      Minutos=ON; 
0825A:  BSF    xC9.4
....................                      Horas=OFF; 
0825C:  BCF    xC9.3
....................                      printf("tsecest.pco=65535"); 
0825E:  MOVLW  4E
08260:  MOVWF  FF6
08262:  MOVLW  06
08264:  MOVWF  FF7
08266:  MOVLW  00
08268:  MOVWF  FF8
0826A:  MOVLB  0
0826C:  CALL   2CE6
....................                      SendDataDisplay();   
08270:  CALL   2D18
....................                      printf("tminest.pco=0"); 
08274:  MOVLW  60
08276:  MOVWF  FF6
08278:  MOVLW  06
0827A:  MOVWF  FF7
0827C:  MOVLW  00
0827E:  MOVWF  FF8
08280:  CALL   2CE6
....................                      SendDataDisplay();   
08284:  CALL   2D18
....................                   }else if(!Horas){ 
08288:  BRA    82BE
0828A:  MOVLB  1
0828C:  BTFSC  xC9.3
0828E:  BRA    82C0
....................                      Minutos=OFF; 
08290:  BCF    xC9.4
....................                      Horas=ON; 
08292:  BSF    xC9.3
....................                      printf("tsecest.pco=0"); 
08294:  MOVLW  6E
08296:  MOVWF  FF6
08298:  MOVLW  06
0829A:  MOVWF  FF7
0829C:  MOVLW  00
0829E:  MOVWF  FF8
082A0:  MOVLB  0
082A2:  CALL   2CE6
....................                      SendDataDisplay();   
082A6:  CALL   2D18
....................                      printf("tminest.pco=65535"); 
082AA:  MOVLW  7C
082AC:  MOVWF  FF6
082AE:  MOVLW  06
082B0:  MOVWF  FF7
082B2:  MOVLW  00
082B4:  MOVWF  FF8
082B6:  CALL   2CE6
....................                      SendDataDisplay();   
082BA:  CALL   2D18
082BE:  MOVLB  1
....................                   } 
....................                } 
....................             } 
....................              
....................             if(UP){ 
082C0:  BSF    F93.0
082C2:  BTFSC  F81.0
082C4:  BRA    83E6
....................                delay_ms(200); 
082C6:  MOVLW  C8
082C8:  MOVLB  6
082CA:  MOVWF  xFA
082CC:  MOVLB  0
082CE:  CALL   1148
....................                if(UP){ 
082D2:  BSF    F93.0
082D4:  BTFSC  F81.0
082D6:  BRA    83E4
....................                   if(Minutos){ 
082D8:  MOVLB  1
082DA:  BTFSS  xC9.4
082DC:  BRA    8360
....................                      rampas[CicloLibre-1].Minutos+=1.0; 
082DE:  MOVLW  01
082E0:  MOVLB  2
082E2:  SUBWF  xD9,W
082E4:  MOVLB  6
082E6:  MOVWF  xF2
082E8:  CLRF   xFA
082EA:  MOVWF  xF9
082EC:  CLRF   xFC
082EE:  MOVLW  0F
082F0:  MOVWF  xFB
082F2:  MOVLB  0
082F4:  CALL   1566
082F8:  MOVFF  02,6F2
082FC:  MOVFF  01,6F1
08300:  MOVLW  07
08302:  MOVLB  6
08304:  ADDWF  01,W
08306:  MOVWF  01
08308:  MOVLW  00
0830A:  ADDWFC 02,W
0830C:  MOVWF  03
0830E:  MOVF   01,W
08310:  ADDLW  C5
08312:  MOVWF  FE9
08314:  MOVLW  05
08316:  ADDWFC 03,W
08318:  MOVWF  FEA
0831A:  MOVFF  FEA,6F8
0831E:  MOVFF  FE9,6F7
08322:  BCF    FD8.1
08324:  MOVFF  FEF,702
08328:  MOVFF  FEC,703
0832C:  MOVFF  FEC,704
08330:  MOVFF  FEC,705
08334:  MOVLB  7
08336:  CLRF   x09
08338:  CLRF   x08
0833A:  CLRF   x07
0833C:  MOVLW  7F
0833E:  MOVWF  x06
08340:  MOVLB  0
08342:  CALL   12EE
08346:  MOVFF  6F8,FEA
0834A:  MOVFF  6F7,FE9
0834E:  MOVFF  00,FEF
08352:  MOVFF  01,FEC
08356:  MOVFF  02,FEC
0835A:  MOVFF  03,FEC
0835E:  MOVLB  1
....................                   } 
....................                   if(Horas){ 
08360:  BTFSS  xC9.3
08362:  BRA    83E6
....................                      rampas[CicloLibre-1].Horas+=1.0; 
08364:  MOVLW  01
08366:  MOVLB  2
08368:  SUBWF  xD9,W
0836A:  MOVLB  6
0836C:  MOVWF  xF2
0836E:  CLRF   xFA
08370:  MOVWF  xF9
08372:  CLRF   xFC
08374:  MOVLW  0F
08376:  MOVWF  xFB
08378:  MOVLB  0
0837A:  CALL   1566
0837E:  MOVFF  02,6F2
08382:  MOVFF  01,6F1
08386:  MOVLW  03
08388:  MOVLB  6
0838A:  ADDWF  01,W
0838C:  MOVWF  01
0838E:  MOVLW  00
08390:  ADDWFC 02,W
08392:  MOVWF  03
08394:  MOVF   01,W
08396:  ADDLW  C5
08398:  MOVWF  FE9
0839A:  MOVLW  05
0839C:  ADDWFC 03,W
0839E:  MOVWF  FEA
083A0:  MOVFF  FEA,6F8
083A4:  MOVFF  FE9,6F7
083A8:  BCF    FD8.1
083AA:  MOVFF  FEF,702
083AE:  MOVFF  FEC,703
083B2:  MOVFF  FEC,704
083B6:  MOVFF  FEC,705
083BA:  MOVLB  7
083BC:  CLRF   x09
083BE:  CLRF   x08
083C0:  CLRF   x07
083C2:  MOVLW  7F
083C4:  MOVWF  x06
083C6:  MOVLB  0
083C8:  CALL   12EE
083CC:  MOVFF  6F8,FEA
083D0:  MOVFF  6F7,FE9
083D4:  MOVFF  00,FEF
083D8:  MOVFF  01,FEC
083DC:  MOVFF  02,FEC
083E0:  MOVFF  03,FEC
083E4:  MOVLB  1
....................                   }     
....................                } 
....................             } 
....................              
....................             if(DOWN){ 
083E6:  BSF    F93.1
083E8:  BTFSC  F81.1
083EA:  BRA    85E8
....................                delay_ms(200); 
083EC:  MOVLW  C8
083EE:  MOVLB  6
083F0:  MOVWF  xFA
083F2:  MOVLB  0
083F4:  CALL   1148
....................                if(DOWN){ 
083F8:  BSF    F93.1
083FA:  BTFSC  F81.1
083FC:  BRA    85E6
....................                   if(Minutos && rampas[CicloLibre-1].Minutos>0){ 
083FE:  MOVLB  1
08400:  BTFSS  xC9.4
08402:  BRA    84F4
08404:  MOVLW  01
08406:  MOVLB  2
08408:  SUBWF  xD9,W
0840A:  MOVLB  6
0840C:  MOVWF  xF2
0840E:  CLRF   xFA
08410:  MOVWF  xF9
08412:  CLRF   xFC
08414:  MOVLW  0F
08416:  MOVWF  xFB
08418:  MOVLB  0
0841A:  CALL   1566
0841E:  MOVFF  01,6F1
08422:  MOVLW  07
08424:  MOVLB  6
08426:  ADDWF  01,W
08428:  MOVWF  01
0842A:  MOVLW  00
0842C:  ADDWFC 02,W
0842E:  MOVWF  03
08430:  MOVF   01,W
08432:  ADDLW  C5
08434:  MOVWF  FE9
08436:  MOVLW  05
08438:  ADDWFC 03,W
0843A:  MOVWF  FEA
0843C:  MOVFF  FEF,6F1
08440:  MOVFF  FEC,6F2
08444:  MOVFF  FEC,6F3
08448:  MOVFF  FEC,6F4
0844C:  CLRF   xF8
0844E:  CLRF   xF7
08450:  CLRF   xF6
08452:  CLRF   xF5
08454:  MOVFF  6F4,6FC
08458:  MOVFF  6F3,6FB
0845C:  MOVFF  6F2,6FA
08460:  MOVFF  6F1,6F9
08464:  MOVLB  0
08466:  CALL   16C0
0846A:  BTFSC  FD8.0
0846C:  BRA    8472
0846E:  MOVLB  1
08470:  BRA    84F4
....................                      rampas[CicloLibre-1].Minutos-=1.0; 
08472:  MOVLW  01
08474:  MOVLB  2
08476:  SUBWF  xD9,W
08478:  MOVLB  6
0847A:  MOVWF  xF2
0847C:  CLRF   xFA
0847E:  MOVWF  xF9
08480:  CLRF   xFC
08482:  MOVLW  0F
08484:  MOVWF  xFB
08486:  MOVLB  0
08488:  CALL   1566
0848C:  MOVFF  02,6F2
08490:  MOVFF  01,6F1
08494:  MOVLW  07
08496:  MOVLB  6
08498:  ADDWF  01,W
0849A:  MOVWF  01
0849C:  MOVLW  00
0849E:  ADDWFC 02,W
084A0:  MOVWF  03
084A2:  MOVF   01,W
084A4:  ADDLW  C5
084A6:  MOVWF  FE9
084A8:  MOVLW  05
084AA:  ADDWFC 03,W
084AC:  MOVWF  FEA
084AE:  MOVFF  FEA,6F8
084B2:  MOVFF  FE9,6F7
084B6:  BSF    FD8.1
084B8:  MOVFF  FEF,702
084BC:  MOVFF  FEC,703
084C0:  MOVFF  FEC,704
084C4:  MOVFF  FEC,705
084C8:  MOVLB  7
084CA:  CLRF   x09
084CC:  CLRF   x08
084CE:  CLRF   x07
084D0:  MOVLW  7F
084D2:  MOVWF  x06
084D4:  MOVLB  0
084D6:  CALL   12EE
084DA:  MOVFF  6F8,FEA
084DE:  MOVFF  6F7,FE9
084E2:  MOVFF  00,FEF
084E6:  MOVFF  01,FEC
084EA:  MOVFF  02,FEC
084EE:  MOVFF  03,FEC
084F2:  MOVLB  1
....................                   } 
....................                   if(Horas && rampas[CicloLibre-1].Horas>0){ 
084F4:  BTFSS  xC9.3
084F6:  BRA    85E8
084F8:  MOVLW  01
084FA:  MOVLB  2
084FC:  SUBWF  xD9,W
084FE:  MOVLB  6
08500:  MOVWF  xF2
08502:  CLRF   xFA
08504:  MOVWF  xF9
08506:  CLRF   xFC
08508:  MOVLW  0F
0850A:  MOVWF  xFB
0850C:  MOVLB  0
0850E:  CALL   1566
08512:  MOVFF  01,6F1
08516:  MOVLW  03
08518:  MOVLB  6
0851A:  ADDWF  01,W
0851C:  MOVWF  01
0851E:  MOVLW  00
08520:  ADDWFC 02,W
08522:  MOVWF  03
08524:  MOVF   01,W
08526:  ADDLW  C5
08528:  MOVWF  FE9
0852A:  MOVLW  05
0852C:  ADDWFC 03,W
0852E:  MOVWF  FEA
08530:  MOVFF  FEF,6F1
08534:  MOVFF  FEC,6F2
08538:  MOVFF  FEC,6F3
0853C:  MOVFF  FEC,6F4
08540:  CLRF   xF8
08542:  CLRF   xF7
08544:  CLRF   xF6
08546:  CLRF   xF5
08548:  MOVFF  6F4,6FC
0854C:  MOVFF  6F3,6FB
08550:  MOVFF  6F2,6FA
08554:  MOVFF  6F1,6F9
08558:  MOVLB  0
0855A:  CALL   16C0
0855E:  BTFSC  FD8.0
08560:  BRA    8566
08562:  MOVLB  1
08564:  BRA    85E8
....................                      rampas[CicloLibre-1].Horas-=1.0; 
08566:  MOVLW  01
08568:  MOVLB  2
0856A:  SUBWF  xD9,W
0856C:  MOVLB  6
0856E:  MOVWF  xF2
08570:  CLRF   xFA
08572:  MOVWF  xF9
08574:  CLRF   xFC
08576:  MOVLW  0F
08578:  MOVWF  xFB
0857A:  MOVLB  0
0857C:  CALL   1566
08580:  MOVFF  02,6F2
08584:  MOVFF  01,6F1
08588:  MOVLW  03
0858A:  MOVLB  6
0858C:  ADDWF  01,W
0858E:  MOVWF  01
08590:  MOVLW  00
08592:  ADDWFC 02,W
08594:  MOVWF  03
08596:  MOVF   01,W
08598:  ADDLW  C5
0859A:  MOVWF  FE9
0859C:  MOVLW  05
0859E:  ADDWFC 03,W
085A0:  MOVWF  FEA
085A2:  MOVFF  FEA,6F8
085A6:  MOVFF  FE9,6F7
085AA:  BSF    FD8.1
085AC:  MOVFF  FEF,702
085B0:  MOVFF  FEC,703
085B4:  MOVFF  FEC,704
085B8:  MOVFF  FEC,705
085BC:  MOVLB  7
085BE:  CLRF   x09
085C0:  CLRF   x08
085C2:  CLRF   x07
085C4:  MOVLW  7F
085C6:  MOVWF  x06
085C8:  MOVLB  0
085CA:  CALL   12EE
085CE:  MOVFF  6F8,FEA
085D2:  MOVFF  6F7,FE9
085D6:  MOVFF  00,FEF
085DA:  MOVFF  01,FEC
085DE:  MOVFF  02,FEC
085E2:  MOVFF  03,FEC
085E6:  MOVLB  1
....................                   }     
....................                } 
....................             } 
....................              
....................             if(RX_Buffer[4]==0x0c || RX_Buffer[4]==0x0d){//Tecla arriba Oprimida 
085E8:  MOVF   2E,W
085EA:  SUBLW  0C
085EC:  BZ    85F6
085EE:  MOVF   2E,W
085F0:  SUBLW  0D
085F2:  BTFSS  FD8.2
085F4:  BRA    8706
....................                if(Minutos){ 
085F6:  BTFSS  xC9.4
085F8:  BRA    867C
....................                   rampas[CicloLibre-1].Minutos+=1.0; 
085FA:  MOVLW  01
085FC:  MOVLB  2
085FE:  SUBWF  xD9,W
08600:  MOVLB  6
08602:  MOVWF  xF2
08604:  CLRF   xFA
08606:  MOVWF  xF9
08608:  CLRF   xFC
0860A:  MOVLW  0F
0860C:  MOVWF  xFB
0860E:  MOVLB  0
08610:  CALL   1566
08614:  MOVFF  02,6F2
08618:  MOVFF  01,6F1
0861C:  MOVLW  07
0861E:  MOVLB  6
08620:  ADDWF  01,W
08622:  MOVWF  01
08624:  MOVLW  00
08626:  ADDWFC 02,W
08628:  MOVWF  03
0862A:  MOVF   01,W
0862C:  ADDLW  C5
0862E:  MOVWF  FE9
08630:  MOVLW  05
08632:  ADDWFC 03,W
08634:  MOVWF  FEA
08636:  MOVFF  FEA,6F8
0863A:  MOVFF  FE9,6F7
0863E:  BCF    FD8.1
08640:  MOVFF  FEF,702
08644:  MOVFF  FEC,703
08648:  MOVFF  FEC,704
0864C:  MOVFF  FEC,705
08650:  MOVLB  7
08652:  CLRF   x09
08654:  CLRF   x08
08656:  CLRF   x07
08658:  MOVLW  7F
0865A:  MOVWF  x06
0865C:  MOVLB  0
0865E:  CALL   12EE
08662:  MOVFF  6F8,FEA
08666:  MOVFF  6F7,FE9
0866A:  MOVFF  00,FEF
0866E:  MOVFF  01,FEC
08672:  MOVFF  02,FEC
08676:  MOVFF  03,FEC
0867A:  MOVLB  1
....................                } 
....................                if(Horas){ 
0867C:  BTFSS  xC9.3
0867E:  BRA    8702
....................                   rampas[CicloLibre-1].Horas+=1.0; 
08680:  MOVLW  01
08682:  MOVLB  2
08684:  SUBWF  xD9,W
08686:  MOVLB  6
08688:  MOVWF  xF2
0868A:  CLRF   xFA
0868C:  MOVWF  xF9
0868E:  CLRF   xFC
08690:  MOVLW  0F
08692:  MOVWF  xFB
08694:  MOVLB  0
08696:  CALL   1566
0869A:  MOVFF  02,6F2
0869E:  MOVFF  01,6F1
086A2:  MOVLW  03
086A4:  MOVLB  6
086A6:  ADDWF  01,W
086A8:  MOVWF  01
086AA:  MOVLW  00
086AC:  ADDWFC 02,W
086AE:  MOVWF  03
086B0:  MOVF   01,W
086B2:  ADDLW  C5
086B4:  MOVWF  FE9
086B6:  MOVLW  05
086B8:  ADDWFC 03,W
086BA:  MOVWF  FEA
086BC:  MOVFF  FEA,6F8
086C0:  MOVFF  FE9,6F7
086C4:  BCF    FD8.1
086C6:  MOVFF  FEF,702
086CA:  MOVFF  FEC,703
086CE:  MOVFF  FEC,704
086D2:  MOVFF  FEC,705
086D6:  MOVLB  7
086D8:  CLRF   x09
086DA:  CLRF   x08
086DC:  CLRF   x07
086DE:  MOVLW  7F
086E0:  MOVWF  x06
086E2:  MOVLB  0
086E4:  CALL   12EE
086E8:  MOVFF  6F8,FEA
086EC:  MOVFF  6F7,FE9
086F0:  MOVFF  00,FEF
086F4:  MOVFF  01,FEC
086F8:  MOVFF  02,FEC
086FC:  MOVFF  03,FEC
08700:  MOVLB  1
....................                }   
....................                RX_Buffer[4]=0x00;   
08702:  CLRF   2E
....................                RX_Buffer2[4]=0x00; 
08704:  CLRF   39
....................             } 
....................              
....................             if(RX_Buffer[4]==0x0f || RX_Buffer[4]==0x0e){//Tecla abajo oprimida 
08706:  MOVF   2E,W
08708:  SUBLW  0F
0870A:  BZ    8714
0870C:  MOVF   2E,W
0870E:  SUBLW  0E
08710:  BTFSS  FD8.2
08712:  BRA    8900
....................                if(Minutos && rampas[CicloLibre-1].Minutos>0){ 
08714:  BTFSS  xC9.4
08716:  BRA    8808
08718:  MOVLW  01
0871A:  MOVLB  2
0871C:  SUBWF  xD9,W
0871E:  MOVLB  6
08720:  MOVWF  xF2
08722:  CLRF   xFA
08724:  MOVWF  xF9
08726:  CLRF   xFC
08728:  MOVLW  0F
0872A:  MOVWF  xFB
0872C:  MOVLB  0
0872E:  CALL   1566
08732:  MOVFF  01,6F1
08736:  MOVLW  07
08738:  MOVLB  6
0873A:  ADDWF  01,W
0873C:  MOVWF  01
0873E:  MOVLW  00
08740:  ADDWFC 02,W
08742:  MOVWF  03
08744:  MOVF   01,W
08746:  ADDLW  C5
08748:  MOVWF  FE9
0874A:  MOVLW  05
0874C:  ADDWFC 03,W
0874E:  MOVWF  FEA
08750:  MOVFF  FEF,6F1
08754:  MOVFF  FEC,6F2
08758:  MOVFF  FEC,6F3
0875C:  MOVFF  FEC,6F4
08760:  CLRF   xF8
08762:  CLRF   xF7
08764:  CLRF   xF6
08766:  CLRF   xF5
08768:  MOVFF  6F4,6FC
0876C:  MOVFF  6F3,6FB
08770:  MOVFF  6F2,6FA
08774:  MOVFF  6F1,6F9
08778:  MOVLB  0
0877A:  CALL   16C0
0877E:  BTFSC  FD8.0
08780:  BRA    8786
08782:  MOVLB  1
08784:  BRA    8808
....................                   rampas[CicloLibre-1].Minutos-=1.0; 
08786:  MOVLW  01
08788:  MOVLB  2
0878A:  SUBWF  xD9,W
0878C:  MOVLB  6
0878E:  MOVWF  xF2
08790:  CLRF   xFA
08792:  MOVWF  xF9
08794:  CLRF   xFC
08796:  MOVLW  0F
08798:  MOVWF  xFB
0879A:  MOVLB  0
0879C:  CALL   1566
087A0:  MOVFF  02,6F2
087A4:  MOVFF  01,6F1
087A8:  MOVLW  07
087AA:  MOVLB  6
087AC:  ADDWF  01,W
087AE:  MOVWF  01
087B0:  MOVLW  00
087B2:  ADDWFC 02,W
087B4:  MOVWF  03
087B6:  MOVF   01,W
087B8:  ADDLW  C5
087BA:  MOVWF  FE9
087BC:  MOVLW  05
087BE:  ADDWFC 03,W
087C0:  MOVWF  FEA
087C2:  MOVFF  FEA,6F8
087C6:  MOVFF  FE9,6F7
087CA:  BSF    FD8.1
087CC:  MOVFF  FEF,702
087D0:  MOVFF  FEC,703
087D4:  MOVFF  FEC,704
087D8:  MOVFF  FEC,705
087DC:  MOVLB  7
087DE:  CLRF   x09
087E0:  CLRF   x08
087E2:  CLRF   x07
087E4:  MOVLW  7F
087E6:  MOVWF  x06
087E8:  MOVLB  0
087EA:  CALL   12EE
087EE:  MOVFF  6F8,FEA
087F2:  MOVFF  6F7,FE9
087F6:  MOVFF  00,FEF
087FA:  MOVFF  01,FEC
087FE:  MOVFF  02,FEC
08802:  MOVFF  03,FEC
08806:  MOVLB  1
....................                } 
....................                if(Horas  && rampas[CicloLibre-1].Horas>0){ 
08808:  BTFSS  xC9.3
0880A:  BRA    88FC
0880C:  MOVLW  01
0880E:  MOVLB  2
08810:  SUBWF  xD9,W
08812:  MOVLB  6
08814:  MOVWF  xF2
08816:  CLRF   xFA
08818:  MOVWF  xF9
0881A:  CLRF   xFC
0881C:  MOVLW  0F
0881E:  MOVWF  xFB
08820:  MOVLB  0
08822:  CALL   1566
08826:  MOVFF  01,6F1
0882A:  MOVLW  03
0882C:  MOVLB  6
0882E:  ADDWF  01,W
08830:  MOVWF  01
08832:  MOVLW  00
08834:  ADDWFC 02,W
08836:  MOVWF  03
08838:  MOVF   01,W
0883A:  ADDLW  C5
0883C:  MOVWF  FE9
0883E:  MOVLW  05
08840:  ADDWFC 03,W
08842:  MOVWF  FEA
08844:  MOVFF  FEF,6F1
08848:  MOVFF  FEC,6F2
0884C:  MOVFF  FEC,6F3
08850:  MOVFF  FEC,6F4
08854:  CLRF   xF8
08856:  CLRF   xF7
08858:  CLRF   xF6
0885A:  CLRF   xF5
0885C:  MOVFF  6F4,6FC
08860:  MOVFF  6F3,6FB
08864:  MOVFF  6F2,6FA
08868:  MOVFF  6F1,6F9
0886C:  MOVLB  0
0886E:  CALL   16C0
08872:  BTFSC  FD8.0
08874:  BRA    887A
08876:  MOVLB  1
08878:  BRA    88FC
....................                   rampas[CicloLibre-1].Horas-=1.0; 
0887A:  MOVLW  01
0887C:  MOVLB  2
0887E:  SUBWF  xD9,W
08880:  MOVLB  6
08882:  MOVWF  xF2
08884:  CLRF   xFA
08886:  MOVWF  xF9
08888:  CLRF   xFC
0888A:  MOVLW  0F
0888C:  MOVWF  xFB
0888E:  MOVLB  0
08890:  CALL   1566
08894:  MOVFF  02,6F2
08898:  MOVFF  01,6F1
0889C:  MOVLW  03
0889E:  MOVLB  6
088A0:  ADDWF  01,W
088A2:  MOVWF  01
088A4:  MOVLW  00
088A6:  ADDWFC 02,W
088A8:  MOVWF  03
088AA:  MOVF   01,W
088AC:  ADDLW  C5
088AE:  MOVWF  FE9
088B0:  MOVLW  05
088B2:  ADDWFC 03,W
088B4:  MOVWF  FEA
088B6:  MOVFF  FEA,6F8
088BA:  MOVFF  FE9,6F7
088BE:  BSF    FD8.1
088C0:  MOVFF  FEF,702
088C4:  MOVFF  FEC,703
088C8:  MOVFF  FEC,704
088CC:  MOVFF  FEC,705
088D0:  MOVLB  7
088D2:  CLRF   x09
088D4:  CLRF   x08
088D6:  CLRF   x07
088D8:  MOVLW  7F
088DA:  MOVWF  x06
088DC:  MOVLB  0
088DE:  CALL   12EE
088E2:  MOVFF  6F8,FEA
088E6:  MOVFF  6F7,FE9
088EA:  MOVFF  00,FEF
088EE:  MOVFF  01,FEC
088F2:  MOVFF  02,FEC
088F6:  MOVFF  03,FEC
088FA:  MOVLB  1
....................                } 
....................                RX_Buffer[4]=0x00;   
088FC:  CLRF   2E
....................                RX_Buffer2[4]=0x00; 
088FE:  CLRF   39
....................             } 
....................              
....................             if(rampas[CicloLibre-1].Horas>99)rampas[CicloLibre-1].Horas=1; 
08900:  MOVLW  01
08902:  MOVLB  2
08904:  SUBWF  xD9,W
08906:  MOVLB  6
08908:  MOVWF  xF2
0890A:  CLRF   xFA
0890C:  MOVWF  xF9
0890E:  CLRF   xFC
08910:  MOVLW  0F
08912:  MOVWF  xFB
08914:  MOVLB  0
08916:  CALL   1566
0891A:  MOVFF  01,6F1
0891E:  MOVLW  03
08920:  MOVLB  6
08922:  ADDWF  01,W
08924:  MOVWF  01
08926:  MOVLW  00
08928:  ADDWFC 02,W
0892A:  MOVWF  03
0892C:  MOVF   01,W
0892E:  ADDLW  C5
08930:  MOVWF  FE9
08932:  MOVLW  05
08934:  ADDWFC 03,W
08936:  MOVWF  FEA
08938:  MOVFF  FEF,6F1
0893C:  MOVFF  FEC,6F2
08940:  MOVFF  FEC,6F3
08944:  MOVFF  FEC,6F4
08948:  CLRF   xF8
0894A:  CLRF   xF7
0894C:  MOVLW  46
0894E:  MOVWF  xF6
08950:  MOVLW  85
08952:  MOVWF  xF5
08954:  MOVFF  6F4,6FC
08958:  MOVFF  6F3,6FB
0895C:  MOVFF  6F2,6FA
08960:  MOVFF  6F1,6F9
08964:  MOVLB  0
08966:  CALL   16C0
0896A:  BNC   89AE
0896C:  MOVLW  01
0896E:  MOVLB  2
08970:  SUBWF  xD9,W
08972:  MOVLB  6
08974:  MOVWF  xF2
08976:  CLRF   xFA
08978:  MOVWF  xF9
0897A:  CLRF   xFC
0897C:  MOVLW  0F
0897E:  MOVWF  xFB
08980:  MOVLB  0
08982:  CALL   1566
08986:  MOVFF  01,6F1
0898A:  MOVLW  03
0898C:  MOVLB  6
0898E:  ADDWF  01,W
08990:  MOVWF  01
08992:  MOVLW  00
08994:  ADDWFC 02,W
08996:  MOVWF  03
08998:  MOVF   01,W
0899A:  ADDLW  C5
0899C:  MOVWF  FE9
0899E:  MOVLW  05
089A0:  ADDWFC 03,W
089A2:  MOVWF  FEA
089A4:  MOVLW  7F
089A6:  MOVWF  FEF
089A8:  CLRF   FEC
089AA:  CLRF   FEC
089AC:  CLRF   FEC
....................             if(rampas[CicloLibre-1].Minutos>59)rampas[CicloLibre-1].Minutos=0; 
089AE:  MOVLW  01
089B0:  MOVLB  2
089B2:  SUBWF  xD9,W
089B4:  MOVLB  6
089B6:  MOVWF  xF2
089B8:  CLRF   xFA
089BA:  MOVWF  xF9
089BC:  CLRF   xFC
089BE:  MOVLW  0F
089C0:  MOVWF  xFB
089C2:  MOVLB  0
089C4:  CALL   1566
089C8:  MOVFF  01,6F1
089CC:  MOVLW  07
089CE:  MOVLB  6
089D0:  ADDWF  01,W
089D2:  MOVWF  01
089D4:  MOVLW  00
089D6:  ADDWFC 02,W
089D8:  MOVWF  03
089DA:  MOVF   01,W
089DC:  ADDLW  C5
089DE:  MOVWF  FE9
089E0:  MOVLW  05
089E2:  ADDWFC 03,W
089E4:  MOVWF  FEA
089E6:  MOVFF  FEF,6F1
089EA:  MOVFF  FEC,6F2
089EE:  MOVFF  FEC,6F3
089F2:  MOVFF  FEC,6F4
089F6:  CLRF   xF8
089F8:  CLRF   xF7
089FA:  MOVLW  6C
089FC:  MOVWF  xF6
089FE:  MOVLW  84
08A00:  MOVWF  xF5
08A02:  MOVFF  6F4,6FC
08A06:  MOVFF  6F3,6FB
08A0A:  MOVFF  6F2,6FA
08A0E:  MOVFF  6F1,6F9
08A12:  MOVLB  0
08A14:  CALL   16C0
08A18:  BNC   8A5A
08A1A:  MOVLW  01
08A1C:  MOVLB  2
08A1E:  SUBWF  xD9,W
08A20:  MOVLB  6
08A22:  MOVWF  xF2
08A24:  CLRF   xFA
08A26:  MOVWF  xF9
08A28:  CLRF   xFC
08A2A:  MOVLW  0F
08A2C:  MOVWF  xFB
08A2E:  MOVLB  0
08A30:  CALL   1566
08A34:  MOVFF  01,6F1
08A38:  MOVLW  07
08A3A:  MOVLB  6
08A3C:  ADDWF  01,W
08A3E:  MOVWF  01
08A40:  MOVLW  00
08A42:  ADDWFC 02,W
08A44:  MOVWF  03
08A46:  MOVF   01,W
08A48:  ADDLW  C5
08A4A:  MOVWF  FE9
08A4C:  MOVLW  05
08A4E:  ADDWFC 03,W
08A50:  MOVWF  FEA
08A52:  CLRF   FEF
08A54:  CLRF   FEC
08A56:  CLRF   FEC
08A58:  CLRF   FEC
....................                 
....................             printf("tminsec.txt=\"%02.0f\"",rampas[CicloLibre-1].Horas); 
08A5A:  MOVLW  01
08A5C:  MOVLB  2
08A5E:  SUBWF  xD9,W
08A60:  MOVLB  6
08A62:  MOVWF  xF2
08A64:  CLRF   xFA
08A66:  MOVWF  xF9
08A68:  CLRF   xFC
08A6A:  MOVLW  0F
08A6C:  MOVWF  xFB
08A6E:  MOVLB  0
08A70:  CALL   1566
08A74:  MOVFF  01,6F1
08A78:  MOVLW  03
08A7A:  MOVLB  6
08A7C:  ADDWF  01,W
08A7E:  MOVWF  01
08A80:  MOVLW  00
08A82:  ADDWFC 02,W
08A84:  MOVWF  03
08A86:  MOVF   01,W
08A88:  ADDLW  C5
08A8A:  MOVWF  FE9
08A8C:  MOVLW  05
08A8E:  ADDWFC 03,W
08A90:  MOVWF  FEA
08A92:  MOVFF  FEF,6F1
08A96:  MOVFF  FEC,6F2
08A9A:  MOVFF  FEC,6F3
08A9E:  MOVFF  FEC,6F4
08AA2:  MOVLW  8E
08AA4:  MOVWF  FF6
08AA6:  MOVLW  06
08AA8:  MOVWF  FF7
08AAA:  MOVLW  00
08AAC:  MOVWF  FF8
08AAE:  MOVLW  0D
08AB0:  MOVWF  xF9
08AB2:  MOVLB  0
08AB4:  CALL   3AD4
08AB8:  MOVLW  41
08ABA:  MOVWF  FE9
08ABC:  MOVFF  6F4,6FC
08AC0:  MOVFF  6F3,6FB
08AC4:  MOVFF  6F2,6FA
08AC8:  MOVFF  6F1,6F9
08ACC:  MOVLB  6
08ACE:  CLRF   xFD
08AD0:  MOVLB  0
08AD2:  CALL   3C74
08AD6:  MOVLW  22
08AD8:  BTFSS  F9E.4
08ADA:  BRA    8AD8
08ADC:  MOVWF  FAD
....................             SendDataDisplay(); 
08ADE:  CALL   2D18
....................             printf("tsecsec.txt=\"%02.0f\"",rampas[CicloLibre-1].Minutos); 
08AE2:  MOVLW  01
08AE4:  MOVLB  2
08AE6:  SUBWF  xD9,W
08AE8:  MOVLB  6
08AEA:  MOVWF  xF2
08AEC:  CLRF   xFA
08AEE:  MOVWF  xF9
08AF0:  CLRF   xFC
08AF2:  MOVLW  0F
08AF4:  MOVWF  xFB
08AF6:  MOVLB  0
08AF8:  CALL   1566
08AFC:  MOVFF  01,6F1
08B00:  MOVLW  07
08B02:  MOVLB  6
08B04:  ADDWF  01,W
08B06:  MOVWF  01
08B08:  MOVLW  00
08B0A:  ADDWFC 02,W
08B0C:  MOVWF  03
08B0E:  MOVF   01,W
08B10:  ADDLW  C5
08B12:  MOVWF  FE9
08B14:  MOVLW  05
08B16:  ADDWFC 03,W
08B18:  MOVWF  FEA
08B1A:  MOVFF  FEF,6F1
08B1E:  MOVFF  FEC,6F2
08B22:  MOVFF  FEC,6F3
08B26:  MOVFF  FEC,6F4
08B2A:  MOVLW  A4
08B2C:  MOVWF  FF6
08B2E:  MOVLW  06
08B30:  MOVWF  FF7
08B32:  MOVLW  00
08B34:  MOVWF  FF8
08B36:  MOVLW  0D
08B38:  MOVWF  xF9
08B3A:  MOVLB  0
08B3C:  CALL   3AD4
08B40:  MOVLW  41
08B42:  MOVWF  FE9
08B44:  MOVFF  6F4,6FC
08B48:  MOVFF  6F3,6FB
08B4C:  MOVFF  6F2,6FA
08B50:  MOVFF  6F1,6F9
08B54:  MOVLB  6
08B56:  CLRF   xFD
08B58:  MOVLB  0
08B5A:  CALL   3C74
08B5E:  MOVLW  22
08B60:  BTFSS  F9E.4
08B62:  BRA    8B60
08B64:  MOVWF  FAD
....................             SendDataDisplay(); 
08B66:  CALL   2D18
08B6A:  MOVLB  1
....................          } 
....................     } 
.................... //_--------------------------------------------------------------------------------------------------------------------------------------------------------        
....................  
.................... //_-------------------------------------------------------------------------------------------------------------------------------------------------------- 
....................     if(Menu==3){ //Menu de Temperatura 
08B6C:  MOVF   xFE,W
08B6E:  SUBLW  03
08B70:  BTFSS  FD8.2
08B72:  GOTO   9B82
....................       printf("fecha.txt=\"Fecha:%02u/%02u/20%02u    Hora: %02u:%02u:%02u\"",Dia,Mes,Year,Hora,Minuto,Segundo); 
08B76:  MOVLW  BA
08B78:  MOVWF  FF6
08B7A:  MOVLW  06
08B7C:  MOVWF  FF7
08B7E:  MOVLW  00
08B80:  MOVWF  FF8
08B82:  MOVLW  11
08B84:  MOVLB  6
08B86:  MOVWF  xF9
08B88:  MOVLB  0
08B8A:  CALL   3AD4
08B8E:  MOVFF  2CE,6F2
08B92:  MOVLW  01
08B94:  MOVLB  6
08B96:  MOVWF  xF3
08B98:  MOVLB  0
08B9A:  CALL   3B32
08B9E:  MOVLW  2F
08BA0:  BTFSS  F9E.4
08BA2:  BRA    8BA0
08BA4:  MOVWF  FAD
08BA6:  MOVFF  2CD,6F2
08BAA:  MOVLW  01
08BAC:  MOVLB  6
08BAE:  MOVWF  xF3
08BB0:  MOVLB  0
08BB2:  CALL   3B32
08BB6:  MOVLW  2F
08BB8:  BTFSS  F9E.4
08BBA:  BRA    8BB8
08BBC:  MOVWF  FAD
08BBE:  MOVLW  32
08BC0:  BTFSS  F9E.4
08BC2:  BRA    8BC0
08BC4:  MOVWF  FAD
08BC6:  MOVLW  30
08BC8:  BTFSS  F9E.4
08BCA:  BRA    8BC8
08BCC:  MOVWF  FAD
08BCE:  MOVFF  2CC,6F2
08BD2:  MOVLW  01
08BD4:  MOVLB  6
08BD6:  MOVWF  xF3
08BD8:  MOVLB  0
08BDA:  CALL   3B32
08BDE:  MOVLW  DB
08BE0:  MOVWF  FF6
08BE2:  MOVLW  06
08BE4:  MOVWF  FF7
08BE6:  MOVLW  00
08BE8:  MOVWF  FF8
08BEA:  MOVLW  0A
08BEC:  MOVLB  6
08BEE:  MOVWF  xF9
08BF0:  MOVLB  0
08BF2:  CALL   3AD4
08BF6:  MOVFF  2CF,6F2
08BFA:  MOVLW  01
08BFC:  MOVLB  6
08BFE:  MOVWF  xF3
08C00:  MOVLB  0
08C02:  CALL   3B32
08C06:  MOVLW  3A
08C08:  BTFSS  F9E.4
08C0A:  BRA    8C08
08C0C:  MOVWF  FAD
08C0E:  MOVFF  2D0,6F2
08C12:  MOVLW  01
08C14:  MOVLB  6
08C16:  MOVWF  xF3
08C18:  MOVLB  0
08C1A:  CALL   3B32
08C1E:  MOVLW  3A
08C20:  BTFSS  F9E.4
08C22:  BRA    8C20
08C24:  MOVWF  FAD
08C26:  MOVFF  2D1,6F2
08C2A:  MOVLW  01
08C2C:  MOVLB  6
08C2E:  MOVWF  xF3
08C30:  MOVLB  0
08C32:  CALL   3B32
08C36:  MOVLW  22
08C38:  BTFSS  F9E.4
08C3A:  BRA    8C38
08C3C:  MOVWF  FAD
....................       SendDataDisplay(); 
08C3E:  CALL   2D18
....................        
....................         if(Rx_Buffer[4]==0x20){//Selecciono x1 
08C42:  MOVF   2E,W
08C44:  SUBLW  20
08C46:  BNZ   8C94
....................             x1=ON; 
08C48:  MOVLB  1
08C4A:  BSF    xCC.1
....................             x10=OFF; 
08C4C:  BCF    xCC.2
....................             x100=OFF; 
08C4E:  BCF    xCC.3
....................             printf("c0.val=1"); 
08C50:  MOVLW  F6
08C52:  MOVWF  FF6
08C54:  MOVLW  06
08C56:  MOVWF  FF7
08C58:  MOVLW  00
08C5A:  MOVWF  FF8
08C5C:  MOVLB  0
08C5E:  CALL   2CE6
....................             SendDataDisplay(); 
08C62:  CALL   2D18
....................             printf("c1.val=0"); 
08C66:  MOVLW  00
08C68:  MOVWF  FF6
08C6A:  MOVLW  07
08C6C:  MOVWF  FF7
08C6E:  MOVLW  00
08C70:  MOVWF  FF8
08C72:  CALL   2CE6
....................             SendDataDisplay(); 
08C76:  CALL   2D18
....................             printf("c2.val=0"); 
08C7A:  MOVLW  0A
08C7C:  MOVWF  FF6
08C7E:  MOVLW  07
08C80:  MOVWF  FF7
08C82:  MOVLW  00
08C84:  MOVWF  FF8
08C86:  CALL   2CE6
....................             SendDataDisplay(); 
08C8A:  CALL   2D18
....................             Rx_Buffer[4]=0x00;   
08C8E:  CLRF   2E
....................             Rx_Buffer2[4]=0x00;      
08C90:  CLRF   39
....................         }else if(Rx_Buffer[4]==0x21){//Selecciono x10 
08C92:  BRA    8D36
08C94:  MOVF   2E,W
08C96:  SUBLW  21
08C98:  BNZ   8CE6
....................             x1=OFF; 
08C9A:  MOVLB  1
08C9C:  BCF    xCC.1
....................             x10=ON; 
08C9E:  BSF    xCC.2
....................             x100=OFF; 
08CA0:  BCF    xCC.3
....................             printf("c0.val=0"); 
08CA2:  MOVLW  14
08CA4:  MOVWF  FF6
08CA6:  MOVLW  07
08CA8:  MOVWF  FF7
08CAA:  MOVLW  00
08CAC:  MOVWF  FF8
08CAE:  MOVLB  0
08CB0:  CALL   2CE6
....................             SendDataDisplay(); 
08CB4:  CALL   2D18
....................             printf("c1.val=1"); 
08CB8:  MOVLW  1E
08CBA:  MOVWF  FF6
08CBC:  MOVLW  07
08CBE:  MOVWF  FF7
08CC0:  MOVLW  00
08CC2:  MOVWF  FF8
08CC4:  CALL   2CE6
....................             SendDataDisplay(); 
08CC8:  CALL   2D18
....................             printf("c2.val=0"); 
08CCC:  MOVLW  28
08CCE:  MOVWF  FF6
08CD0:  MOVLW  07
08CD2:  MOVWF  FF7
08CD4:  MOVLW  00
08CD6:  MOVWF  FF8
08CD8:  CALL   2CE6
....................             SendDataDisplay(); 
08CDC:  CALL   2D18
....................             Rx_Buffer[4]=0x00;   
08CE0:  CLRF   2E
....................             Rx_Buffer2[4]=0x00;      
08CE2:  CLRF   39
....................         }else if(Rx_Buffer[4]==0x22){//Selecciono x100 
08CE4:  BRA    8D36
08CE6:  MOVF   2E,W
08CE8:  SUBLW  22
08CEA:  BNZ   8D36
....................             x1=OFF; 
08CEC:  MOVLB  1
08CEE:  BCF    xCC.1
....................             x10=OFF; 
08CF0:  BCF    xCC.2
....................             x100=ON; 
08CF2:  BSF    xCC.3
....................             printf("c0.val=0"); 
08CF4:  MOVLW  32
08CF6:  MOVWF  FF6
08CF8:  MOVLW  07
08CFA:  MOVWF  FF7
08CFC:  MOVLW  00
08CFE:  MOVWF  FF8
08D00:  MOVLB  0
08D02:  CALL   2CE6
....................             SendDataDisplay(); 
08D06:  CALL   2D18
....................             printf("c1.val=0"); 
08D0A:  MOVLW  3C
08D0C:  MOVWF  FF6
08D0E:  MOVLW  07
08D10:  MOVWF  FF7
08D12:  MOVLW  00
08D14:  MOVWF  FF8
08D16:  CALL   2CE6
....................             SendDataDisplay(); 
08D1A:  CALL   2D18
....................             printf("c2.val=1"); 
08D1E:  MOVLW  46
08D20:  MOVWF  FF6
08D22:  MOVLW  07
08D24:  MOVWF  FF7
08D26:  MOVLW  00
08D28:  MOVWF  FF8
08D2A:  CALL   2CE6
....................             SendDataDisplay(); 
08D2E:  CALL   2D18
....................             Rx_Buffer[4]=0x00;   
08D32:  CLRF   2E
....................             Rx_Buffer2[4]=0x00;      
08D34:  CLRF   39
....................         } 
....................        
....................       if(!rampa){ 
08D36:  MOVLB  1
08D38:  BTFSC  xCB.5
08D3A:  BRA    9240
....................          if(Setpoint<-12.0) 
08D3C:  MOVFF  273,6F8
08D40:  MOVFF  272,6F7
08D44:  MOVFF  271,6F6
08D48:  MOVFF  270,6F5
08D4C:  MOVLB  6
08D4E:  CLRF   xFC
08D50:  CLRF   xFB
08D52:  MOVLW  C0
08D54:  MOVWF  xFA
08D56:  MOVLW  82
08D58:  MOVWF  xF9
08D5A:  MOVLB  0
08D5C:  CALL   16C0
08D60:  BNC   8D70
....................             Setpoint=60.0; 
08D62:  MOVLB  2
08D64:  CLRF   x73
08D66:  CLRF   x72
08D68:  MOVLW  70
08D6A:  MOVWF  x71
08D6C:  MOVLW  84
08D6E:  MOVWF  x70
....................          if(Setpoint>60.0) 
08D70:  MOVLB  6
08D72:  CLRF   xF8
08D74:  CLRF   xF7
08D76:  MOVLW  70
08D78:  MOVWF  xF6
08D7A:  MOVLW  84
08D7C:  MOVWF  xF5
08D7E:  MOVFF  273,6FC
08D82:  MOVFF  272,6FB
08D86:  MOVFF  271,6FA
08D8A:  MOVFF  270,6F9
08D8E:  MOVLB  0
08D90:  CALL   16C0
08D94:  BNC   8DA6
....................             Setpoint=-12.0; 
08D96:  MOVLB  2
08D98:  CLRF   x73
08D9A:  CLRF   x72
08D9C:  MOVLW  C0
08D9E:  MOVWF  x71
08DA0:  MOVLW  82
08DA2:  MOVWF  x70
08DA4:  MOVLB  0
....................           
....................          if(RX_Buffer[4]==0x11 || LEFT){//Selecciono Regresar 
08DA6:  MOVF   2E,W
08DA8:  SUBLW  11
08DAA:  BZ    8DB2
08DAC:  BSF    F93.3
08DAE:  BTFSC  F81.3
08DB0:  BRA    9068
....................             Horas=OFF; 
08DB2:  MOVLB  1
08DB4:  BCF    xC9.3
....................             Minutos=OFF; 
08DB6:  BCF    xC9.4
....................             printf("page Principal"); 
08DB8:  MOVLW  50
08DBA:  MOVWF  FF6
08DBC:  MOVLW  07
08DBE:  MOVWF  FF7
08DC0:  MOVLW  00
08DC2:  MOVWF  FF8
08DC4:  MOVLB  0
08DC6:  CALL   2CE6
....................             SendDataDisplay();   
08DCA:  CALL   2D18
....................             if(!GuardaEEPROM){ 
08DCE:  MOVLB  1
08DD0:  BTFSC  xC9.2
08DD2:  BRA    8F48
....................                if(Setpoint<0){ 
08DD4:  MOVFF  273,6F8
08DD8:  MOVFF  272,6F7
08DDC:  MOVFF  271,6F6
08DE0:  MOVFF  270,6F5
08DE4:  MOVLB  6
08DE6:  CLRF   xFC
08DE8:  CLRF   xFB
08DEA:  CLRF   xFA
08DEC:  CLRF   xF9
08DEE:  MOVLB  0
08DF0:  CALL   16C0
08DF4:  BNC   8E32
....................                   write_eeprom(79,20); 
08DF6:  CLRF   FAA
08DF8:  MOVLW  4F
08DFA:  MOVWF  FA9
08DFC:  MOVLW  14
08DFE:  MOVWF  FA8
08E00:  BCF    FA6.6
08E02:  BCF    FA6.7
08E04:  BSF    FA6.2
08E06:  MOVF   FF2,W
08E08:  MOVWF  00
08E0A:  BCF    FF2.6
08E0C:  BCF    FF2.7
08E0E:  MOVLB  F
08E10:  MOVLW  55
08E12:  MOVWF  FA7
08E14:  MOVLW  AA
08E16:  MOVWF  FA7
08E18:  BSF    FA6.1
08E1A:  BTFSC  FA6.1
08E1C:  BRA    8E1A
08E1E:  BCF    FA6.2
08E20:  MOVF   00,W
08E22:  IORWF  FF2,F
....................                   delay_ms(10); 
08E24:  MOVLW  0A
08E26:  MOVLB  6
08E28:  MOVWF  xFA
08E2A:  MOVLB  0
08E2C:  CALL   1148
....................                }else{ 
08E30:  BRA    8E6C
....................                   write_eeprom(79,10); 
08E32:  CLRF   FAA
08E34:  MOVLW  4F
08E36:  MOVWF  FA9
08E38:  MOVLW  0A
08E3A:  MOVWF  FA8
08E3C:  BCF    FA6.6
08E3E:  BCF    FA6.7
08E40:  BSF    FA6.2
08E42:  MOVF   FF2,W
08E44:  MOVWF  00
08E46:  BCF    FF2.6
08E48:  BCF    FF2.7
08E4A:  MOVLB  F
08E4C:  MOVLW  55
08E4E:  MOVWF  FA7
08E50:  MOVLW  AA
08E52:  MOVWF  FA7
08E54:  BSF    FA6.1
08E56:  BTFSC  FA6.1
08E58:  BRA    8E56
08E5A:  BCF    FA6.2
08E5C:  MOVF   00,W
08E5E:  IORWF  FF2,F
....................                   delay_ms(10); 
08E60:  MOVLW  0A
08E62:  MOVLB  6
08E64:  MOVWF  xFA
08E66:  MOVLB  0
08E68:  CALL   1148
....................                } 
....................                write_eeprom(80,(int8)abs(Setpoint)); 
08E6C:  MOVFF  270,00
08E70:  MOVFF  271,01
08E74:  MOVFF  272,02
08E78:  MOVFF  273,03
08E7C:  BCF    01.7
08E7E:  MOVFF  03,705
08E82:  MOVFF  02,704
08E86:  MOVFF  01,703
08E8A:  MOVFF  00,702
08E8E:  CALL   371E
08E92:  MOVFF  01,6F1
08E96:  CLRF   FAA
08E98:  MOVLW  50
08E9A:  MOVWF  FA9
08E9C:  MOVFF  6F1,FA8
08EA0:  BCF    FA6.6
08EA2:  BCF    FA6.7
08EA4:  BSF    FA6.2
08EA6:  MOVF   FF2,W
08EA8:  MOVWF  00
08EAA:  BCF    FF2.6
08EAC:  BCF    FF2.7
08EAE:  MOVLB  F
08EB0:  MOVLW  55
08EB2:  MOVWF  FA7
08EB4:  MOVLW  AA
08EB6:  MOVWF  FA7
08EB8:  BSF    FA6.1
08EBA:  BTFSC  FA6.1
08EBC:  BRA    8EBA
08EBE:  BCF    FA6.2
08EC0:  MOVF   00,W
08EC2:  IORWF  FF2,F
....................                delay_ms(10); 
08EC4:  MOVLW  0A
08EC6:  MOVLB  6
08EC8:  MOVWF  xFA
08ECA:  MOVLB  0
08ECC:  CALL   1148
....................                write_eeprom(81,extraeDecimal(abs(Setpoint))); 
08ED0:  MOVFF  270,00
08ED4:  MOVFF  271,01
08ED8:  MOVFF  272,02
08EDC:  MOVFF  273,03
08EE0:  BCF    01.7
08EE2:  MOVFF  00,6F1
08EE6:  MOVFF  01,6F2
08EEA:  MOVFF  02,6F3
08EEE:  MOVFF  03,6F4
08EF2:  MOVFF  6F4,6F9
08EF6:  MOVFF  6F3,6F8
08EFA:  MOVFF  6F2,6F7
08EFE:  MOVFF  6F1,6F6
08F02:  CALL   3E48
08F06:  MOVFF  01,6F1
08F0A:  CLRF   FAA
08F0C:  MOVLW  51
08F0E:  MOVWF  FA9
08F10:  MOVFF  6F1,FA8
08F14:  BCF    FA6.6
08F16:  BCF    FA6.7
08F18:  BSF    FA6.2
08F1A:  MOVF   FF2,W
08F1C:  MOVWF  00
08F1E:  BCF    FF2.6
08F20:  BCF    FF2.7
08F22:  MOVLB  F
08F24:  MOVLW  55
08F26:  MOVWF  FA7
08F28:  MOVLW  AA
08F2A:  MOVWF  FA7
08F2C:  BSF    FA6.1
08F2E:  BTFSC  FA6.1
08F30:  BRA    8F2E
08F32:  BCF    FA6.2
08F34:  MOVF   00,W
08F36:  IORWF  FF2,F
....................                delay_ms(10); 
08F38:  MOVLW  0A
08F3A:  MOVLB  6
08F3C:  MOVWF  xFA
08F3E:  MOVLB  0
08F40:  CALL   1148
....................                GuardaEEPROM=ON; 
08F44:  MOVLB  1
08F46:  BSF    xC9.2
....................             } 
....................             if(Setpoint<Temperatura){ 
08F48:  MOVFF  273,6F8
08F4C:  MOVFF  272,6F7
08F50:  MOVFF  271,6F6
08F54:  MOVFF  270,6F5
08F58:  MOVFF  26B,6FC
08F5C:  MOVFF  26A,6FB
08F60:  MOVFF  269,6FA
08F64:  MOVFF  268,6F9
08F68:  MOVLB  0
08F6A:  CALL   16C0
08F6E:  BNC   8FD2
....................                Enfria=1; 
08F70:  MOVLW  01
08F72:  MOVLB  1
08F74:  MOVWF  xD5
....................                Ganancia=GananciaR*(Setpoint/200); 
08F76:  MOVFF  273,6FE
08F7A:  MOVFF  272,6FD
08F7E:  MOVFF  271,6FC
08F82:  MOVFF  270,6FB
08F86:  MOVLB  7
08F88:  CLRF   x02
08F8A:  CLRF   x01
08F8C:  MOVLW  48
08F8E:  MOVWF  x00
08F90:  MOVLW  86
08F92:  MOVLB  6
08F94:  MOVWF  xFF
08F96:  MOVLB  0
08F98:  CALL   1170
08F9C:  MOVFF  253,710
08FA0:  MOVFF  252,70F
08FA4:  MOVFF  251,70E
08FA8:  MOVFF  250,70D
08FAC:  MOVFF  03,714
08FB0:  MOVFF  02,713
08FB4:  MOVFF  01,712
08FB8:  MOVFF  00,711
08FBC:  CALL   15CA
08FC0:  MOVFF  03,24F
08FC4:  MOVFF  02,24E
08FC8:  MOVFF  01,24D
08FCC:  MOVFF  00,24C
....................                //Ganancia=4; 
....................             }else{ 
08FD0:  BRA    9068
....................                Enfria=0; 
08FD2:  MOVLB  1
08FD4:  CLRF   xD5
....................                Ganancia=GananciaR*(Setpoint/200); 
08FD6:  MOVFF  273,6FE
08FDA:  MOVFF  272,6FD
08FDE:  MOVFF  271,6FC
08FE2:  MOVFF  270,6FB
08FE6:  MOVLB  7
08FE8:  CLRF   x02
08FEA:  CLRF   x01
08FEC:  MOVLW  48
08FEE:  MOVWF  x00
08FF0:  MOVLW  86
08FF2:  MOVLB  6
08FF4:  MOVWF  xFF
08FF6:  MOVLB  0
08FF8:  CALL   1170
08FFC:  MOVFF  253,710
09000:  MOVFF  252,70F
09004:  MOVFF  251,70E
09008:  MOVFF  250,70D
0900C:  MOVFF  03,714
09010:  MOVFF  02,713
09014:  MOVFF  01,712
09018:  MOVFF  00,711
0901C:  CALL   15CA
09020:  MOVFF  03,24F
09024:  MOVFF  02,24E
09028:  MOVFF  01,24D
0902C:  MOVFF  00,24C
....................                Gananciamax=(0.21)*Setpoint; 
09030:  MOVLW  3D
09032:  MOVLB  7
09034:  MOVWF  x10
09036:  MOVLW  0A
09038:  MOVWF  x0F
0903A:  MOVLW  57
0903C:  MOVWF  x0E
0903E:  MOVLW  7C
09040:  MOVWF  x0D
09042:  MOVFF  273,714
09046:  MOVFF  272,713
0904A:  MOVFF  271,712
0904E:  MOVFF  270,711
09052:  MOVLB  0
09054:  CALL   15CA
09058:  MOVFF  03,22B
0905C:  MOVFF  02,22A
09060:  MOVFF  01,229
09064:  MOVFF  00,228
....................             } 
....................          } 
....................           
....................          if(RX_Buffer[4]==0x0d){//Tecla Arriba Oprimida 
09068:  MOVF   2E,W
0906A:  SUBLW  0D
0906C:  BNZ   9130
....................             if(x1) 
0906E:  MOVLB  1
09070:  BTFSS  xCC.1
09072:  BRA    90B2
....................                 Setpoint+=0.1;     
09074:  BCF    FD8.1
09076:  MOVFF  273,705
0907A:  MOVFF  272,704
0907E:  MOVFF  271,703
09082:  MOVFF  270,702
09086:  MOVLW  CD
09088:  MOVLB  7
0908A:  MOVWF  x09
0908C:  MOVLW  CC
0908E:  MOVWF  x08
09090:  MOVLW  4C
09092:  MOVWF  x07
09094:  MOVLW  7B
09096:  MOVWF  x06
09098:  MOVLB  0
0909A:  CALL   12EE
0909E:  MOVFF  03,273
090A2:  MOVFF  02,272
090A6:  MOVFF  01,271
090AA:  MOVFF  00,270
....................             else if(x10)     
090AE:  BRA    9128
090B0:  MOVLB  1
090B2:  BTFSS  xCC.2
090B4:  BRA    90EE
....................                 Setpoint+=1;     
090B6:  BCF    FD8.1
090B8:  MOVFF  273,705
090BC:  MOVFF  272,704
090C0:  MOVFF  271,703
090C4:  MOVFF  270,702
090C8:  MOVLB  7
090CA:  CLRF   x09
090CC:  CLRF   x08
090CE:  CLRF   x07
090D0:  MOVLW  7F
090D2:  MOVWF  x06
090D4:  MOVLB  0
090D6:  CALL   12EE
090DA:  MOVFF  03,273
090DE:  MOVFF  02,272
090E2:  MOVFF  01,271
090E6:  MOVFF  00,270
....................             else if(x100)     
090EA:  BRA    9128
090EC:  MOVLB  1
090EE:  BTFSS  xCC.3
090F0:  BRA    912A
....................                 Setpoint+=10;  
090F2:  BCF    FD8.1
090F4:  MOVFF  273,705
090F8:  MOVFF  272,704
090FC:  MOVFF  271,703
09100:  MOVFF  270,702
09104:  MOVLB  7
09106:  CLRF   x09
09108:  CLRF   x08
0910A:  MOVLW  20
0910C:  MOVWF  x07
0910E:  MOVLW  82
09110:  MOVWF  x06
09112:  MOVLB  0
09114:  CALL   12EE
09118:  MOVFF  03,273
0911C:  MOVFF  02,272
09120:  MOVFF  01,271
09124:  MOVFF  00,270
09128:  MOVLB  1
....................             RX_Buffer[4]=0x00;   
0912A:  CLRF   2E
....................             RX_Buffer2[4]=0x00;             
0912C:  CLRF   39
0912E:  MOVLB  0
....................          } 
....................           
....................          if(RX_Buffer[4]==0x0c){//Tecla Abajo Oprimida 
09130:  MOVF   2E,W
09132:  SUBLW  0C
09134:  BNZ   91F8
....................             if(x1) 
09136:  MOVLB  1
09138:  BTFSS  xCC.1
0913A:  BRA    917A
....................                 Setpoint-=0.1;     
0913C:  BSF    FD8.1
0913E:  MOVFF  273,705
09142:  MOVFF  272,704
09146:  MOVFF  271,703
0914A:  MOVFF  270,702
0914E:  MOVLW  CD
09150:  MOVLB  7
09152:  MOVWF  x09
09154:  MOVLW  CC
09156:  MOVWF  x08
09158:  MOVLW  4C
0915A:  MOVWF  x07
0915C:  MOVLW  7B
0915E:  MOVWF  x06
09160:  MOVLB  0
09162:  CALL   12EE
09166:  MOVFF  03,273
0916A:  MOVFF  02,272
0916E:  MOVFF  01,271
09172:  MOVFF  00,270
....................             else if(x10)     
09176:  BRA    91F0
09178:  MOVLB  1
0917A:  BTFSS  xCC.2
0917C:  BRA    91B6
....................                 Setpoint-=1;     
0917E:  BSF    FD8.1
09180:  MOVFF  273,705
09184:  MOVFF  272,704
09188:  MOVFF  271,703
0918C:  MOVFF  270,702
09190:  MOVLB  7
09192:  CLRF   x09
09194:  CLRF   x08
09196:  CLRF   x07
09198:  MOVLW  7F
0919A:  MOVWF  x06
0919C:  MOVLB  0
0919E:  CALL   12EE
091A2:  MOVFF  03,273
091A6:  MOVFF  02,272
091AA:  MOVFF  01,271
091AE:  MOVFF  00,270
....................             else if(x100)     
091B2:  BRA    91F0
091B4:  MOVLB  1
091B6:  BTFSS  xCC.3
091B8:  BRA    91F2
....................                 Setpoint-=10; 
091BA:  BSF    FD8.1
091BC:  MOVFF  273,705
091C0:  MOVFF  272,704
091C4:  MOVFF  271,703
091C8:  MOVFF  270,702
091CC:  MOVLB  7
091CE:  CLRF   x09
091D0:  CLRF   x08
091D2:  MOVLW  20
091D4:  MOVWF  x07
091D6:  MOVLW  82
091D8:  MOVWF  x06
091DA:  MOVLB  0
091DC:  CALL   12EE
091E0:  MOVFF  03,273
091E4:  MOVFF  02,272
091E8:  MOVFF  01,271
091EC:  MOVFF  00,270
091F0:  MOVLB  1
....................             RX_Buffer[4]=0x00; 
091F2:  CLRF   2E
....................             RX_Buffer2[4]=0x00;                         
091F4:  CLRF   39
091F6:  MOVLB  0
....................          } 
....................          printf("tsettem.txt=\"%2.1f\"",Setpoint); 
091F8:  MOVLW  60
091FA:  MOVWF  FF6
091FC:  MOVLW  07
091FE:  MOVWF  FF7
09200:  MOVLW  00
09202:  MOVWF  FF8
09204:  MOVLW  0D
09206:  MOVLB  6
09208:  MOVWF  xF9
0920A:  MOVLB  0
0920C:  CALL   3AD4
09210:  MOVLW  01
09212:  MOVWF  FE9
09214:  MOVFF  273,6FC
09218:  MOVFF  272,6FB
0921C:  MOVFF  271,6FA
09220:  MOVFF  270,6F9
09224:  MOVLB  6
09226:  MOVWF  xFD
09228:  MOVLB  0
0922A:  CALL   3C74
0922E:  MOVLW  22
09230:  BTFSS  F9E.4
09232:  BRA    9230
09234:  MOVWF  FAD
....................          SendDataDisplay(); 
09236:  CALL   2D18
....................       }else{ 
0923A:  GOTO   9B80
0923E:  MOVLB  1
....................          if(rampas[CicloLibre-1].Temperatura<-12.0) 
09240:  MOVLW  01
09242:  MOVLB  2
09244:  SUBWF  xD9,W
09246:  MOVLB  6
09248:  MOVWF  xF2
0924A:  CLRF   xFA
0924C:  MOVWF  xF9
0924E:  CLRF   xFC
09250:  MOVLW  0F
09252:  MOVWF  xFB
09254:  MOVLB  0
09256:  CALL   1566
0925A:  MOVFF  01,6F1
0925E:  MOVLW  0B
09260:  MOVLB  6
09262:  ADDWF  01,W
09264:  MOVWF  01
09266:  MOVLW  00
09268:  ADDWFC 02,W
0926A:  MOVWF  03
0926C:  MOVF   01,W
0926E:  ADDLW  C5
09270:  MOVWF  FE9
09272:  MOVLW  05
09274:  ADDWFC 03,W
09276:  MOVWF  FEA
09278:  MOVFF  FEF,6F1
0927C:  MOVFF  FEC,6F2
09280:  MOVFF  FEC,6F3
09284:  MOVFF  FEC,6F4
09288:  MOVFF  6F4,6F8
0928C:  MOVFF  6F3,6F7
09290:  MOVFF  6F2,6F6
09294:  MOVFF  6F1,6F5
09298:  CLRF   xFC
0929A:  CLRF   xFB
0929C:  MOVLW  C0
0929E:  MOVWF  xFA
092A0:  MOVLW  82
092A2:  MOVWF  xF9
092A4:  MOVLB  0
092A6:  CALL   16C0
092AA:  BNC   92F0
....................             rampas[CicloLibre-1].Temperatura=60.0; 
092AC:  MOVLW  01
092AE:  MOVLB  2
092B0:  SUBWF  xD9,W
092B2:  MOVLB  6
092B4:  MOVWF  xF2
092B6:  CLRF   xFA
092B8:  MOVWF  xF9
092BA:  CLRF   xFC
092BC:  MOVLW  0F
092BE:  MOVWF  xFB
092C0:  MOVLB  0
092C2:  CALL   1566
092C6:  MOVFF  01,6F1
092CA:  MOVLW  0B
092CC:  MOVLB  6
092CE:  ADDWF  01,W
092D0:  MOVWF  01
092D2:  MOVLW  00
092D4:  ADDWFC 02,W
092D6:  MOVWF  03
092D8:  MOVF   01,W
092DA:  ADDLW  C5
092DC:  MOVWF  FE9
092DE:  MOVLW  05
092E0:  ADDWFC 03,W
092E2:  MOVWF  FEA
092E4:  MOVLW  84
092E6:  MOVWF  FEF
092E8:  MOVLW  70
092EA:  MOVWF  FEC
092EC:  CLRF   FEC
092EE:  CLRF   FEC
....................          if(rampas[CicloLibre-1].Temperatura>60.0) 
092F0:  MOVLW  01
092F2:  MOVLB  2
092F4:  SUBWF  xD9,W
092F6:  MOVLB  6
092F8:  MOVWF  xF2
092FA:  CLRF   xFA
092FC:  MOVWF  xF9
092FE:  CLRF   xFC
09300:  MOVLW  0F
09302:  MOVWF  xFB
09304:  MOVLB  0
09306:  CALL   1566
0930A:  MOVFF  01,6F1
0930E:  MOVLW  0B
09310:  MOVLB  6
09312:  ADDWF  01,W
09314:  MOVWF  01
09316:  MOVLW  00
09318:  ADDWFC 02,W
0931A:  MOVWF  03
0931C:  MOVF   01,W
0931E:  ADDLW  C5
09320:  MOVWF  FE9
09322:  MOVLW  05
09324:  ADDWFC 03,W
09326:  MOVWF  FEA
09328:  MOVFF  FEF,6F1
0932C:  MOVFF  FEC,6F2
09330:  MOVFF  FEC,6F3
09334:  MOVFF  FEC,6F4
09338:  CLRF   xF8
0933A:  CLRF   xF7
0933C:  MOVLW  70
0933E:  MOVWF  xF6
09340:  MOVLW  84
09342:  MOVWF  xF5
09344:  MOVFF  6F4,6FC
09348:  MOVFF  6F3,6FB
0934C:  MOVFF  6F2,6FA
09350:  MOVFF  6F1,6F9
09354:  MOVLB  0
09356:  CALL   16C0
0935A:  BNC   93A2
....................             rampas[CicloLibre-1].Temperatura=-12.0; 
0935C:  MOVLW  01
0935E:  MOVLB  2
09360:  SUBWF  xD9,W
09362:  MOVLB  6
09364:  MOVWF  xF2
09366:  CLRF   xFA
09368:  MOVWF  xF9
0936A:  CLRF   xFC
0936C:  MOVLW  0F
0936E:  MOVWF  xFB
09370:  MOVLB  0
09372:  CALL   1566
09376:  MOVFF  01,6F1
0937A:  MOVLW  0B
0937C:  MOVLB  6
0937E:  ADDWF  01,W
09380:  MOVWF  01
09382:  MOVLW  00
09384:  ADDWFC 02,W
09386:  MOVWF  03
09388:  MOVF   01,W
0938A:  ADDLW  C5
0938C:  MOVWF  FE9
0938E:  MOVLW  05
09390:  ADDWFC 03,W
09392:  MOVWF  FEA
09394:  MOVLW  82
09396:  MOVWF  FEF
09398:  MOVLW  C0
0939A:  MOVWF  FEC
0939C:  CLRF   FEC
0939E:  CLRF   FEC
093A0:  MOVLB  0
....................           
....................          if(RX_Buffer[4]==0x11 || LEFT){//Selecciono Regresar 
093A2:  MOVF   2E,W
093A4:  SUBLW  11
093A6:  BZ    93AE
093A8:  BSF    F93.3
093AA:  BTFSC  F81.3
093AC:  BRA    97A2
....................             Horas=OFF; 
093AE:  MOVLB  1
093B0:  BCF    xC9.3
....................             Minutos=OFF; 
093B2:  BCF    xC9.4
....................             printf("page Rampas"); 
093B4:  MOVLW  74
093B6:  MOVWF  FF6
093B8:  MOVLW  07
093BA:  MOVWF  FF7
093BC:  MOVLW  00
093BE:  MOVWF  FF8
093C0:  MOVLB  0
093C2:  CALL   2CE6
....................             SendDataDisplay();   
093C6:  CALL   2D18
....................             if(!GuardaEEPROM){ 
093CA:  MOVLB  1
093CC:  BTFSC  xC9.2
093CE:  BRA    97A4
....................                write_eeprom(100+((CicloLibre-1)*5),(int8)abs(rampas[CicloLibre-1].Temperatura)); 
093D0:  MOVLW  01
093D2:  MOVLB  2
093D4:  SUBWF  xD9,W
093D6:  MULLW  05
093D8:  MOVF   FF3,W
093DA:  ADDLW  64
093DC:  MOVLB  6
093DE:  MOVWF  xF1
093E0:  MOVLW  01
093E2:  MOVLB  2
093E4:  SUBWF  xD9,W
093E6:  MOVLB  6
093E8:  MOVWF  xF3
093EA:  CLRF   xFA
093EC:  MOVFF  6F3,6F9
093F0:  CLRF   xFC
093F2:  MOVLW  0F
093F4:  MOVWF  xFB
093F6:  MOVLB  0
093F8:  CALL   1566
093FC:  MOVFF  02,6F3
09400:  MOVFF  01,6F2
09404:  MOVLW  0B
09406:  MOVLB  6
09408:  ADDWF  xF2,W
0940A:  MOVWF  01
0940C:  MOVLW  00
0940E:  ADDWFC xF3,W
09410:  MOVWF  03
09412:  MOVF   01,W
09414:  ADDLW  C5
09416:  MOVWF  FE9
09418:  MOVLW  05
0941A:  ADDWFC 03,W
0941C:  MOVWF  FEA
0941E:  MOVFF  FEF,6F2
09422:  MOVFF  FEC,6F3
09426:  MOVFF  FEC,6F4
0942A:  MOVFF  FEC,6F5
0942E:  MOVF   FED,F
09430:  MOVF   FED,F
09432:  MOVF   FED,F
09434:  MOVFF  6F2,00
09438:  MOVFF  6F3,01
0943C:  MOVFF  6F4,02
09440:  MOVFF  6F5,03
09444:  BCF    01.7
09446:  MOVFF  03,705
0944A:  MOVFF  02,704
0944E:  MOVFF  01,703
09452:  MOVFF  00,702
09456:  MOVLB  0
09458:  CALL   371E
0945C:  MOVFF  01,6F2
09460:  CLRF   FAA
09462:  MOVFF  6F1,FA9
09466:  MOVFF  6F2,FA8
0946A:  BCF    FA6.6
0946C:  BCF    FA6.7
0946E:  BSF    FA6.2
09470:  MOVF   FF2,W
09472:  MOVWF  00
09474:  BCF    FF2.6
09476:  BCF    FF2.7
09478:  MOVLB  F
0947A:  MOVLW  55
0947C:  MOVWF  FA7
0947E:  MOVLW  AA
09480:  MOVWF  FA7
09482:  BSF    FA6.1
09484:  BTFSC  FA6.1
09486:  BRA    9484
09488:  BCF    FA6.2
0948A:  MOVF   00,W
0948C:  IORWF  FF2,F
....................                delay_ms(10); 
0948E:  MOVLW  0A
09490:  MOVLB  6
09492:  MOVWF  xFA
09494:  MOVLB  0
09496:  CALL   1148
....................                write_eeprom(101+((CicloLibre-1)*5),extraeDecimal(abs(rampas[CicloLibre-1].Temperatura))); 
0949A:  MOVLW  01
0949C:  MOVLB  2
0949E:  SUBWF  xD9,W
094A0:  MULLW  05
094A2:  MOVF   FF3,W
094A4:  ADDLW  65
094A6:  MOVLB  6
094A8:  MOVWF  xF1
094AA:  MOVLW  01
094AC:  MOVLB  2
094AE:  SUBWF  xD9,W
094B0:  MOVLB  6
094B2:  MOVWF  xF3
094B4:  CLRF   xFA
094B6:  MOVFF  6F3,6F9
094BA:  CLRF   xFC
094BC:  MOVLW  0F
094BE:  MOVWF  xFB
094C0:  MOVLB  0
094C2:  CALL   1566
094C6:  MOVFF  02,6F3
094CA:  MOVFF  01,6F2
094CE:  MOVLW  0B
094D0:  MOVLB  6
094D2:  ADDWF  xF2,W
094D4:  MOVWF  01
094D6:  MOVLW  00
094D8:  ADDWFC xF3,W
094DA:  MOVWF  03
094DC:  MOVF   01,W
094DE:  ADDLW  C5
094E0:  MOVWF  FE9
094E2:  MOVLW  05
094E4:  ADDWFC 03,W
094E6:  MOVWF  FEA
094E8:  MOVFF  FEF,6F2
094EC:  MOVFF  FEC,6F3
094F0:  MOVFF  FEC,6F4
094F4:  MOVFF  FEC,6F5
094F8:  MOVF   FED,F
094FA:  MOVF   FED,F
094FC:  MOVF   FED,F
094FE:  MOVFF  6F2,00
09502:  MOVFF  6F3,01
09506:  MOVFF  6F4,02
0950A:  MOVFF  6F5,03
0950E:  BCF    01.7
09510:  MOVFF  00,6F2
09514:  MOVFF  01,6F3
09518:  MOVFF  02,6F4
0951C:  MOVFF  03,6F5
09520:  MOVFF  6F5,6F9
09524:  MOVFF  6F4,6F8
09528:  MOVFF  6F3,6F7
0952C:  MOVFF  6F2,6F6
09530:  MOVLB  0
09532:  CALL   3E48
09536:  MOVFF  01,6F2
0953A:  CLRF   FAA
0953C:  MOVFF  6F1,FA9
09540:  MOVFF  6F2,FA8
09544:  BCF    FA6.6
09546:  BCF    FA6.7
09548:  BSF    FA6.2
0954A:  MOVF   FF2,W
0954C:  MOVWF  00
0954E:  BCF    FF2.6
09550:  BCF    FF2.7
09552:  MOVLB  F
09554:  MOVLW  55
09556:  MOVWF  FA7
09558:  MOVLW  AA
0955A:  MOVWF  FA7
0955C:  BSF    FA6.1
0955E:  BTFSC  FA6.1
09560:  BRA    955E
09562:  BCF    FA6.2
09564:  MOVF   00,W
09566:  IORWF  FF2,F
....................                delay_ms(10); 
09568:  MOVLW  0A
0956A:  MOVLB  6
0956C:  MOVWF  xFA
0956E:  MOVLB  0
09570:  CALL   1148
....................                if(rampas[CicloLibre-1].Temperatura<0){ 
09574:  MOVLW  01
09576:  MOVLB  2
09578:  SUBWF  xD9,W
0957A:  MOVLB  6
0957C:  MOVWF  xF2
0957E:  CLRF   xFA
09580:  MOVWF  xF9
09582:  CLRF   xFC
09584:  MOVLW  0F
09586:  MOVWF  xFB
09588:  MOVLB  0
0958A:  CALL   1566
0958E:  MOVFF  01,6F1
09592:  MOVLW  0B
09594:  MOVLB  6
09596:  ADDWF  01,W
09598:  MOVWF  01
0959A:  MOVLW  00
0959C:  ADDWFC 02,W
0959E:  MOVWF  03
095A0:  MOVF   01,W
095A2:  ADDLW  C5
095A4:  MOVWF  FE9
095A6:  MOVLW  05
095A8:  ADDWFC 03,W
095AA:  MOVWF  FEA
095AC:  MOVFF  FEF,6F1
095B0:  MOVFF  FEC,6F2
095B4:  MOVFF  FEC,6F3
095B8:  MOVFF  FEC,6F4
095BC:  MOVFF  6F4,6F8
095C0:  MOVFF  6F3,6F7
095C4:  MOVFF  6F2,6F6
095C8:  MOVFF  6F1,6F5
095CC:  CLRF   xFC
095CE:  CLRF   xFB
095D0:  CLRF   xFA
095D2:  CLRF   xF9
095D4:  MOVLB  0
095D6:  CALL   16C0
095DA:  BNC   9628
....................                   write_eeprom(102+((CicloLibre-1)*5),20); 
095DC:  MOVLW  01
095DE:  MOVLB  2
095E0:  SUBWF  xD9,W
095E2:  MULLW  05
095E4:  MOVF   FF3,W
095E6:  ADDLW  66
095E8:  MOVLB  6
095EA:  MOVWF  xF1
095EC:  CLRF   FAA
095EE:  MOVFF  6F1,FA9
095F2:  MOVLW  14
095F4:  MOVWF  FA8
095F6:  BCF    FA6.6
095F8:  BCF    FA6.7
095FA:  BSF    FA6.2
095FC:  MOVF   FF2,W
095FE:  MOVWF  00
09600:  BCF    FF2.6
09602:  BCF    FF2.7
09604:  MOVLB  F
09606:  MOVLW  55
09608:  MOVWF  FA7
0960A:  MOVLW  AA
0960C:  MOVWF  FA7
0960E:  BSF    FA6.1
09610:  BTFSC  FA6.1
09612:  BRA    9610
09614:  BCF    FA6.2
09616:  MOVF   00,W
09618:  IORWF  FF2,F
....................                   delay_ms(10); 
0961A:  MOVLW  0A
0961C:  MOVLB  6
0961E:  MOVWF  xFA
09620:  MOVLB  0
09622:  CALL   1148
....................                }else{ 
09626:  BRA    9672
....................                   write_eeprom(102+((CicloLibre-1)*5),10); 
09628:  MOVLW  01
0962A:  MOVLB  2
0962C:  SUBWF  xD9,W
0962E:  MULLW  05
09630:  MOVF   FF3,W
09632:  ADDLW  66
09634:  MOVLB  6
09636:  MOVWF  xF1
09638:  CLRF   FAA
0963A:  MOVFF  6F1,FA9
0963E:  MOVLW  0A
09640:  MOVWF  FA8
09642:  BCF    FA6.6
09644:  BCF    FA6.7
09646:  BSF    FA6.2
09648:  MOVF   FF2,W
0964A:  MOVWF  00
0964C:  BCF    FF2.6
0964E:  BCF    FF2.7
09650:  MOVLB  F
09652:  MOVLW  55
09654:  MOVWF  FA7
09656:  MOVLW  AA
09658:  MOVWF  FA7
0965A:  BSF    FA6.1
0965C:  BTFSC  FA6.1
0965E:  BRA    965C
09660:  BCF    FA6.2
09662:  MOVF   00,W
09664:  IORWF  FF2,F
....................                   delay_ms(10); 
09666:  MOVLW  0A
09668:  MOVLB  6
0966A:  MOVWF  xFA
0966C:  MOVLB  0
0966E:  CALL   1148
....................                } 
....................                delay_ms(10); 
09672:  MOVLW  0A
09674:  MOVLB  6
09676:  MOVWF  xFA
09678:  MOVLB  0
0967A:  CALL   1148
....................                GuardaEEPROM=ON; 
0967E:  MOVLB  1
09680:  BSF    xC9.2
....................                if(Setpoint<Temperatura){ 
09682:  MOVFF  273,6F8
09686:  MOVFF  272,6F7
0968A:  MOVFF  271,6F6
0968E:  MOVFF  270,6F5
09692:  MOVFF  26B,6FC
09696:  MOVFF  26A,6FB
0969A:  MOVFF  269,6FA
0969E:  MOVFF  268,6F9
096A2:  MOVLB  0
096A4:  CALL   16C0
096A8:  BNC   970C
....................                   Enfria=1; 
096AA:  MOVLW  01
096AC:  MOVLB  1
096AE:  MOVWF  xD5
....................                   Ganancia=GananciaR*(Setpoint/200); 
096B0:  MOVFF  273,6FE
096B4:  MOVFF  272,6FD
096B8:  MOVFF  271,6FC
096BC:  MOVFF  270,6FB
096C0:  MOVLB  7
096C2:  CLRF   x02
096C4:  CLRF   x01
096C6:  MOVLW  48
096C8:  MOVWF  x00
096CA:  MOVLW  86
096CC:  MOVLB  6
096CE:  MOVWF  xFF
096D0:  MOVLB  0
096D2:  CALL   1170
096D6:  MOVFF  253,710
096DA:  MOVFF  252,70F
096DE:  MOVFF  251,70E
096E2:  MOVFF  250,70D
096E6:  MOVFF  03,714
096EA:  MOVFF  02,713
096EE:  MOVFF  01,712
096F2:  MOVFF  00,711
096F6:  CALL   15CA
096FA:  MOVFF  03,24F
096FE:  MOVFF  02,24E
09702:  MOVFF  01,24D
09706:  MOVFF  00,24C
....................                   //Ganancia=4; 
....................                }else{ 
0970A:  BRA    97A2
....................                   Enfria=0; 
0970C:  MOVLB  1
0970E:  CLRF   xD5
....................                   Ganancia=GananciaR*(Setpoint/200); 
09710:  MOVFF  273,6FE
09714:  MOVFF  272,6FD
09718:  MOVFF  271,6FC
0971C:  MOVFF  270,6FB
09720:  MOVLB  7
09722:  CLRF   x02
09724:  CLRF   x01
09726:  MOVLW  48
09728:  MOVWF  x00
0972A:  MOVLW  86
0972C:  MOVLB  6
0972E:  MOVWF  xFF
09730:  MOVLB  0
09732:  CALL   1170
09736:  MOVFF  253,710
0973A:  MOVFF  252,70F
0973E:  MOVFF  251,70E
09742:  MOVFF  250,70D
09746:  MOVFF  03,714
0974A:  MOVFF  02,713
0974E:  MOVFF  01,712
09752:  MOVFF  00,711
09756:  CALL   15CA
0975A:  MOVFF  03,24F
0975E:  MOVFF  02,24E
09762:  MOVFF  01,24D
09766:  MOVFF  00,24C
....................                   Gananciamax=(0.21)*Setpoint; 
0976A:  MOVLW  3D
0976C:  MOVLB  7
0976E:  MOVWF  x10
09770:  MOVLW  0A
09772:  MOVWF  x0F
09774:  MOVLW  57
09776:  MOVWF  x0E
09778:  MOVLW  7C
0977A:  MOVWF  x0D
0977C:  MOVFF  273,714
09780:  MOVFF  272,713
09784:  MOVFF  271,712
09788:  MOVFF  270,711
0978C:  MOVLB  0
0978E:  CALL   15CA
09792:  MOVFF  03,22B
09796:  MOVFF  02,22A
0979A:  MOVFF  01,229
0979E:  MOVFF  00,228
097A2:  MOVLB  1
....................                } 
....................             } 
....................          } 
....................           
....................          if(RX_Buffer[4]==0x0d){//Tecla Arriba Oprimida 
097A4:  MOVF   2E,W
097A6:  SUBLW  0D
097A8:  BTFSS  FD8.2
097AA:  BRA    994E
....................             if(x1) 
097AC:  BTFSS  xCC.1
097AE:  BRA    983A
....................                 rampas[CicloLibre-1].Temperatura+=0.1;     
097B0:  MOVLW  01
097B2:  MOVLB  2
097B4:  SUBWF  xD9,W
097B6:  MOVLB  6
097B8:  MOVWF  xF2
097BA:  CLRF   xFA
097BC:  MOVWF  xF9
097BE:  CLRF   xFC
097C0:  MOVLW  0F
097C2:  MOVWF  xFB
097C4:  MOVLB  0
097C6:  CALL   1566
097CA:  MOVFF  02,6F2
097CE:  MOVFF  01,6F1
097D2:  MOVLW  0B
097D4:  MOVLB  6
097D6:  ADDWF  01,W
097D8:  MOVWF  01
097DA:  MOVLW  00
097DC:  ADDWFC 02,W
097DE:  MOVWF  03
097E0:  MOVF   01,W
097E2:  ADDLW  C5
097E4:  MOVWF  FE9
097E6:  MOVLW  05
097E8:  ADDWFC 03,W
097EA:  MOVWF  FEA
097EC:  MOVFF  FEA,6F8
097F0:  MOVFF  FE9,6F7
097F4:  BCF    FD8.1
097F6:  MOVFF  FEF,702
097FA:  MOVFF  FEC,703
097FE:  MOVFF  FEC,704
09802:  MOVFF  FEC,705
09806:  MOVLW  CD
09808:  MOVLB  7
0980A:  MOVWF  x09
0980C:  MOVLW  CC
0980E:  MOVWF  x08
09810:  MOVLW  4C
09812:  MOVWF  x07
09814:  MOVLW  7B
09816:  MOVWF  x06
09818:  MOVLB  0
0981A:  CALL   12EE
0981E:  MOVFF  6F8,FEA
09822:  MOVFF  6F7,FE9
09826:  MOVFF  00,FEF
0982A:  MOVFF  01,FEC
0982E:  MOVFF  02,FEC
09832:  MOVFF  03,FEC
....................             else if(x10)     
09836:  BRA    9948
09838:  MOVLB  1
0983A:  BTFSS  xCC.2
0983C:  BRA    98C2
....................                 rampas[CicloLibre-1].Temperatura+=1;     
0983E:  MOVLW  01
09840:  MOVLB  2
09842:  SUBWF  xD9,W
09844:  MOVLB  6
09846:  MOVWF  xF2
09848:  CLRF   xFA
0984A:  MOVWF  xF9
0984C:  CLRF   xFC
0984E:  MOVLW  0F
09850:  MOVWF  xFB
09852:  MOVLB  0
09854:  CALL   1566
09858:  MOVFF  02,6F2
0985C:  MOVFF  01,6F1
09860:  MOVLW  0B
09862:  MOVLB  6
09864:  ADDWF  01,W
09866:  MOVWF  01
09868:  MOVLW  00
0986A:  ADDWFC 02,W
0986C:  MOVWF  03
0986E:  MOVF   01,W
09870:  ADDLW  C5
09872:  MOVWF  FE9
09874:  MOVLW  05
09876:  ADDWFC 03,W
09878:  MOVWF  FEA
0987A:  MOVFF  FEA,6F8
0987E:  MOVFF  FE9,6F7
09882:  BCF    FD8.1
09884:  MOVFF  FEF,702
09888:  MOVFF  FEC,703
0988C:  MOVFF  FEC,704
09890:  MOVFF  FEC,705
09894:  MOVLB  7
09896:  CLRF   x09
09898:  CLRF   x08
0989A:  CLRF   x07
0989C:  MOVLW  7F
0989E:  MOVWF  x06
098A0:  MOVLB  0
098A2:  CALL   12EE
098A6:  MOVFF  6F8,FEA
098AA:  MOVFF  6F7,FE9
098AE:  MOVFF  00,FEF
098B2:  MOVFF  01,FEC
098B6:  MOVFF  02,FEC
098BA:  MOVFF  03,FEC
....................             else if(x100)     
098BE:  BRA    9948
098C0:  MOVLB  1
098C2:  BTFSS  xCC.3
098C4:  BRA    994A
....................                 rampas[CicloLibre-1].Temperatura+=10; 
098C6:  MOVLW  01
098C8:  MOVLB  2
098CA:  SUBWF  xD9,W
098CC:  MOVLB  6
098CE:  MOVWF  xF2
098D0:  CLRF   xFA
098D2:  MOVWF  xF9
098D4:  CLRF   xFC
098D6:  MOVLW  0F
098D8:  MOVWF  xFB
098DA:  MOVLB  0
098DC:  CALL   1566
098E0:  MOVFF  02,6F2
098E4:  MOVFF  01,6F1
098E8:  MOVLW  0B
098EA:  MOVLB  6
098EC:  ADDWF  01,W
098EE:  MOVWF  01
098F0:  MOVLW  00
098F2:  ADDWFC 02,W
098F4:  MOVWF  03
098F6:  MOVF   01,W
098F8:  ADDLW  C5
098FA:  MOVWF  FE9
098FC:  MOVLW  05
098FE:  ADDWFC 03,W
09900:  MOVWF  FEA
09902:  MOVFF  FEA,6F8
09906:  MOVFF  FE9,6F7
0990A:  BCF    FD8.1
0990C:  MOVFF  FEF,702
09910:  MOVFF  FEC,703
09914:  MOVFF  FEC,704
09918:  MOVFF  FEC,705
0991C:  MOVLB  7
0991E:  CLRF   x09
09920:  CLRF   x08
09922:  MOVLW  20
09924:  MOVWF  x07
09926:  MOVLW  82
09928:  MOVWF  x06
0992A:  MOVLB  0
0992C:  CALL   12EE
09930:  MOVFF  6F8,FEA
09934:  MOVFF  6F7,FE9
09938:  MOVFF  00,FEF
0993C:  MOVFF  01,FEC
09940:  MOVFF  02,FEC
09944:  MOVFF  03,FEC
09948:  MOVLB  1
....................             RX_Buffer[4]=0x00;   
0994A:  CLRF   2E
....................             RX_Buffer2[4]=0x00;             
0994C:  CLRF   39
....................          } 
....................           
....................          if(RX_Buffer[4]==0x0c){//Tecla Abajo Oprimida 
0994E:  MOVF   2E,W
09950:  SUBLW  0C
09952:  BTFSS  FD8.2
09954:  BRA    9AF8
....................             if(x1) 
09956:  BTFSS  xCC.1
09958:  BRA    99E4
....................                 rampas[CicloLibre-1].Temperatura-=0.1;     
0995A:  MOVLW  01
0995C:  MOVLB  2
0995E:  SUBWF  xD9,W
09960:  MOVLB  6
09962:  MOVWF  xF2
09964:  CLRF   xFA
09966:  MOVWF  xF9
09968:  CLRF   xFC
0996A:  MOVLW  0F
0996C:  MOVWF  xFB
0996E:  MOVLB  0
09970:  CALL   1566
09974:  MOVFF  02,6F2
09978:  MOVFF  01,6F1
0997C:  MOVLW  0B
0997E:  MOVLB  6
09980:  ADDWF  01,W
09982:  MOVWF  01
09984:  MOVLW  00
09986:  ADDWFC 02,W
09988:  MOVWF  03
0998A:  MOVF   01,W
0998C:  ADDLW  C5
0998E:  MOVWF  FE9
09990:  MOVLW  05
09992:  ADDWFC 03,W
09994:  MOVWF  FEA
09996:  MOVFF  FEA,6F8
0999A:  MOVFF  FE9,6F7
0999E:  BSF    FD8.1
099A0:  MOVFF  FEF,702
099A4:  MOVFF  FEC,703
099A8:  MOVFF  FEC,704
099AC:  MOVFF  FEC,705
099B0:  MOVLW  CD
099B2:  MOVLB  7
099B4:  MOVWF  x09
099B6:  MOVLW  CC
099B8:  MOVWF  x08
099BA:  MOVLW  4C
099BC:  MOVWF  x07
099BE:  MOVLW  7B
099C0:  MOVWF  x06
099C2:  MOVLB  0
099C4:  CALL   12EE
099C8:  MOVFF  6F8,FEA
099CC:  MOVFF  6F7,FE9
099D0:  MOVFF  00,FEF
099D4:  MOVFF  01,FEC
099D8:  MOVFF  02,FEC
099DC:  MOVFF  03,FEC
....................             else if(x10)     
099E0:  BRA    9AF2
099E2:  MOVLB  1
099E4:  BTFSS  xCC.2
099E6:  BRA    9A6C
....................                 rampas[CicloLibre-1].Temperatura-=1;     
099E8:  MOVLW  01
099EA:  MOVLB  2
099EC:  SUBWF  xD9,W
099EE:  MOVLB  6
099F0:  MOVWF  xF2
099F2:  CLRF   xFA
099F4:  MOVWF  xF9
099F6:  CLRF   xFC
099F8:  MOVLW  0F
099FA:  MOVWF  xFB
099FC:  MOVLB  0
099FE:  CALL   1566
09A02:  MOVFF  02,6F2
09A06:  MOVFF  01,6F1
09A0A:  MOVLW  0B
09A0C:  MOVLB  6
09A0E:  ADDWF  01,W
09A10:  MOVWF  01
09A12:  MOVLW  00
09A14:  ADDWFC 02,W
09A16:  MOVWF  03
09A18:  MOVF   01,W
09A1A:  ADDLW  C5
09A1C:  MOVWF  FE9
09A1E:  MOVLW  05
09A20:  ADDWFC 03,W
09A22:  MOVWF  FEA
09A24:  MOVFF  FEA,6F8
09A28:  MOVFF  FE9,6F7
09A2C:  BSF    FD8.1
09A2E:  MOVFF  FEF,702
09A32:  MOVFF  FEC,703
09A36:  MOVFF  FEC,704
09A3A:  MOVFF  FEC,705
09A3E:  MOVLB  7
09A40:  CLRF   x09
09A42:  CLRF   x08
09A44:  CLRF   x07
09A46:  MOVLW  7F
09A48:  MOVWF  x06
09A4A:  MOVLB  0
09A4C:  CALL   12EE
09A50:  MOVFF  6F8,FEA
09A54:  MOVFF  6F7,FE9
09A58:  MOVFF  00,FEF
09A5C:  MOVFF  01,FEC
09A60:  MOVFF  02,FEC
09A64:  MOVFF  03,FEC
....................             else if(x100)     
09A68:  BRA    9AF2
09A6A:  MOVLB  1
09A6C:  BTFSS  xCC.3
09A6E:  BRA    9AF4
....................                 rampas[CicloLibre-1].Temperatura-=10; 
09A70:  MOVLW  01
09A72:  MOVLB  2
09A74:  SUBWF  xD9,W
09A76:  MOVLB  6
09A78:  MOVWF  xF2
09A7A:  CLRF   xFA
09A7C:  MOVWF  xF9
09A7E:  CLRF   xFC
09A80:  MOVLW  0F
09A82:  MOVWF  xFB
09A84:  MOVLB  0
09A86:  CALL   1566
09A8A:  MOVFF  02,6F2
09A8E:  MOVFF  01,6F1
09A92:  MOVLW  0B
09A94:  MOVLB  6
09A96:  ADDWF  01,W
09A98:  MOVWF  01
09A9A:  MOVLW  00
09A9C:  ADDWFC 02,W
09A9E:  MOVWF  03
09AA0:  MOVF   01,W
09AA2:  ADDLW  C5
09AA4:  MOVWF  FE9
09AA6:  MOVLW  05
09AA8:  ADDWFC 03,W
09AAA:  MOVWF  FEA
09AAC:  MOVFF  FEA,6F8
09AB0:  MOVFF  FE9,6F7
09AB4:  BSF    FD8.1
09AB6:  MOVFF  FEF,702
09ABA:  MOVFF  FEC,703
09ABE:  MOVFF  FEC,704
09AC2:  MOVFF  FEC,705
09AC6:  MOVLB  7
09AC8:  CLRF   x09
09ACA:  CLRF   x08
09ACC:  MOVLW  20
09ACE:  MOVWF  x07
09AD0:  MOVLW  82
09AD2:  MOVWF  x06
09AD4:  MOVLB  0
09AD6:  CALL   12EE
09ADA:  MOVFF  6F8,FEA
09ADE:  MOVFF  6F7,FE9
09AE2:  MOVFF  00,FEF
09AE6:  MOVFF  01,FEC
09AEA:  MOVFF  02,FEC
09AEE:  MOVFF  03,FEC
09AF2:  MOVLB  1
....................             RX_Buffer[4]=0x00; 
09AF4:  CLRF   2E
....................             RX_Buffer2[4]=0x00;                         
09AF6:  CLRF   39
....................          } 
....................          printf("tsettem.txt=\"%2.1f\"",rampas[CicloLibre-1].Temperatura); 
09AF8:  MOVLW  01
09AFA:  MOVLB  2
09AFC:  SUBWF  xD9,W
09AFE:  MOVLB  6
09B00:  MOVWF  xF2
09B02:  CLRF   xFA
09B04:  MOVWF  xF9
09B06:  CLRF   xFC
09B08:  MOVLW  0F
09B0A:  MOVWF  xFB
09B0C:  MOVLB  0
09B0E:  CALL   1566
09B12:  MOVFF  01,6F1
09B16:  MOVLW  0B
09B18:  MOVLB  6
09B1A:  ADDWF  01,W
09B1C:  MOVWF  01
09B1E:  MOVLW  00
09B20:  ADDWFC 02,W
09B22:  MOVWF  03
09B24:  MOVF   01,W
09B26:  ADDLW  C5
09B28:  MOVWF  FE9
09B2A:  MOVLW  05
09B2C:  ADDWFC 03,W
09B2E:  MOVWF  FEA
09B30:  MOVFF  FEF,6F1
09B34:  MOVFF  FEC,6F2
09B38:  MOVFF  FEC,6F3
09B3C:  MOVFF  FEC,6F4
09B40:  MOVLW  80
09B42:  MOVWF  FF6
09B44:  MOVLW  07
09B46:  MOVWF  FF7
09B48:  MOVLW  00
09B4A:  MOVWF  FF8
09B4C:  MOVLW  0D
09B4E:  MOVWF  xF9
09B50:  MOVLB  0
09B52:  CALL   3AD4
09B56:  MOVLW  01
09B58:  MOVWF  FE9
09B5A:  MOVFF  6F4,6FC
09B5E:  MOVFF  6F3,6FB
09B62:  MOVFF  6F2,6FA
09B66:  MOVFF  6F1,6F9
09B6A:  MOVLB  6
09B6C:  MOVWF  xFD
09B6E:  MOVLB  0
09B70:  CALL   3C74
09B74:  MOVLW  22
09B76:  BTFSS  F9E.4
09B78:  BRA    9B76
09B7A:  MOVWF  FAD
....................          SendDataDisplay(); 
09B7C:  CALL   2D18
09B80:  MOVLB  1
....................       } 
....................     } 
.................... //_--------------------------------------------------------------------------------------------------------------------------------------------------------        
....................  
....................  
.................... //_--------------------------------------------------------------------------------------------------------------------------------------------------------       
....................     if(Menu==6){ // Menu de Prueba de Componentes 
09B82:  MOVF   xFE,W
09B84:  SUBLW  06
09B86:  BTFSS  FD8.2
09B88:  BRA    A088
....................          PruebaEstados=ON; 
09B8A:  BSF    xC9.5
....................          Controlando=0; 
09B8C:  CLRF   xD6
....................          if(RX_Buffer[4]==0x01){//Oprimio Compresor 
09B8E:  DECFSZ 2E,W
09B90:  BRA    9B98
....................             EstadoR1=!EstadoR1; 
09B92:  BTG    xC9.6
....................             RX_Buffer[4]=0x00; 
09B94:  CLRF   2E
....................             RX_Buffer2[4]=0x00; 
09B96:  CLRF   39
....................          } 
....................           
....................          if(EstadoR1){ 
09B98:  BTFSS  xC9.6
09B9A:  BRA    9BBA
....................             printf("b0.bco=2016"); 
09B9C:  MOVLW  94
09B9E:  MOVWF  FF6
09BA0:  MOVLW  07
09BA2:  MOVWF  FF7
09BA4:  MOVLW  00
09BA6:  MOVWF  FF8
09BA8:  MOVLB  0
09BAA:  CALL   2CE6
....................             SendDataDisplay();  
09BAE:  CALL   2D18
....................             Compresor_on; 
09BB2:  BCF    F8C.3
09BB4:  BCF    F95.3
....................             //if(tApagadoCompresor>=240){ 
....................             //   Compresor_on; 
....................             //   tApagadoCompresor=0; 
....................             //} 
....................          }else{ 
09BB6:  BRA    9BD4
09BB8:  MOVLB  1
....................             printf("b0.bco=63488"); 
09BBA:  MOVLW  A0
09BBC:  MOVWF  FF6
09BBE:  MOVLW  07
09BC0:  MOVWF  FF7
09BC2:  MOVLW  00
09BC4:  MOVWF  FF8
09BC6:  MOVLB  0
09BC8:  CALL   2CE6
....................             SendDataDisplay();  
09BCC:  CALL   2D18
....................             Compresor_off; 
09BD0:  BSF    F8C.3
09BD2:  BCF    F95.3
....................          } 
....................           
....................          if(RX_Buffer[4]==0x02){//Oprimio Ventilador Camara 
09BD4:  MOVF   2E,W
09BD6:  SUBLW  02
09BD8:  BNZ   9BE2
....................             EstadoR2=!EstadoR2; 
09BDA:  MOVLB  1
09BDC:  BTG    xC9.7
....................             RX_Buffer[4]=0x00; 
09BDE:  CLRF   2E
....................             RX_Buffer2[4]=0x00; 
09BE0:  CLRF   39
....................          } 
....................           
....................          if(EstadoR2){ 
09BE2:  MOVLB  1
09BE4:  BTFSS  xC9.7
09BE6:  BRA    9C06
....................             printf("b1.bco=2016"); 
09BE8:  MOVLW  AE
09BEA:  MOVWF  FF6
09BEC:  MOVLW  07
09BEE:  MOVWF  FF7
09BF0:  MOVLW  00
09BF2:  MOVWF  FF8
09BF4:  MOVLB  0
09BF6:  CALL   2CE6
....................             SendDataDisplay();  
09BFA:  CALL   2D18
....................             Ventilador_on; 
09BFE:  BCF    F8C.2
09C00:  BCF    F95.2
....................          }else{ 
09C02:  BRA    9C20
09C04:  MOVLB  1
....................             printf("b1.bco=63488"); 
09C06:  MOVLW  BA
09C08:  MOVWF  FF6
09C0A:  MOVLW  07
09C0C:  MOVWF  FF7
09C0E:  MOVLW  00
09C10:  MOVWF  FF8
09C12:  MOVLB  0
09C14:  CALL   2CE6
....................             SendDataDisplay();  
09C18:  CALL   2D18
....................             Ventilador_off; 
09C1C:  BSF    F8C.2
09C1E:  BCF    F95.2
....................          } 
....................           
....................          if(RX_Buffer[4]==0x03){//Oprimio Resistencia Evaporador 
09C20:  MOVF   2E,W
09C22:  SUBLW  03
09C24:  BNZ   9C2E
....................             EstadoR3=!EstadoR3; 
09C26:  MOVLB  1
09C28:  BTG    xCA.0
....................             RX_Buffer[4]=0x00; 
09C2A:  CLRF   2E
....................             RX_Buffer2[4]=0x00; 
09C2C:  CLRF   39
....................          } 
....................           
....................          if(EstadoR3){ 
09C2E:  MOVLB  1
09C30:  BTFSS  xCA.0
09C32:  BRA    9C52
....................             printf("b2.bco=2016"); 
09C34:  MOVLW  C8
09C36:  MOVWF  FF6
09C38:  MOVLW  07
09C3A:  MOVWF  FF7
09C3C:  MOVLW  00
09C3E:  MOVWF  FF8
09C40:  MOVLB  0
09C42:  CALL   2CE6
....................             SendDataDisplay();  
09C46:  CALL   2D18
....................             SSR_on; 
09C4A:  BSF    F8D.1
09C4C:  BCF    F96.1
....................          }else{ 
09C4E:  BRA    9C6C
09C50:  MOVLB  1
....................             printf("b2.bco=63488"); 
09C52:  MOVLW  D4
09C54:  MOVWF  FF6
09C56:  MOVLW  07
09C58:  MOVWF  FF7
09C5A:  MOVLW  00
09C5C:  MOVWF  FF8
09C5E:  MOVLB  0
09C60:  CALL   2CE6
....................             SendDataDisplay();  
09C64:  CALL   2D18
....................             SSR_off; 
09C68:  BCF    F8D.1
09C6A:  BCF    F96.1
....................          } 
....................           
....................          if(RX_Buffer[4]==0x04){//Oprimio Resistencia Calefaccion 
09C6C:  MOVF   2E,W
09C6E:  SUBLW  04
09C70:  BNZ   9C7A
....................             EstadoR4=!EstadoR4; 
09C72:  MOVLB  1
09C74:  BTG    xCA.1
....................             RX_Buffer[4]=0x00; 
09C76:  CLRF   2E
....................             RX_Buffer2[4]=0x00; 
09C78:  CLRF   39
....................          } 
....................           
....................          if(EstadoR4){ 
09C7A:  MOVLB  1
09C7C:  BTFSS  xCA.1
09C7E:  BRA    9C9E
....................             printf("b3.bco=2016"); 
09C80:  MOVLW  E2
09C82:  MOVWF  FF6
09C84:  MOVLW  07
09C86:  MOVWF  FF7
09C88:  MOVLW  00
09C8A:  MOVWF  FF8
09C8C:  MOVLB  0
09C8E:  CALL   2CE6
....................             SendDataDisplay();  
09C92:  CALL   2D18
....................             SSR2_on; 
09C96:  BSF    F8D.2
09C98:  BCF    F96.2
....................          }else{ 
09C9A:  BRA    9CB8
09C9C:  MOVLB  1
....................             printf("b3.bco=63488"); 
09C9E:  MOVLW  EE
09CA0:  MOVWF  FF6
09CA2:  MOVLW  07
09CA4:  MOVWF  FF7
09CA6:  MOVLW  00
09CA8:  MOVWF  FF8
09CAA:  MOVLB  0
09CAC:  CALL   2CE6
....................             SendDataDisplay();  
09CB0:  CALL   2D18
....................             SSR2_off; 
09CB4:  BCF    F8D.2
09CB6:  BCF    F96.2
....................          } 
....................           
....................          if(RX_Buffer[4]==0x05){//Oprimio Valvulas 
09CB8:  MOVF   2E,W
09CBA:  SUBLW  05
09CBC:  BNZ   9CCE
....................             //EstadoR5=!EstadoR5; 
....................             output_bit(PIN_D1,!input_state(PIN_D1)); 
09CBE:  BTFSS  F83.1
09CC0:  BRA    9CC6
09CC2:  BCF    F8C.1
09CC4:  BRA    9CC8
09CC6:  BSF    F8C.1
09CC8:  BCF    F95.1
....................             RX_Buffer[4]=0x00; 
09CCA:  CLRF   2E
....................             RX_Buffer2[4]=0x00; 
09CCC:  CLRF   39
....................          } 
....................           
....................          if(!input_state(PIN_D1)){ 
09CCE:  BTFSC  F83.1
09CD0:  BRA    9CEC
....................             printf("b4.bco=2016"); 
09CD2:  MOVLW  FC
09CD4:  MOVWF  FF6
09CD6:  MOVLW  07
09CD8:  MOVWF  FF7
09CDA:  MOVLW  00
09CDC:  MOVWF  FF8
09CDE:  CALL   2CE6
....................             SendDataDisplay();  
09CE2:  CALL   2D18
....................             Valvula1_on; 
09CE6:  BCF    F8C.1
09CE8:  BCF    F95.1
....................          }else{ 
09CEA:  BRA    9D04
....................             printf("b4.bco=63488"); 
09CEC:  MOVLW  08
09CEE:  MOVWF  FF6
09CF0:  MOVLW  08
09CF2:  MOVWF  FF7
09CF4:  MOVLW  00
09CF6:  MOVWF  FF8
09CF8:  CALL   2CE6
....................             SendDataDisplay();  
09CFC:  CALL   2D18
....................             Valvula1_off;             
09D00:  BSF    F8C.1
09D02:  BCF    F95.1
....................          } 
....................           
....................          if(RX_Buffer[4]==0x06){//Oprimio EV Suministro 
09D04:  MOVF   2E,W
09D06:  SUBLW  06
09D08:  BNZ   9D1A
....................             //EstadoR6=!EstadoR6; 
....................             output_bit(PIN_C5,!input_state(PIN_C5)); 
09D0A:  BTFSS  F82.5
09D0C:  BRA    9D12
09D0E:  BCF    F8B.5
09D10:  BRA    9D14
09D12:  BSF    F8B.5
09D14:  BCF    F94.5
....................             RX_Buffer[4]=0x00; 
09D16:  CLRF   2E
....................             RX_Buffer2[4]=0x00; 
09D18:  CLRF   39
....................          } 
....................           
....................          if(!input_state(PIN_C5)){ 
09D1A:  BTFSC  F82.5
09D1C:  BRA    9D38
....................             printf("b5.bco=2016"); 
09D1E:  MOVLW  16
09D20:  MOVWF  FF6
09D22:  MOVLW  08
09D24:  MOVWF  FF7
09D26:  MOVLW  00
09D28:  MOVWF  FF8
09D2A:  CALL   2CE6
....................             SendDataDisplay();  
09D2E:  CALL   2D18
....................             Valvula2_on; 
09D32:  BCF    F8B.5
09D34:  BCF    F94.5
....................          }else{ 
09D36:  BRA    9D50
....................             printf("b5.bco=63488"); 
09D38:  MOVLW  22
09D3A:  MOVWF  FF6
09D3C:  MOVLW  08
09D3E:  MOVWF  FF7
09D40:  MOVLW  00
09D42:  MOVWF  FF8
09D44:  CALL   2CE6
....................             SendDataDisplay();  
09D48:  CALL   2D18
....................             Valvula2_off;             
09D4C:  BSF    F8B.5
09D4E:  BCF    F94.5
....................          } 
....................           
....................          if(RX_Buffer[4]==0x07){//Oprimio EV Suministro 
09D50:  MOVF   2E,W
09D52:  SUBLW  07
09D54:  BNZ   9D60
....................             EstadoR7=!EstadoR7; 
09D56:  MOVLB  1
09D58:  BTG    xCB.0
....................             RX_Buffer[4]=0x00; 
09D5A:  CLRF   2E
....................             RX_Buffer2[4]=0x00; 
09D5C:  CLRF   39
09D5E:  MOVLB  0
....................          } 
....................           
....................          if(DOOR){ 
09D60:  BSF    F93.7
09D62:  BTFSS  F81.7
09D64:  BRA    9D7C
....................             printf("b8.bco=2016"); 
09D66:  MOVLW  30
09D68:  MOVWF  FF6
09D6A:  MOVLW  08
09D6C:  MOVWF  FF7
09D6E:  MOVLW  00
09D70:  MOVWF  FF8
09D72:  CALL   2CE6
....................             SendDataDisplay();  
09D76:  CALL   2D18
....................          }else{ 
09D7A:  BRA    9D90
....................             printf("b8.bco=63488"); 
09D7C:  MOVLW  3C
09D7E:  MOVWF  FF6
09D80:  MOVLW  08
09D82:  MOVWF  FF7
09D84:  MOVLW  00
09D86:  MOVWF  FF8
09D88:  CALL   2CE6
....................             SendDataDisplay();  
09D8C:  CALL   2D18
....................          } 
....................           
....................          if(TERM){ 
09D90:  BSF    F93.5
09D92:  BTFSS  F81.5
09D94:  BRA    9DAC
....................             printf("b9.bco=2016"); 
09D96:  MOVLW  4A
09D98:  MOVWF  FF6
09D9A:  MOVLW  08
09D9C:  MOVWF  FF7
09D9E:  MOVLW  00
09DA0:  MOVWF  FF8
09DA2:  CALL   2CE6
....................             SendDataDisplay();  
09DA6:  CALL   2D18
....................          }else{ 
09DAA:  BRA    9DC0
....................             printf("b9.bco=63488"); 
09DAC:  MOVLW  56
09DAE:  MOVWF  FF6
09DB0:  MOVLW  08
09DB2:  MOVWF  FF7
09DB4:  MOVLW  00
09DB6:  MOVWF  FF8
09DB8:  CALL   2CE6
....................             SendDataDisplay();  
09DBC:  CALL   2D18
....................          } 
....................           
....................          if(TERM2){ 
09DC0:  BSF    F93.6
09DC2:  BTFSS  F81.6
09DC4:  BRA    9DDC
....................             printf("b10.bco=2016"); 
09DC6:  MOVLW  64
09DC8:  MOVWF  FF6
09DCA:  MOVLW  08
09DCC:  MOVWF  FF7
09DCE:  MOVLW  00
09DD0:  MOVWF  FF8
09DD2:  CALL   2CE6
....................             SendDataDisplay();  
09DD6:  CALL   2D18
....................          }else{ 
09DDA:  BRA    9DF0
....................             printf("b10.bco=63488"); 
09DDC:  MOVLW  72
09DDE:  MOVWF  FF6
09DE0:  MOVLW  08
09DE2:  MOVWF  FF7
09DE4:  MOVLW  00
09DE6:  MOVWF  FF8
09DE8:  CALL   2CE6
....................             SendDataDisplay();  
09DEC:  CALL   2D18
....................          } 
....................           
....................          /* 
....................          if(PRES){ 
....................             printf("b11.bco=2016"); 
....................             SendDataDisplay();  
....................          }else{ 
....................             printf("b11.bco=63488"); 
....................             SendDataDisplay();  
....................          } 
....................          */ 
....................          if(RX_Buffer[4]==0x13)//Oprimio Buzzer 
09DF0:  MOVF   2E,W
09DF2:  SUBLW  13
09DF4:  BNZ   9DFE
....................          { 
....................             EstadoBuzzer=!EstadoBuzzer; 
09DF6:  MOVLB  1
09DF8:  BTG    xCC.7
....................             RX_Buffer[4]=0x00; 
09DFA:  CLRF   2E
....................             RX_Buffer2[4]=0x00; 
09DFC:  CLRF   39
....................          } 
....................           
....................          if(EstadoBuzzer){ 
09DFE:  MOVLB  1
09E00:  BTFSS  xCC.7
09E02:  BRA    9E22
....................             printf("b12.bco=2016"); 
09E04:  MOVLW  80
09E06:  MOVWF  FF6
09E08:  MOVLW  08
09E0A:  MOVWF  FF7
09E0C:  MOVLW  00
09E0E:  MOVWF  FF8
09E10:  MOVLB  0
09E12:  CALL   2CE6
....................             SendDataDisplay();  
09E16:  CALL   2D18
....................             Buzzer_on; 
09E1A:  BSF    F8C.7
09E1C:  BCF    F95.7
....................          } 
....................          else{ 
09E1E:  BRA    9E3C
09E20:  MOVLB  1
....................             printf("b12.bco=63488"); 
09E22:  MOVLW  8E
09E24:  MOVWF  FF6
09E26:  MOVLW  08
09E28:  MOVWF  FF7
09E2A:  MOVLW  00
09E2C:  MOVWF  FF8
09E2E:  MOVLB  0
09E30:  CALL   2CE6
....................             SendDataDisplay();  
09E34:  CALL   2D18
....................             Buzzer_off; 
09E38:  BCF    F8C.7
09E3A:  BCF    F95.7
....................          } 
....................                    
....................          printf("b13.txt=\"ADC0:%3.0f\"",sensores(0));          
09E3C:  MOVLB  6
09E3E:  CLRF   xF5
09E40:  MOVLB  0
09E42:  CALL   2D4E
09E46:  MOVFF  00,6F1
09E4A:  MOVFF  01,6F2
09E4E:  MOVFF  02,6F3
09E52:  MOVFF  03,6F4
09E56:  MOVLW  9C
09E58:  MOVWF  FF6
09E5A:  MOVLW  08
09E5C:  MOVWF  FF7
09E5E:  MOVLW  00
09E60:  MOVWF  FF8
09E62:  MOVLW  0E
09E64:  MOVLB  6
09E66:  MOVWF  xF9
09E68:  MOVLB  0
09E6A:  CALL   3AD4
09E6E:  MOVLW  02
09E70:  MOVWF  FE9
09E72:  MOVFF  6F4,6FC
09E76:  MOVFF  6F3,6FB
09E7A:  MOVFF  6F2,6FA
09E7E:  MOVFF  6F1,6F9
09E82:  MOVLB  6
09E84:  CLRF   xFD
09E86:  MOVLB  0
09E88:  CALL   3C74
09E8C:  MOVLW  22
09E8E:  BTFSS  F9E.4
09E90:  BRA    9E8E
09E92:  MOVWF  FAD
....................          SendDataDisplay(); 
09E94:  CALL   2D18
....................          printf("b14.txt=\"ADC1:%3.0f\"",sensores(1));          
09E98:  MOVLW  01
09E9A:  MOVLB  6
09E9C:  MOVWF  xF5
09E9E:  MOVLB  0
09EA0:  CALL   2D4E
09EA4:  MOVFF  00,6F1
09EA8:  MOVFF  01,6F2
09EAC:  MOVFF  02,6F3
09EB0:  MOVFF  03,6F4
09EB4:  MOVLW  B2
09EB6:  MOVWF  FF6
09EB8:  MOVLW  08
09EBA:  MOVWF  FF7
09EBC:  MOVLW  00
09EBE:  MOVWF  FF8
09EC0:  MOVLW  0E
09EC2:  MOVLB  6
09EC4:  MOVWF  xF9
09EC6:  MOVLB  0
09EC8:  CALL   3AD4
09ECC:  MOVLW  02
09ECE:  MOVWF  FE9
09ED0:  MOVFF  6F4,6FC
09ED4:  MOVFF  6F3,6FB
09ED8:  MOVFF  6F2,6FA
09EDC:  MOVFF  6F1,6F9
09EE0:  MOVLB  6
09EE2:  CLRF   xFD
09EE4:  MOVLB  0
09EE6:  CALL   3C74
09EEA:  MOVLW  22
09EEC:  BTFSS  F9E.4
09EEE:  BRA    9EEC
09EF0:  MOVWF  FAD
....................          SendDataDisplay(); 
09EF2:  CALL   2D18
....................          printf("b15.txt=\"A2:%3.0f\"",sensores(2)); 
09EF6:  MOVLW  02
09EF8:  MOVLB  6
09EFA:  MOVWF  xF5
09EFC:  MOVLB  0
09EFE:  CALL   2D4E
09F02:  MOVFF  00,6F1
09F06:  MOVFF  01,6F2
09F0A:  MOVFF  02,6F3
09F0E:  MOVFF  03,6F4
09F12:  MOVLW  C8
09F14:  MOVWF  FF6
09F16:  MOVLW  08
09F18:  MOVWF  FF7
09F1A:  MOVLW  00
09F1C:  MOVWF  FF8
09F1E:  MOVLW  0C
09F20:  MOVLB  6
09F22:  MOVWF  xF9
09F24:  MOVLB  0
09F26:  CALL   3AD4
09F2A:  MOVLW  02
09F2C:  MOVWF  FE9
09F2E:  MOVFF  6F4,6FC
09F32:  MOVFF  6F3,6FB
09F36:  MOVFF  6F2,6FA
09F3A:  MOVFF  6F1,6F9
09F3E:  MOVLB  6
09F40:  CLRF   xFD
09F42:  MOVLB  0
09F44:  CALL   3C74
09F48:  MOVLW  22
09F4A:  BTFSS  F9E.4
09F4C:  BRA    9F4A
09F4E:  MOVWF  FAD
....................          SendDataDisplay(); 
09F50:  CALL   2D18
....................          printf("b18.txt=\"A3:%3.0f\"",sensores(3)); 
09F54:  MOVLW  03
09F56:  MOVLB  6
09F58:  MOVWF  xF5
09F5A:  MOVLB  0
09F5C:  CALL   2D4E
09F60:  MOVFF  00,6F1
09F64:  MOVFF  01,6F2
09F68:  MOVFF  02,6F3
09F6C:  MOVFF  03,6F4
09F70:  MOVLW  DC
09F72:  MOVWF  FF6
09F74:  MOVLW  08
09F76:  MOVWF  FF7
09F78:  MOVLW  00
09F7A:  MOVWF  FF8
09F7C:  MOVLW  0C
09F7E:  MOVLB  6
09F80:  MOVWF  xF9
09F82:  MOVLB  0
09F84:  CALL   3AD4
09F88:  MOVLW  02
09F8A:  MOVWF  FE9
09F8C:  MOVFF  6F4,6FC
09F90:  MOVFF  6F3,6FB
09F94:  MOVFF  6F2,6FA
09F98:  MOVFF  6F1,6F9
09F9C:  MOVLB  6
09F9E:  CLRF   xFD
09FA0:  MOVLB  0
09FA2:  CALL   3C74
09FA6:  MOVLW  22
09FA8:  BTFSS  F9E.4
09FAA:  BRA    9FA8
09FAC:  MOVWF  FAD
....................          SendDataDisplay(); 
09FAE:  CALL   2D18
....................          printf("b19.txt=\"T2:%3.1f\"",Temperatura); 
09FB2:  MOVLW  F0
09FB4:  MOVWF  FF6
09FB6:  MOVLW  08
09FB8:  MOVWF  FF7
09FBA:  MOVLW  00
09FBC:  MOVWF  FF8
09FBE:  MOVLW  0C
09FC0:  MOVLB  6
09FC2:  MOVWF  xF9
09FC4:  MOVLB  0
09FC6:  CALL   3AD4
09FCA:  MOVLW  02
09FCC:  MOVWF  FE9
09FCE:  MOVFF  26B,6FC
09FD2:  MOVFF  26A,6FB
09FD6:  MOVFF  269,6FA
09FDA:  MOVFF  268,6F9
09FDE:  MOVLW  01
09FE0:  MOVLB  6
09FE2:  MOVWF  xFD
09FE4:  MOVLB  0
09FE6:  CALL   3C74
09FEA:  MOVLW  22
09FEC:  BTFSS  F9E.4
09FEE:  BRA    9FEC
09FF0:  MOVWF  FAD
....................          SendDataDisplay(); 
09FF2:  CALL   2D18
....................          printf("b20.txt=\"T1:%3.1f\"",TemperaturaEvaporador); 
09FF6:  MOVLW  04
09FF8:  MOVWF  FF6
09FFA:  MOVLW  09
09FFC:  MOVWF  FF7
09FFE:  MOVLW  00
0A000:  MOVWF  FF8
0A002:  MOVLW  0C
0A004:  MOVLB  6
0A006:  MOVWF  xF9
0A008:  MOVLB  0
0A00A:  CALL   3AD4
0A00E:  MOVLW  02
0A010:  MOVWF  FE9
0A012:  MOVFF  27F,6FC
0A016:  MOVFF  27E,6FB
0A01A:  MOVFF  27D,6FA
0A01E:  MOVFF  27C,6F9
0A022:  MOVLW  01
0A024:  MOVLB  6
0A026:  MOVWF  xFD
0A028:  MOVLB  0
0A02A:  CALL   3C74
0A02E:  MOVLW  22
0A030:  BTFSS  F9E.4
0A032:  BRA    A030
0A034:  MOVWF  FAD
....................          SendDataDisplay(); 
0A036:  CALL   2D18
....................          printf("b4.txt=\"Valvula 1\""); 
0A03A:  MOVLW  18
0A03C:  MOVWF  FF6
0A03E:  MOVLW  09
0A040:  MOVWF  FF7
0A042:  MOVLW  00
0A044:  MOVWF  FF8
0A046:  CALL   2CE6
....................          SendDataDisplay(); 
0A04A:  CALL   2D18
....................          printf("b5.txt=\"Valvula 2\""); 
0A04E:  MOVLW  2C
0A050:  MOVWF  FF6
0A052:  MOVLW  09
0A054:  MOVWF  FF7
0A056:  MOVLW  00
0A058:  MOVWF  FF8
0A05A:  CALL   2CE6
....................          SendDataDisplay(); 
0A05E:  CALL   2D18
....................           
....................          if(RX_Buffer[4]==0x21)//Oprimio salir 
0A062:  MOVF   2E,W
0A064:  SUBLW  21
0A066:  BNZ   A086
....................          { 
....................             printf("page Principal"); 
0A068:  MOVLW  40
0A06A:  MOVWF  FF6
0A06C:  MOVLW  09
0A06E:  MOVWF  FF7
0A070:  MOVLW  00
0A072:  MOVWF  FF8
0A074:  CALL   2CE6
....................             SendDataDisplay(); 
0A078:  CALL   2D18
....................             PruebaEstados=OFF; 
0A07C:  MOVLB  1
0A07E:  BCF    xC9.5
....................             ApagaSalidas(); 
0A080:  MOVLB  0
0A082:  CALL   10CE
0A086:  MOVLB  1
....................          } 
....................      } 
.................... //_--------------------------------------------------------------------------------------------------------------------------------------------------------     
....................  
.................... //_--------------------------------------------------------------------------------------------------------------------------------------------------------       
....................       if(Menu==7){ //Menu de Configuracin de Fecha y Hora 
0A088:  MOVF   xFE,W
0A08A:  SUBLW  07
0A08C:  BTFSS  FD8.2
0A08E:  BRA    A4C0
....................          if(RX_Buffer[4]==0x0a){//Selecciono Hora 
0A090:  MOVF   2E,W
0A092:  SUBLW  0A
0A094:  BNZ   A09E
....................             Opcion=4; 
0A096:  MOVLW  04
0A098:  MOVLB  2
0A09A:  MOVWF  x02
0A09C:  MOVLB  1
....................          } 
....................           
....................          if(RX_Buffer[4]==0x0b){//Selecciono Minuto 
0A09E:  MOVF   2E,W
0A0A0:  SUBLW  0B
0A0A2:  BNZ   A0AC
....................             Opcion=5; 
0A0A4:  MOVLW  05
0A0A6:  MOVLB  2
0A0A8:  MOVWF  x02
0A0AA:  MOVLB  1
....................          } 
....................           
....................          if(RX_Buffer[4]==0x0c){//Selecciono Dia 
0A0AC:  MOVF   2E,W
0A0AE:  SUBLW  0C
0A0B0:  BNZ   A0BA
....................             Opcion=1; 
0A0B2:  MOVLW  01
0A0B4:  MOVLB  2
0A0B6:  MOVWF  x02
0A0B8:  MOVLB  1
....................          } 
....................           
....................          if(RX_Buffer[4]==0x0d){//Selecciono Hora 
0A0BA:  MOVF   2E,W
0A0BC:  SUBLW  0D
0A0BE:  BNZ   A0C8
....................             Opcion=2; 
0A0C0:  MOVLW  02
0A0C2:  MOVLB  2
0A0C4:  MOVWF  x02
0A0C6:  MOVLB  1
....................          } 
....................           
....................          if(RX_Buffer[4]==0x0e){//Selecciono Year 
0A0C8:  MOVF   2E,W
0A0CA:  SUBLW  0E
0A0CC:  BNZ   A0D6
....................             Opcion=3; 
0A0CE:  MOVLW  03
0A0D0:  MOVLB  2
0A0D2:  MOVWF  x02
0A0D4:  MOVLB  1
....................          } 
....................           
....................          if(RIGHT){ 
0A0D6:  BSF    F93.2
0A0D8:  BTFSC  F81.2
0A0DA:  BRA    A0F4
....................             delay_ms(200); 
0A0DC:  MOVLW  C8
0A0DE:  MOVLB  6
0A0E0:  MOVWF  xFA
0A0E2:  MOVLB  0
0A0E4:  CALL   1148
....................             if(RIGHT){ 
0A0E8:  BSF    F93.2
0A0EA:  BTFSC  F81.2
0A0EC:  BRA    A0F4
....................                Opcion++; 
0A0EE:  MOVLB  2
0A0F0:  INCF   x02,F
0A0F2:  MOVLB  0
....................             } 
....................          } 
....................          if(Opcion>5) 
0A0F4:  MOVLB  2
0A0F6:  MOVF   x02,W
0A0F8:  SUBLW  05
0A0FA:  BC    A100
....................             Opcion=1; 
0A0FC:  MOVLW  01
0A0FE:  MOVWF  x02
....................          if(Opcion<1) 
0A100:  MOVF   x02,F
0A102:  BNZ   A108
....................             Opcion=5; 
0A104:  MOVLW  05
0A106:  MOVWF  x02
....................              
....................          if(RX_Buffer[4]==0x11 || LEFT){//Selecciono Regresar 
0A108:  MOVF   2E,W
0A10A:  SUBLW  11
0A10C:  BZ    A114
0A10E:  BSF    F93.3
0A110:  BTFSC  F81.3
0A112:  BRA    A222
....................             printf("page Principal"); 
0A114:  MOVLW  50
0A116:  MOVWF  FF6
0A118:  MOVLW  09
0A11A:  MOVWF  FF7
0A11C:  MOVLW  00
0A11E:  MOVWF  FF8
0A120:  MOVLB  0
0A122:  CALL   2CE6
....................             SendDataDisplay();   
0A126:  CALL   2D18
....................              
....................              
....................             if(esBisiesto(YearTx)) 
0A12A:  MOVFF  2D3,6F1
0A12E:  CALL   3F56
0A132:  MOVF   01,F
0A134:  BZ    A150
....................                Modulo=Bisiesto[MesTx]; 
0A136:  CLRF   03
0A138:  MOVLB  2
0A13A:  MOVF   xD4,W
0A13C:  ADDLW  4D
0A13E:  MOVWF  FE9
0A140:  MOVLW  00
0A142:  ADDWFC 03,W
0A144:  MOVWF  FEA
0A146:  MOVFF  FEF,1DE
0A14A:  MOVLB  1
....................             else 
0A14C:  BRA    A166
0A14E:  MOVLB  0
....................                Modulo=Regular[MesTx]; 
0A150:  CLRF   03
0A152:  MOVLB  2
0A154:  MOVF   xD4,W
0A156:  ADDLW  41
0A158:  MOVWF  FE9
0A15A:  MOVLW  00
0A15C:  ADDWFC 03,W
0A15E:  MOVWF  FEA
0A160:  MOVFF  FEF,1DE
0A164:  MOVLB  1
....................           
....................             dowTx=((YearTx-1)%7+((YearTx-1)/4-3*((YearTx-1)/100+1)/4)%7+Modulo+DiaTx%7)%7; 
0A166:  MOVLW  01
0A168:  MOVLB  2
0A16A:  SUBWF  xD3,W
0A16C:  MOVLB  6
0A16E:  MOVWF  xF2
0A170:  MOVWF  xFA
0A172:  MOVLW  07
0A174:  MOVWF  xFB
0A176:  MOVLB  0
0A178:  CALL   3B06
0A17C:  MOVFF  00,6F1
0A180:  MOVLW  01
0A182:  MOVLB  2
0A184:  SUBWF  xD3,W
0A186:  MOVWF  00
0A188:  RRCF   00,W
0A18A:  MOVLB  6
0A18C:  MOVWF  xF2
0A18E:  RRCF   xF2,F
0A190:  MOVLW  3F
0A192:  ANDWF  xF2,F
0A194:  MOVLW  01
0A196:  MOVLB  2
0A198:  SUBWF  xD3,W
0A19A:  MOVLB  6
0A19C:  MOVWF  xF4
0A19E:  MOVWF  xFA
0A1A0:  MOVLW  64
0A1A2:  MOVWF  xFB
0A1A4:  MOVLB  0
0A1A6:  CALL   3B06
0A1AA:  MOVLW  01
0A1AC:  ADDWF  01,W
0A1AE:  MULLW  03
0A1B0:  MOVFF  FF3,00
0A1B4:  RRCF   00,F
0A1B6:  RRCF   00,F
0A1B8:  MOVLW  3F
0A1BA:  ANDWF  00,F
0A1BC:  MOVF   00,W
0A1BE:  MOVLB  6
0A1C0:  SUBWF  xF2,W
0A1C2:  MOVWF  xF3
0A1C4:  MOVWF  xFA
0A1C6:  MOVLW  07
0A1C8:  MOVWF  xFB
0A1CA:  MOVLB  0
0A1CC:  CALL   3B06
0A1D0:  MOVF   00,W
0A1D2:  MOVLB  6
0A1D4:  ADDWF  xF1,W
0A1D6:  MOVLB  1
0A1D8:  ADDWF  xDE,W
0A1DA:  MOVLB  6
0A1DC:  MOVWF  xF1
0A1DE:  MOVFF  2D5,6FA
0A1E2:  MOVLW  07
0A1E4:  MOVWF  xFB
0A1E6:  MOVLB  0
0A1E8:  CALL   3B06
0A1EC:  MOVF   00,W
0A1EE:  MOVLB  6
0A1F0:  ADDWF  xF1,W
0A1F2:  MOVWF  xF2
0A1F4:  MOVWF  xFA
0A1F6:  MOVLW  07
0A1F8:  MOVWF  xFB
0A1FA:  MOVLB  0
0A1FC:  CALL   3B06
0A200:  MOVFF  00,2D8
....................             rtc_set_datetime(DiaTx,MesTx,YearTx,dowTx,HoraTx,MinutoTx); 
0A204:  MOVFF  2D5,6F1
0A208:  MOVFF  2D4,6F2
0A20C:  MOVFF  2D3,6F3
0A210:  MOVFF  2D8,6F4
0A214:  MOVFF  2D6,6F5
0A218:  MOVFF  2D7,6F6
0A21C:  GOTO   3FD8
0A220:  MOVLB  2
....................          } 
....................           
....................          if((RX_Buffer[4]==0x2a)|| UP){//Tecla Arriba Oprimida 
0A222:  MOVF   2E,W
0A224:  SUBLW  2A
0A226:  BZ    A22E
0A228:  BSF    F93.0
0A22A:  BTFSC  F81.0
0A22C:  BRA    A32C
....................             delay_ms(200); 
0A22E:  MOVLW  C8
0A230:  MOVLB  6
0A232:  MOVWF  xFA
0A234:  MOVLB  0
0A236:  CALL   1148
....................             if((RX_Buffer[4]==0x2a)|| UP){    
0A23A:  MOVF   2E,W
0A23C:  SUBLW  2A
0A23E:  BZ    A246
0A240:  BSF    F93.0
0A242:  BTFSC  F81.0
0A244:  BRA    A32E
....................                if(Opcion==1){ 
0A246:  MOVLB  2
0A248:  DECFSZ x02,W
0A24A:  BRA    A2D8
....................                   if(MesTx==2){ 
0A24C:  MOVF   xD4,W
0A24E:  SUBLW  02
0A250:  BNZ   A286
....................                      if(esBisiesto(YearTx)){ 
0A252:  MOVFF  2D3,6F1
0A256:  MOVLB  0
0A258:  CALL   3F56
0A25C:  MOVF   01,F
0A25E:  BZ    A274
....................                         if(DiaTx<29) 
0A260:  MOVLB  2
0A262:  MOVF   xD5,W
0A264:  SUBLW  1C
0A266:  BNC   A26C
....................                            DiaTx++; 
0A268:  INCF   xD5,F
....................                         else 
0A26A:  BRA    A270
....................                            DiaTx=1;    
0A26C:  MOVLW  01
0A26E:  MOVWF  xD5
....................                      }else{ 
0A270:  BRA    A284
0A272:  MOVLB  0
....................                         if(DiaTx<28) 
0A274:  MOVLB  2
0A276:  MOVF   xD5,W
0A278:  SUBLW  1B
0A27A:  BNC   A280
....................                            DiaTx++; 
0A27C:  INCF   xD5,F
....................                         else 
0A27E:  BRA    A284
....................                            DiaTx=1;    
0A280:  MOVLW  01
0A282:  MOVWF  xD5
....................                      } 
....................                   }else{ 
0A284:  BRA    A2D6
....................                      if(MesTx<=7){ 
0A286:  MOVF   xD4,W
0A288:  SUBLW  07
0A28A:  BNC   A2B2
....................                         if(MesTx % 2 ==0){ 
0A28C:  MOVF   xD4,W
0A28E:  ANDLW  01
0A290:  BNZ   A2A2
....................                            if(DiaTx<30) 
0A292:  MOVF   xD5,W
0A294:  SUBLW  1D
0A296:  BNC   A29C
....................                               DiaTx++;     
0A298:  INCF   xD5,F
....................                            else 
0A29A:  BRA    A2A0
....................                               DiaTx=1;    
0A29C:  MOVLW  01
0A29E:  MOVWF  xD5
....................                         }else{ 
0A2A0:  BRA    A2B0
....................                            if(DiaTx<31) 
0A2A2:  MOVF   xD5,W
0A2A4:  SUBLW  1E
0A2A6:  BNC   A2AC
....................                               DiaTx++;     
0A2A8:  INCF   xD5,F
....................                            else 
0A2AA:  BRA    A2B0
....................                               DiaTx=1;    
0A2AC:  MOVLW  01
0A2AE:  MOVWF  xD5
....................                         }     
....................                      }else{ 
0A2B0:  BRA    A2D6
....................                         if(MesTx % 2 ==0){ 
0A2B2:  MOVF   xD4,W
0A2B4:  ANDLW  01
0A2B6:  BNZ   A2C8
....................                            if(DiaTx<31) 
0A2B8:  MOVF   xD5,W
0A2BA:  SUBLW  1E
0A2BC:  BNC   A2C2
....................                               DiaTx++;   
0A2BE:  INCF   xD5,F
....................                            else 
0A2C0:  BRA    A2C6
....................                               DiaTx=1; 
0A2C2:  MOVLW  01
0A2C4:  MOVWF  xD5
....................                         }else{ 
0A2C6:  BRA    A2D6
....................                            if(DiaTx<30) 
0A2C8:  MOVF   xD5,W
0A2CA:  SUBLW  1D
0A2CC:  BNC   A2D2
....................                               DiaTx++;     
0A2CE:  INCF   xD5,F
....................                            else 
0A2D0:  BRA    A2D6
....................                               DiaTx=1; 
0A2D2:  MOVLW  01
0A2D4:  MOVWF  xD5
....................                         }     
....................                      } 
....................                   } 
....................                }else if(Opcion==2){ 
0A2D6:  BRA    A328
0A2D8:  MOVF   x02,W
0A2DA:  SUBLW  02
0A2DC:  BNZ   A2EE
....................                   if(MesTx<12) 
0A2DE:  MOVF   xD4,W
0A2E0:  SUBLW  0B
0A2E2:  BNC   A2E8
....................                      MesTx++; 
0A2E4:  INCF   xD4,F
....................                   else 
0A2E6:  BRA    A2EC
....................                      MesTx=1; 
0A2E8:  MOVLW  01
0A2EA:  MOVWF  xD4
....................                }else if(Opcion==3){ 
0A2EC:  BRA    A328
0A2EE:  MOVF   x02,W
0A2F0:  SUBLW  03
0A2F2:  BNZ   A302
....................                   if(YearTx<99) 
0A2F4:  MOVF   xD3,W
0A2F6:  SUBLW  62
0A2F8:  BNC   A2FE
....................                      YearTx++; 
0A2FA:  INCF   xD3,F
....................                   else  
0A2FC:  BRA    A300
....................                      YearTx=0; 
0A2FE:  CLRF   xD3
....................                }else if(Opcion==4){ 
0A300:  BRA    A328
0A302:  MOVF   x02,W
0A304:  SUBLW  04
0A306:  BNZ   A316
....................                   if(HoraTx<24) 
0A308:  MOVF   xD6,W
0A30A:  SUBLW  17
0A30C:  BNC   A312
....................                      HoraTx++; 
0A30E:  INCF   xD6,F
....................                   else 
0A310:  BRA    A314
....................                      HoraTx=0; 
0A312:  CLRF   xD6
....................                }else if(Opcion==5){ 
0A314:  BRA    A328
0A316:  MOVF   x02,W
0A318:  SUBLW  05
0A31A:  BNZ   A328
....................                   if(MinutoTx<59) 
0A31C:  MOVF   xD7,W
0A31E:  SUBLW  3A
0A320:  BNC   A326
....................                      MinutoTx++; 
0A322:  INCF   xD7,F
....................                   else 
0A324:  BRA    A328
....................                      MinutoTx=0; 
0A326:  CLRF   xD7
....................                } 
....................                RX_Buffer[4]=0x00; 
0A328:  CLRF   2E
....................                RX_Buffer2[4]=0x00; 
0A32A:  CLRF   39
0A32C:  MOVLB  0
....................             } 
....................          } 
....................           
....................          if(RX_Buffer[4]==0x2b || DOWN){//Tecla Abajo Oprimida 
0A32E:  MOVF   2E,W
0A330:  SUBLW  2B
0A332:  BZ    A33A
0A334:  BSF    F93.1
0A336:  BTFSC  F81.1
0A338:  BRA    A3B6
....................             delay_ms(200); 
0A33A:  MOVLW  C8
0A33C:  MOVLB  6
0A33E:  MOVWF  xFA
0A340:  MOVLB  0
0A342:  CALL   1148
....................             if(RX_Buffer[4]==0x2b || DOWN){    
0A346:  MOVF   2E,W
0A348:  SUBLW  2B
0A34A:  BZ    A352
0A34C:  BSF    F93.1
0A34E:  BTFSC  F81.1
0A350:  BRA    A3B6
....................                if(Opcion==1){ 
0A352:  MOVLB  2
0A354:  DECFSZ x02,W
0A356:  BRA    A360
....................                   if(DiaTx>0) 
0A358:  MOVF   xD5,F
0A35A:  BZ    A35E
....................                      DiaTx--; 
0A35C:  DECF   xD5,F
....................                }else if(Opcion==2){ 
0A35E:  BRA    A3B0
0A360:  MOVF   x02,W
0A362:  SUBLW  02
0A364:  BNZ   A376
....................                   if(MesTx>1) 
0A366:  MOVF   xD4,W
0A368:  SUBLW  01
0A36A:  BC    A370
....................                      MesTx--; 
0A36C:  DECF   xD4,F
....................                   else 
0A36E:  BRA    A374
....................                      MesTx=12; 
0A370:  MOVLW  0C
0A372:  MOVWF  xD4
....................                }else if(Opcion==3){ 
0A374:  BRA    A3B0
0A376:  MOVF   x02,W
0A378:  SUBLW  03
0A37A:  BNZ   A38A
....................                   if(YearTx>0) 
0A37C:  MOVF   xD3,F
0A37E:  BZ    A384
....................                      YearTx--; 
0A380:  DECF   xD3,F
....................                   else 
0A382:  BRA    A388
....................                      YearTx=99; 
0A384:  MOVLW  63
0A386:  MOVWF  xD3
....................                }else if(Opcion==4){ 
0A388:  BRA    A3B0
0A38A:  MOVF   x02,W
0A38C:  SUBLW  04
0A38E:  BNZ   A39E
....................                   if(HoraTx>0) 
0A390:  MOVF   xD6,F
0A392:  BZ    A398
....................                      HoraTx--; 
0A394:  DECF   xD6,F
....................                   else 
0A396:  BRA    A39C
....................                      HoraTx=23; 
0A398:  MOVLW  17
0A39A:  MOVWF  xD6
....................                }else if(Opcion==5){ 
0A39C:  BRA    A3B0
0A39E:  MOVF   x02,W
0A3A0:  SUBLW  05
0A3A2:  BNZ   A3B0
....................                   if(MinutoTx>0) 
0A3A4:  MOVF   xD7,F
0A3A6:  BZ    A3AC
....................                      MinutoTx--; 
0A3A8:  DECF   xD7,F
....................                   else 
0A3AA:  BRA    A3B0
....................                      MinutoTx=59; 
0A3AC:  MOVLW  3B
0A3AE:  MOVWF  xD7
....................                } 
....................                RX_Buffer[4]=0x00; 
0A3B0:  CLRF   2E
....................                RX_Buffer2[4]=0x00; 
0A3B2:  CLRF   39
0A3B4:  MOVLB  0
....................             } 
....................          } 
....................        
....................       printf("thora.txt=\"%02u\"",HoraTx); 
0A3B6:  MOVLW  60
0A3B8:  MOVWF  FF6
0A3BA:  MOVLW  09
0A3BC:  MOVWF  FF7
0A3BE:  MOVLW  00
0A3C0:  MOVWF  FF8
0A3C2:  MOVLW  0B
0A3C4:  MOVLB  6
0A3C6:  MOVWF  xF9
0A3C8:  MOVLB  0
0A3CA:  CALL   3AD4
0A3CE:  MOVFF  2D6,6F2
0A3D2:  MOVLW  01
0A3D4:  MOVLB  6
0A3D6:  MOVWF  xF3
0A3D8:  MOVLB  0
0A3DA:  CALL   3B32
0A3DE:  MOVLW  22
0A3E0:  BTFSS  F9E.4
0A3E2:  BRA    A3E0
0A3E4:  MOVWF  FAD
....................       SendDataDisplay(); 
0A3E6:  CALL   2D18
....................       printf("tminutos.txt=\"%02u\"",MinutoTx); 
0A3EA:  MOVLW  72
0A3EC:  MOVWF  FF6
0A3EE:  MOVLW  09
0A3F0:  MOVWF  FF7
0A3F2:  MOVLW  00
0A3F4:  MOVWF  FF8
0A3F6:  MOVLW  0E
0A3F8:  MOVLB  6
0A3FA:  MOVWF  xF9
0A3FC:  MOVLB  0
0A3FE:  CALL   3AD4
0A402:  MOVFF  2D7,6F2
0A406:  MOVLW  01
0A408:  MOVLB  6
0A40A:  MOVWF  xF3
0A40C:  MOVLB  0
0A40E:  CALL   3B32
0A412:  MOVLW  22
0A414:  BTFSS  F9E.4
0A416:  BRA    A414
0A418:  MOVWF  FAD
....................       SendDataDisplay(); 
0A41A:  CALL   2D18
....................       printf("tdia.txt=\"%02u\"",DiaTx); 
0A41E:  MOVLW  86
0A420:  MOVWF  FF6
0A422:  MOVLW  09
0A424:  MOVWF  FF7
0A426:  MOVLW  00
0A428:  MOVWF  FF8
0A42A:  MOVLW  0A
0A42C:  MOVLB  6
0A42E:  MOVWF  xF9
0A430:  MOVLB  0
0A432:  CALL   3AD4
0A436:  MOVFF  2D5,6F2
0A43A:  MOVLW  01
0A43C:  MOVLB  6
0A43E:  MOVWF  xF3
0A440:  MOVLB  0
0A442:  CALL   3B32
0A446:  MOVLW  22
0A448:  BTFSS  F9E.4
0A44A:  BRA    A448
0A44C:  MOVWF  FAD
....................       SendDataDisplay(); 
0A44E:  CALL   2D18
....................       printf("tmes.txt=\"%02u\"",MesTx); 
0A452:  MOVLW  96
0A454:  MOVWF  FF6
0A456:  MOVLW  09
0A458:  MOVWF  FF7
0A45A:  MOVLW  00
0A45C:  MOVWF  FF8
0A45E:  MOVLW  0A
0A460:  MOVLB  6
0A462:  MOVWF  xF9
0A464:  MOVLB  0
0A466:  CALL   3AD4
0A46A:  MOVFF  2D4,6F2
0A46E:  MOVLW  01
0A470:  MOVLB  6
0A472:  MOVWF  xF3
0A474:  MOVLB  0
0A476:  CALL   3B32
0A47A:  MOVLW  22
0A47C:  BTFSS  F9E.4
0A47E:  BRA    A47C
0A480:  MOVWF  FAD
....................       SendDataDisplay(); 
0A482:  CALL   2D18
....................       printf("tyear.txt=\"%02u\"",YearTx); 
0A486:  MOVLW  A6
0A488:  MOVWF  FF6
0A48A:  MOVLW  09
0A48C:  MOVWF  FF7
0A48E:  MOVLW  00
0A490:  MOVWF  FF8
0A492:  MOVLW  0B
0A494:  MOVLB  6
0A496:  MOVWF  xF9
0A498:  MOVLB  0
0A49A:  CALL   3AD4
0A49E:  MOVFF  2D3,6F2
0A4A2:  MOVLW  01
0A4A4:  MOVLB  6
0A4A6:  MOVWF  xF3
0A4A8:  MOVLB  0
0A4AA:  CALL   3B32
0A4AE:  MOVLW  22
0A4B0:  BTFSS  F9E.4
0A4B2:  BRA    A4B0
0A4B4:  MOVWF  FAD
....................       SendDataDisplay(); 
0A4B6:  CALL   2D18
....................       LimitaDia();   
0A4BA:  GOTO   4094
0A4BE:  MOVLB  1
....................     } 
.................... //_--------------------------------------------------------------------------------------------------------------------------------------------------------        
....................  
.................... //_-------------------------------------------------------------------------------------------------------------------------------------------------------- 
....................    if(Menu==8){ //Menu de Rampas 
0A4C0:  MOVF   xFE,W
0A4C2:  SUBLW  08
0A4C4:  BTFSS  FD8.2
0A4C6:  BRA    AB16
....................       printf("fecha.txt=\"Fecha:%02u/%02u/20%02u Hora: %02u:%02u:%02u\"",Dia,Mes,Year,Hora,Minuto,Segundo); 
0A4C8:  MOVLW  B8
0A4CA:  MOVWF  FF6
0A4CC:  MOVLW  09
0A4CE:  MOVWF  FF7
0A4D0:  MOVLW  00
0A4D2:  MOVWF  FF8
0A4D4:  MOVLW  11
0A4D6:  MOVLB  6
0A4D8:  MOVWF  xF9
0A4DA:  MOVLB  0
0A4DC:  CALL   3AD4
0A4E0:  MOVFF  2CE,6F2
0A4E4:  MOVLW  01
0A4E6:  MOVLB  6
0A4E8:  MOVWF  xF3
0A4EA:  MOVLB  0
0A4EC:  CALL   3B32
0A4F0:  MOVLW  2F
0A4F2:  BTFSS  F9E.4
0A4F4:  BRA    A4F2
0A4F6:  MOVWF  FAD
0A4F8:  MOVFF  2CD,6F2
0A4FC:  MOVLW  01
0A4FE:  MOVLB  6
0A500:  MOVWF  xF3
0A502:  MOVLB  0
0A504:  CALL   3B32
0A508:  MOVLW  2F
0A50A:  BTFSS  F9E.4
0A50C:  BRA    A50A
0A50E:  MOVWF  FAD
0A510:  MOVLW  32
0A512:  BTFSS  F9E.4
0A514:  BRA    A512
0A516:  MOVWF  FAD
0A518:  MOVLW  30
0A51A:  BTFSS  F9E.4
0A51C:  BRA    A51A
0A51E:  MOVWF  FAD
0A520:  MOVFF  2CC,6F2
0A524:  MOVLW  01
0A526:  MOVLB  6
0A528:  MOVWF  xF3
0A52A:  MOVLB  0
0A52C:  CALL   3B32
0A530:  MOVLW  D9
0A532:  MOVWF  FF6
0A534:  MOVLW  09
0A536:  MOVWF  FF7
0A538:  MOVLW  00
0A53A:  MOVWF  FF8
0A53C:  MOVLW  07
0A53E:  MOVLB  6
0A540:  MOVWF  xF9
0A542:  MOVLB  0
0A544:  CALL   3AD4
0A548:  MOVFF  2CF,6F2
0A54C:  MOVLW  01
0A54E:  MOVLB  6
0A550:  MOVWF  xF3
0A552:  MOVLB  0
0A554:  CALL   3B32
0A558:  MOVLW  3A
0A55A:  BTFSS  F9E.4
0A55C:  BRA    A55A
0A55E:  MOVWF  FAD
0A560:  MOVFF  2D0,6F2
0A564:  MOVLW  01
0A566:  MOVLB  6
0A568:  MOVWF  xF3
0A56A:  MOVLB  0
0A56C:  CALL   3B32
0A570:  MOVLW  3A
0A572:  BTFSS  F9E.4
0A574:  BRA    A572
0A576:  MOVWF  FAD
0A578:  MOVFF  2D1,6F2
0A57C:  MOVLW  01
0A57E:  MOVLB  6
0A580:  MOVWF  xF3
0A582:  MOVLB  0
0A584:  CALL   3B32
0A588:  MOVLW  22
0A58A:  BTFSS  F9E.4
0A58C:  BRA    A58A
0A58E:  MOVWF  FAD
....................       SendDataDisplay(); 
0A590:  CALL   2D18
....................        
....................       for(i=0;i<20;i++){ 
0A594:  MOVLB  1
0A596:  CLRF   xFF
0A598:  MOVF   xFF,W
0A59A:  SUBLW  13
0A59C:  BNC   A67A
....................          if(rampas[i].Horas==0 && rampas[i].Minutos==0){ 
0A59E:  MOVLB  6
0A5A0:  CLRF   xFA
0A5A2:  MOVFF  1FF,6F9
0A5A6:  CLRF   xFC
0A5A8:  MOVLW  0F
0A5AA:  MOVWF  xFB
0A5AC:  MOVLB  0
0A5AE:  CALL   1566
0A5B2:  MOVFF  01,6F1
0A5B6:  MOVLW  03
0A5B8:  MOVLB  6
0A5BA:  ADDWF  01,W
0A5BC:  MOVWF  01
0A5BE:  MOVLW  00
0A5C0:  ADDWFC 02,W
0A5C2:  MOVWF  03
0A5C4:  MOVF   01,W
0A5C6:  ADDLW  C5
0A5C8:  MOVWF  FE9
0A5CA:  MOVLW  05
0A5CC:  ADDWFC 03,W
0A5CE:  MOVWF  FEA
0A5D0:  MOVFF  FEF,6F1
0A5D4:  MOVFF  FEC,6F2
0A5D8:  MOVFF  FEC,6F3
0A5DC:  MOVFF  FEC,6F4
0A5E0:  MOVFF  6F4,6F8
0A5E4:  MOVFF  6F3,6F7
0A5E8:  MOVFF  6F2,6F6
0A5EC:  MOVFF  6F1,6F5
0A5F0:  CLRF   xFC
0A5F2:  CLRF   xFB
0A5F4:  CLRF   xFA
0A5F6:  CLRF   xF9
0A5F8:  MOVLB  0
0A5FA:  CALL   16C0
0A5FE:  BNZ   A66E
0A600:  MOVLB  6
0A602:  CLRF   xFA
0A604:  MOVFF  1FF,6F9
0A608:  CLRF   xFC
0A60A:  MOVLW  0F
0A60C:  MOVWF  xFB
0A60E:  MOVLB  0
0A610:  CALL   1566
0A614:  MOVFF  01,6F1
0A618:  MOVLW  07
0A61A:  MOVLB  6
0A61C:  ADDWF  01,W
0A61E:  MOVWF  01
0A620:  MOVLW  00
0A622:  ADDWFC 02,W
0A624:  MOVWF  03
0A626:  MOVF   01,W
0A628:  ADDLW  C5
0A62A:  MOVWF  FE9
0A62C:  MOVLW  05
0A62E:  ADDWFC 03,W
0A630:  MOVWF  FEA
0A632:  MOVFF  FEF,6F1
0A636:  MOVFF  FEC,6F2
0A63A:  MOVFF  FEC,6F3
0A63E:  MOVFF  FEC,6F4
0A642:  MOVFF  6F4,6F8
0A646:  MOVFF  6F3,6F7
0A64A:  MOVFF  6F2,6F6
0A64E:  MOVFF  6F1,6F5
0A652:  CLRF   xFC
0A654:  CLRF   xFB
0A656:  CLRF   xFA
0A658:  CLRF   xF9
0A65A:  MOVLB  0
0A65C:  CALL   16C0
0A660:  BNZ   A66E
....................             Segmentos=i;   
0A662:  MOVFF  1FF,1E0
....................             break; 
0A666:  MOVLB  1
0A668:  BRA    A67A
....................          }else{ 
0A66A:  BRA    A676
0A66C:  MOVLB  0
....................             Segmentos=i+1;   
0A66E:  MOVLW  01
0A670:  MOVLB  1
0A672:  ADDWF  xFF,W
0A674:  MOVWF  xE0
....................          } 
....................       } 
0A676:  INCF   xFF,F
0A678:  BRA    A598
....................        
....................       printf("t3.txt=\"Pasos Programados %02u\"",Segmentos); 
0A67A:  MOVLW  F0
0A67C:  MOVWF  FF6
0A67E:  MOVLW  09
0A680:  MOVWF  FF7
0A682:  MOVLW  00
0A684:  MOVWF  FF8
0A686:  MOVLW  1A
0A688:  MOVLB  6
0A68A:  MOVWF  xF9
0A68C:  MOVLB  0
0A68E:  CALL   3AD4
0A692:  MOVFF  1E0,6F2
0A696:  MOVLW  01
0A698:  MOVLB  6
0A69A:  MOVWF  xF3
0A69C:  MOVLB  0
0A69E:  CALL   3B32
0A6A2:  MOVLW  22
0A6A4:  BTFSS  F9E.4
0A6A6:  BRA    A6A4
0A6A8:  MOVWF  FAD
....................       SendDataDisplay(); 
0A6AA:  CALL   2D18
....................       GuardaEEPROM=OFF; 
0A6AE:  MOVLB  1
0A6B0:  BCF    xC9.2
....................        
....................       if(RX_Buffer[4]>0x00 && RX_Buffer[4]<21){//Personalizados 
0A6B2:  MOVF   2E,F
0A6B4:  BTFSC  FD8.2
0A6B6:  BRA    A888
0A6B8:  MOVF   2E,W
0A6BA:  SUBLW  14
0A6BC:  BTFSS  FD8.0
0A6BE:  BRA    A888
....................          printf("ciclo.txt=\"Paso %02u\"",RX_Buffer[4]); 
0A6C0:  MOVLW  10
0A6C2:  MOVWF  FF6
0A6C4:  MOVLW  0A
0A6C6:  MOVWF  FF7
0A6C8:  MOVLW  00
0A6CA:  MOVWF  FF8
0A6CC:  MOVLW  10
0A6CE:  MOVLB  6
0A6D0:  MOVWF  xF9
0A6D2:  MOVLB  0
0A6D4:  CALL   3AD4
0A6D8:  MOVFF  2E,6F2
0A6DC:  MOVLW  01
0A6DE:  MOVLB  6
0A6E0:  MOVWF  xF3
0A6E2:  MOVLB  0
0A6E4:  CALL   3B32
0A6E8:  MOVLW  22
0A6EA:  BTFSS  F9E.4
0A6EC:  BRA    A6EA
0A6EE:  MOVWF  FAD
....................          SendDataDisplay();           
0A6F0:  CALL   2D18
....................          printf("temp.txt=\"Temperatura: %2.1fC\"",rampas[RX_Buffer[4]-1].Temperatura); 
0A6F4:  MOVLW  01
0A6F6:  SUBWF  2E,W
0A6F8:  MOVLB  6
0A6FA:  MOVWF  xF2
0A6FC:  CLRF   xFA
0A6FE:  MOVWF  xF9
0A700:  CLRF   xFC
0A702:  MOVLW  0F
0A704:  MOVWF  xFB
0A706:  MOVLB  0
0A708:  CALL   1566
0A70C:  MOVFF  01,6F1
0A710:  MOVLW  0B
0A712:  MOVLB  6
0A714:  ADDWF  01,W
0A716:  MOVWF  01
0A718:  MOVLW  00
0A71A:  ADDWFC 02,W
0A71C:  MOVWF  03
0A71E:  MOVF   01,W
0A720:  ADDLW  C5
0A722:  MOVWF  FE9
0A724:  MOVLW  05
0A726:  ADDWFC 03,W
0A728:  MOVWF  FEA
0A72A:  MOVFF  FEF,6F1
0A72E:  MOVFF  FEC,6F2
0A732:  MOVFF  FEC,6F3
0A736:  MOVFF  FEC,6F4
0A73A:  MOVLW  26
0A73C:  MOVWF  FF6
0A73E:  MOVLW  0A
0A740:  MOVWF  FF7
0A742:  MOVLW  00
0A744:  MOVWF  FF8
0A746:  MOVLW  17
0A748:  MOVWF  xF9
0A74A:  MOVLB  0
0A74C:  CALL   3AD4
0A750:  MOVLW  01
0A752:  MOVWF  FE9
0A754:  MOVFF  6F4,6FC
0A758:  MOVFF  6F3,6FB
0A75C:  MOVFF  6F2,6FA
0A760:  MOVFF  6F1,6F9
0A764:  MOVLB  6
0A766:  MOVWF  xFD
0A768:  MOVLB  0
0A76A:  CALL   3C74
0A76E:  MOVLW  B0
0A770:  BTFSS  F9E.4
0A772:  BRA    A770
0A774:  MOVWF  FAD
0A776:  MOVLW  43
0A778:  BTFSS  F9E.4
0A77A:  BRA    A778
0A77C:  MOVWF  FAD
0A77E:  MOVLW  22
0A780:  BTFSS  F9E.4
0A782:  BRA    A780
0A784:  MOVWF  FAD
....................          SendDataDisplay(); 
0A786:  CALL   2D18
....................          printf("tiempo.txt=\"Tiempo: %02.0f:%02.0f \"",rampas[RX_Buffer[4]-1].Horas,rampas[RX_Buffer[4]-1].Minutos); 
0A78A:  MOVLW  01
0A78C:  SUBWF  2E,W
0A78E:  MOVLB  6
0A790:  MOVWF  xF2
0A792:  CLRF   xFA
0A794:  MOVWF  xF9
0A796:  CLRF   xFC
0A798:  MOVLW  0F
0A79A:  MOVWF  xFB
0A79C:  MOVLB  0
0A79E:  CALL   1566
0A7A2:  MOVFF  01,6F1
0A7A6:  MOVLW  03
0A7A8:  MOVLB  6
0A7AA:  ADDWF  01,W
0A7AC:  MOVWF  01
0A7AE:  MOVLW  00
0A7B0:  ADDWFC 02,W
0A7B2:  MOVWF  03
0A7B4:  MOVF   01,W
0A7B6:  ADDLW  C5
0A7B8:  MOVWF  FE9
0A7BA:  MOVLW  05
0A7BC:  ADDWFC 03,W
0A7BE:  MOVWF  FEA
0A7C0:  MOVFF  FEF,6F1
0A7C4:  MOVFF  FEC,6F2
0A7C8:  MOVFF  FEC,6F3
0A7CC:  MOVFF  FEC,6F4
0A7D0:  MOVLW  01
0A7D2:  SUBWF  2E,W
0A7D4:  MOVWF  xF6
0A7D6:  CLRF   xFA
0A7D8:  MOVWF  xF9
0A7DA:  CLRF   xFC
0A7DC:  MOVLW  0F
0A7DE:  MOVWF  xFB
0A7E0:  MOVLB  0
0A7E2:  CALL   1566
0A7E6:  MOVFF  01,6F5
0A7EA:  MOVLW  07
0A7EC:  MOVLB  6
0A7EE:  ADDWF  01,W
0A7F0:  MOVWF  01
0A7F2:  MOVLW  00
0A7F4:  ADDWFC 02,W
0A7F6:  MOVWF  03
0A7F8:  MOVF   01,W
0A7FA:  ADDLW  C5
0A7FC:  MOVWF  FE9
0A7FE:  MOVLW  05
0A800:  ADDWFC 03,W
0A802:  MOVWF  FEA
0A804:  MOVFF  FEF,6F5
0A808:  MOVFF  FEC,6F6
0A80C:  MOVFF  FEC,6F7
0A810:  MOVFF  FEC,6F8
0A814:  MOVLW  46
0A816:  MOVWF  FF6
0A818:  MOVLW  0A
0A81A:  MOVWF  FF7
0A81C:  MOVLW  00
0A81E:  MOVWF  FF8
0A820:  MOVLW  14
0A822:  MOVWF  xF9
0A824:  MOVLB  0
0A826:  CALL   3AD4
0A82A:  MOVLW  41
0A82C:  MOVWF  FE9
0A82E:  MOVFF  6F4,6FC
0A832:  MOVFF  6F3,6FB
0A836:  MOVFF  6F2,6FA
0A83A:  MOVFF  6F1,6F9
0A83E:  MOVLB  6
0A840:  CLRF   xFD
0A842:  MOVLB  0
0A844:  CALL   3C74
0A848:  MOVLW  3A
0A84A:  BTFSS  F9E.4
0A84C:  BRA    A84A
0A84E:  MOVWF  FAD
0A850:  MOVLW  41
0A852:  MOVWF  FE9
0A854:  MOVFF  6F8,6FC
0A858:  MOVFF  6F7,6FB
0A85C:  MOVFF  6F6,6FA
0A860:  MOVFF  6F5,6F9
0A864:  MOVLB  6
0A866:  CLRF   xFD
0A868:  MOVLB  0
0A86A:  CALL   3C74
0A86E:  MOVLW  20
0A870:  BTFSS  F9E.4
0A872:  BRA    A870
0A874:  MOVWF  FAD
0A876:  MOVLW  22
0A878:  BTFSS  F9E.4
0A87A:  BRA    A878
0A87C:  MOVWF  FAD
....................          SendDataDisplay(); 
0A87E:  CALL   2D18
....................          CicloLibre=RX_Buffer[4]; 
0A882:  MOVFF  2E,2D9
....................       }else if(CicloLibre==0x00){ 
0A886:  BRA    AAA8
0A888:  MOVLB  2
0A88A:  MOVF   xD9,F
0A88C:  BNZ   A8D0
....................          printf("ciclo.txt=\"Paso --\""); 
0A88E:  MOVLW  6A
0A890:  MOVWF  FF6
0A892:  MOVLW  0A
0A894:  MOVWF  FF7
0A896:  MOVLW  00
0A898:  MOVWF  FF8
0A89A:  MOVLB  0
0A89C:  CALL   2CE6
....................          SendDataDisplay();           
0A8A0:  CALL   2D18
....................          printf("temp.txt=\"Temperatura: --\""); 
0A8A4:  MOVLW  7E
0A8A6:  MOVWF  FF6
0A8A8:  MOVLW  0A
0A8AA:  MOVWF  FF7
0A8AC:  MOVLW  00
0A8AE:  MOVWF  FF8
0A8B0:  CALL   2CE6
....................          SendDataDisplay(); 
0A8B4:  CALL   2D18
....................          printf("tiempo.txt=\"Tiempo: --:--\""); 
0A8B8:  MOVLW  9A
0A8BA:  MOVWF  FF6
0A8BC:  MOVLW  0A
0A8BE:  MOVWF  FF7
0A8C0:  MOVLW  00
0A8C2:  MOVWF  FF8
0A8C4:  CALL   2CE6
....................          SendDataDisplay(); 
0A8C8:  CALL   2D18
....................       }else if(CicloLibre>0 && CicloLibre<21){ 
0A8CC:  BRA    AAA8
0A8CE:  MOVLB  2
0A8D0:  MOVF   xD9,F
0A8D2:  BTFSC  FD8.2
0A8D4:  BRA    AAAA
0A8D6:  MOVF   xD9,W
0A8D8:  SUBLW  14
0A8DA:  BTFSS  FD8.0
0A8DC:  BRA    AAAA
....................          printf("ciclo.txt=\"Paso %02u\"",CicloLibre); 
0A8DE:  MOVLW  B6
0A8E0:  MOVWF  FF6
0A8E2:  MOVLW  0A
0A8E4:  MOVWF  FF7
0A8E6:  MOVLW  00
0A8E8:  MOVWF  FF8
0A8EA:  MOVLW  10
0A8EC:  MOVLB  6
0A8EE:  MOVWF  xF9
0A8F0:  MOVLB  0
0A8F2:  CALL   3AD4
0A8F6:  MOVFF  2D9,6F2
0A8FA:  MOVLW  01
0A8FC:  MOVLB  6
0A8FE:  MOVWF  xF3
0A900:  MOVLB  0
0A902:  CALL   3B32
0A906:  MOVLW  22
0A908:  BTFSS  F9E.4
0A90A:  BRA    A908
0A90C:  MOVWF  FAD
....................          SendDataDisplay();           
0A90E:  CALL   2D18
....................          printf("temp.txt=\"Temperatura: %2.1fC\"",rampas[CicloLibre-1].Temperatura); 
0A912:  MOVLW  01
0A914:  MOVLB  2
0A916:  SUBWF  xD9,W
0A918:  MOVLB  6
0A91A:  MOVWF  xF2
0A91C:  CLRF   xFA
0A91E:  MOVWF  xF9
0A920:  CLRF   xFC
0A922:  MOVLW  0F
0A924:  MOVWF  xFB
0A926:  MOVLB  0
0A928:  CALL   1566
0A92C:  MOVFF  01,6F1
0A930:  MOVLW  0B
0A932:  MOVLB  6
0A934:  ADDWF  01,W
0A936:  MOVWF  01
0A938:  MOVLW  00
0A93A:  ADDWFC 02,W
0A93C:  MOVWF  03
0A93E:  MOVF   01,W
0A940:  ADDLW  C5
0A942:  MOVWF  FE9
0A944:  MOVLW  05
0A946:  ADDWFC 03,W
0A948:  MOVWF  FEA
0A94A:  MOVFF  FEF,6F1
0A94E:  MOVFF  FEC,6F2
0A952:  MOVFF  FEC,6F3
0A956:  MOVFF  FEC,6F4
0A95A:  MOVLW  CC
0A95C:  MOVWF  FF6
0A95E:  MOVLW  0A
0A960:  MOVWF  FF7
0A962:  MOVLW  00
0A964:  MOVWF  FF8
0A966:  MOVLW  17
0A968:  MOVWF  xF9
0A96A:  MOVLB  0
0A96C:  CALL   3AD4
0A970:  MOVLW  01
0A972:  MOVWF  FE9
0A974:  MOVFF  6F4,6FC
0A978:  MOVFF  6F3,6FB
0A97C:  MOVFF  6F2,6FA
0A980:  MOVFF  6F1,6F9
0A984:  MOVLB  6
0A986:  MOVWF  xFD
0A988:  MOVLB  0
0A98A:  CALL   3C74
0A98E:  MOVLW  B0
0A990:  BTFSS  F9E.4
0A992:  BRA    A990
0A994:  MOVWF  FAD
0A996:  MOVLW  43
0A998:  BTFSS  F9E.4
0A99A:  BRA    A998
0A99C:  MOVWF  FAD
0A99E:  MOVLW  22
0A9A0:  BTFSS  F9E.4
0A9A2:  BRA    A9A0
0A9A4:  MOVWF  FAD
....................          SendDataDisplay(); 
0A9A6:  CALL   2D18
....................          printf("tiempo.txt=\"Tiempo: %02.0f:%02.0f \"",rampas[CicloLibre-1].Horas,rampas[CicloLibre-1].Minutos); 
0A9AA:  MOVLW  01
0A9AC:  MOVLB  2
0A9AE:  SUBWF  xD9,W
0A9B0:  MOVLB  6
0A9B2:  MOVWF  xF2
0A9B4:  CLRF   xFA
0A9B6:  MOVWF  xF9
0A9B8:  CLRF   xFC
0A9BA:  MOVLW  0F
0A9BC:  MOVWF  xFB
0A9BE:  MOVLB  0
0A9C0:  CALL   1566
0A9C4:  MOVFF  01,6F1
0A9C8:  MOVLW  03
0A9CA:  MOVLB  6
0A9CC:  ADDWF  01,W
0A9CE:  MOVWF  01
0A9D0:  MOVLW  00
0A9D2:  ADDWFC 02,W
0A9D4:  MOVWF  03
0A9D6:  MOVF   01,W
0A9D8:  ADDLW  C5
0A9DA:  MOVWF  FE9
0A9DC:  MOVLW  05
0A9DE:  ADDWFC 03,W
0A9E0:  MOVWF  FEA
0A9E2:  MOVFF  FEF,6F1
0A9E6:  MOVFF  FEC,6F2
0A9EA:  MOVFF  FEC,6F3
0A9EE:  MOVFF  FEC,6F4
0A9F2:  MOVLW  01
0A9F4:  MOVLB  2
0A9F6:  SUBWF  xD9,W
0A9F8:  MOVLB  6
0A9FA:  MOVWF  xF6
0A9FC:  CLRF   xFA
0A9FE:  MOVWF  xF9
0AA00:  CLRF   xFC
0AA02:  MOVLW  0F
0AA04:  MOVWF  xFB
0AA06:  MOVLB  0
0AA08:  CALL   1566
0AA0C:  MOVFF  01,6F5
0AA10:  MOVLW  07
0AA12:  MOVLB  6
0AA14:  ADDWF  01,W
0AA16:  MOVWF  01
0AA18:  MOVLW  00
0AA1A:  ADDWFC 02,W
0AA1C:  MOVWF  03
0AA1E:  MOVF   01,W
0AA20:  ADDLW  C5
0AA22:  MOVWF  FE9
0AA24:  MOVLW  05
0AA26:  ADDWFC 03,W
0AA28:  MOVWF  FEA
0AA2A:  MOVFF  FEF,6F5
0AA2E:  MOVFF  FEC,6F6
0AA32:  MOVFF  FEC,6F7
0AA36:  MOVFF  FEC,6F8
0AA3A:  MOVLW  EC
0AA3C:  MOVWF  FF6
0AA3E:  MOVLW  0A
0AA40:  MOVWF  FF7
0AA42:  MOVLW  00
0AA44:  MOVWF  FF8
0AA46:  MOVLW  14
0AA48:  MOVWF  xF9
0AA4A:  MOVLB  0
0AA4C:  CALL   3AD4
0AA50:  MOVLW  41
0AA52:  MOVWF  FE9
0AA54:  MOVFF  6F4,6FC
0AA58:  MOVFF  6F3,6FB
0AA5C:  MOVFF  6F2,6FA
0AA60:  MOVFF  6F1,6F9
0AA64:  MOVLB  6
0AA66:  CLRF   xFD
0AA68:  MOVLB  0
0AA6A:  CALL   3C74
0AA6E:  MOVLW  3A
0AA70:  BTFSS  F9E.4
0AA72:  BRA    AA70
0AA74:  MOVWF  FAD
0AA76:  MOVLW  41
0AA78:  MOVWF  FE9
0AA7A:  MOVFF  6F8,6FC
0AA7E:  MOVFF  6F7,6FB
0AA82:  MOVFF  6F6,6FA
0AA86:  MOVFF  6F5,6F9
0AA8A:  MOVLB  6
0AA8C:  CLRF   xFD
0AA8E:  MOVLB  0
0AA90:  CALL   3C74
0AA94:  MOVLW  20
0AA96:  BTFSS  F9E.4
0AA98:  BRA    AA96
0AA9A:  MOVWF  FAD
0AA9C:  MOVLW  22
0AA9E:  BTFSS  F9E.4
0AAA0:  BRA    AA9E
0AAA2:  MOVWF  FAD
....................          SendDataDisplay(); 
0AAA4:  CALL   2D18
0AAA8:  MOVLB  2
....................       } 
....................        
....................       if(RX_Buffer[4]==0x20 && CicloLibre>0){//20, Temperatura 
0AAAA:  MOVF   2E,W
0AAAC:  SUBLW  20
0AAAE:  BNZ   AAD0
0AAB0:  MOVF   xD9,F
0AAB2:  BZ    AAD0
....................          printf("page Temperatura"); 
0AAB4:  MOVLW  10
0AAB6:  MOVWF  FF6
0AAB8:  MOVLW  0B
0AABA:  MOVWF  FF7
0AABC:  MOVLW  00
0AABE:  MOVWF  FF8
0AAC0:  MOVLB  0
0AAC2:  CALL   2CE6
....................          SendDataDisplay();      
0AAC6:  CALL   2D18
....................          rampa=ON; 
0AACA:  MOVLB  1
0AACC:  BSF    xCB.5
0AACE:  MOVLB  2
....................       } 
....................        
....................       if(RX_Buffer[4]==0x40 && CicloLibre>0){//40, Tiempo 
0AAD0:  MOVF   2E,W
0AAD2:  SUBLW  40
0AAD4:  BNZ   AAF6
0AAD6:  MOVF   xD9,F
0AAD8:  BZ    AAF6
....................          printf("page Tiempo"); 
0AADA:  MOVLW  22
0AADC:  MOVWF  FF6
0AADE:  MOVLW  0B
0AAE0:  MOVWF  FF7
0AAE2:  MOVLW  00
0AAE4:  MOVWF  FF8
0AAE6:  MOVLB  0
0AAE8:  CALL   2CE6
....................          SendDataDisplay();      
0AAEC:  CALL   2D18
....................          rampa=ON; 
0AAF0:  MOVLB  1
0AAF2:  BSF    xCB.5
0AAF4:  MOVLB  2
....................       } 
....................        
....................       if(RX_Buffer[4]==0x70){//70, Regresar 
0AAF6:  MOVF   2E,W
0AAF8:  SUBLW  70
0AAFA:  BNZ   AB18
....................          printf("page Principal"); 
0AAFC:  MOVLW  2E
0AAFE:  MOVWF  FF6
0AB00:  MOVLW  0B
0AB02:  MOVWF  FF7
0AB04:  MOVLW  00
0AB06:  MOVWF  FF8
0AB08:  MOVLB  0
0AB0A:  CALL   2CE6
....................          SendDataDisplay();      
0AB0E:  CALL   2D18
....................          rampa=OFF; 
0AB12:  MOVLB  1
0AB14:  BCF    xCB.5
0AB16:  MOVLB  2
....................       } 
....................    } 
.................... //_--------------------------------------------------------------------------------------------------------------------------------------------------------        
....................  
.................... //_--------------------------------------------------------------------------------------------------------------------------------------------------------       
....................     if(Menu==15){//Menu de Clave Correcta 
0AB18:  MOVLB  1
0AB1A:  MOVF   xFE,W
0AB1C:  SUBLW  0F
0AB1E:  BNZ   AB56
....................       if(!entro){ 
0AB20:  BTFSC  xC9.1
0AB22:  BRA    AB3E
....................          delay_ms(2000); 
0AB24:  MOVLW  08
0AB26:  MOVLB  6
0AB28:  MOVWF  xF1
0AB2A:  MOVLW  FA
0AB2C:  MOVWF  xFA
0AB2E:  MOVLB  0
0AB30:  CALL   1148
0AB34:  MOVLB  6
0AB36:  DECFSZ xF1,F
0AB38:  BRA    AB2A
....................          entro=ON; 
0AB3A:  MOVLB  1
0AB3C:  BSF    xC9.1
....................       } 
....................       printf("page Principal"); 
0AB3E:  MOVLW  3E
0AB40:  MOVWF  FF6
0AB42:  MOVLW  0B
0AB44:  MOVWF  FF7
0AB46:  MOVLW  00
0AB48:  MOVWF  FF8
0AB4A:  MOVLB  0
0AB4C:  CALL   2CE6
....................       SendDataDisplay(); 
0AB50:  CALL   2D18
0AB54:  MOVLB  1
....................    } 
.................... //_--------------------------------------------------------------------------------------------------------------------------------------------------------       
....................  
.................... //_--------------------------------------------------------------------------------------------------------------------------------------------------------       
....................     if(Menu==16){//Menu de Clave InCorrecta 
0AB56:  MOVF   xFE,W
0AB58:  SUBLW  10
0AB5A:  BNZ   AB92
....................       if(!entro){ 
0AB5C:  BTFSC  xC9.1
0AB5E:  BRA    AB7A
....................          delay_ms(2000); 
0AB60:  MOVLW  08
0AB62:  MOVLB  6
0AB64:  MOVWF  xF1
0AB66:  MOVLW  FA
0AB68:  MOVWF  xFA
0AB6A:  MOVLB  0
0AB6C:  CALL   1148
0AB70:  MOVLB  6
0AB72:  DECFSZ xF1,F
0AB74:  BRA    AB66
....................          entro=ON; 
0AB76:  MOVLB  1
0AB78:  BSF    xC9.1
....................       } 
....................       printf("page Clave"); 
0AB7A:  MOVLW  4E
0AB7C:  MOVWF  FF6
0AB7E:  MOVLW  0B
0AB80:  MOVWF  FF7
0AB82:  MOVLW  00
0AB84:  MOVWF  FF8
0AB86:  MOVLB  0
0AB88:  CALL   2CE6
....................       SendDataDisplay(); 
0AB8C:  CALL   2D18
0AB90:  MOVLB  1
....................    } 
.................... //_--------------------------------------------------------------------------------------------------------------------------------------------------------       
....................  
.................... //_-------------------------------------------------------------------------------------------------------------------------------------------------------- 
....................       if(Menu==20){ //Menu de Funcionamiento 
0AB92:  MOVF   xFE,W
0AB94:  SUBLW  14
0AB96:  BTFSS  FD8.2
0AB98:  GOTO   BBAE
....................       GuardaEEPROM=OFF; 
0AB9C:  BCF    xC9.2
....................       printf("fecha.txt=\"Fecha:%02u/%02u/20%02u    Hora: %02u:%02u:%02u\"",Dia,Mes,Year,Hora,Minuto,Segundo); 
0AB9E:  MOVLW  5A
0ABA0:  MOVWF  FF6
0ABA2:  MOVLW  0B
0ABA4:  MOVWF  FF7
0ABA6:  MOVLW  00
0ABA8:  MOVWF  FF8
0ABAA:  MOVLW  11
0ABAC:  MOVLB  6
0ABAE:  MOVWF  xF9
0ABB0:  MOVLB  0
0ABB2:  CALL   3AD4
0ABB6:  MOVFF  2CE,6F2
0ABBA:  MOVLW  01
0ABBC:  MOVLB  6
0ABBE:  MOVWF  xF3
0ABC0:  MOVLB  0
0ABC2:  CALL   3B32
0ABC6:  MOVLW  2F
0ABC8:  BTFSS  F9E.4
0ABCA:  BRA    ABC8
0ABCC:  MOVWF  FAD
0ABCE:  MOVFF  2CD,6F2
0ABD2:  MOVLW  01
0ABD4:  MOVLB  6
0ABD6:  MOVWF  xF3
0ABD8:  MOVLB  0
0ABDA:  CALL   3B32
0ABDE:  MOVLW  2F
0ABE0:  BTFSS  F9E.4
0ABE2:  BRA    ABE0
0ABE4:  MOVWF  FAD
0ABE6:  MOVLW  32
0ABE8:  BTFSS  F9E.4
0ABEA:  BRA    ABE8
0ABEC:  MOVWF  FAD
0ABEE:  MOVLW  30
0ABF0:  BTFSS  F9E.4
0ABF2:  BRA    ABF0
0ABF4:  MOVWF  FAD
0ABF6:  MOVFF  2CC,6F2
0ABFA:  MOVLW  01
0ABFC:  MOVLB  6
0ABFE:  MOVWF  xF3
0AC00:  MOVLB  0
0AC02:  CALL   3B32
0AC06:  MOVLW  7B
0AC08:  MOVWF  FF6
0AC0A:  MOVLW  0B
0AC0C:  MOVWF  FF7
0AC0E:  MOVLW  00
0AC10:  MOVWF  FF8
0AC12:  MOVLW  0A
0AC14:  MOVLB  6
0AC16:  MOVWF  xF9
0AC18:  MOVLB  0
0AC1A:  CALL   3AD4
0AC1E:  MOVFF  2CF,6F2
0AC22:  MOVLW  01
0AC24:  MOVLB  6
0AC26:  MOVWF  xF3
0AC28:  MOVLB  0
0AC2A:  CALL   3B32
0AC2E:  MOVLW  3A
0AC30:  BTFSS  F9E.4
0AC32:  BRA    AC30
0AC34:  MOVWF  FAD
0AC36:  MOVFF  2D0,6F2
0AC3A:  MOVLW  01
0AC3C:  MOVLB  6
0AC3E:  MOVWF  xF3
0AC40:  MOVLB  0
0AC42:  CALL   3B32
0AC46:  MOVLW  3A
0AC48:  BTFSS  F9E.4
0AC4A:  BRA    AC48
0AC4C:  MOVWF  FAD
0AC4E:  MOVFF  2D1,6F2
0AC52:  MOVLW  01
0AC54:  MOVLB  6
0AC56:  MOVWF  xF3
0AC58:  MOVLB  0
0AC5A:  CALL   3B32
0AC5E:  MOVLW  22
0AC60:  BTFSS  F9E.4
0AC62:  BRA    AC60
0AC64:  MOVWF  FAD
....................       SendDataDisplay(); 
0AC66:  CALL   2D18
....................  
....................       if(RX_Buffer[4]==0x01){//Temperatura 
0AC6A:  DECFSZ 2E,W
0AC6C:  BRA    AC82
....................          printf("page Temperatura"); 
0AC6E:  MOVLW  96
0AC70:  MOVWF  FF6
0AC72:  MOVLW  0B
0AC74:  MOVWF  FF7
0AC76:  MOVLW  00
0AC78:  MOVWF  FF8
0AC7A:  CALL   2CE6
....................          SendDataDisplay(); 
0AC7E:  CALL   2D18
....................       } 
....................        
....................       if(RX_Buffer[4]==0x03){//Tiempo 
0AC82:  MOVF   2E,W
0AC84:  SUBLW  03
0AC86:  BNZ   AC9C
....................          printf("page Tiempo"); 
0AC88:  MOVLW  A8
0AC8A:  MOVWF  FF6
0AC8C:  MOVLW  0B
0AC8E:  MOVWF  FF7
0AC90:  MOVLW  00
0AC92:  MOVWF  FF8
0AC94:  CALL   2CE6
....................          SendDataDisplay(); 
0AC98:  CALL   2D18
....................       } 
....................        
....................       if(RX_Buffer[4]==0x04){//Test de componentes 
0AC9C:  MOVF   2E,W
0AC9E:  SUBLW  04
0ACA0:  BNZ   ACBE
....................          printf("page Clave"); 
0ACA2:  MOVLW  B4
0ACA4:  MOVWF  FF6
0ACA6:  MOVLW  0B
0ACA8:  MOVWF  FF7
0ACAA:  MOVLW  00
0ACAC:  MOVWF  FF8
0ACAE:  CALL   2CE6
....................          SendDataDisplay(); 
0ACB2:  CALL   2D18
....................          TipoClave=4; 
0ACB6:  MOVLW  04
0ACB8:  MOVLB  1
0ACBA:  MOVWF  xDD
0ACBC:  MOVLB  0
....................       } 
....................        
....................       if(RX_Buffer[4]==0x05){//Cambio Clave 
0ACBE:  MOVF   2E,W
0ACC0:  SUBLW  05
0ACC2:  BNZ   ACE0
....................          printf("page Clave"); 
0ACC4:  MOVLW  C0
0ACC6:  MOVWF  FF6
0ACC8:  MOVLW  0B
0ACCA:  MOVWF  FF7
0ACCC:  MOVLW  00
0ACCE:  MOVWF  FF8
0ACD0:  CALL   2CE6
....................          SendDataDisplay(); 
0ACD4:  CALL   2D18
....................          TipoClave=2; 
0ACD8:  MOVLW  02
0ACDA:  MOVLB  1
0ACDC:  MOVWF  xDD
0ACDE:  MOVLB  0
....................       } 
....................        
....................       if(RX_Buffer[4]==0x06){//Fecha y Hora 
0ACE0:  MOVF   2E,W
0ACE2:  SUBLW  06
0ACE4:  BNZ   AD0E
....................          printf("page Fecha"); 
0ACE6:  MOVLW  CC
0ACE8:  MOVWF  FF6
0ACEA:  MOVLW  0B
0ACEC:  MOVWF  FF7
0ACEE:  MOVLW  00
0ACF0:  MOVWF  FF8
0ACF2:  CALL   2CE6
....................          SendDataDisplay(); 
0ACF6:  CALL   2D18
....................          DiaTx=Dia; 
0ACFA:  MOVFF  2CE,2D5
....................          MesTx=Mes; 
0ACFE:  MOVFF  2CD,2D4
....................          YearTx=Year; 
0AD02:  MOVFF  2CC,2D3
....................          HoraTx=Hora; 
0AD06:  MOVFF  2CF,2D6
....................          MinutoTx=Minuto; 
0AD0A:  MOVFF  2D0,2D7
....................       } 
....................        
....................       if(RX_Buffer[4]==0x07){//Configuracion Parametros 
0AD0E:  MOVF   2E,W
0AD10:  SUBLW  07
0AD12:  BNZ   AD30
....................          printf("page Clave"); 
0AD14:  MOVLW  D8
0AD16:  MOVWF  FF6
0AD18:  MOVLW  0B
0AD1A:  MOVWF  FF7
0AD1C:  MOVLW  00
0AD1E:  MOVWF  FF8
0AD20:  CALL   2CE6
....................          SendDataDisplay(); 
0AD24:  CALL   2D18
....................          TipoClave=1; 
0AD28:  MOVLW  01
0AD2A:  MOVLB  1
0AD2C:  MOVWF  xDD
0AD2E:  MOVLB  0
....................       } 
....................        
....................       if(RX_Buffer[4]==0x0a){//Configuracion Parametros 
0AD30:  MOVF   2E,W
0AD32:  SUBLW  0A
0AD34:  BNZ   AD4A
....................          printf("page Rampas"); 
0AD36:  MOVLW  E4
0AD38:  MOVWF  FF6
0AD3A:  MOVLW  0B
0AD3C:  MOVWF  FF7
0AD3E:  MOVLW  00
0AD40:  MOVWF  FF8
0AD42:  CALL   2CE6
....................          SendDataDisplay(); 
0AD46:  CALL   2D18
....................       } 
....................        
....................       if(Finalizo==0){ 
0AD4A:  MOVLB  1
0AD4C:  BTFSC  xCA.4
0AD4E:  BRA    B444
....................          if(tterm>80){ 
0AD50:  MOVLB  2
0AD52:  MOVF   x21,F
0AD54:  BNZ   AD5C
0AD56:  MOVF   x20,W
0AD58:  SUBLW  50
0AD5A:  BC    AE4A
....................             Ventilador_off; 
0AD5C:  BSF    F8C.2
0AD5E:  BCF    F95.2
....................             Compresor_off; 
0AD60:  BSF    F8C.3
0AD62:  BCF    F95.3
....................             Valvula1_on; 
0AD64:  BCF    F8C.1
0AD66:  BCF    F95.1
....................             Valvula2_off; 
0AD68:  BSF    F8B.5
0AD6A:  BCF    F94.5
....................             Controlando=0; 
0AD6C:  MOVLB  1
0AD6E:  CLRF   xD6
....................             flag_tiempocalentamiento=0; 
0AD70:  BCF    xFB.2
....................             if(flag_clear3==0){ 
0AD72:  BTFSC  xFB.1
0AD74:  BRA    AD90
....................                tiempo_esterilizacion=0; 
0AD76:  MOVLB  2
0AD78:  CLRF   x03
....................                SSR_off; 
0AD7A:  BCF    F8D.1
0AD7C:  BCF    F96.1
....................                SSR2_off; 
0AD7E:  BCF    F8D.2
0AD80:  BCF    F96.2
....................                Tpulso=0.0; 
0AD82:  CLRF   x3B
0AD84:  CLRF   x3A
0AD86:  CLRF   x39
0AD88:  CLRF   x38
....................                flag_clear3=1; 
0AD8A:  MOVLB  1
0AD8C:  BSF    xFB.1
....................                flag_ganancia=0; 
0AD8E:  CLRF   xD3
....................             } 
....................             printf("status.txt=\"Estado:Alarma 01\""); 
0AD90:  MOVLW  F0
0AD92:  MOVWF  FF6
0AD94:  MOVLW  0B
0AD96:  MOVWF  FF7
0AD98:  MOVLW  00
0AD9A:  MOVWF  FF8
0AD9C:  MOVLB  0
0AD9E:  CALL   2CE6
....................             SendDataDisplay(); 
0ADA2:  CALL   2D18
....................             printf("statusT.txt=\"-----\""); 
0ADA6:  MOVLW  0E
0ADA8:  MOVWF  FF6
0ADAA:  MOVLW  0C
0ADAC:  MOVWF  FF7
0ADAE:  MOVLW  00
0ADB0:  MOVWF  FF8
0ADB2:  CALL   2CE6
....................             SendDataDisplay(); 
0ADB6:  CALL   2D18
....................             Ganancia=GananciaR*(Setpoint/200); 
0ADBA:  MOVFF  273,6FE
0ADBE:  MOVFF  272,6FD
0ADC2:  MOVFF  271,6FC
0ADC6:  MOVFF  270,6FB
0ADCA:  MOVLB  7
0ADCC:  CLRF   x02
0ADCE:  CLRF   x01
0ADD0:  MOVLW  48
0ADD2:  MOVWF  x00
0ADD4:  MOVLW  86
0ADD6:  MOVLB  6
0ADD8:  MOVWF  xFF
0ADDA:  MOVLB  0
0ADDC:  CALL   1170
0ADE0:  MOVFF  253,710
0ADE4:  MOVFF  252,70F
0ADE8:  MOVFF  251,70E
0ADEC:  MOVFF  250,70D
0ADF0:  MOVFF  03,714
0ADF4:  MOVFF  02,713
0ADF8:  MOVFF  01,712
0ADFC:  MOVFF  00,711
0AE00:  CALL   15CA
0AE04:  MOVFF  03,24F
0AE08:  MOVFF  02,24E
0AE0C:  MOVFF  01,24D
0AE10:  MOVFF  00,24C
....................             Buzzer_on; 
0AE14:  BSF    F8C.7
0AE16:  BCF    F95.7
....................             delay_ms(1000); 
0AE18:  MOVLW  04
0AE1A:  MOVLB  6
0AE1C:  MOVWF  xF1
0AE1E:  MOVLW  FA
0AE20:  MOVWF  xFA
0AE22:  MOVLB  0
0AE24:  CALL   1148
0AE28:  MOVLB  6
0AE2A:  DECFSZ xF1,F
0AE2C:  BRA    AE1E
....................             Buzzer_off; 
0AE2E:  BCF    F8C.7
0AE30:  BCF    F95.7
....................             delay_ms(1000); 
0AE32:  MOVLW  04
0AE34:  MOVWF  xF1
0AE36:  MOVLW  FA
0AE38:  MOVWF  xFA
0AE3A:  MOVLB  0
0AE3C:  CALL   1148
0AE40:  MOVLB  6
0AE42:  DECFSZ xF1,F
0AE44:  BRA    AE36
....................          }else{ 
0AE46:  BRA    B440
0AE48:  MOVLB  2
....................             if(tdoor>80){ 
0AE4A:  MOVF   x23,F
0AE4C:  BNZ   AE54
0AE4E:  MOVF   x22,W
0AE50:  SUBLW  50
0AE52:  BC    AF0C
....................                Ventilador_off; 
0AE54:  BSF    F8C.2
0AE56:  BCF    F95.2
....................                Compresor_off; 
0AE58:  BSF    F8C.3
0AE5A:  BCF    F95.3
....................                Valvula1_on; 
0AE5C:  BCF    F8C.1
0AE5E:  BCF    F95.1
....................                Valvula2_off; 
0AE60:  BSF    F8B.5
0AE62:  BCF    F94.5
....................                Controlando=0; 
0AE64:  MOVLB  1
0AE66:  CLRF   xD6
....................                flag_tiempocalentamiento=0; 
0AE68:  BCF    xFB.2
....................                Ganancia=GananciaR*(Setpoint/200); 
0AE6A:  MOVFF  273,6FE
0AE6E:  MOVFF  272,6FD
0AE72:  MOVFF  271,6FC
0AE76:  MOVFF  270,6FB
0AE7A:  MOVLB  7
0AE7C:  CLRF   x02
0AE7E:  CLRF   x01
0AE80:  MOVLW  48
0AE82:  MOVWF  x00
0AE84:  MOVLW  86
0AE86:  MOVLB  6
0AE88:  MOVWF  xFF
0AE8A:  MOVLB  0
0AE8C:  CALL   1170
0AE90:  MOVFF  253,710
0AE94:  MOVFF  252,70F
0AE98:  MOVFF  251,70E
0AE9C:  MOVFF  250,70D
0AEA0:  MOVFF  03,714
0AEA4:  MOVFF  02,713
0AEA8:  MOVFF  01,712
0AEAC:  MOVFF  00,711
0AEB0:  CALL   15CA
0AEB4:  MOVFF  03,24F
0AEB8:  MOVFF  02,24E
0AEBC:  MOVFF  01,24D
0AEC0:  MOVFF  00,24C
....................                tiempo_esterilizacion=0; 
0AEC4:  MOVLB  2
0AEC6:  CLRF   x03
....................                SSR_off; 
0AEC8:  BCF    F8D.1
0AECA:  BCF    F96.1
....................                SSR2_off;               
0AECC:  BCF    F8D.2
0AECE:  BCF    F96.2
....................                Tpulso=0.0; 
0AED0:  CLRF   x3B
0AED2:  CLRF   x3A
0AED4:  CLRF   x39
0AED6:  CLRF   x38
....................                flag_clear2=1; 
0AED8:  MOVLB  1
0AEDA:  BSF    xFB.0
....................                flag_ganancia=0; 
0AEDC:  CLRF   xD3
....................                printf("status.txt=\"Estado:Puerta Abierta\""); 
0AEDE:  MOVLW  22
0AEE0:  MOVWF  FF6
0AEE2:  MOVLW  0C
0AEE4:  MOVWF  FF7
0AEE6:  MOVLW  00
0AEE8:  MOVWF  FF8
0AEEA:  MOVLB  0
0AEEC:  CALL   2CE6
....................                SendDataDisplay(); 
0AEF0:  CALL   2D18
....................                printf("statusT.txt=\"-----\""); 
0AEF4:  MOVLW  46
0AEF6:  MOVWF  FF6
0AEF8:  MOVLW  0C
0AEFA:  MOVWF  FF7
0AEFC:  MOVLW  00
0AEFE:  MOVWF  FF8
0AF00:  CALL   2CE6
....................                SendDataDisplay(); 
0AF04:  CALL   2D18
....................             }else{ 
0AF08:  BRA    B43E
0AF0A:  MOVLB  2
....................                if(RX_Buffer[4]==0x08){//Inicia Control Temperatura 
0AF0C:  MOVF   2E,W
0AF0E:  SUBLW  08
0AF10:  BNZ   AFC4
....................                   flagControlT=!flagControlT; 
0AF12:  MOVLB  1
0AF14:  BTG    xCB.3
....................                   Ganancia=GananciaR*(Setpoint/200); 
0AF16:  MOVFF  273,6FE
0AF1A:  MOVFF  272,6FD
0AF1E:  MOVFF  271,6FC
0AF22:  MOVFF  270,6FB
0AF26:  MOVLB  7
0AF28:  CLRF   x02
0AF2A:  CLRF   x01
0AF2C:  MOVLW  48
0AF2E:  MOVWF  x00
0AF30:  MOVLW  86
0AF32:  MOVLB  6
0AF34:  MOVWF  xFF
0AF36:  MOVLB  0
0AF38:  CALL   1170
0AF3C:  MOVFF  253,710
0AF40:  MOVFF  252,70F
0AF44:  MOVFF  251,70E
0AF48:  MOVFF  250,70D
0AF4C:  MOVFF  03,714
0AF50:  MOVFF  02,713
0AF54:  MOVFF  01,712
0AF58:  MOVFF  00,711
0AF5C:  CALL   15CA
0AF60:  MOVFF  03,24F
0AF64:  MOVFF  02,24E
0AF68:  MOVFF  01,24D
0AF6C:  MOVFF  00,24C
....................                   RX_Buffer[4]=0x00; 
0AF70:  CLRF   2E
....................                   RX_Buffer2[4]=0x00; 
0AF72:  CLRF   39
....................                   if((mEstp==0)&&(hEstp==0)) 
0AF74:  MOVFF  1E6,6F8
0AF78:  MOVFF  1E5,6F7
0AF7C:  MOVFF  1E4,6F6
0AF80:  MOVFF  1E3,6F5
0AF84:  MOVLB  6
0AF86:  CLRF   xFC
0AF88:  CLRF   xFB
0AF8A:  CLRF   xFA
0AF8C:  CLRF   xF9
0AF8E:  MOVLB  0
0AF90:  CALL   16C0
0AF94:  BNZ   AFBE
0AF96:  MOVFF  1EA,6F8
0AF9A:  MOVFF  1E9,6F7
0AF9E:  MOVFF  1E8,6F6
0AFA2:  MOVFF  1E7,6F5
0AFA6:  MOVLB  6
0AFA8:  CLRF   xFC
0AFAA:  CLRF   xFB
0AFAC:  CLRF   xFA
0AFAE:  CLRF   xF9
0AFB0:  MOVLB  0
0AFB2:  CALL   16C0
0AFB6:  BNZ   AFBE
....................                      Infinito=1; 
0AFB8:  MOVLB  1
0AFBA:  BSF    xCA.3
....................                   else 
0AFBC:  BRA    AFC2
....................                      Infinito=0; 
0AFBE:  MOVLB  1
0AFC0:  BCF    xCA.3
0AFC2:  MOVLB  2
....................                } 
....................                 
....................                if(RX_Buffer[4]==0x0b){//Inicia Control Rampa 
0AFC4:  MOVF   2E,W
0AFC6:  SUBLW  0B
0AFC8:  BTFSS  FD8.2
0AFCA:  BRA    B2F4
....................                   if(Segmentos>0){ 
0AFCC:  MOVLB  1
0AFCE:  MOVF   xE0,F
0AFD0:  BTFSC  FD8.2
0AFD2:  BRA    B2F0
....................                      flagRampa=!flagRampa; 
0AFD4:  BTG    xCB.6
....................                      if(flagRampa){ 
0AFD6:  BTFSS  xCB.6
0AFD8:  BRA    B2AE
....................                         // Configura parametros para inicio de rampa   
....................                         SetpointAnt=Setpoint;             
0AFDA:  MOVFF  273,2CB
0AFDE:  MOVFF  272,2CA
0AFE2:  MOVFF  271,2C9
0AFE6:  MOVFF  270,2C8
....................                         hEstpAnt=hEstp; 
0AFEA:  MOVFF  1EA,1F2
0AFEE:  MOVFF  1E9,1F1
0AFF2:  MOVFF  1E8,1F0
0AFF6:  MOVFF  1E7,1EF
....................                         mEstpAnt=mEstp; 
0AFFA:  MOVFF  1E6,1EE
0AFFE:  MOVFF  1E5,1ED
0B002:  MOVFF  1E4,1EC
0B006:  MOVFF  1E3,1EB
....................                         TempeInicial=Temperatura; 
0B00A:  MOVFF  26B,293
0B00E:  MOVFF  26A,292
0B012:  MOVFF  269,291
0B016:  MOVFF  268,290
....................                         Tiempo=(rampas[Segmento].Horas*3600)+(rampas[Segmento].Minutos*60);          
0B01A:  MOVLB  6
0B01C:  CLRF   xFA
0B01E:  MOVFF  1E1,6F9
0B022:  CLRF   xFC
0B024:  MOVLW  0F
0B026:  MOVWF  xFB
0B028:  MOVLB  0
0B02A:  CALL   1566
0B02E:  MOVFF  01,6F1
0B032:  MOVLW  03
0B034:  MOVLB  6
0B036:  ADDWF  01,W
0B038:  MOVWF  01
0B03A:  MOVLW  00
0B03C:  ADDWFC 02,W
0B03E:  MOVWF  03
0B040:  MOVF   01,W
0B042:  ADDLW  C5
0B044:  MOVWF  FE9
0B046:  MOVLW  05
0B048:  ADDWFC 03,W
0B04A:  MOVWF  FEA
0B04C:  MOVFF  FEF,6F1
0B050:  MOVFF  FEC,6F2
0B054:  MOVFF  FEC,6F3
0B058:  MOVFF  FEC,6F4
0B05C:  MOVFF  6F4,710
0B060:  MOVFF  6F3,70F
0B064:  MOVFF  6F2,70E
0B068:  MOVFF  6F1,70D
0B06C:  MOVLB  7
0B06E:  CLRF   x14
0B070:  CLRF   x13
0B072:  MOVLW  61
0B074:  MOVWF  x12
0B076:  MOVLW  8A
0B078:  MOVWF  x11
0B07A:  MOVLB  0
0B07C:  CALL   15CA
0B080:  MOVFF  00,6F1
0B084:  MOVFF  01,6F2
0B088:  MOVFF  02,6F3
0B08C:  MOVFF  03,6F4
0B090:  MOVLB  6
0B092:  CLRF   xFA
0B094:  MOVFF  1E1,6F9
0B098:  CLRF   xFC
0B09A:  MOVLW  0F
0B09C:  MOVWF  xFB
0B09E:  MOVLB  0
0B0A0:  CALL   1566
0B0A4:  MOVFF  01,6F5
0B0A8:  MOVLW  07
0B0AA:  MOVLB  6
0B0AC:  ADDWF  01,W
0B0AE:  MOVWF  01
0B0B0:  MOVLW  00
0B0B2:  ADDWFC 02,W
0B0B4:  MOVWF  03
0B0B6:  MOVF   01,W
0B0B8:  ADDLW  C5
0B0BA:  MOVWF  FE9
0B0BC:  MOVLW  05
0B0BE:  ADDWFC 03,W
0B0C0:  MOVWF  FEA
0B0C2:  MOVFF  FEF,6F5
0B0C6:  MOVFF  FEC,6F6
0B0CA:  MOVFF  FEC,6F7
0B0CE:  MOVFF  FEC,6F8
0B0D2:  MOVFF  6F8,710
0B0D6:  MOVFF  6F7,70F
0B0DA:  MOVFF  6F6,70E
0B0DE:  MOVFF  6F5,70D
0B0E2:  MOVLB  7
0B0E4:  CLRF   x14
0B0E6:  CLRF   x13
0B0E8:  MOVLW  70
0B0EA:  MOVWF  x12
0B0EC:  MOVLW  84
0B0EE:  MOVWF  x11
0B0F0:  MOVLB  0
0B0F2:  CALL   15CA
0B0F6:  MOVFF  FEA,6F6
0B0FA:  MOVFF  FE9,6F5
0B0FE:  BCF    FD8.1
0B100:  MOVFF  6F4,705
0B104:  MOVFF  6F3,704
0B108:  MOVFF  6F2,703
0B10C:  MOVFF  6F1,702
0B110:  MOVFF  03,709
0B114:  MOVFF  02,708
0B118:  MOVFF  01,707
0B11C:  MOVFF  00,706
0B120:  CALL   12EE
0B124:  MOVFF  6F6,FEA
0B128:  MOVFF  6F5,FE9
0B12C:  MOVFF  03,297
0B130:  MOVFF  02,296
0B134:  MOVFF  01,295
0B138:  MOVFF  00,294
....................                         Setpoint=rampas[Segmento].Temperatura;             
0B13C:  MOVLB  6
0B13E:  CLRF   xFA
0B140:  MOVFF  1E1,6F9
0B144:  CLRF   xFC
0B146:  MOVLW  0F
0B148:  MOVWF  xFB
0B14A:  MOVLB  0
0B14C:  CALL   1566
0B150:  MOVFF  02,6F2
0B154:  MOVFF  01,6F1
0B158:  MOVLW  0B
0B15A:  MOVLB  6
0B15C:  ADDWF  01,W
0B15E:  MOVWF  01
0B160:  MOVLW  00
0B162:  ADDWFC 02,W
0B164:  MOVWF  03
0B166:  MOVF   01,W
0B168:  ADDLW  C5
0B16A:  MOVWF  FE9
0B16C:  MOVLW  05
0B16E:  ADDWFC 03,W
0B170:  MOVWF  FEA
0B172:  MOVFF  FEF,00
0B176:  MOVFF  FEC,01
0B17A:  MOVFF  FEC,02
0B17E:  MOVFF  FEC,03
0B182:  MOVFF  03,273
0B186:  MOVFF  02,272
0B18A:  MOVFF  01,271
0B18E:  MOVFF  00,270
....................                         Pendiente=((Setpoint-TempeInicial)/Tiempo); 
0B192:  BSF    FD8.1
0B194:  MOVFF  273,705
0B198:  MOVFF  272,704
0B19C:  MOVFF  271,703
0B1A0:  MOVFF  270,702
0B1A4:  MOVFF  293,709
0B1A8:  MOVFF  292,708
0B1AC:  MOVFF  291,707
0B1B0:  MOVFF  290,706
0B1B4:  MOVLB  0
0B1B6:  CALL   12EE
0B1BA:  MOVFF  00,6F1
0B1BE:  MOVFF  01,6F2
0B1C2:  MOVFF  02,6F3
0B1C6:  MOVFF  03,6F4
0B1CA:  MOVFF  03,6FE
0B1CE:  MOVFF  02,6FD
0B1D2:  MOVFF  01,6FC
0B1D6:  MOVFF  00,6FB
0B1DA:  MOVFF  297,702
0B1DE:  MOVFF  296,701
0B1E2:  MOVFF  295,700
0B1E6:  MOVFF  294,6FF
0B1EA:  CALL   1170
0B1EE:  MOVFF  03,2BB
0B1F2:  MOVFF  02,2BA
0B1F6:  MOVFF  01,2B9
0B1FA:  MOVFF  00,2B8
....................                         hEstp=rampas[Segmento].Horas; 
0B1FE:  MOVLB  6
0B200:  CLRF   xFA
0B202:  MOVFF  1E1,6F9
0B206:  CLRF   xFC
0B208:  MOVLW  0F
0B20A:  MOVWF  xFB
0B20C:  MOVLB  0
0B20E:  CALL   1566
0B212:  MOVFF  02,6F2
0B216:  MOVFF  01,6F1
0B21A:  MOVLW  03
0B21C:  MOVLB  6
0B21E:  ADDWF  01,W
0B220:  MOVWF  01
0B222:  MOVLW  00
0B224:  ADDWFC 02,W
0B226:  MOVWF  03
0B228:  MOVF   01,W
0B22A:  ADDLW  C5
0B22C:  MOVWF  FE9
0B22E:  MOVLW  05
0B230:  ADDWFC 03,W
0B232:  MOVWF  FEA
0B234:  MOVFF  FEF,00
0B238:  MOVFF  FEC,01
0B23C:  MOVFF  FEC,02
0B240:  MOVFF  FEC,03
0B244:  MOVFF  03,1EA
0B248:  MOVFF  02,1E9
0B24C:  MOVFF  01,1E8
0B250:  MOVFF  00,1E7
....................                         mEstp=rampas[Segmento].Minutos; 
0B254:  CLRF   xFA
0B256:  MOVFF  1E1,6F9
0B25A:  CLRF   xFC
0B25C:  MOVLW  0F
0B25E:  MOVWF  xFB
0B260:  MOVLB  0
0B262:  CALL   1566
0B266:  MOVFF  02,6F2
0B26A:  MOVFF  01,6F1
0B26E:  MOVLW  07
0B270:  MOVLB  6
0B272:  ADDWF  01,W
0B274:  MOVWF  01
0B276:  MOVLW  00
0B278:  ADDWFC 02,W
0B27A:  MOVWF  03
0B27C:  MOVF   01,W
0B27E:  ADDLW  C5
0B280:  MOVWF  FE9
0B282:  MOVLW  05
0B284:  ADDWFC 03,W
0B286:  MOVWF  FEA
0B288:  MOVFF  FEF,00
0B28C:  MOVFF  FEC,01
0B290:  MOVFF  FEC,02
0B294:  MOVFF  FEC,03
0B298:  MOVFF  03,1E6
0B29C:  MOVFF  02,1E5
0B2A0:  MOVFF  01,1E4
0B2A4:  MOVFF  00,1E3
....................                         flagControlT=ON; 
0B2A8:  MOVLB  1
0B2AA:  BSF    xCB.3
....................                      }else{ 
0B2AC:  BRA    B2F0
....................                         Setpoint=SetpointAnt; 
0B2AE:  MOVFF  2CB,273
0B2B2:  MOVFF  2CA,272
0B2B6:  MOVFF  2C9,271
0B2BA:  MOVFF  2C8,270
....................                         //SetpointH=SetpointHAnt; 
....................                         hEstp=hEstpAnt; 
0B2BE:  MOVFF  1F2,1EA
0B2C2:  MOVFF  1F1,1E9
0B2C6:  MOVFF  1F0,1E8
0B2CA:  MOVFF  1EF,1E7
....................                         mEstp=mEstpAnt; 
0B2CE:  MOVFF  1EE,1E6
0B2D2:  MOVFF  1ED,1E5
0B2D6:  MOVFF  1EC,1E4
0B2DA:  MOVFF  1EB,1E3
....................                         mEst=0; 
0B2DE:  CLRF   xF6
0B2E0:  CLRF   xF5
0B2E2:  CLRF   xF4
0B2E4:  CLRF   xF3
....................                         hEst=0; 
0B2E6:  CLRF   xFA
0B2E8:  CLRF   xF9
0B2EA:  CLRF   xF8
0B2EC:  CLRF   xF7
....................                         //flagControlH=OFF; 
....................                         flagControlT=OFF; 
0B2EE:  BCF    xCB.3
....................                      } 
....................                   } 
....................                   RX_Buffer[4]=0x00; 
0B2F0:  CLRF   2E
....................                   RX_Buffer2[4]=0x00; 
0B2F2:  CLRF   39
....................                } 
....................                 
....................                if(flagDefrost){ 
0B2F4:  MOVLB  1
0B2F6:  BTFSS  xCB.2
0B2F8:  BRA    B314
....................                   printf("status.txt=\"Estado:Descongelando\""); 
0B2FA:  MOVLW  5A
0B2FC:  MOVWF  FF6
0B2FE:  MOVLW  0C
0B300:  MOVWF  FF7
0B302:  MOVLW  00
0B304:  MOVWF  FF8
0B306:  MOVLB  0
0B308:  CALL   2CE6
....................                   SendDataDisplay(); 
0B30C:  CALL   2D18
....................                }else{ 
0B310:  BRA    B32A
0B312:  MOVLB  1
....................                   printf("status.txt=\"Estado: ----\""); 
0B314:  MOVLW  7C
0B316:  MOVWF  FF6
0B318:  MOVLW  0C
0B31A:  MOVWF  FF7
0B31C:  MOVLW  00
0B31E:  MOVWF  FF8
0B320:  MOVLB  0
0B322:  CALL   2CE6
....................                   SendDataDisplay(); 
0B326:  CALL   2D18
....................                } 
....................                if(flagRampa){ 
0B32A:  MOVLB  1
0B32C:  BTFSS  xCB.6
0B32E:  BRA    B3A2
....................                   iniciaConteo();  
0B330:  MOVLB  0
0B332:  CALL   4128
....................                   printf("b4.pic=85"); 
0B336:  MOVLW  96
0B338:  MOVWF  FF6
0B33A:  MOVLW  0C
0B33C:  MOVWF  FF7
0B33E:  MOVLW  00
0B340:  MOVWF  FF8
0B342:  CALL   2CE6
....................                   SendDataDisplay(); 
0B346:  CALL   2D18
....................                   printf("b6.pic=85"); 
0B34A:  MOVLW  A0
0B34C:  MOVWF  FF6
0B34E:  MOVLW  0C
0B350:  MOVWF  FF7
0B352:  MOVLW  00
0B354:  MOVWF  FF8
0B356:  CALL   2CE6
....................                   SendDataDisplay(); 
0B35A:  CALL   2D18
....................                   controlaRampa(); 
0B35E:  GOTO   5DFC
....................                   printf("t8.txt=\"Paso %02u\"",Segmento+1); 
0B362:  MOVLW  01
0B364:  MOVLB  1
0B366:  ADDWF  xE1,W
0B368:  MOVLB  6
0B36A:  MOVWF  xF1
0B36C:  MOVLW  AA
0B36E:  MOVWF  FF6
0B370:  MOVLW  0C
0B372:  MOVWF  FF7
0B374:  MOVLW  00
0B376:  MOVWF  FF8
0B378:  MOVLW  0D
0B37A:  MOVWF  xF9
0B37C:  MOVLB  0
0B37E:  CALL   3AD4
0B382:  MOVFF  6F1,6F2
0B386:  MOVLW  01
0B388:  MOVLB  6
0B38A:  MOVWF  xF3
0B38C:  MOVLB  0
0B38E:  CALL   3B32
0B392:  MOVLW  22
0B394:  BTFSS  F9E.4
0B396:  BRA    B394
0B398:  MOVWF  FAD
....................                   //printf("t8.txt=\"%2.0f\"",Tiempo); 
....................                   SendDataDisplay(); 
0B39A:  CALL   2D18
....................                }else{ 
0B39E:  BRA    B43E
0B3A0:  MOVLB  1
....................                   printf("t8.txt=\"Info\""); 
0B3A2:  MOVLW  BE
0B3A4:  MOVWF  FF6
0B3A6:  MOVLW  0C
0B3A8:  MOVWF  FF7
0B3AA:  MOVLW  00
0B3AC:  MOVWF  FF8
0B3AE:  MOVLB  0
0B3B0:  CALL   2CE6
....................                   SendDataDisplay(); 
0B3B4:  CALL   2D18
....................                   printf("b6.pic=84"); 
0B3B8:  MOVLW  CC
0B3BA:  MOVWF  FF6
0B3BC:  MOVLW  0C
0B3BE:  MOVWF  FF7
0B3C0:  MOVLW  00
0B3C2:  MOVWF  FF8
0B3C4:  CALL   2CE6
....................                   SendDataDisplay(); 
0B3C8:  CALL   2D18
....................                   iniciaConteo(); 
0B3CC:  CALL   4128
....................                    
....................                   if(flagControlT){ 
0B3D0:  MOVLB  1
0B3D2:  BTFSS  xCB.3
0B3D4:  BRA    B3F4
....................                      printf("b4.pic=85"); 
0B3D6:  MOVLW  D6
0B3D8:  MOVWF  FF6
0B3DA:  MOVLW  0C
0B3DC:  MOVWF  FF7
0B3DE:  MOVLW  00
0B3E0:  MOVWF  FF8
0B3E2:  MOVLB  0
0B3E4:  CALL   2CE6
....................                      SendDataDisplay(); 
0B3E8:  CALL   2D18
....................                      controlaTemperatura(); 
0B3EC:  GOTO   63A4
....................                   }else{ 
0B3F0:  BRA    B43E
0B3F2:  MOVLB  1
....................                      printf("statusT.txt=\"Detenido\""); 
0B3F4:  MOVLW  E0
0B3F6:  MOVWF  FF6
0B3F8:  MOVLW  0C
0B3FA:  MOVWF  FF7
0B3FC:  MOVLW  00
0B3FE:  MOVWF  FF8
0B400:  MOVLB  0
0B402:  CALL   2CE6
....................                      SendDataDisplay(); 
0B406:  CALL   2D18
....................                      printf("b4.pic=84"); 
0B40A:  MOVLW  F8
0B40C:  MOVWF  FF6
0B40E:  MOVLW  0C
0B410:  MOVWF  FF7
0B412:  MOVLW  00
0B414:  MOVWF  FF8
0B416:  CALL   2CE6
....................                      SendDataDisplay(); 
0B41A:  CALL   2D18
....................                      SSR_off; 
0B41E:  BCF    F8D.1
0B420:  BCF    F96.1
....................                      SSR2_off;                
0B422:  BCF    F8D.2
0B424:  BCF    F96.2
....................                      Controlando=0; 
0B426:  MOVLB  1
0B428:  CLRF   xD6
....................                      Ventilador_off; 
0B42A:  BSF    F8C.2
0B42C:  BCF    F95.2
....................                      Compresor_off; 
0B42E:  BSF    F8C.3
0B430:  BCF    F95.3
....................                      Tpulso=0.0; 
0B432:  MOVLB  2
0B434:  CLRF   x3B
0B436:  CLRF   x3A
0B438:  CLRF   x39
0B43A:  CLRF   x38
0B43C:  MOVLB  0
0B43E:  MOVLB  6
....................                   } 
....................                } 
....................             } 
....................          } 
....................       }else{ 
0B440:  BRA    B4DE
0B442:  MOVLB  1
....................          printf("t8.txt=\"Paso --\""); 
0B444:  MOVLW  02
0B446:  MOVWF  FF6
0B448:  MOVLW  0D
0B44A:  MOVWF  FF7
0B44C:  MOVLW  00
0B44E:  MOVWF  FF8
0B450:  MOVLB  0
0B452:  CALL   2CE6
....................          SendDataDisplay(); 
0B456:  CALL   2D18
....................          printf("status.txt=\"Reinicie el equipo\""); 
0B45A:  MOVLW  14
0B45C:  MOVWF  FF6
0B45E:  MOVLW  0D
0B460:  MOVWF  FF7
0B462:  MOVLW  00
0B464:  MOVWF  FF8
0B466:  CALL   2CE6
....................          SendDataDisplay(); 
0B46A:  CALL   2D18
....................          Compresor_off; 
0B46E:  BSF    F8C.3
0B470:  BCF    F95.3
....................          Ventilador_off; 
0B472:  BSF    F8C.2
0B474:  BCF    F95.2
....................          Valvula1_off; 
0B476:  BSF    F8C.1
0B478:  BCF    F95.1
....................          Valvula2_off; 
0B47A:  BSF    F8B.5
0B47C:  BCF    F94.5
....................          SSR_off;          
0B47E:  BCF    F8D.1
0B480:  BCF    F96.1
....................          SSR2_off; 
0B482:  BCF    F8D.2
0B484:  BCF    F96.2
....................          Controlando=0; 
0B486:  MOVLB  1
0B488:  CLRF   xD6
....................          Tpulso=0.0; 
0B48A:  MOVLB  2
0B48C:  CLRF   x3B
0B48E:  CLRF   x3A
0B490:  CLRF   x39
0B492:  CLRF   x38
....................          tiempo_esterilizacion=0; 
0B494:  CLRF   x03
....................          flagRampa=OFF; 
0B496:  MOVLB  1
0B498:  BCF    xCB.6
....................          flagControlT=OFF;          
0B49A:  BCF    xCB.3
....................          ApagaSalidas(); 
0B49C:  MOVLB  0
0B49E:  CALL   10CE
....................          printf("b4.pic=84"); 
0B4A2:  MOVLW  34
0B4A4:  MOVWF  FF6
0B4A6:  MOVLW  0D
0B4A8:  MOVWF  FF7
0B4AA:  MOVLW  00
0B4AC:  MOVWF  FF8
0B4AE:  CALL   2CE6
....................          SendDataDisplay(); 
0B4B2:  CALL   2D18
....................          printf("b6.pic=84"); 
0B4B6:  MOVLW  3E
0B4B8:  MOVWF  FF6
0B4BA:  MOVLW  0D
0B4BC:  MOVWF  FF7
0B4BE:  MOVLW  00
0B4C0:  MOVWF  FF8
0B4C2:  CALL   2CE6
....................          SendDataDisplay(); 
0B4C6:  CALL   2D18
....................          printf("statusT.txt=\"Finalizado\""); 
0B4CA:  MOVLW  48
0B4CC:  MOVWF  FF6
0B4CE:  MOVLW  0D
0B4D0:  MOVWF  FF7
0B4D2:  MOVLW  00
0B4D4:  MOVWF  FF8
0B4D6:  CALL   2CE6
....................          SendDataDisplay(); 
0B4DA:  CALL   2D18
....................       } 
....................        
....................       if(Lectura==1)// Utilizado para visualizar la lectura de la temperatura 
0B4DE:  MOVLB  1
0B4E0:  BTFSS  xCC.4
0B4E2:  BRA    B9B8
....................       {                    
....................          Lectura=0; 
0B4E4:  BCF    xCC.4
....................          Potencia=(100.0/Tciclo)*Tpulso;  
0B4E6:  MOVLB  6
0B4E8:  CLRF   xFE
0B4EA:  CLRF   xFD
0B4EC:  MOVLW  48
0B4EE:  MOVWF  xFC
0B4F0:  MOVLW  85
0B4F2:  MOVWF  xFB
0B4F4:  MOVFF  237,702
0B4F8:  MOVFF  236,701
0B4FC:  MOVFF  235,700
0B500:  MOVFF  234,6FF
0B504:  MOVLB  0
0B506:  CALL   1170
0B50A:  MOVFF  00,6F1
0B50E:  MOVFF  01,6F2
0B512:  MOVFF  02,6F3
0B516:  MOVFF  03,6F4
0B51A:  MOVFF  03,710
0B51E:  MOVFF  02,70F
0B522:  MOVFF  01,70E
0B526:  MOVFF  00,70D
0B52A:  MOVFF  23B,714
0B52E:  MOVFF  23A,713
0B532:  MOVFF  239,712
0B536:  MOVFF  238,711
0B53A:  CALL   15CA
0B53E:  MOVFF  03,227
0B542:  MOVFF  02,226
0B546:  MOVFF  01,225
0B54A:  MOVFF  00,224
....................  //----------------Muestra Temperatura-------------------------- 
....................          if(Sensor[0].Pt>130 || Sensor[0].Pt<80){ 
0B54E:  MOVLB  6
0B550:  CLRF   xF8
0B552:  CLRF   xF7
0B554:  MOVLW  02
0B556:  MOVWF  xF6
0B558:  MOVLW  86
0B55A:  MOVWF  xF5
0B55C:  MOVFF  30C,6FC
0B560:  MOVFF  30B,6FB
0B564:  MOVFF  30A,6FA
0B568:  MOVFF  309,6F9
0B56C:  MOVLB  0
0B56E:  CALL   16C0
0B572:  BC    B59A
0B574:  MOVFF  30C,6F8
0B578:  MOVFF  30B,6F7
0B57C:  MOVFF  30A,6F6
0B580:  MOVFF  309,6F5
0B584:  MOVLB  6
0B586:  CLRF   xFC
0B588:  CLRF   xFB
0B58A:  MOVLW  20
0B58C:  MOVWF  xFA
0B58E:  MOVLW  85
0B590:  MOVWF  xF9
0B592:  MOVLB  0
0B594:  CALL   16C0
0B598:  BNC   B5B6
....................             printf("temperatura.txt=\"T:----\""); 
0B59A:  MOVLW  62
0B59C:  MOVWF  FF6
0B59E:  MOVLW  0D
0B5A0:  MOVWF  FF7
0B5A2:  MOVLW  00
0B5A4:  MOVWF  FF8
0B5A6:  CALL   2CE6
....................             SendDataDisplay(); 
0B5AA:  CALL   2D18
....................             Desconectado=1; 
0B5AE:  MOVLB  1
0B5B0:  BSF    xC9.0
....................          }else{ 
0B5B2:  BRA    B656
0B5B4:  MOVLB  0
....................             if(Desconectado==1){ 
0B5B6:  MOVLB  1
0B5B8:  BTFSS  xC9.0
0B5BA:  BRA    B602
....................                Desconectado=0; 
0B5BC:  BCF    xC9.0
....................                delay_ms(2000); 
0B5BE:  MOVLW  08
0B5C0:  MOVLB  6
0B5C2:  MOVWF  xF1
0B5C4:  MOVLW  FA
0B5C6:  MOVWF  xFA
0B5C8:  MOVLB  0
0B5CA:  CALL   1148
0B5CE:  MOVLB  6
0B5D0:  DECFSZ xF1,F
0B5D2:  BRA    B5C4
....................                for(i=0;i<80;i++) 
0B5D4:  MOVLB  1
0B5D6:  CLRF   xFF
0B5D8:  MOVF   xFF,W
0B5DA:  SUBLW  4F
0B5DC:  BNC   B602
....................                   Temperatura=LeerPT100(0,80); 
0B5DE:  MOVLB  6
0B5E0:  CLRF   xF1
0B5E2:  MOVLW  50
0B5E4:  MOVWF  xF2
0B5E6:  MOVLB  0
0B5E8:  CALL   2DA6
0B5EC:  MOVFF  03,26B
0B5F0:  MOVFF  02,26A
0B5F4:  MOVFF  01,269
0B5F8:  MOVFF  00,268
0B5FC:  MOVLB  1
0B5FE:  INCF   xFF,F
0B600:  BRA    B5D8
....................             } 
....................             printf("temperatura.txt=\"T:%2.1fC\"",Temperatura); 
0B602:  MOVLW  7C
0B604:  MOVWF  FF6
0B606:  MOVLW  0D
0B608:  MOVWF  FF7
0B60A:  MOVLW  00
0B60C:  MOVWF  FF8
0B60E:  MOVLW  13
0B610:  MOVLB  6
0B612:  MOVWF  xF9
0B614:  MOVLB  0
0B616:  CALL   3AD4
0B61A:  MOVLW  01
0B61C:  MOVWF  FE9
0B61E:  MOVFF  26B,6FC
0B622:  MOVFF  26A,6FB
0B626:  MOVFF  269,6FA
0B62A:  MOVFF  268,6F9
0B62E:  MOVLB  6
0B630:  MOVWF  xFD
0B632:  MOVLB  0
0B634:  CALL   3C74
0B638:  MOVLW  B0
0B63A:  BTFSS  F9E.4
0B63C:  BRA    B63A
0B63E:  MOVWF  FAD
0B640:  MOVLW  43
0B642:  BTFSS  F9E.4
0B644:  BRA    B642
0B646:  MOVWF  FAD
0B648:  MOVLW  22
0B64A:  BTFSS  F9E.4
0B64C:  BRA    B64A
0B64E:  MOVWF  FAD
....................             SendDataDisplay(); 
0B650:  CALL   2D18
0B654:  MOVLB  1
....................          } 
....................          //printf("statusH.txt=\"%2.1fC %2.1f%% %2.1f\"",Tam,RH2,sensores(3)); 
....................          //SendDataDisplay(); 
....................          printf("stemperatura.txt=\"SET:%2.1f C\"",Setpoint); 
0B656:  MOVLW  98
0B658:  MOVWF  FF6
0B65A:  MOVLW  0D
0B65C:  MOVWF  FF7
0B65E:  MOVLW  00
0B660:  MOVWF  FF8
0B662:  MOVLW  16
0B664:  MOVLB  6
0B666:  MOVWF  xF9
0B668:  MOVLB  0
0B66A:  CALL   3AD4
0B66E:  MOVLW  01
0B670:  MOVWF  FE9
0B672:  MOVFF  273,6FC
0B676:  MOVFF  272,6FB
0B67A:  MOVFF  271,6FA
0B67E:  MOVFF  270,6F9
0B682:  MOVLB  6
0B684:  MOVWF  xFD
0B686:  MOVLB  0
0B688:  CALL   3C74
0B68C:  MOVLW  B3
0B68E:  MOVWF  FF6
0B690:  MOVLW  0D
0B692:  MOVWF  FF7
0B694:  MOVLW  00
0B696:  MOVWF  FF8
0B698:  MOVLW  04
0B69A:  MOVLB  6
0B69C:  MOVWF  xF9
0B69E:  MOVLB  0
0B6A0:  CALL   3AD4
....................          SendDataDisplay(); 
0B6A4:  CALL   2D18
....................          printf("stiempo.txt=\"SET:%02.0f:%02.0f (HH:MM)\"",hEstp,mEstp); 
0B6A8:  MOVLW  B8
0B6AA:  MOVWF  FF6
0B6AC:  MOVLW  0D
0B6AE:  MOVWF  FF7
0B6B0:  MOVLW  00
0B6B2:  MOVWF  FF8
0B6B4:  MOVLW  11
0B6B6:  MOVLB  6
0B6B8:  MOVWF  xF9
0B6BA:  MOVLB  0
0B6BC:  CALL   3AD4
0B6C0:  MOVLW  41
0B6C2:  MOVWF  FE9
0B6C4:  MOVFF  1EA,6FC
0B6C8:  MOVFF  1E9,6FB
0B6CC:  MOVFF  1E8,6FA
0B6D0:  MOVFF  1E7,6F9
0B6D4:  MOVLB  6
0B6D6:  CLRF   xFD
0B6D8:  MOVLB  0
0B6DA:  CALL   3C74
0B6DE:  MOVLW  3A
0B6E0:  BTFSS  F9E.4
0B6E2:  BRA    B6E0
0B6E4:  MOVWF  FAD
0B6E6:  MOVLW  41
0B6E8:  MOVWF  FE9
0B6EA:  MOVFF  1E6,6FC
0B6EE:  MOVFF  1E5,6FB
0B6F2:  MOVFF  1E4,6FA
0B6F6:  MOVFF  1E3,6F9
0B6FA:  MOVLB  6
0B6FC:  CLRF   xFD
0B6FE:  MOVLB  0
0B700:  CALL   3C74
0B704:  MOVLW  D6
0B706:  MOVWF  FF6
0B708:  MOVLW  0D
0B70A:  MOVWF  FF7
0B70C:  MOVLW  00
0B70E:  MOVWF  FF8
0B710:  MOVLW  09
0B712:  MOVLB  6
0B714:  MOVWF  xF9
0B716:  MOVLB  0
0B718:  CALL   3AD4
....................          SendDataDisplay(); 
0B71C:  CALL   2D18
....................          printf("tiempo.txt=\"%02.0f:%02.0f\"",hEst,mEst); 
0B720:  MOVLW  E0
0B722:  MOVWF  FF6
0B724:  MOVLW  0D
0B726:  MOVWF  FF7
0B728:  MOVLW  00
0B72A:  MOVWF  FF8
0B72C:  MOVLW  0C
0B72E:  MOVLB  6
0B730:  MOVWF  xF9
0B732:  MOVLB  0
0B734:  CALL   3AD4
0B738:  MOVLW  41
0B73A:  MOVWF  FE9
0B73C:  MOVFF  1FA,6FC
0B740:  MOVFF  1F9,6FB
0B744:  MOVFF  1F8,6FA
0B748:  MOVFF  1F7,6F9
0B74C:  MOVLB  6
0B74E:  CLRF   xFD
0B750:  MOVLB  0
0B752:  CALL   3C74
0B756:  MOVLW  3A
0B758:  BTFSS  F9E.4
0B75A:  BRA    B758
0B75C:  MOVWF  FAD
0B75E:  MOVLW  41
0B760:  MOVWF  FE9
0B762:  MOVFF  1F6,6FC
0B766:  MOVFF  1F5,6FB
0B76A:  MOVFF  1F4,6FA
0B76E:  MOVFF  1F3,6F9
0B772:  MOVLB  6
0B774:  CLRF   xFD
0B776:  MOVLB  0
0B778:  CALL   3C74
0B77C:  MOVLW  22
0B77E:  BTFSS  F9E.4
0B780:  BRA    B77E
0B782:  MOVWF  FAD
....................          SendDataDisplay(); 
0B784:  CALL   2D18
....................          if(Enfria==0){ 
0B788:  MOVLB  1
0B78A:  MOVF   xD5,F
0B78C:  BNZ   B7E4
....................             printf("potT.txt=\"Pot. T:%2.0f %%\"",Potencia); 
0B78E:  MOVLW  FC
0B790:  MOVWF  FF6
0B792:  MOVLW  0D
0B794:  MOVWF  FF7
0B796:  MOVLW  00
0B798:  MOVWF  FF8
0B79A:  MOVLW  11
0B79C:  MOVLB  6
0B79E:  MOVWF  xF9
0B7A0:  MOVLB  0
0B7A2:  CALL   3AD4
0B7A6:  MOVLW  01
0B7A8:  MOVWF  FE9
0B7AA:  MOVFF  227,6FC
0B7AE:  MOVFF  226,6FB
0B7B2:  MOVFF  225,6FA
0B7B6:  MOVFF  224,6F9
0B7BA:  MOVLB  6
0B7BC:  CLRF   xFD
0B7BE:  MOVLB  0
0B7C0:  CALL   3C74
0B7C4:  MOVLW  20
0B7C6:  BTFSS  F9E.4
0B7C8:  BRA    B7C6
0B7CA:  MOVWF  FAD
0B7CC:  MOVLW  25
0B7CE:  BTFSS  F9E.4
0B7D0:  BRA    B7CE
0B7D2:  MOVWF  FAD
0B7D4:  MOVLW  22
0B7D6:  BTFSS  F9E.4
0B7D8:  BRA    B7D6
0B7DA:  MOVWF  FAD
....................             //printf("potT.txt=\"Pot:%2.0f%% %2.1f %2.4f\"",Potencia,TemperaturaIdeal,Pendiente); 
....................             SendDataDisplay();  
0B7DC:  CALL   2D18
....................          }else{ 
0B7E0:  BRA    B87C
0B7E2:  MOVLB  1
....................             printf("potT.txt=\"Pot. Enfria:%2.0f %%\"",100.0*(float)!input_state(PIN_D3)); 
0B7E4:  MOVLW  00
0B7E6:  BTFSS  F83.3
0B7E8:  MOVLW  01
0B7EA:  MOVLB  7
0B7EC:  CLRF   x03
0B7EE:  MOVWF  x02
0B7F0:  MOVLB  0
0B7F2:  CALL   1112
0B7F6:  MOVLB  7
0B7F8:  CLRF   x10
0B7FA:  CLRF   x0F
0B7FC:  MOVLW  48
0B7FE:  MOVWF  x0E
0B800:  MOVLW  85
0B802:  MOVWF  x0D
0B804:  MOVFF  03,714
0B808:  MOVFF  02,713
0B80C:  MOVFF  01,712
0B810:  MOVFF  00,711
0B814:  MOVLB  0
0B816:  CALL   15CA
0B81A:  MOVFF  00,6F1
0B81E:  MOVFF  01,6F2
0B822:  MOVFF  02,6F3
0B826:  MOVFF  03,6F4
0B82A:  MOVLW  18
0B82C:  MOVWF  FF6
0B82E:  MOVLW  0E
0B830:  MOVWF  FF7
0B832:  MOVLW  00
0B834:  MOVWF  FF8
0B836:  MOVLW  16
0B838:  MOVLB  6
0B83A:  MOVWF  xF9
0B83C:  MOVLB  0
0B83E:  CALL   3AD4
0B842:  MOVLW  01
0B844:  MOVWF  FE9
0B846:  MOVFF  6F4,6FC
0B84A:  MOVFF  6F3,6FB
0B84E:  MOVFF  6F2,6FA
0B852:  MOVFF  6F1,6F9
0B856:  MOVLB  6
0B858:  CLRF   xFD
0B85A:  MOVLB  0
0B85C:  CALL   3C74
0B860:  MOVLW  20
0B862:  BTFSS  F9E.4
0B864:  BRA    B862
0B866:  MOVWF  FAD
0B868:  MOVLW  25
0B86A:  BTFSS  F9E.4
0B86C:  BRA    B86A
0B86E:  MOVWF  FAD
0B870:  MOVLW  22
0B872:  BTFSS  F9E.4
0B874:  BRA    B872
0B876:  MOVWF  FAD
....................             //printf("potT.txt=\"Pot:%2.0f%% %2.1f %2.4f\"",Potencia,TemperaturaIdeal,Pendiente); 
....................             SendDataDisplay();  
0B878:  CALL   2D18
....................          } 
....................          printf("texto1.txt=\"Tiempo Congelamiento:%03Lu min\"",tCongelamiento/60); 
0B87C:  MOVFF  21B,6F3
0B880:  MOVFF  21A,6F2
0B884:  MOVLB  6
0B886:  CLRF   xF5
0B888:  MOVLW  3C
0B88A:  MOVWF  xF4
0B88C:  MOVLB  0
0B88E:  CALL   3F10
0B892:  MOVFF  02,6F2
0B896:  MOVFF  01,6F1
0B89A:  MOVLW  38
0B89C:  MOVWF  FF6
0B89E:  MOVLW  0E
0B8A0:  MOVWF  FF7
0B8A2:  MOVLW  00
0B8A4:  MOVWF  FF8
0B8A6:  MOVLW  21
0B8A8:  MOVLB  6
0B8AA:  MOVWF  xF9
0B8AC:  MOVLB  0
0B8AE:  CALL   3AD4
0B8B2:  MOVLW  0A
0B8B4:  MOVWF  FE9
0B8B6:  MOVFF  6F2,6F4
0B8BA:  MOVFF  6F1,6F3
0B8BE:  CALL   67F8
0B8C2:  MOVLW  5E
0B8C4:  MOVWF  FF6
0B8C6:  MOVLW  0E
0B8C8:  MOVWF  FF7
0B8CA:  MOVLW  00
0B8CC:  MOVWF  FF8
0B8CE:  MOVLW  05
0B8D0:  MOVLB  6
0B8D2:  MOVWF  xF9
0B8D4:  MOVLB  0
0B8D6:  CALL   3AD4
....................          SendDataDisplay(); 
0B8DA:  CALL   2D18
....................          printf("texto2.txt=\"Tiempo Arranque:%03Lu s\"",tApagadoCompresor); 
0B8DE:  MOVLW  64
0B8E0:  MOVWF  FF6
0B8E2:  MOVLW  0E
0B8E4:  MOVWF  FF7
0B8E6:  MOVLW  00
0B8E8:  MOVWF  FF8
0B8EA:  MOVLW  1C
0B8EC:  MOVLB  6
0B8EE:  MOVWF  xF9
0B8F0:  MOVLB  0
0B8F2:  CALL   3AD4
0B8F6:  MOVLW  0A
0B8F8:  MOVWF  FE9
0B8FA:  MOVFF  21D,6F4
0B8FE:  MOVFF  21C,6F3
0B902:  CALL   67F8
0B906:  MOVLW  20
0B908:  BTFSS  F9E.4
0B90A:  BRA    B908
0B90C:  MOVWF  FAD
0B90E:  MOVLW  73
0B910:  BTFSS  F9E.4
0B912:  BRA    B910
0B914:  MOVWF  FAD
0B916:  MOVLW  22
0B918:  BTFSS  F9E.4
0B91A:  BRA    B918
0B91C:  MOVWF  FAD
....................          SendDataDisplay(); 
0B91E:  CALL   2D18
....................          printf("texto3.txt=\"Tiempo Defrost:%03Lu s\"",tDefrost); 
0B922:  MOVLW  8A
0B924:  MOVWF  FF6
0B926:  MOVLW  0E
0B928:  MOVWF  FF7
0B92A:  MOVLW  00
0B92C:  MOVWF  FF8
0B92E:  MOVLW  1B
0B930:  MOVLB  6
0B932:  MOVWF  xF9
0B934:  MOVLB  0
0B936:  CALL   3AD4
0B93A:  MOVLW  0A
0B93C:  MOVWF  FE9
0B93E:  MOVFF  219,6F4
0B942:  MOVFF  218,6F3
0B946:  CALL   67F8
0B94A:  MOVLW  20
0B94C:  BTFSS  F9E.4
0B94E:  BRA    B94C
0B950:  MOVWF  FAD
0B952:  MOVLW  73
0B954:  BTFSS  F9E.4
0B956:  BRA    B954
0B958:  MOVWF  FAD
0B95A:  MOVLW  22
0B95C:  BTFSS  F9E.4
0B95E:  BRA    B95C
0B960:  MOVWF  FAD
....................          SendDataDisplay(); 
0B962:  CALL   2D18
....................          printf("texto4.txt=\"T. Evaporador:%2.1fC\"",TemperaturaEvaporador); 
0B966:  MOVLW  AE
0B968:  MOVWF  FF6
0B96A:  MOVLW  0E
0B96C:  MOVWF  FF7
0B96E:  MOVLW  00
0B970:  MOVWF  FF8
0B972:  MOVLW  1A
0B974:  MOVLB  6
0B976:  MOVWF  xF9
0B978:  MOVLB  0
0B97A:  CALL   3AD4
0B97E:  MOVLW  01
0B980:  MOVWF  FE9
0B982:  MOVFF  27F,6FC
0B986:  MOVFF  27E,6FB
0B98A:  MOVFF  27D,6FA
0B98E:  MOVFF  27C,6F9
0B992:  MOVLB  6
0B994:  MOVWF  xFD
0B996:  MOVLB  0
0B998:  CALL   3C74
0B99C:  MOVLW  B0
0B99E:  BTFSS  F9E.4
0B9A0:  BRA    B99E
0B9A2:  MOVWF  FAD
0B9A4:  MOVLW  43
0B9A6:  BTFSS  F9E.4
0B9A8:  BRA    B9A6
0B9AA:  MOVWF  FAD
0B9AC:  MOVLW  22
0B9AE:  BTFSS  F9E.4
0B9B0:  BRA    B9AE
0B9B2:  MOVWF  FAD
....................          SendDataDisplay(); 
0B9B4:  CALL   2D18
....................       }  
....................        
....................       // Si cumplio el tiempo de esterilizacin, Muestre ciclo finalizado y detenga control de temperatura. 
....................       if((mEstp>0)||(hEstp>0)){ 
0B9B8:  MOVLB  6
0B9BA:  CLRF   xF8
0B9BC:  CLRF   xF7
0B9BE:  CLRF   xF6
0B9C0:  CLRF   xF5
0B9C2:  MOVFF  1E6,6FC
0B9C6:  MOVFF  1E5,6FB
0B9CA:  MOVFF  1E4,6FA
0B9CE:  MOVFF  1E3,6F9
0B9D2:  MOVLB  0
0B9D4:  CALL   16C0
0B9D8:  BC    B9FE
0B9DA:  MOVLB  6
0B9DC:  CLRF   xF8
0B9DE:  CLRF   xF7
0B9E0:  CLRF   xF6
0B9E2:  CLRF   xF5
0B9E4:  MOVFF  1EA,6FC
0B9E8:  MOVFF  1E9,6FB
0B9EC:  MOVFF  1E8,6FA
0B9F0:  MOVFF  1E7,6F9
0B9F4:  MOVLB  0
0B9F6:  CALL   16C0
0B9FA:  BTFSS  FD8.0
0B9FC:  BRA    BBB0
....................          CuentaTiempo();   
0B9FE:  GOTO   68A2
....................          if(flagRampa){ 
0BA02:  MOVLB  1
0BA04:  BTFSS  xCB.6
0BA06:  BRA    BAC8
....................             if((mEst>=mEstp)&&(hEst>=hEstp)&& Finalizo==0){ 
0BA08:  MOVFF  1E6,6F8
0BA0C:  MOVFF  1E5,6F7
0BA10:  MOVFF  1E4,6F6
0BA14:  MOVFF  1E3,6F5
0BA18:  MOVFF  1F6,6FC
0BA1C:  MOVFF  1F5,6FB
0BA20:  MOVFF  1F4,6FA
0BA24:  MOVFF  1F3,6F9
0BA28:  MOVLB  0
0BA2A:  CALL   16C0
0BA2E:  BC    BA32
0BA30:  BNZ   BAC4
0BA32:  MOVFF  1EA,6F8
0BA36:  MOVFF  1E9,6F7
0BA3A:  MOVFF  1E8,6F6
0BA3E:  MOVFF  1E7,6F5
0BA42:  MOVFF  1FA,6FC
0BA46:  MOVFF  1F9,6FB
0BA4A:  MOVFF  1F8,6FA
0BA4E:  MOVFF  1F7,6F9
0BA52:  CALL   16C0
0BA56:  BC    BA5A
0BA58:  BNZ   BAC4
0BA5A:  MOVLB  1
0BA5C:  BTFSS  xCA.4
0BA5E:  BRA    BA64
0BA60:  MOVLB  0
0BA62:  BRA    BAC4
....................                flag_calcula=0; 
0BA64:  BCF    xCB.7
....................                if(Segmento<Segmentos){ 
0BA66:  MOVF   xE0,W
0BA68:  SUBWF  xE1,W
0BA6A:  BC    BA80
....................                   Segmento++; 
0BA6C:  INCF   xE1,F
....................                   hEst=0; 
0BA6E:  CLRF   xFA
0BA70:  CLRF   xF9
0BA72:  CLRF   xF8
0BA74:  CLRF   xF7
....................                   mEst=0; 
0BA76:  CLRF   xF6
0BA78:  CLRF   xF5
0BA7A:  CLRF   xF4
0BA7C:  CLRF   xF3
....................                }else{ 
0BA7E:  BRA    BA82
....................                   Finalizo=1; 
0BA80:  BSF    xCA.4
....................                } 
....................                for(i=0;i<2;i++){ 
0BA82:  CLRF   xFF
0BA84:  MOVF   xFF,W
0BA86:  SUBLW  01
0BA88:  BNC   BAC2
....................                   Buzzer_on; 
0BA8A:  BSF    F8C.7
0BA8C:  BCF    F95.7
....................                   delay_ms(1000); 
0BA8E:  MOVLW  04
0BA90:  MOVLB  6
0BA92:  MOVWF  xF1
0BA94:  MOVLW  FA
0BA96:  MOVWF  xFA
0BA98:  MOVLB  0
0BA9A:  CALL   1148
0BA9E:  MOVLB  6
0BAA0:  DECFSZ xF1,F
0BAA2:  BRA    BA94
....................                   Buzzer_off; 
0BAA4:  BCF    F8C.7
0BAA6:  BCF    F95.7
....................                   delay_ms(1000); 
0BAA8:  MOVLW  04
0BAAA:  MOVWF  xF1
0BAAC:  MOVLW  FA
0BAAE:  MOVWF  xFA
0BAB0:  MOVLB  0
0BAB2:  CALL   1148
0BAB6:  MOVLB  6
0BAB8:  DECFSZ xF1,F
0BABA:  BRA    BAAC
....................                } 
0BABC:  MOVLB  1
0BABE:  INCF   xFF,F
0BAC0:  BRA    BA84
0BAC2:  MOVLB  0
....................             } 
....................          }else{ 
0BAC4:  BRA    BBB0
0BAC6:  MOVLB  1
....................             if((mEst>=mEstp)&&(hEst>=hEstp)&& tiempo_esterilizacion==1){ 
0BAC8:  MOVFF  1E6,6F8
0BACC:  MOVFF  1E5,6F7
0BAD0:  MOVFF  1E4,6F6
0BAD4:  MOVFF  1E3,6F5
0BAD8:  MOVFF  1F6,6FC
0BADC:  MOVFF  1F5,6FB
0BAE0:  MOVFF  1F4,6FA
0BAE4:  MOVFF  1F3,6F9
0BAE8:  MOVLB  0
0BAEA:  CALL   16C0
0BAEE:  BC    BAF2
0BAF0:  BNZ   BBB0
0BAF2:  MOVFF  1EA,6F8
0BAF6:  MOVFF  1E9,6F7
0BAFA:  MOVFF  1E8,6F6
0BAFE:  MOVFF  1E7,6F5
0BB02:  MOVFF  1FA,6FC
0BB06:  MOVFF  1F9,6FB
0BB0A:  MOVFF  1F8,6FA
0BB0E:  MOVFF  1F7,6F9
0BB12:  CALL   16C0
0BB16:  BC    BB1A
0BB18:  BNZ   BBB0
0BB1A:  MOVLB  2
0BB1C:  DECFSZ x03,W
0BB1E:  BRA    BB22
0BB20:  BRA    BB26
0BB22:  MOVLB  0
0BB24:  BRA    BBB0
....................                if(flag_clear==0){ 
0BB26:  MOVLB  1
0BB28:  BTFSC  xCA.5
0BB2A:  BRA    BB52
....................                   tiempo_esterilizacion=0; 
0BB2C:  MOVLB  2
0BB2E:  CLRF   x03
....................                   Pausa=2; 
0BB30:  MOVLW  02
0BB32:  MOVWF  x00
....................                   flag_clear=1; 
0BB34:  MOVLB  1
0BB36:  BSF    xCA.5
....................                   SSR_off; 
0BB38:  BCF    F8D.1
0BB3A:  BCF    F96.1
....................                   SSR2_off; 
0BB3C:  BCF    F8D.2
0BB3E:  BCF    F96.2
....................                   Controlando=0; 
0BB40:  CLRF   xD6
....................                   Tpulso=0.0; 
0BB42:  MOVLB  2
0BB44:  CLRF   x3B
0BB46:  CLRF   x3A
0BB48:  CLRF   x39
0BB4A:  CLRF   x38
....................                   flag_ganancia=0; 
0BB4C:  MOVLB  1
0BB4E:  CLRF   xD3
....................                   Finalizo=1; 
0BB50:  BSF    xCA.4
....................                } 
....................                printf("status.txt=\"Finalizado\""); 
0BB52:  MOVLW  D2
0BB54:  MOVWF  FF6
0BB56:  MOVLW  0E
0BB58:  MOVWF  FF7
0BB5A:  MOVLW  00
0BB5C:  MOVWF  FF8
0BB5E:  MOVLB  0
0BB60:  CALL   2CE6
....................                SendDataDisplay(); 
0BB64:  CALL   2D18
....................                ApagaSalidas(); 
0BB68:  CALL   10CE
....................                for(i=0;i<2;i++){ 
0BB6C:  MOVLB  1
0BB6E:  CLRF   xFF
0BB70:  MOVF   xFF,W
0BB72:  SUBLW  01
0BB74:  BNC   BBAE
....................                   Buzzer_on; 
0BB76:  BSF    F8C.7
0BB78:  BCF    F95.7
....................                   delay_ms(1000); 
0BB7A:  MOVLW  04
0BB7C:  MOVLB  6
0BB7E:  MOVWF  xF1
0BB80:  MOVLW  FA
0BB82:  MOVWF  xFA
0BB84:  MOVLB  0
0BB86:  CALL   1148
0BB8A:  MOVLB  6
0BB8C:  DECFSZ xF1,F
0BB8E:  BRA    BB80
....................                   Buzzer_off; 
0BB90:  BCF    F8C.7
0BB92:  BCF    F95.7
....................                   delay_ms(1000); 
0BB94:  MOVLW  04
0BB96:  MOVWF  xF1
0BB98:  MOVLW  FA
0BB9A:  MOVWF  xFA
0BB9C:  MOVLB  0
0BB9E:  CALL   1148
0BBA2:  MOVLB  6
0BBA4:  DECFSZ xF1,F
0BBA6:  BRA    BB98
....................                } 
0BBA8:  MOVLB  1
0BBAA:  INCF   xFF,F
0BBAC:  BRA    BB70
0BBAE:  MOVLB  0
....................             } 
....................          } 
....................       } 
....................     } 
.................... //_--------------------------------------------------------------------------------------------------------------------------------------------------------        
....................  
.................... //_-------------------------------------------------------------------------------------------------------------------------------------------------------- 
....................       if(Menu==100){ //Menu de Configuracin de Parametros de Control 
0BBB0:  MOVLB  1
0BBB2:  MOVF   xFE,W
0BBB4:  SUBLW  64
0BBB6:  BTFSS  FD8.2
0BBB8:  GOTO   C9BE
....................       
....................       if(Opcion2>10) 
0BBBC:  MOVF   xDF,W
0BBBE:  SUBLW  0A
0BBC0:  BC    BBC6
....................          Opcion2=1; 
0BBC2:  MOVLW  01
0BBC4:  MOVWF  xDF
....................       if(Opcion2<1) 
0BBC6:  MOVF   xDF,F
0BBC8:  BNZ   BBCE
....................          Opcion2=10; 
0BBCA:  MOVLW  0A
0BBCC:  MOVWF  xDF
....................        
....................       if(Opcion2==1){ 
0BBCE:  DECFSZ xDF,W
0BBD0:  BRA    BD4E
....................          printf("Config.t2c.txt=\"Proporcional\""); 
0BBD2:  MOVLW  EA
0BBD4:  MOVWF  FF6
0BBD6:  MOVLW  0E
0BBD8:  MOVWF  FF7
0BBDA:  MOVLW  00
0BBDC:  MOVWF  FF8
0BBDE:  MOVLB  0
0BBE0:  CALL   2CE6
....................          SendDataDisplay();       
0BBE4:  CALL   2D18
....................          printf("t3c.txt=\"%2.0f\"",GananciaR); 
0BBE8:  MOVLW  08
0BBEA:  MOVWF  FF6
0BBEC:  MOVLW  0F
0BBEE:  MOVWF  FF7
0BBF0:  MOVLW  00
0BBF2:  MOVWF  FF8
0BBF4:  MOVLW  09
0BBF6:  MOVLB  6
0BBF8:  MOVWF  xF9
0BBFA:  MOVLB  0
0BBFC:  CALL   3AD4
0BC00:  MOVLW  01
0BC02:  MOVWF  FE9
0BC04:  MOVFF  253,6FC
0BC08:  MOVFF  252,6FB
0BC0C:  MOVFF  251,6FA
0BC10:  MOVFF  250,6F9
0BC14:  MOVLB  6
0BC16:  CLRF   xFD
0BC18:  MOVLB  0
0BC1A:  CALL   3C74
0BC1E:  MOVLW  22
0BC20:  BTFSS  F9E.4
0BC22:  BRA    BC20
0BC24:  MOVWF  FAD
....................          SendDataDisplay(); 
0BC26:  CALL   2D18
....................          if(RX_Buffer[4]==0x0a || UP){//Tecla Arriba Oprimida 
0BC2A:  MOVF   2E,W
0BC2C:  SUBLW  0A
0BC2E:  BZ    BC36
0BC30:  BSF    F93.0
0BC32:  BTFSC  F81.0
0BC34:  BRA    BC86
....................             delay_ms(20); 
0BC36:  MOVLW  14
0BC38:  MOVLB  6
0BC3A:  MOVWF  xFA
0BC3C:  MOVLB  0
0BC3E:  CALL   1148
....................             if(RX_Buffer[4]==0x0a || UP){ 
0BC42:  MOVF   2E,W
0BC44:  SUBLW  0A
0BC46:  BZ    BC4E
0BC48:  BSF    F93.0
0BC4A:  BTFSC  F81.0
0BC4C:  BRA    BC86
....................                GananciaR+=1.0; 
0BC4E:  BCF    FD8.1
0BC50:  MOVFF  253,705
0BC54:  MOVFF  252,704
0BC58:  MOVFF  251,703
0BC5C:  MOVFF  250,702
0BC60:  MOVLB  7
0BC62:  CLRF   x09
0BC64:  CLRF   x08
0BC66:  CLRF   x07
0BC68:  MOVLW  7F
0BC6A:  MOVWF  x06
0BC6C:  MOVLB  0
0BC6E:  CALL   12EE
0BC72:  MOVFF  03,253
0BC76:  MOVFF  02,252
0BC7A:  MOVFF  01,251
0BC7E:  MOVFF  00,250
....................                RX_Buffer[4]=0x00;   
0BC82:  CLRF   2E
....................                RX_Buffer2[4]=0x00;             
0BC84:  CLRF   39
....................             } 
....................          } 
....................              
....................          if(RX_Buffer[4]==0x0b || DOWN){//Tecla Abajo Oprimida 
0BC86:  MOVF   2E,W
0BC88:  SUBLW  0B
0BC8A:  BZ    BC92
0BC8C:  BSF    F93.1
0BC8E:  BTFSC  F81.1
0BC90:  BRA    BCE2
....................             delay_ms(20); 
0BC92:  MOVLW  14
0BC94:  MOVLB  6
0BC96:  MOVWF  xFA
0BC98:  MOVLB  0
0BC9A:  CALL   1148
....................             if(RX_Buffer[4]==0x0b || DOWN){ 
0BC9E:  MOVF   2E,W
0BCA0:  SUBLW  0B
0BCA2:  BZ    BCAA
0BCA4:  BSF    F93.1
0BCA6:  BTFSC  F81.1
0BCA8:  BRA    BCE2
....................                GananciaR-=1.0; 
0BCAA:  BSF    FD8.1
0BCAC:  MOVFF  253,705
0BCB0:  MOVFF  252,704
0BCB4:  MOVFF  251,703
0BCB8:  MOVFF  250,702
0BCBC:  MOVLB  7
0BCBE:  CLRF   x09
0BCC0:  CLRF   x08
0BCC2:  CLRF   x07
0BCC4:  MOVLW  7F
0BCC6:  MOVWF  x06
0BCC8:  MOVLB  0
0BCCA:  CALL   12EE
0BCCE:  MOVFF  03,253
0BCD2:  MOVFF  02,252
0BCD6:  MOVFF  01,251
0BCDA:  MOVFF  00,250
....................                RX_Buffer[4]=0x00; 
0BCDE:  CLRF   2E
....................                RX_Buffer2[4]=0x00;             
0BCE0:  CLRF   39
....................             } 
....................          } 
....................           
....................          if(GananciaR>40) 
0BCE2:  MOVLB  6
0BCE4:  CLRF   xF8
0BCE6:  CLRF   xF7
0BCE8:  MOVLW  20
0BCEA:  MOVWF  xF6
0BCEC:  MOVLW  84
0BCEE:  MOVWF  xF5
0BCF0:  MOVFF  253,6FC
0BCF4:  MOVFF  252,6FB
0BCF8:  MOVFF  251,6FA
0BCFC:  MOVFF  250,6F9
0BD00:  MOVLB  0
0BD02:  CALL   16C0
0BD06:  BNC   BD14
....................             GananciaR=1; 
0BD08:  MOVLB  2
0BD0A:  CLRF   x53
0BD0C:  CLRF   x52
0BD0E:  CLRF   x51
0BD10:  MOVLW  7F
0BD12:  MOVWF  x50
....................          if(GananciaR<1) 
0BD14:  MOVFF  253,6F8
0BD18:  MOVFF  252,6F7
0BD1C:  MOVFF  251,6F6
0BD20:  MOVFF  250,6F5
0BD24:  MOVLB  6
0BD26:  CLRF   xFC
0BD28:  CLRF   xFB
0BD2A:  CLRF   xFA
0BD2C:  MOVLW  7F
0BD2E:  MOVWF  xF9
0BD30:  MOVLB  0
0BD32:  CALL   16C0
0BD36:  BNC   BD48
....................             GananciaR=40; 
0BD38:  MOVLB  2
0BD3A:  CLRF   x53
0BD3C:  CLRF   x52
0BD3E:  MOVLW  20
0BD40:  MOVWF  x51
0BD42:  MOVLW  84
0BD44:  MOVWF  x50
0BD46:  MOVLB  0
....................       }else if(Opcion2==2){ 
0BD48:  GOTO   C530
0BD4C:  MOVLB  1
0BD4E:  MOVF   xDF,W
0BD50:  SUBLW  02
0BD52:  BNZ   BE12
....................          printf("Config.t2c.txt=\"Derivativo\""); 
0BD54:  MOVLW  18
0BD56:  MOVWF  FF6
0BD58:  MOVLW  0F
0BD5A:  MOVWF  FF7
0BD5C:  MOVLW  00
0BD5E:  MOVWF  FF8
0BD60:  MOVLB  0
0BD62:  CALL   2CE6
....................          SendDataDisplay();       
0BD66:  CALL   2D18
....................          printf("t3c.txt=\"%u\"",Derivativo); 
0BD6A:  MOVLW  34
0BD6C:  MOVWF  FF6
0BD6E:  MOVLW  0F
0BD70:  MOVWF  FF7
0BD72:  MOVLW  00
0BD74:  MOVWF  FF8
0BD76:  MOVLW  09
0BD78:  MOVLB  6
0BD7A:  MOVWF  xF9
0BD7C:  MOVLB  0
0BD7E:  CALL   3AD4
0BD82:  MOVFF  1D8,6F2
0BD86:  MOVLW  1B
0BD88:  MOVLB  6
0BD8A:  MOVWF  xF3
0BD8C:  MOVLB  0
0BD8E:  CALL   3B32
0BD92:  MOVLW  22
0BD94:  BTFSS  F9E.4
0BD96:  BRA    BD94
0BD98:  MOVWF  FAD
....................          SendDataDisplay(); 
0BD9A:  CALL   2D18
....................          if(RX_Buffer[4]==0x0a || UP){//Tecla Arriba Oprimida 
0BD9E:  MOVF   2E,W
0BDA0:  SUBLW  0A
0BDA2:  BZ    BDAA
0BDA4:  BSF    F93.0
0BDA6:  BTFSC  F81.0
0BDA8:  BRA    BDCC
....................             delay_ms(20); 
0BDAA:  MOVLW  14
0BDAC:  MOVLB  6
0BDAE:  MOVWF  xFA
0BDB0:  MOVLB  0
0BDB2:  CALL   1148
....................             if(RX_Buffer[4]==0x0a || UP){ 
0BDB6:  MOVF   2E,W
0BDB8:  SUBLW  0A
0BDBA:  BZ    BDC2
0BDBC:  BSF    F93.0
0BDBE:  BTFSC  F81.0
0BDC0:  BRA    BDCC
....................                Derivativo++; 
0BDC2:  MOVLB  1
0BDC4:  INCF   xD8,F
....................                RX_Buffer[4]=0x00;   
0BDC6:  CLRF   2E
....................                RX_Buffer2[4]=0x00;                            
0BDC8:  CLRF   39
0BDCA:  MOVLB  0
....................             } 
....................          } 
....................              
....................          if(RX_Buffer[4]==0x0b || DOWN){//Tecla Abajo Oprimida 
0BDCC:  MOVF   2E,W
0BDCE:  SUBLW  0B
0BDD0:  BZ    BDD8
0BDD2:  BSF    F93.1
0BDD4:  BTFSC  F81.1
0BDD6:  BRA    BDFA
....................             delay_ms(20); 
0BDD8:  MOVLW  14
0BDDA:  MOVLB  6
0BDDC:  MOVWF  xFA
0BDDE:  MOVLB  0
0BDE0:  CALL   1148
....................             if(RX_Buffer[4]==0x0b || DOWN){ 
0BDE4:  MOVF   2E,W
0BDE6:  SUBLW  0B
0BDE8:  BZ    BDF0
0BDEA:  BSF    F93.1
0BDEC:  BTFSC  F81.1
0BDEE:  BRA    BDFA
....................                Derivativo--; 
0BDF0:  MOVLB  1
0BDF2:  DECF   xD8,F
....................                RX_Buffer[4]=0x00; 
0BDF4:  CLRF   2E
....................                RX_Buffer2[4]=0x00;                            
0BDF6:  CLRF   39
0BDF8:  MOVLB  0
....................             } 
....................          } 
....................           
....................          if(Derivativo>40) 
0BDFA:  MOVLB  1
0BDFC:  MOVF   xD8,W
0BDFE:  SUBLW  28
0BE00:  BC    BE06
....................             Derivativo=1; 
0BE02:  MOVLW  01
0BE04:  MOVWF  xD8
....................          if(Derivativo<1) 
0BE06:  MOVF   xD8,F
0BE08:  BNZ   BE0E
....................             Derivativo=40; 
0BE0A:  MOVLW  28
0BE0C:  MOVWF  xD8
....................       }else if(Opcion2==3){ 
0BE0E:  GOTO   C532
0BE12:  MOVF   xDF,W
0BE14:  SUBLW  03
0BE16:  BNZ   BED4
....................          printf("Config.t2c.txt=\"Integral\""); 
0BE18:  MOVLW  42
0BE1A:  MOVWF  FF6
0BE1C:  MOVLW  0F
0BE1E:  MOVWF  FF7
0BE20:  MOVLW  00
0BE22:  MOVWF  FF8
0BE24:  MOVLB  0
0BE26:  CALL   2CE6
....................          SendDataDisplay();       
0BE2A:  CALL   2D18
....................          printf("t3c.txt=\"%u\"",Integral); 
0BE2E:  MOVLW  5C
0BE30:  MOVWF  FF6
0BE32:  MOVLW  0F
0BE34:  MOVWF  FF7
0BE36:  MOVLW  00
0BE38:  MOVWF  FF8
0BE3A:  MOVLW  09
0BE3C:  MOVLB  6
0BE3E:  MOVWF  xF9
0BE40:  MOVLB  0
0BE42:  CALL   3AD4
0BE46:  MOVFF  1D9,6F2
0BE4A:  MOVLW  1B
0BE4C:  MOVLB  6
0BE4E:  MOVWF  xF3
0BE50:  MOVLB  0
0BE52:  CALL   3B32
0BE56:  MOVLW  22
0BE58:  BTFSS  F9E.4
0BE5A:  BRA    BE58
0BE5C:  MOVWF  FAD
....................          SendDataDisplay(); 
0BE5E:  CALL   2D18
....................          if(RX_Buffer[4]==0x0a || UP){//Tecla Arriba Oprimida 
0BE62:  MOVF   2E,W
0BE64:  SUBLW  0A
0BE66:  BZ    BE6E
0BE68:  BSF    F93.0
0BE6A:  BTFSC  F81.0
0BE6C:  BRA    BE90
....................             delay_ms(20); 
0BE6E:  MOVLW  14
0BE70:  MOVLB  6
0BE72:  MOVWF  xFA
0BE74:  MOVLB  0
0BE76:  CALL   1148
....................             if(RX_Buffer[4]==0x0a || UP){ 
0BE7A:  MOVF   2E,W
0BE7C:  SUBLW  0A
0BE7E:  BZ    BE86
0BE80:  BSF    F93.0
0BE82:  BTFSC  F81.0
0BE84:  BRA    BE90
....................                Integral++; 
0BE86:  MOVLB  1
0BE88:  INCF   xD9,F
....................                RX_Buffer[4]=0x00;   
0BE8A:  CLRF   2E
....................                RX_Buffer2[4]=0x00;             
0BE8C:  CLRF   39
0BE8E:  MOVLB  0
....................             } 
....................          } 
....................              
....................          if(RX_Buffer[4]==0x0b || DOWN){//Tecla Abajo Oprimida 
0BE90:  MOVF   2E,W
0BE92:  SUBLW  0B
0BE94:  BZ    BE9C
0BE96:  BSF    F93.1
0BE98:  BTFSC  F81.1
0BE9A:  BRA    BEBE
....................             delay_ms(20); 
0BE9C:  MOVLW  14
0BE9E:  MOVLB  6
0BEA0:  MOVWF  xFA
0BEA2:  MOVLB  0
0BEA4:  CALL   1148
....................             if(RX_Buffer[4]==0x0b || DOWN){ 
0BEA8:  MOVF   2E,W
0BEAA:  SUBLW  0B
0BEAC:  BZ    BEB4
0BEAE:  BSF    F93.1
0BEB0:  BTFSC  F81.1
0BEB2:  BRA    BEBE
....................                Integral--; 
0BEB4:  MOVLB  1
0BEB6:  DECF   xD9,F
....................                RX_Buffer[4]=0x00; 
0BEB8:  CLRF   2E
....................                RX_Buffer2[4]=0x00;                            
0BEBA:  CLRF   39
0BEBC:  MOVLB  0
....................             } 
....................          } 
....................           
....................          if(Integral>4) 
0BEBE:  MOVLB  1
0BEC0:  MOVF   xD9,W
0BEC2:  SUBLW  04
0BEC4:  BC    BECA
....................             Integral=1; 
0BEC6:  MOVLW  01
0BEC8:  MOVWF  xD9
....................          if(Integral<1) 
0BECA:  MOVF   xD9,F
0BECC:  BNZ   BED2
....................             Integral=4; 
0BECE:  MOVLW  04
0BED0:  MOVWF  xD9
....................       }else if(Opcion2==4){ 
0BED2:  BRA    C532
0BED4:  MOVF   xDF,W
0BED6:  SUBLW  04
0BED8:  BTFSS  FD8.2
0BEDA:  BRA    C05A
....................          printf("Config.t2c.txt=\"Tciclo\""); 
0BEDC:  MOVLW  6A
0BEDE:  MOVWF  FF6
0BEE0:  MOVLW  0F
0BEE2:  MOVWF  FF7
0BEE4:  MOVLW  00
0BEE6:  MOVWF  FF8
0BEE8:  MOVLB  0
0BEEA:  CALL   2CE6
....................          SendDataDisplay();       
0BEEE:  CALL   2D18
....................          printf("t3c.txt=\"%2.0f\"",Tciclo); 
0BEF2:  MOVLW  82
0BEF4:  MOVWF  FF6
0BEF6:  MOVLW  0F
0BEF8:  MOVWF  FF7
0BEFA:  MOVLW  00
0BEFC:  MOVWF  FF8
0BEFE:  MOVLW  09
0BF00:  MOVLB  6
0BF02:  MOVWF  xF9
0BF04:  MOVLB  0
0BF06:  CALL   3AD4
0BF0A:  MOVLW  01
0BF0C:  MOVWF  FE9
0BF0E:  MOVFF  237,6FC
0BF12:  MOVFF  236,6FB
0BF16:  MOVFF  235,6FA
0BF1A:  MOVFF  234,6F9
0BF1E:  MOVLB  6
0BF20:  CLRF   xFD
0BF22:  MOVLB  0
0BF24:  CALL   3C74
0BF28:  MOVLW  22
0BF2A:  BTFSS  F9E.4
0BF2C:  BRA    BF2A
0BF2E:  MOVWF  FAD
....................          SendDataDisplay(); 
0BF30:  CALL   2D18
....................          if(RX_Buffer[4]==0x0a || UP){//Tecla Arriba Oprimida 
0BF34:  MOVF   2E,W
0BF36:  SUBLW  0A
0BF38:  BZ    BF40
0BF3A:  BSF    F93.0
0BF3C:  BTFSC  F81.0
0BF3E:  BRA    BF90
....................             delay_ms(20); 
0BF40:  MOVLW  14
0BF42:  MOVLB  6
0BF44:  MOVWF  xFA
0BF46:  MOVLB  0
0BF48:  CALL   1148
....................             if(RX_Buffer[4]==0x0a || UP){ 
0BF4C:  MOVF   2E,W
0BF4E:  SUBLW  0A
0BF50:  BZ    BF58
0BF52:  BSF    F93.0
0BF54:  BTFSC  F81.0
0BF56:  BRA    BF90
....................                Tciclo+=1.0; 
0BF58:  BCF    FD8.1
0BF5A:  MOVFF  237,705
0BF5E:  MOVFF  236,704
0BF62:  MOVFF  235,703
0BF66:  MOVFF  234,702
0BF6A:  MOVLB  7
0BF6C:  CLRF   x09
0BF6E:  CLRF   x08
0BF70:  CLRF   x07
0BF72:  MOVLW  7F
0BF74:  MOVWF  x06
0BF76:  MOVLB  0
0BF78:  CALL   12EE
0BF7C:  MOVFF  03,237
0BF80:  MOVFF  02,236
0BF84:  MOVFF  01,235
0BF88:  MOVFF  00,234
....................                RX_Buffer[4]=0x00;   
0BF8C:  CLRF   2E
....................                RX_Buffer2[4]=0x00;             
0BF8E:  CLRF   39
....................             } 
....................          } 
....................              
....................          if(RX_Buffer[4]==0x0b || DOWN){//Tecla Abajo Oprimida 
0BF90:  MOVF   2E,W
0BF92:  SUBLW  0B
0BF94:  BZ    BF9C
0BF96:  BSF    F93.1
0BF98:  BTFSC  F81.1
0BF9A:  BRA    BFEC
....................             delay_ms(20); 
0BF9C:  MOVLW  14
0BF9E:  MOVLB  6
0BFA0:  MOVWF  xFA
0BFA2:  MOVLB  0
0BFA4:  CALL   1148
....................             if(RX_Buffer[4]==0x0b || DOWN){ 
0BFA8:  MOVF   2E,W
0BFAA:  SUBLW  0B
0BFAC:  BZ    BFB4
0BFAE:  BSF    F93.1
0BFB0:  BTFSC  F81.1
0BFB2:  BRA    BFEC
....................                Tciclo-=1.0; 
0BFB4:  BSF    FD8.1
0BFB6:  MOVFF  237,705
0BFBA:  MOVFF  236,704
0BFBE:  MOVFF  235,703
0BFC2:  MOVFF  234,702
0BFC6:  MOVLB  7
0BFC8:  CLRF   x09
0BFCA:  CLRF   x08
0BFCC:  CLRF   x07
0BFCE:  MOVLW  7F
0BFD0:  MOVWF  x06
0BFD2:  MOVLB  0
0BFD4:  CALL   12EE
0BFD8:  MOVFF  03,237
0BFDC:  MOVFF  02,236
0BFE0:  MOVFF  01,235
0BFE4:  MOVFF  00,234
....................                RX_Buffer[4]=0x00; 
0BFE8:  CLRF   2E
....................                RX_Buffer2[4]=0x00;             
0BFEA:  CLRF   39
....................             } 
....................          } 
....................           
....................          if(Tciclo>20) 
0BFEC:  MOVLB  6
0BFEE:  CLRF   xF8
0BFF0:  CLRF   xF7
0BFF2:  MOVLW  20
0BFF4:  MOVWF  xF6
0BFF6:  MOVLW  83
0BFF8:  MOVWF  xF5
0BFFA:  MOVFF  237,6FC
0BFFE:  MOVFF  236,6FB
0C002:  MOVFF  235,6FA
0C006:  MOVFF  234,6F9
0C00A:  MOVLB  0
0C00C:  CALL   16C0
0C010:  BNC   C020
....................             Tciclo=5; 
0C012:  MOVLB  2
0C014:  CLRF   x37
0C016:  CLRF   x36
0C018:  MOVLW  20
0C01A:  MOVWF  x35
0C01C:  MOVLW  81
0C01E:  MOVWF  x34
....................          if(Tciclo<5) 
0C020:  MOVFF  237,6F8
0C024:  MOVFF  236,6F7
0C028:  MOVFF  235,6F6
0C02C:  MOVFF  234,6F5
0C030:  MOVLB  6
0C032:  CLRF   xFC
0C034:  CLRF   xFB
0C036:  MOVLW  20
0C038:  MOVWF  xFA
0C03A:  MOVLW  81
0C03C:  MOVWF  xF9
0C03E:  MOVLB  0
0C040:  CALL   16C0
0C044:  BNC   C056
....................             Tciclo=20; 
0C046:  MOVLB  2
0C048:  CLRF   x37
0C04A:  CLRF   x36
0C04C:  MOVLW  20
0C04E:  MOVWF  x35
0C050:  MOVLW  83
0C052:  MOVWF  x34
0C054:  MOVLB  0
....................       }else if(Opcion2==5){ 
0C056:  BRA    C530
0C058:  MOVLB  1
0C05A:  MOVF   xDF,W
0C05C:  SUBLW  05
0C05E:  BNZ   C114
....................          printf("Config.t2c.txt=\"Ajuste +\""); 
0C060:  MOVLW  92
0C062:  MOVWF  FF6
0C064:  MOVLW  0F
0C066:  MOVWF  FF7
0C068:  MOVLW  00
0C06A:  MOVWF  FF8
0C06C:  MOVLB  0
0C06E:  CALL   2CE6
....................          SendDataDisplay();       
0C072:  CALL   2D18
....................          printf("t3c.txt=\"%u\"",Sensor[0].Ajuste); 
0C076:  MOVLW  AC
0C078:  MOVWF  FF6
0C07A:  MOVLW  0F
0C07C:  MOVWF  FF7
0C07E:  MOVLW  00
0C080:  MOVWF  FF8
0C082:  MOVLW  09
0C084:  MOVLB  6
0C086:  MOVWF  xF9
0C088:  MOVLB  0
0C08A:  CALL   3AD4
0C08E:  MOVFF  31B,6F2
0C092:  MOVLW  1B
0C094:  MOVLB  6
0C096:  MOVWF  xF3
0C098:  MOVLB  0
0C09A:  CALL   3B32
0C09E:  MOVLW  22
0C0A0:  BTFSS  F9E.4
0C0A2:  BRA    C0A0
0C0A4:  MOVWF  FAD
....................          SendDataDisplay(); 
0C0A6:  CALL   2D18
....................          if(RX_Buffer[4]==0x0a || UP){//Tecla Arriba Oprimida 
0C0AA:  MOVF   2E,W
0C0AC:  SUBLW  0A
0C0AE:  BZ    C0B6
0C0B0:  BSF    F93.0
0C0B2:  BTFSC  F81.0
0C0B4:  BRA    C0DE
....................             delay_ms(20); 
0C0B6:  MOVLW  14
0C0B8:  MOVLB  6
0C0BA:  MOVWF  xFA
0C0BC:  MOVLB  0
0C0BE:  CALL   1148
....................             if(RX_Buffer[4]==0x0a || UP){ 
0C0C2:  MOVF   2E,W
0C0C4:  SUBLW  0A
0C0C6:  BZ    C0CE
0C0C8:  BSF    F93.0
0C0CA:  BTFSC  F81.0
0C0CC:  BRA    C0DE
....................                if(Sensor[0].Ajuste<40) 
0C0CE:  MOVLB  3
0C0D0:  MOVF   x1B,W
0C0D2:  SUBLW  27
0C0D4:  BNC   C0D8
....................                   Sensor[0].Ajuste++; 
0C0D6:  INCF   x1B,F
....................                RX_Buffer[4]=0x00;   
0C0D8:  CLRF   2E
....................                RX_Buffer2[4]=0x00;             
0C0DA:  CLRF   39
0C0DC:  MOVLB  0
....................             } 
....................          } 
....................              
....................          if(RX_Buffer[4]==0x0b || DOWN){//Tecla Abajo Oprimida 
0C0DE:  MOVF   2E,W
0C0E0:  SUBLW  0B
0C0E2:  BZ    C0EA
0C0E4:  BSF    F93.1
0C0E6:  BTFSC  F81.1
0C0E8:  BRA    C110
....................             delay_ms(20); 
0C0EA:  MOVLW  14
0C0EC:  MOVLB  6
0C0EE:  MOVWF  xFA
0C0F0:  MOVLB  0
0C0F2:  CALL   1148
....................             if(RX_Buffer[4]==0x0b || DOWN){ 
0C0F6:  MOVF   2E,W
0C0F8:  SUBLW  0B
0C0FA:  BZ    C102
0C0FC:  BSF    F93.1
0C0FE:  BTFSC  F81.1
0C100:  BRA    C110
....................                if(Sensor[0].Ajuste>0) 
0C102:  MOVLB  3
0C104:  MOVF   x1B,F
0C106:  BZ    C10A
....................                   Sensor[0].Ajuste--; 
0C108:  DECF   x1B,F
....................                RX_Buffer[4]=0x00; 
0C10A:  CLRF   2E
....................                RX_Buffer2[4]=0x00;             
0C10C:  CLRF   39
0C10E:  MOVLB  0
....................             } 
....................          } 
....................       }else if(Opcion2==6){ 
0C110:  BRA    C530
0C112:  MOVLB  1
0C114:  MOVF   xDF,W
0C116:  SUBLW  06
0C118:  BNZ   C1CE
....................          printf("Config.t2c.txt=\"Ajuste -\""); 
0C11A:  MOVLW  BA
0C11C:  MOVWF  FF6
0C11E:  MOVLW  0F
0C120:  MOVWF  FF7
0C122:  MOVLW  00
0C124:  MOVWF  FF8
0C126:  MOVLB  0
0C128:  CALL   2CE6
....................          SendDataDisplay();       
0C12C:  CALL   2D18
....................          printf("t3c.txt=\"%u\"",Sensor[0].Ajusten); 
0C130:  MOVLW  D4
0C132:  MOVWF  FF6
0C134:  MOVLW  0F
0C136:  MOVWF  FF7
0C138:  MOVLW  00
0C13A:  MOVWF  FF8
0C13C:  MOVLW  09
0C13E:  MOVLB  6
0C140:  MOVWF  xF9
0C142:  MOVLB  0
0C144:  CALL   3AD4
0C148:  MOVFF  31C,6F2
0C14C:  MOVLW  1B
0C14E:  MOVLB  6
0C150:  MOVWF  xF3
0C152:  MOVLB  0
0C154:  CALL   3B32
0C158:  MOVLW  22
0C15A:  BTFSS  F9E.4
0C15C:  BRA    C15A
0C15E:  MOVWF  FAD
....................          SendDataDisplay(); 
0C160:  CALL   2D18
....................          if(RX_Buffer[4]==0x0a || UP){//Tecla Arriba Oprimida 
0C164:  MOVF   2E,W
0C166:  SUBLW  0A
0C168:  BZ    C170
0C16A:  BSF    F93.0
0C16C:  BTFSC  F81.0
0C16E:  BRA    C198
....................             delay_ms(20); 
0C170:  MOVLW  14
0C172:  MOVLB  6
0C174:  MOVWF  xFA
0C176:  MOVLB  0
0C178:  CALL   1148
....................             if(RX_Buffer[4]==0x0a || UP){ 
0C17C:  MOVF   2E,W
0C17E:  SUBLW  0A
0C180:  BZ    C188
0C182:  BSF    F93.0
0C184:  BTFSC  F81.0
0C186:  BRA    C198
....................                if(Sensor[0].Ajusten<40) 
0C188:  MOVLB  3
0C18A:  MOVF   x1C,W
0C18C:  SUBLW  27
0C18E:  BNC   C192
....................                   Sensor[0].Ajusten++; 
0C190:  INCF   x1C,F
....................                RX_Buffer[4]=0x00;   
0C192:  CLRF   2E
....................                RX_Buffer2[4]=0x00;             
0C194:  CLRF   39
0C196:  MOVLB  0
....................             }          
....................          } 
....................              
....................          if(RX_Buffer[4]==0x0b || DOWN){//Tecla Abajo Oprimida 
0C198:  MOVF   2E,W
0C19A:  SUBLW  0B
0C19C:  BZ    C1A4
0C19E:  BSF    F93.1
0C1A0:  BTFSC  F81.1
0C1A2:  BRA    C1CA
....................             delay_ms(20); 
0C1A4:  MOVLW  14
0C1A6:  MOVLB  6
0C1A8:  MOVWF  xFA
0C1AA:  MOVLB  0
0C1AC:  CALL   1148
....................             if(RX_Buffer[4]==0x0b || DOWN){ 
0C1B0:  MOVF   2E,W
0C1B2:  SUBLW  0B
0C1B4:  BZ    C1BC
0C1B6:  BSF    F93.1
0C1B8:  BTFSC  F81.1
0C1BA:  BRA    C1CA
....................                if(Sensor[0].Ajusten>0) 
0C1BC:  MOVLB  3
0C1BE:  MOVF   x1C,F
0C1C0:  BZ    C1C4
....................                   Sensor[0].Ajusten--; 
0C1C2:  DECF   x1C,F
....................                RX_Buffer[4]=0x00; 
0C1C4:  CLRF   2E
....................                RX_Buffer2[4]=0x00;             
0C1C6:  CLRF   39
0C1C8:  MOVLB  0
....................             } 
....................          } 
....................       }else if(Opcion2==7){ 
0C1CA:  BRA    C530
0C1CC:  MOVLB  1
0C1CE:  MOVF   xDF,W
0C1D0:  SUBLW  07
0C1D2:  BNZ   C288
....................          printf("Config.t2c.txt=\"Ajuste2 +\""); 
0C1D4:  MOVLW  E2
0C1D6:  MOVWF  FF6
0C1D8:  MOVLW  0F
0C1DA:  MOVWF  FF7
0C1DC:  MOVLW  00
0C1DE:  MOVWF  FF8
0C1E0:  MOVLB  0
0C1E2:  CALL   2CE6
....................          SendDataDisplay();       
0C1E6:  CALL   2D18
....................          printf("t3c.txt=\"%u\"",Sensor[1].Ajuste); 
0C1EA:  MOVLW  FE
0C1EC:  MOVWF  FF6
0C1EE:  MOVLW  0F
0C1F0:  MOVWF  FF7
0C1F2:  MOVLW  00
0C1F4:  MOVWF  FF8
0C1F6:  MOVLW  09
0C1F8:  MOVLB  6
0C1FA:  MOVWF  xF9
0C1FC:  MOVLB  0
0C1FE:  CALL   3AD4
0C202:  MOVFF  47F,6F2
0C206:  MOVLW  1B
0C208:  MOVLB  6
0C20A:  MOVWF  xF3
0C20C:  MOVLB  0
0C20E:  CALL   3B32
0C212:  MOVLW  22
0C214:  BTFSS  F9E.4
0C216:  BRA    C214
0C218:  MOVWF  FAD
....................          SendDataDisplay(); 
0C21A:  CALL   2D18
....................          if(RX_Buffer[4]==0x0a || UP){//Tecla Arriba Oprimida 
0C21E:  MOVF   2E,W
0C220:  SUBLW  0A
0C222:  BZ    C22A
0C224:  BSF    F93.0
0C226:  BTFSC  F81.0
0C228:  BRA    C252
....................             delay_ms(20); 
0C22A:  MOVLW  14
0C22C:  MOVLB  6
0C22E:  MOVWF  xFA
0C230:  MOVLB  0
0C232:  CALL   1148
....................             if(RX_Buffer[4]==0x0a || UP){ 
0C236:  MOVF   2E,W
0C238:  SUBLW  0A
0C23A:  BZ    C242
0C23C:  BSF    F93.0
0C23E:  BTFSC  F81.0
0C240:  BRA    C252
....................                if(Sensor[1].Ajuste<40) 
0C242:  MOVLB  4
0C244:  MOVF   x7F,W
0C246:  SUBLW  27
0C248:  BNC   C24C
....................                   Sensor[1].Ajuste++; 
0C24A:  INCF   x7F,F
....................                RX_Buffer[4]=0x00;   
0C24C:  CLRF   2E
....................                RX_Buffer2[4]=0x00;             
0C24E:  CLRF   39
0C250:  MOVLB  0
....................             } 
....................          } 
....................              
....................          if(RX_Buffer[4]==0x0b || DOWN){//Tecla Abajo Oprimida 
0C252:  MOVF   2E,W
0C254:  SUBLW  0B
0C256:  BZ    C25E
0C258:  BSF    F93.1
0C25A:  BTFSC  F81.1
0C25C:  BRA    C284
....................             delay_ms(20); 
0C25E:  MOVLW  14
0C260:  MOVLB  6
0C262:  MOVWF  xFA
0C264:  MOVLB  0
0C266:  CALL   1148
....................             if(RX_Buffer[4]==0x0b || DOWN){ 
0C26A:  MOVF   2E,W
0C26C:  SUBLW  0B
0C26E:  BZ    C276
0C270:  BSF    F93.1
0C272:  BTFSC  F81.1
0C274:  BRA    C284
....................                if(Sensor[1].Ajuste>0) 
0C276:  MOVLB  4
0C278:  MOVF   x7F,F
0C27A:  BZ    C27E
....................                   Sensor[1].Ajuste--; 
0C27C:  DECF   x7F,F
....................                RX_Buffer[4]=0x00; 
0C27E:  CLRF   2E
....................                RX_Buffer2[4]=0x00;             
0C280:  CLRF   39
0C282:  MOVLB  0
....................             }            
....................          } 
....................       }else if(Opcion2==8){ 
0C284:  BRA    C530
0C286:  MOVLB  1
0C288:  MOVF   xDF,W
0C28A:  SUBLW  08
0C28C:  BNZ   C342
....................          printf("Config.t2c.txt=\"Ajuste2 -\""); 
0C28E:  MOVLW  0C
0C290:  MOVWF  FF6
0C292:  MOVLW  10
0C294:  MOVWF  FF7
0C296:  MOVLW  00
0C298:  MOVWF  FF8
0C29A:  MOVLB  0
0C29C:  CALL   2CE6
....................          SendDataDisplay();       
0C2A0:  CALL   2D18
....................          printf("t3c.txt=\"%u\"",Sensor[1].Ajusten); 
0C2A4:  MOVLW  28
0C2A6:  MOVWF  FF6
0C2A8:  MOVLW  10
0C2AA:  MOVWF  FF7
0C2AC:  MOVLW  00
0C2AE:  MOVWF  FF8
0C2B0:  MOVLW  09
0C2B2:  MOVLB  6
0C2B4:  MOVWF  xF9
0C2B6:  MOVLB  0
0C2B8:  CALL   3AD4
0C2BC:  MOVFF  480,6F2
0C2C0:  MOVLW  1B
0C2C2:  MOVLB  6
0C2C4:  MOVWF  xF3
0C2C6:  MOVLB  0
0C2C8:  CALL   3B32
0C2CC:  MOVLW  22
0C2CE:  BTFSS  F9E.4
0C2D0:  BRA    C2CE
0C2D2:  MOVWF  FAD
....................          SendDataDisplay(); 
0C2D4:  CALL   2D18
....................          if(RX_Buffer[4]==0x0a || UP){//Tecla Arriba Oprimida 
0C2D8:  MOVF   2E,W
0C2DA:  SUBLW  0A
0C2DC:  BZ    C2E4
0C2DE:  BSF    F93.0
0C2E0:  BTFSC  F81.0
0C2E2:  BRA    C30C
....................             delay_ms(20); 
0C2E4:  MOVLW  14
0C2E6:  MOVLB  6
0C2E8:  MOVWF  xFA
0C2EA:  MOVLB  0
0C2EC:  CALL   1148
....................             if(RX_Buffer[4]==0x0a || UP){ 
0C2F0:  MOVF   2E,W
0C2F2:  SUBLW  0A
0C2F4:  BZ    C2FC
0C2F6:  BSF    F93.0
0C2F8:  BTFSC  F81.0
0C2FA:  BRA    C30C
....................                if(Sensor[1].Ajusten<40) 
0C2FC:  MOVLB  4
0C2FE:  MOVF   x80,W
0C300:  SUBLW  27
0C302:  BNC   C306
....................                   Sensor[1].Ajusten++; 
0C304:  INCF   x80,F
....................                RX_Buffer[4]=0x00;   
0C306:  CLRF   2E
....................                RX_Buffer2[4]=0x00;             
0C308:  CLRF   39
0C30A:  MOVLB  0
....................             } 
....................          } 
....................              
....................          if(RX_Buffer[4]==0x0b || DOWN){//Tecla Abajo Oprimida 
0C30C:  MOVF   2E,W
0C30E:  SUBLW  0B
0C310:  BZ    C318
0C312:  BSF    F93.1
0C314:  BTFSC  F81.1
0C316:  BRA    C33E
....................             delay_ms(20); 
0C318:  MOVLW  14
0C31A:  MOVLB  6
0C31C:  MOVWF  xFA
0C31E:  MOVLB  0
0C320:  CALL   1148
....................             if(RX_Buffer[4]==0x0b || DOWN){ 
0C324:  MOVF   2E,W
0C326:  SUBLW  0B
0C328:  BZ    C330
0C32A:  BSF    F93.1
0C32C:  BTFSC  F81.1
0C32E:  BRA    C33E
....................                if(Sensor[1].Ajusten>0) 
0C330:  MOVLB  4
0C332:  MOVF   x80,F
0C334:  BZ    C338
....................                   Sensor[1].Ajusten--; 
0C336:  DECF   x80,F
....................                RX_Buffer[4]=0x00; 
0C338:  CLRF   2E
....................                RX_Buffer2[4]=0x00;             
0C33A:  CLRF   39
0C33C:  MOVLB  0
....................             } 
....................          } 
....................       }else if(Opcion2==9){ 
0C33E:  BRA    C530
0C340:  MOVLB  1
0C342:  MOVF   xDF,W
0C344:  SUBLW  09
0C346:  BNZ   C3FE
....................          printf("Config.t2c.txt=\"Media\""); 
0C348:  MOVLW  36
0C34A:  MOVWF  FF6
0C34C:  MOVLW  10
0C34E:  MOVWF  FF7
0C350:  MOVLW  00
0C352:  MOVWF  FF8
0C354:  MOVLB  0
0C356:  CALL   2CE6
....................          SendDataDisplay();       
0C35A:  CALL   2D18
....................          printf("t3c.txt=\"%u\"",MediaMovil); 
0C35E:  MOVLW  4E
0C360:  MOVWF  FF6
0C362:  MOVLW  10
0C364:  MOVWF  FF7
0C366:  MOVLW  00
0C368:  MOVWF  FF8
0C36A:  MOVLW  09
0C36C:  MOVLB  6
0C36E:  MOVWF  xF9
0C370:  MOVLB  0
0C372:  CALL   3AD4
0C376:  MOVFF  1D1,6F2
0C37A:  MOVLW  1B
0C37C:  MOVLB  6
0C37E:  MOVWF  xF3
0C380:  MOVLB  0
0C382:  CALL   3B32
0C386:  MOVLW  22
0C388:  BTFSS  F9E.4
0C38A:  BRA    C388
0C38C:  MOVWF  FAD
....................          SendDataDisplay(); 
0C38E:  CALL   2D18
....................          if(RX_Buffer[4]==0x0a || UP){//Tecla Arriba Oprimida 
0C392:  MOVF   2E,W
0C394:  SUBLW  0A
0C396:  BZ    C39E
0C398:  BSF    F93.0
0C39A:  BTFSC  F81.0
0C39C:  BRA    C3C6
....................             delay_ms(20); 
0C39E:  MOVLW  14
0C3A0:  MOVLB  6
0C3A2:  MOVWF  xFA
0C3A4:  MOVLB  0
0C3A6:  CALL   1148
....................             if(RX_Buffer[4]==0x0a || UP){ 
0C3AA:  MOVF   2E,W
0C3AC:  SUBLW  0A
0C3AE:  BZ    C3B6
0C3B0:  BSF    F93.0
0C3B2:  BTFSC  F81.0
0C3B4:  BRA    C3C6
....................                if(MediaMovil<80) 
0C3B6:  MOVLB  1
0C3B8:  MOVF   xD1,W
0C3BA:  SUBLW  4F
0C3BC:  BNC   C3C0
....................                   MediaMovil++; 
0C3BE:  INCF   xD1,F
....................                RX_Buffer[4]=0x00;   
0C3C0:  CLRF   2E
....................                RX_Buffer2[4]=0x00;             
0C3C2:  CLRF   39
0C3C4:  MOVLB  0
....................             } 
....................          } 
....................              
....................          if(RX_Buffer[4]==0x0b || DOWN){//Tecla Abajo Oprimida 
0C3C6:  MOVF   2E,W
0C3C8:  SUBLW  0B
0C3CA:  BZ    C3D2
0C3CC:  BSF    F93.1
0C3CE:  BTFSC  F81.1
0C3D0:  BRA    C3FA
....................             delay_ms(20); 
0C3D2:  MOVLW  14
0C3D4:  MOVLB  6
0C3D6:  MOVWF  xFA
0C3D8:  MOVLB  0
0C3DA:  CALL   1148
....................             if(RX_Buffer[4]==0x0b || DOWN){ 
0C3DE:  MOVF   2E,W
0C3E0:  SUBLW  0B
0C3E2:  BZ    C3EA
0C3E4:  BSF    F93.1
0C3E6:  BTFSC  F81.1
0C3E8:  BRA    C3FA
....................                if(MediaMovil>10) 
0C3EA:  MOVLB  1
0C3EC:  MOVF   xD1,W
0C3EE:  SUBLW  0A
0C3F0:  BC    C3F4
....................                   MediaMovil--; 
0C3F2:  DECF   xD1,F
....................                RX_Buffer[4]=0x00; 
0C3F4:  CLRF   2E
....................                RX_Buffer2[4]=0x00;             
0C3F6:  CLRF   39
0C3F8:  MOVLB  0
....................             }             
....................          } 
....................       }else if(Opcion2==10){ 
0C3FA:  BRA    C530
0C3FC:  MOVLB  1
0C3FE:  MOVF   xDF,W
0C400:  SUBLW  0A
0C402:  BTFSS  FD8.2
0C404:  BRA    C532
....................          printf("Config.t2c.txt=\"Histeresis\""); 
0C406:  MOVLW  5C
0C408:  MOVWF  FF6
0C40A:  MOVLW  10
0C40C:  MOVWF  FF7
0C40E:  MOVLW  00
0C410:  MOVWF  FF8
0C412:  MOVLB  0
0C414:  CALL   2CE6
....................          SendDataDisplay();       
0C418:  CALL   2D18
....................          printf("t3c.txt=\"%1.1f\"",Histeresis); 
0C41C:  MOVLW  78
0C41E:  MOVWF  FF6
0C420:  MOVLW  10
0C422:  MOVWF  FF7
0C424:  MOVLW  00
0C426:  MOVWF  FF8
0C428:  MOVLW  09
0C42A:  MOVLB  6
0C42C:  MOVWF  xF9
0C42E:  MOVLB  0
0C430:  CALL   3AD4
0C434:  MOVLW  89
0C436:  MOVWF  FE9
0C438:  MOVFF  283,6FC
0C43C:  MOVFF  282,6FB
0C440:  MOVFF  281,6FA
0C444:  MOVFF  280,6F9
0C448:  MOVLW  01
0C44A:  MOVLB  6
0C44C:  MOVWF  xFD
0C44E:  MOVLB  0
0C450:  CALL   3C74
0C454:  MOVLW  22
0C456:  BTFSS  F9E.4
0C458:  BRA    C456
0C45A:  MOVWF  FAD
....................          SendDataDisplay(); 
0C45C:  CALL   2D18
....................          if(RX_Buffer[4]==0x0a){//Tecla Arriba Oprimida 
0C460:  MOVF   2E,W
0C462:  SUBLW  0A
0C464:  BNZ   C4CA
....................             if(Histeresis<5.0) 
0C466:  MOVFF  283,6F8
0C46A:  MOVFF  282,6F7
0C46E:  MOVFF  281,6F6
0C472:  MOVFF  280,6F5
0C476:  MOVLB  6
0C478:  CLRF   xFC
0C47A:  CLRF   xFB
0C47C:  MOVLW  20
0C47E:  MOVWF  xFA
0C480:  MOVLW  81
0C482:  MOVWF  xF9
0C484:  MOVLB  0
0C486:  CALL   16C0
0C48A:  BNC   C4C6
....................                Histeresis+=0.1; 
0C48C:  BCF    FD8.1
0C48E:  MOVFF  283,705
0C492:  MOVFF  282,704
0C496:  MOVFF  281,703
0C49A:  MOVFF  280,702
0C49E:  MOVLW  CD
0C4A0:  MOVLB  7
0C4A2:  MOVWF  x09
0C4A4:  MOVLW  CC
0C4A6:  MOVWF  x08
0C4A8:  MOVLW  4C
0C4AA:  MOVWF  x07
0C4AC:  MOVLW  7B
0C4AE:  MOVWF  x06
0C4B0:  MOVLB  0
0C4B2:  CALL   12EE
0C4B6:  MOVFF  03,283
0C4BA:  MOVFF  02,282
0C4BE:  MOVFF  01,281
0C4C2:  MOVFF  00,280
....................             RX_Buffer[4]=0x00;   
0C4C6:  CLRF   2E
....................             RX_Buffer2[4]=0x00;                         
0C4C8:  CLRF   39
....................          } 
....................              
....................          if(RX_Buffer[4]==0x0b){//Tecla Arriba Oprimida 
0C4CA:  MOVF   2E,W
0C4CC:  SUBLW  0B
0C4CE:  BNZ   C530
....................             if(Histeresis>0.0) 
0C4D0:  MOVLB  6
0C4D2:  CLRF   xF8
0C4D4:  CLRF   xF7
0C4D6:  CLRF   xF6
0C4D8:  CLRF   xF5
0C4DA:  MOVFF  283,6FC
0C4DE:  MOVFF  282,6FB
0C4E2:  MOVFF  281,6FA
0C4E6:  MOVFF  280,6F9
0C4EA:  MOVLB  0
0C4EC:  CALL   16C0
0C4F0:  BNC   C52C
....................                Histeresis-=0.1; 
0C4F2:  BSF    FD8.1
0C4F4:  MOVFF  283,705
0C4F8:  MOVFF  282,704
0C4FC:  MOVFF  281,703
0C500:  MOVFF  280,702
0C504:  MOVLW  CD
0C506:  MOVLB  7
0C508:  MOVWF  x09
0C50A:  MOVLW  CC
0C50C:  MOVWF  x08
0C50E:  MOVLW  4C
0C510:  MOVWF  x07
0C512:  MOVLW  7B
0C514:  MOVWF  x06
0C516:  MOVLB  0
0C518:  CALL   12EE
0C51C:  MOVFF  03,283
0C520:  MOVFF  02,282
0C524:  MOVFF  01,281
0C528:  MOVFF  00,280
....................             RX_Buffer[4]=0x00;   
0C52C:  CLRF   2E
....................             RX_Buffer2[4]=0x00;                         
0C52E:  CLRF   39
0C530:  MOVLB  1
....................          } 
....................       } 
....................        
....................       if(RX_Buffer[4]==0x0c || LEFT){//Tecla Izquierda Oprimida 
0C532:  MOVF   2E,W
0C534:  SUBLW  0C
0C536:  BZ    C53E
0C538:  BSF    F93.3
0C53A:  BTFSC  F81.3
0C53C:  BRA    C55E
....................          delay_ms(20); 
0C53E:  MOVLW  14
0C540:  MOVLB  6
0C542:  MOVWF  xFA
0C544:  MOVLB  0
0C546:  CALL   1148
....................          if(RX_Buffer[4]==0x0c || LEFT){ 
0C54A:  MOVF   2E,W
0C54C:  SUBLW  0C
0C54E:  BZ    C556
0C550:  BSF    F93.3
0C552:  BTFSC  F81.3
0C554:  BRA    C560
....................             Opcion2++; 
0C556:  MOVLB  1
0C558:  INCF   xDF,F
....................             RX_Buffer[4]=0x00;   
0C55A:  CLRF   2E
....................             RX_Buffer2[4]=0x00;             
0C55C:  CLRF   39
0C55E:  MOVLB  0
....................          } 
....................       } 
....................           
....................       if(RX_Buffer[4]==0x0d || RIGHT){//Tecla Derecha Oprimida 
0C560:  MOVF   2E,W
0C562:  SUBLW  0D
0C564:  BZ    C56C
0C566:  BSF    F93.2
0C568:  BTFSC  F81.2
0C56A:  BRA    C58E
....................          delay_ms(20); 
0C56C:  MOVLW  14
0C56E:  MOVLB  6
0C570:  MOVWF  xFA
0C572:  MOVLB  0
0C574:  CALL   1148
....................          if(RX_Buffer[4]==0x0d || RIGHT){ 
0C578:  MOVF   2E,W
0C57A:  SUBLW  0D
0C57C:  BZ    C584
0C57E:  BSF    F93.2
0C580:  BTFSC  F81.2
0C582:  BRA    C58E
....................             Opcion2--; 
0C584:  MOVLB  1
0C586:  DECF   xDF,F
....................             RX_Buffer[4]=0x00; 
0C588:  CLRF   2E
....................             RX_Buffer2[4]=0x00;             
0C58A:  CLRF   39
0C58C:  MOVLB  0
....................          } 
....................       } 
....................        
....................       if(RX_Buffer[4]==0x11 || (RIGHT && LEFT)){//Tecla Regresar 
0C58E:  MOVF   2E,W
0C590:  SUBLW  11
0C592:  BZ    C5A0
0C594:  BSF    F93.2
0C596:  BTFSC  F81.2
0C598:  BRA    C908
0C59A:  BSF    F93.3
0C59C:  BTFSC  F81.3
0C59E:  BRA    C908
....................          delay_ms(20); 
0C5A0:  MOVLW  14
0C5A2:  MOVLB  6
0C5A4:  MOVWF  xFA
0C5A6:  MOVLB  0
0C5A8:  CALL   1148
....................          if(RX_Buffer[4]==0x11 || (RIGHT && LEFT)){ 
0C5AC:  MOVF   2E,W
0C5AE:  SUBLW  11
0C5B0:  BZ    C5BE
0C5B2:  BSF    F93.2
0C5B4:  BTFSC  F81.2
0C5B6:  BRA    C908
0C5B8:  BSF    F93.3
0C5BA:  BTFSC  F81.3
0C5BC:  BRA    C908
....................             if(!GuardaEEPROM){ 
0C5BE:  MOVLB  1
0C5C0:  BTFSC  xC9.2
0C5C2:  BRA    C8F2
....................                write_eeprom(21,Sensor[0].Ajuste); 
0C5C4:  CLRF   FAA
0C5C6:  MOVLW  15
0C5C8:  MOVWF  FA9
0C5CA:  MOVFF  31B,FA8
0C5CE:  BCF    FA6.6
0C5D0:  BCF    FA6.7
0C5D2:  BSF    FA6.2
0C5D4:  MOVF   FF2,W
0C5D6:  MOVWF  00
0C5D8:  BCF    FF2.6
0C5DA:  BCF    FF2.7
0C5DC:  MOVLB  F
0C5DE:  MOVLW  55
0C5E0:  MOVWF  FA7
0C5E2:  MOVLW  AA
0C5E4:  MOVWF  FA7
0C5E6:  BSF    FA6.1
0C5E8:  BTFSC  FA6.1
0C5EA:  BRA    C5E8
0C5EC:  BCF    FA6.2
0C5EE:  MOVF   00,W
0C5F0:  IORWF  FF2,F
....................                delay_ms(10); 
0C5F2:  MOVLW  0A
0C5F4:  MOVLB  6
0C5F6:  MOVWF  xFA
0C5F8:  MOVLB  0
0C5FA:  CALL   1148
....................                write_eeprom(22,Sensor[0].Ajusten); 
0C5FE:  CLRF   FAA
0C600:  MOVLW  16
0C602:  MOVWF  FA9
0C604:  MOVFF  31C,FA8
0C608:  BCF    FA6.6
0C60A:  BCF    FA6.7
0C60C:  BSF    FA6.2
0C60E:  MOVF   FF2,W
0C610:  MOVWF  00
0C612:  BCF    FF2.6
0C614:  BCF    FF2.7
0C616:  MOVLB  F
0C618:  MOVLW  55
0C61A:  MOVWF  FA7
0C61C:  MOVLW  AA
0C61E:  MOVWF  FA7
0C620:  BSF    FA6.1
0C622:  BTFSC  FA6.1
0C624:  BRA    C622
0C626:  BCF    FA6.2
0C628:  MOVF   00,W
0C62A:  IORWF  FF2,F
....................                delay_ms(10); 
0C62C:  MOVLW  0A
0C62E:  MOVLB  6
0C630:  MOVWF  xFA
0C632:  MOVLB  0
0C634:  CALL   1148
....................                write_eeprom(23,Sensor[1].Ajuste); 
0C638:  CLRF   FAA
0C63A:  MOVLW  17
0C63C:  MOVWF  FA9
0C63E:  MOVFF  47F,FA8
0C642:  BCF    FA6.6
0C644:  BCF    FA6.7
0C646:  BSF    FA6.2
0C648:  MOVF   FF2,W
0C64A:  MOVWF  00
0C64C:  BCF    FF2.6
0C64E:  BCF    FF2.7
0C650:  MOVLB  F
0C652:  MOVLW  55
0C654:  MOVWF  FA7
0C656:  MOVLW  AA
0C658:  MOVWF  FA7
0C65A:  BSF    FA6.1
0C65C:  BTFSC  FA6.1
0C65E:  BRA    C65C
0C660:  BCF    FA6.2
0C662:  MOVF   00,W
0C664:  IORWF  FF2,F
....................                delay_ms(10); 
0C666:  MOVLW  0A
0C668:  MOVLB  6
0C66A:  MOVWF  xFA
0C66C:  MOVLB  0
0C66E:  CALL   1148
....................                write_eeprom(24,Sensor[1].Ajusten); 
0C672:  CLRF   FAA
0C674:  MOVLW  18
0C676:  MOVWF  FA9
0C678:  MOVFF  480,FA8
0C67C:  BCF    FA6.6
0C67E:  BCF    FA6.7
0C680:  BSF    FA6.2
0C682:  MOVF   FF2,W
0C684:  MOVWF  00
0C686:  BCF    FF2.6
0C688:  BCF    FF2.7
0C68A:  MOVLB  F
0C68C:  MOVLW  55
0C68E:  MOVWF  FA7
0C690:  MOVLW  AA
0C692:  MOVWF  FA7
0C694:  BSF    FA6.1
0C696:  BTFSC  FA6.1
0C698:  BRA    C696
0C69A:  BCF    FA6.2
0C69C:  MOVF   00,W
0C69E:  IORWF  FF2,F
....................                delay_ms(10); 
0C6A0:  MOVLW  0A
0C6A2:  MOVLB  6
0C6A4:  MOVWF  xFA
0C6A6:  MOVLB  0
0C6A8:  CALL   1148
....................                write_eeprom(32,(int8)Integral); 
0C6AC:  CLRF   FAA
0C6AE:  MOVLW  20
0C6B0:  MOVWF  FA9
0C6B2:  MOVFF  1D9,FA8
0C6B6:  BCF    FA6.6
0C6B8:  BCF    FA6.7
0C6BA:  BSF    FA6.2
0C6BC:  MOVF   FF2,W
0C6BE:  MOVWF  00
0C6C0:  BCF    FF2.6
0C6C2:  BCF    FF2.7
0C6C4:  MOVLB  F
0C6C6:  MOVLW  55
0C6C8:  MOVWF  FA7
0C6CA:  MOVLW  AA
0C6CC:  MOVWF  FA7
0C6CE:  BSF    FA6.1
0C6D0:  BTFSC  FA6.1
0C6D2:  BRA    C6D0
0C6D4:  BCF    FA6.2
0C6D6:  MOVF   00,W
0C6D8:  IORWF  FF2,F
....................                delay_ms(10); 
0C6DA:  MOVLW  0A
0C6DC:  MOVLB  6
0C6DE:  MOVWF  xFA
0C6E0:  MOVLB  0
0C6E2:  CALL   1148
....................                write_eeprom(31,(int8)Derivativo); 
0C6E6:  CLRF   FAA
0C6E8:  MOVLW  1F
0C6EA:  MOVWF  FA9
0C6EC:  MOVFF  1D8,FA8
0C6F0:  BCF    FA6.6
0C6F2:  BCF    FA6.7
0C6F4:  BSF    FA6.2
0C6F6:  MOVF   FF2,W
0C6F8:  MOVWF  00
0C6FA:  BCF    FF2.6
0C6FC:  BCF    FF2.7
0C6FE:  MOVLB  F
0C700:  MOVLW  55
0C702:  MOVWF  FA7
0C704:  MOVLW  AA
0C706:  MOVWF  FA7
0C708:  BSF    FA6.1
0C70A:  BTFSC  FA6.1
0C70C:  BRA    C70A
0C70E:  BCF    FA6.2
0C710:  MOVF   00,W
0C712:  IORWF  FF2,F
....................                delay_ms(10); 
0C714:  MOVLW  0A
0C716:  MOVLB  6
0C718:  MOVWF  xFA
0C71A:  MOVLB  0
0C71C:  CALL   1148
....................                write_eeprom(30,(int8)GananciaR); 
0C720:  MOVFF  253,705
0C724:  MOVFF  252,704
0C728:  MOVFF  251,703
0C72C:  MOVFF  250,702
0C730:  CALL   371E
0C734:  MOVFF  01,6F1
0C738:  CLRF   FAA
0C73A:  MOVLW  1E
0C73C:  MOVWF  FA9
0C73E:  MOVFF  6F1,FA8
0C742:  BCF    FA6.6
0C744:  BCF    FA6.7
0C746:  BSF    FA6.2
0C748:  MOVF   FF2,W
0C74A:  MOVWF  00
0C74C:  BCF    FF2.6
0C74E:  BCF    FF2.7
0C750:  MOVLB  F
0C752:  MOVLW  55
0C754:  MOVWF  FA7
0C756:  MOVLW  AA
0C758:  MOVWF  FA7
0C75A:  BSF    FA6.1
0C75C:  BTFSC  FA6.1
0C75E:  BRA    C75C
0C760:  BCF    FA6.2
0C762:  MOVF   00,W
0C764:  IORWF  FF2,F
....................                delay_ms(10); 
0C766:  MOVLW  0A
0C768:  MOVLB  6
0C76A:  MOVWF  xFA
0C76C:  MOVLB  0
0C76E:  CALL   1148
....................                write_eeprom(34,(int8)(Histeresis*10.0)); 
0C772:  MOVFF  283,710
0C776:  MOVFF  282,70F
0C77A:  MOVFF  281,70E
0C77E:  MOVFF  280,70D
0C782:  MOVLB  7
0C784:  CLRF   x14
0C786:  CLRF   x13
0C788:  MOVLW  20
0C78A:  MOVWF  x12
0C78C:  MOVLW  82
0C78E:  MOVWF  x11
0C790:  MOVLB  0
0C792:  CALL   15CA
0C796:  MOVFF  03,705
0C79A:  MOVFF  02,704
0C79E:  MOVFF  01,703
0C7A2:  MOVFF  00,702
0C7A6:  CALL   371E
0C7AA:  MOVFF  01,6F1
0C7AE:  CLRF   FAA
0C7B0:  MOVLW  22
0C7B2:  MOVWF  FA9
0C7B4:  MOVFF  6F1,FA8
0C7B8:  BCF    FA6.6
0C7BA:  BCF    FA6.7
0C7BC:  BSF    FA6.2
0C7BE:  MOVF   FF2,W
0C7C0:  MOVWF  00
0C7C2:  BCF    FF2.6
0C7C4:  BCF    FF2.7
0C7C6:  MOVLB  F
0C7C8:  MOVLW  55
0C7CA:  MOVWF  FA7
0C7CC:  MOVLW  AA
0C7CE:  MOVWF  FA7
0C7D0:  BSF    FA6.1
0C7D2:  BTFSC  FA6.1
0C7D4:  BRA    C7D2
0C7D6:  BCF    FA6.2
0C7D8:  MOVF   00,W
0C7DA:  IORWF  FF2,F
....................                delay_ms(10); 
0C7DC:  MOVLW  0A
0C7DE:  MOVLB  6
0C7E0:  MOVWF  xFA
0C7E2:  MOVLB  0
0C7E4:  CALL   1148
....................                write_eeprom(36,(int8)MediaMovil); 
0C7E8:  CLRF   FAA
0C7EA:  MOVLW  24
0C7EC:  MOVWF  FA9
0C7EE:  MOVFF  1D1,FA8
0C7F2:  BCF    FA6.6
0C7F4:  BCF    FA6.7
0C7F6:  BSF    FA6.2
0C7F8:  MOVF   FF2,W
0C7FA:  MOVWF  00
0C7FC:  BCF    FF2.6
0C7FE:  BCF    FF2.7
0C800:  MOVLB  F
0C802:  MOVLW  55
0C804:  MOVWF  FA7
0C806:  MOVLW  AA
0C808:  MOVWF  FA7
0C80A:  BSF    FA6.1
0C80C:  BTFSC  FA6.1
0C80E:  BRA    C80C
0C810:  BCF    FA6.2
0C812:  MOVF   00,W
0C814:  IORWF  FF2,F
....................                delay_ms(10); 
0C816:  MOVLW  0A
0C818:  MOVLB  6
0C81A:  MOVWF  xFA
0C81C:  MOVLB  0
0C81E:  CALL   1148
....................                write_eeprom(33,(int8)Tciclo); 
0C822:  MOVFF  237,705
0C826:  MOVFF  236,704
0C82A:  MOVFF  235,703
0C82E:  MOVFF  234,702
0C832:  CALL   371E
0C836:  MOVFF  01,6F1
0C83A:  CLRF   FAA
0C83C:  MOVLW  21
0C83E:  MOVWF  FA9
0C840:  MOVFF  6F1,FA8
0C844:  BCF    FA6.6
0C846:  BCF    FA6.7
0C848:  BSF    FA6.2
0C84A:  MOVF   FF2,W
0C84C:  MOVWF  00
0C84E:  BCF    FF2.6
0C850:  BCF    FF2.7
0C852:  MOVLB  F
0C854:  MOVLW  55
0C856:  MOVWF  FA7
0C858:  MOVLW  AA
0C85A:  MOVWF  FA7
0C85C:  BSF    FA6.1
0C85E:  BTFSC  FA6.1
0C860:  BRA    C85E
0C862:  BCF    FA6.2
0C864:  MOVF   00,W
0C866:  IORWF  FF2,F
....................                delay_ms(10); 
0C868:  MOVLW  0A
0C86A:  MOVLB  6
0C86C:  MOVWF  xFA
0C86E:  MOVLB  0
0C870:  CALL   1148
....................                GuardaEEPROM=ON; 
0C874:  MOVLB  1
0C876:  BSF    xC9.2
....................                Buzzer_on; 
0C878:  BSF    F8C.7
0C87A:  BCF    F95.7
....................                delay_ms(1000); 
0C87C:  MOVLW  04
0C87E:  MOVLB  6
0C880:  MOVWF  xF1
0C882:  MOVLW  FA
0C884:  MOVWF  xFA
0C886:  MOVLB  0
0C888:  CALL   1148
0C88C:  MOVLB  6
0C88E:  DECFSZ xF1,F
0C890:  BRA    C882
....................                Buzzer_off; 
0C892:  BCF    F8C.7
0C894:  BCF    F95.7
....................                Ganancia=GananciaR*(Setpoint/200); 
0C896:  MOVFF  273,6FE
0C89A:  MOVFF  272,6FD
0C89E:  MOVFF  271,6FC
0C8A2:  MOVFF  270,6FB
0C8A6:  MOVLB  7
0C8A8:  CLRF   x02
0C8AA:  CLRF   x01
0C8AC:  MOVLW  48
0C8AE:  MOVWF  x00
0C8B0:  MOVLW  86
0C8B2:  MOVLB  6
0C8B4:  MOVWF  xFF
0C8B6:  MOVLB  0
0C8B8:  CALL   1170
0C8BC:  MOVFF  253,710
0C8C0:  MOVFF  252,70F
0C8C4:  MOVFF  251,70E
0C8C8:  MOVFF  250,70D
0C8CC:  MOVFF  03,714
0C8D0:  MOVFF  02,713
0C8D4:  MOVFF  01,712
0C8D8:  MOVFF  00,711
0C8DC:  CALL   15CA
0C8E0:  MOVFF  03,24F
0C8E4:  MOVFF  02,24E
0C8E8:  MOVFF  01,24D
0C8EC:  MOVFF  00,24C
0C8F0:  MOVLB  1
....................             } 
....................             printf("page Principal"); 
0C8F2:  MOVLW  88
0C8F4:  MOVWF  FF6
0C8F6:  MOVLW  10
0C8F8:  MOVWF  FF7
0C8FA:  MOVLW  00
0C8FC:  MOVWF  FF8
0C8FE:  MOVLB  0
0C900:  CALL   2CE6
....................             SendDataDisplay(); 
0C904:  CALL   2D18
....................          } 
....................       } 
....................       printf("fecha.txt=\"Fecha:%02u/%02u/20%02u    Hora: %02u:%02u\"",Dia,Mes,Year,Hora,Minuto); 
0C908:  MOVLW  98
0C90A:  MOVWF  FF6
0C90C:  MOVLW  10
0C90E:  MOVWF  FF7
0C910:  MOVLW  00
0C912:  MOVWF  FF8
0C914:  MOVLW  11
0C916:  MOVLB  6
0C918:  MOVWF  xF9
0C91A:  MOVLB  0
0C91C:  CALL   3AD4
0C920:  MOVFF  2CE,6F2
0C924:  MOVLW  01
0C926:  MOVLB  6
0C928:  MOVWF  xF3
0C92A:  MOVLB  0
0C92C:  CALL   3B32
0C930:  MOVLW  2F
0C932:  BTFSS  F9E.4
0C934:  BRA    C932
0C936:  MOVWF  FAD
0C938:  MOVFF  2CD,6F2
0C93C:  MOVLW  01
0C93E:  MOVLB  6
0C940:  MOVWF  xF3
0C942:  MOVLB  0
0C944:  CALL   3B32
0C948:  MOVLW  2F
0C94A:  BTFSS  F9E.4
0C94C:  BRA    C94A
0C94E:  MOVWF  FAD
0C950:  MOVLW  32
0C952:  BTFSS  F9E.4
0C954:  BRA    C952
0C956:  MOVWF  FAD
0C958:  MOVLW  30
0C95A:  BTFSS  F9E.4
0C95C:  BRA    C95A
0C95E:  MOVWF  FAD
0C960:  MOVFF  2CC,6F2
0C964:  MOVLW  01
0C966:  MOVLB  6
0C968:  MOVWF  xF3
0C96A:  MOVLB  0
0C96C:  CALL   3B32
0C970:  MOVLW  B9
0C972:  MOVWF  FF6
0C974:  MOVLW  10
0C976:  MOVWF  FF7
0C978:  MOVLW  00
0C97A:  MOVWF  FF8
0C97C:  MOVLW  0A
0C97E:  MOVLB  6
0C980:  MOVWF  xF9
0C982:  MOVLB  0
0C984:  CALL   3AD4
0C988:  MOVFF  2CF,6F2
0C98C:  MOVLW  01
0C98E:  MOVLB  6
0C990:  MOVWF  xF3
0C992:  MOVLB  0
0C994:  CALL   3B32
0C998:  MOVLW  3A
0C99A:  BTFSS  F9E.4
0C99C:  BRA    C99A
0C99E:  MOVWF  FAD
0C9A0:  MOVFF  2D0,6F2
0C9A4:  MOVLW  01
0C9A6:  MOVLB  6
0C9A8:  MOVWF  xF3
0C9AA:  MOVLB  0
0C9AC:  CALL   3B32
0C9B0:  MOVLW  22
0C9B2:  BTFSS  F9E.4
0C9B4:  BRA    C9B2
0C9B6:  MOVWF  FAD
....................       SendDataDisplay();  
0C9B8:  CALL   2D18
0C9BC:  MOVLB  1
....................     } 
.................... //_--------------------------------------------------------------------------------------------------------------------------------------------------------        
....................        
....................    } 
0C9BE:  GOTO   7396
.................... } 
0C9C2:  SLEEP 

Configuration Fuses:
   Word  1: 0200   HS NOIESO NOFCMEN
   Word  2: 1B1F   BROWNOUT WDT BORV20 NOPUT WDT8192
   Word  3: 0000   NOPBADEN NOLPT1OSC NOMCLR
   Word  4: 00B0   NOSTVREN NODEBUG NOLVP NOXINST BBSIZ4K
   Word  5: C03F   NOPROTECT NOCPD NOCPB
   Word  6: E03F   NOWRT NOWRTD NOWRTC NOWRTB
   Word  7: 403F   NOEBTR NOEBTRB
