ARM GAS  C:\Users\USUARIO\AppData\Local\Temp\cc3ZEDd3.s 			page 1


   1              		.syntax unified
   2              		.cpu cortex-m3
   3              		.fpu softvfp
   4              		.eabi_attribute 20, 1
   5              		.eabi_attribute 21, 1
   6              		.eabi_attribute 23, 3
   7              		.eabi_attribute 24, 1
   8              		.eabi_attribute 25, 1
   9              		.eabi_attribute 26, 1
  10              		.eabi_attribute 30, 1
  11              		.eabi_attribute 34, 1
  12              		.eabi_attribute 18, 4
  13              		.thumb
  14              		.syntax unified
  15              		.file	"BMP180.c"
  16              		.text
  17              	.Ltext0:
  18              		.cfi_sections	.debug_frame
  19              		.section	.text.ReadSensorCalibrationData,"ax",%progbits
  20              		.align	2
  21              		.global	ReadSensorCalibrationData
  22              		.thumb
  23              		.thumb_func
  24              		.type	ReadSensorCalibrationData, %function
  25              	ReadSensorCalibrationData:
  26              	.LFB63:
  27              		.file 1 "BMP180.c"
   1:BMP180.c      **** /* ========================================
   2:BMP180.c      ****  *
   3:BMP180.c      ****  * Copyright YOUR COMPANY, THE YEAR
   4:BMP180.c      ****  * All Rights Reserved
   5:BMP180.c      ****  * UNPUBLISHED, LICENSED SOFTWARE.
   6:BMP180.c      ****  *
   7:BMP180.c      ****  * CONFIDENTIAL AND PROPRIETARY INFORMATION
   8:BMP180.c      ****  * WHICH IS THE PROPERTY OF your company.
   9:BMP180.c      ****  *
  10:BMP180.c      ****  * ========================================
  11:BMP180.c      **** */
  12:BMP180.c      **** 
  13:BMP180.c      **** #include <BMP180.h>
  14:BMP180.c      **** 
  15:BMP180.c      **** 
  16:BMP180.c      **** /*************************Variables Declaration****************************************************
  17:BMP180.c      **** uint8 SensorCalibrationData[0x16]; //Calibration data is stored in this array
  18:BMP180.c      **** long X1, X2, X3, B3, B5, B6, UT, UP; //Variables to store calibration coefficients
  19:BMP180.c      **** unsigned long B4, B7; //Variables to store calibration coefficients
  20:BMP180.c      **** short AC1, AC2, AC3, B1, B2, MC, MD; //Variables to store calibration coefficients
  21:BMP180.c      **** unsigned short AC4, AC5, AC6; //Variables to store calibration coefficients
  22:BMP180.c      **** long UT, UP; //Variables to store uncompensated temperature and pressure data
  23:BMP180.c      **** double PressureAtSeaLevel = 101325.0; //Pressure at sea level in Pascal
  24:BMP180.c      **** uint8 CalibrationDataAvailable = FALSE; //This flag is to whether the calibration data is available
  25:BMP180.c      **** /**************************************************************************************************
  26:BMP180.c      **** char8 str[12];    
  27:BMP180.c      **** 
  28:BMP180.c      **** /**************************************************************************************************
  29:BMP180.c      **** * Function Name: ReadSensorCalibrationData
  30:BMP180.c      **** ***************************************************************************************************
ARM GAS  C:\Users\USUARIO\AppData\Local\Temp\cc3ZEDd3.s 			page 2


  31:BMP180.c      **** * Summary: This function reads the sensor calibration data over I2C and
  32:BMP180.c      **** * assigns it to the appropriate sensor coefficient variables.
  33:BMP180.c      **** *
  34:BMP180.c      **** * Parameters:
  35:BMP180.c      **** *  void
  36:BMP180.c      **** *
  37:BMP180.c      **** * Return:
  38:BMP180.c      **** *  void
  39:BMP180.c      **** *
  40:BMP180.c      **** ***************************************************************************************************
  41:BMP180.c      **** void ReadSensorCalibrationData(void)
  42:BMP180.c      **** {
  28              		.loc 1 42 0
  29              		.cfi_startproc
  30              		@ args = 0, pretend = 0, frame = 0
  31              		@ frame_needed = 0, uses_anonymous_args = 0
  32 0000 08B5     		push	{r3, lr}
  33              		.cfi_def_cfa_offset 8
  34              		.cfi_offset 3, -8
  35              		.cfi_offset 14, -4
  43:BMP180.c      ****     static uint8 I2CWriteBuffer[0x01] = {0xAA}; //Location from which the calibration data is to be
  44:BMP180.c      ****     
  45:BMP180.c      ****     /* Do a write operation with the memory address bytes to get calibration data */
  46:BMP180.c      **** 	I2C_MasterWriteBuf(I2CSlaveAddress, (uint8 *) I2CWriteBuffer, sizeof(I2CWriteBuffer), I2C_MODE_COM
  36              		.loc 1 46 0
  37 0002 0023     		movs	r3, #0
  38 0004 0122     		movs	r2, #1
  39 0006 2C49     		ldr	r1, .L5
  40 0008 7720     		movs	r0, #119
  41 000a FFF7FEFF 		bl	I2C_MasterWriteBuf
  42              	.LVL0:
  43              	.L2:
  47:BMP180.c      ****     while(!(I2C_MasterStatus() & I2C_MSTAT_WR_CMPLT)); //Wait till the master completes writing
  44              		.loc 1 47 0 discriminator 1
  45 000e FFF7FEFF 		bl	I2C_MasterStatus
  46              	.LVL1:
  47 0012 10F0020F 		tst	r0, #2
  48 0016 FAD0     		beq	.L2
  48:BMP180.c      ****     I2C_MasterClearStatus(); //Clear I2C master status
  49              		.loc 1 48 0
  50 0018 FFF7FEFF 		bl	I2C_MasterClearStatus
  51              	.LVL2:
  49:BMP180.c      ****     
  50:BMP180.c      ****     /* Read calibration from the sensor EEPROM and store it in a buffer */
  51:BMP180.c      **** 	I2C_MasterReadBuf(I2CSlaveAddress, (uint8 *) SensorCalibrationData, sizeof(SensorCalibrationData),
  52              		.loc 1 51 0
  53 001c 0023     		movs	r3, #0
  54 001e 1622     		movs	r2, #22
  55 0020 2649     		ldr	r1, .L5+4
  56 0022 7720     		movs	r0, #119
  57 0024 FFF7FEFF 		bl	I2C_MasterReadBuf
  58              	.LVL3:
  59              	.L3:
  52:BMP180.c      ****     while(!(I2C_MasterStatus() & I2C_MSTAT_RD_CMPLT)); //Wait till the master completes reading
  60              		.loc 1 52 0 discriminator 1
  61 0028 FFF7FEFF 		bl	I2C_MasterStatus
  62              	.LVL4:
ARM GAS  C:\Users\USUARIO\AppData\Local\Temp\cc3ZEDd3.s 			page 3


  63 002c 10F0010F 		tst	r0, #1
  64 0030 FAD0     		beq	.L3
  53:BMP180.c      ****     I2C_MasterClearStatus(); //Clear I2C master status
  65              		.loc 1 53 0
  66 0032 FFF7FEFF 		bl	I2C_MasterClearStatus
  67              	.LVL5:
  54:BMP180.c      ****     
  55:BMP180.c      ****     CalibrationDataAvailable = TRUE; //Set sensor calibration data available flag
  68              		.loc 1 55 0
  69 0036 0122     		movs	r2, #1
  70 0038 214B     		ldr	r3, .L5+8
  71 003a 1A70     		strb	r2, [r3]
  56:BMP180.c      ****     
  57:BMP180.c      ****     /* Assign calibration data to coefficient variables as described in sensor datasheet */
  58:BMP180.c      ****     AC1 = (SensorCalibrationData[0x00] << 0x08) | SensorCalibrationData[0x01];
  72              		.loc 1 58 0
  73 003c 1F4B     		ldr	r3, .L5+4
  74 003e 1978     		ldrb	r1, [r3]	@ zero_extendqisi2
  75 0040 5A78     		ldrb	r2, [r3, #1]	@ zero_extendqisi2
  76 0042 42EA0122 		orr	r2, r2, r1, lsl #8
  77 0046 1F49     		ldr	r1, .L5+12
  78 0048 0A80     		strh	r2, [r1]	@ movhi
  59:BMP180.c      ****     AC2 = (SensorCalibrationData[0x02] << 0x08) | SensorCalibrationData[0x03];
  79              		.loc 1 59 0
  80 004a 9978     		ldrb	r1, [r3, #2]	@ zero_extendqisi2
  81 004c DA78     		ldrb	r2, [r3, #3]	@ zero_extendqisi2
  82 004e 42EA0122 		orr	r2, r2, r1, lsl #8
  83 0052 1D49     		ldr	r1, .L5+16
  84 0054 0A80     		strh	r2, [r1]	@ movhi
  60:BMP180.c      ****     AC3 = (SensorCalibrationData[0x04] << 0x08) | SensorCalibrationData[0x05];
  85              		.loc 1 60 0
  86 0056 1979     		ldrb	r1, [r3, #4]	@ zero_extendqisi2
  87 0058 5A79     		ldrb	r2, [r3, #5]	@ zero_extendqisi2
  88 005a 42EA0122 		orr	r2, r2, r1, lsl #8
  89 005e 1B49     		ldr	r1, .L5+20
  90 0060 0A80     		strh	r2, [r1]	@ movhi
  61:BMP180.c      ****     AC4 = (SensorCalibrationData[0x06] << 0x08) | SensorCalibrationData[0x07];
  91              		.loc 1 61 0
  92 0062 9979     		ldrb	r1, [r3, #6]	@ zero_extendqisi2
  93 0064 DA79     		ldrb	r2, [r3, #7]	@ zero_extendqisi2
  94 0066 42EA0122 		orr	r2, r2, r1, lsl #8
  95 006a 1949     		ldr	r1, .L5+24
  96 006c 0A80     		strh	r2, [r1]	@ movhi
  62:BMP180.c      ****     AC5 = (SensorCalibrationData[0x08] << 0x08) | SensorCalibrationData[0x09];
  97              		.loc 1 62 0
  98 006e 197A     		ldrb	r1, [r3, #8]	@ zero_extendqisi2
  99 0070 5A7A     		ldrb	r2, [r3, #9]	@ zero_extendqisi2
 100 0072 42EA0122 		orr	r2, r2, r1, lsl #8
 101 0076 1749     		ldr	r1, .L5+28
 102 0078 0A80     		strh	r2, [r1]	@ movhi
  63:BMP180.c      ****     AC6 = (SensorCalibrationData[0x0A] << 0x08) | SensorCalibrationData[0x0B];
 103              		.loc 1 63 0
 104 007a 997A     		ldrb	r1, [r3, #10]	@ zero_extendqisi2
 105 007c DA7A     		ldrb	r2, [r3, #11]	@ zero_extendqisi2
 106 007e 42EA0122 		orr	r2, r2, r1, lsl #8
 107 0082 1549     		ldr	r1, .L5+32
 108 0084 0A80     		strh	r2, [r1]	@ movhi
ARM GAS  C:\Users\USUARIO\AppData\Local\Temp\cc3ZEDd3.s 			page 4


  64:BMP180.c      ****     B1 = (SensorCalibrationData[0x0C] << 0x08) | SensorCalibrationData[0x0D];
 109              		.loc 1 64 0
 110 0086 197B     		ldrb	r1, [r3, #12]	@ zero_extendqisi2
 111 0088 5A7B     		ldrb	r2, [r3, #13]	@ zero_extendqisi2
 112 008a 42EA0122 		orr	r2, r2, r1, lsl #8
 113 008e 1349     		ldr	r1, .L5+36
 114 0090 0A80     		strh	r2, [r1]	@ movhi
  65:BMP180.c      ****     B2 = (SensorCalibrationData[0x0E] << 0x08) | SensorCalibrationData[0x0F];
 115              		.loc 1 65 0
 116 0092 997B     		ldrb	r1, [r3, #14]	@ zero_extendqisi2
 117 0094 DA7B     		ldrb	r2, [r3, #15]	@ zero_extendqisi2
 118 0096 42EA0122 		orr	r2, r2, r1, lsl #8
 119 009a 1149     		ldr	r1, .L5+40
 120 009c 0A80     		strh	r2, [r1]	@ movhi
  66:BMP180.c      ****     MC = (SensorCalibrationData[0x012] << 0x08) | SensorCalibrationData[0x013];
 121              		.loc 1 66 0
 122 009e 997C     		ldrb	r1, [r3, #18]	@ zero_extendqisi2
 123 00a0 DA7C     		ldrb	r2, [r3, #19]	@ zero_extendqisi2
 124 00a2 42EA0122 		orr	r2, r2, r1, lsl #8
 125 00a6 0F49     		ldr	r1, .L5+44
 126 00a8 0A80     		strh	r2, [r1]	@ movhi
  67:BMP180.c      ****     MD = (SensorCalibrationData[0x014] << 0x08) | SensorCalibrationData[0x015];
 127              		.loc 1 67 0
 128 00aa 1A7D     		ldrb	r2, [r3, #20]	@ zero_extendqisi2
 129 00ac 5B7D     		ldrb	r3, [r3, #21]	@ zero_extendqisi2
 130 00ae 43EA0223 		orr	r3, r3, r2, lsl #8
 131 00b2 0D4A     		ldr	r2, .L5+48
 132 00b4 1380     		strh	r3, [r2]	@ movhi
 133 00b6 08BD     		pop	{r3, pc}
 134              	.L6:
 135              		.align	2
 136              	.L5:
 137 00b8 00000000 		.word	.LANCHOR0
 138 00bc 00000000 		.word	SensorCalibrationData
 139 00c0 00000000 		.word	.LANCHOR1
 140 00c4 00000000 		.word	AC1
 141 00c8 00000000 		.word	AC2
 142 00cc 00000000 		.word	AC3
 143 00d0 00000000 		.word	AC4
 144 00d4 00000000 		.word	AC5
 145 00d8 00000000 		.word	AC6
 146 00dc 00000000 		.word	B1
 147 00e0 00000000 		.word	B2
 148 00e4 00000000 		.word	MC
 149 00e8 00000000 		.word	MD
 150              		.cfi_endproc
 151              	.LFE63:
 152              		.size	ReadSensorCalibrationData, .-ReadSensorCalibrationData
 153              		.section	.text.ReadUncompensatedTemperature,"ax",%progbits
 154              		.align	2
 155              		.global	ReadUncompensatedTemperature
 156              		.thumb
 157              		.thumb_func
 158              		.type	ReadUncompensatedTemperature, %function
 159              	ReadUncompensatedTemperature:
 160              	.LFB64:
  68:BMP180.c      **** }
ARM GAS  C:\Users\USUARIO\AppData\Local\Temp\cc3ZEDd3.s 			page 5


  69:BMP180.c      **** /**************************************************************************************************
  70:BMP180.c      **** 
  71:BMP180.c      **** /**************************************************************************************************
  72:BMP180.c      **** * Function Name: ReadUncompensatedTemperature
  73:BMP180.c      **** ***************************************************************************************************
  74:BMP180.c      **** * Summary: This function writes the temperature conversion command to the sensor and
  75:BMP180.c      **** * waits for conversion to complete, and then reads the converted data (uncompensated temperature) a
  76:BMP180.c      **** *
  77:BMP180.c      **** * Parameters:
  78:BMP180.c      **** *  void
  79:BMP180.c      **** *
  80:BMP180.c      **** * Return:
  81:BMP180.c      **** *  void
  82:BMP180.c      **** *
  83:BMP180.c      **** ***************************************************************************************************
  84:BMP180.c      **** void ReadUncompensatedTemperature(void)
  85:BMP180.c      **** {
 161              		.loc 1 85 0
 162              		.cfi_startproc
 163              		@ args = 0, pretend = 0, frame = 0
 164              		@ frame_needed = 0, uses_anonymous_args = 0
 165 0000 08B5     		push	{r3, lr}
 166              		.cfi_def_cfa_offset 8
 167              		.cfi_offset 3, -8
 168              		.cfi_offset 14, -4
  86:BMP180.c      ****     static uint8 I2CReadBuffer[0x02]; //The uncompensated temperature read from the sensor is store
  87:BMP180.c      ****     static uint8 I2CWriteBuffer[0x02] = {0xF4, 0x2E}; //Command for temperature conversion - Regist
  88:BMP180.c      ****     static uint8 SetReadAddressBuffer[0x01] = {0xF6}; //Register address from which the data is rea
  89:BMP180.c      ****     
  90:BMP180.c      ****     /* Do a write operation with the memory address bytes to get temperature data */
  91:BMP180.c      **** 	I2C_MasterWriteBuf(I2CSlaveAddress, (uint8 *) I2CWriteBuffer, sizeof(I2CWriteBuffer), I2C_MODE_COM
 169              		.loc 1 91 0
 170 0002 0023     		movs	r3, #0
 171 0004 0222     		movs	r2, #2
 172 0006 1849     		ldr	r1, .L12
 173 0008 7720     		movs	r0, #119
 174 000a FFF7FEFF 		bl	I2C_MasterWriteBuf
 175              	.LVL6:
 176              	.L8:
  92:BMP180.c      ****     while(!(I2C_MasterStatus() & I2C_MSTAT_WR_CMPLT)); //Wait till the master completes writing
 177              		.loc 1 92 0 discriminator 1
 178 000e FFF7FEFF 		bl	I2C_MasterStatus
 179              	.LVL7:
 180 0012 10F0020F 		tst	r0, #2
 181 0016 FAD0     		beq	.L8
  93:BMP180.c      ****     I2C_MasterClearStatus(); //Clear I2C master status
 182              		.loc 1 93 0
 183 0018 FFF7FEFF 		bl	I2C_MasterClearStatus
 184              	.LVL8:
  94:BMP180.c      ****     
  95:BMP180.c      ****     CyDelay(5); //Wait for 5ms temperature conversion
 185              		.loc 1 95 0
 186 001c 0520     		movs	r0, #5
 187 001e FFF7FEFF 		bl	CyDelay
 188              	.LVL9:
  96:BMP180.c      ****     
  97:BMP180.c      ****     /* In order to do a read from a specific address, do a write operation with the memory address 
ARM GAS  C:\Users\USUARIO\AppData\Local\Temp\cc3ZEDd3.s 			page 6


  98:BMP180.c      **** 	I2C_MasterWriteBuf(I2CSlaveAddress, (uint8 *) SetReadAddressBuffer, sizeof(SetReadAddressBuffer), 
 189              		.loc 1 98 0
 190 0022 0023     		movs	r3, #0
 191 0024 0122     		movs	r2, #1
 192 0026 1149     		ldr	r1, .L12+4
 193 0028 7720     		movs	r0, #119
 194 002a FFF7FEFF 		bl	I2C_MasterWriteBuf
 195              	.LVL10:
 196              	.L9:
  99:BMP180.c      ****     while(!(I2C_MasterStatus() & I2C_MSTAT_WR_CMPLT)); //Wait till the master completes writing
 197              		.loc 1 99 0 discriminator 1
 198 002e FFF7FEFF 		bl	I2C_MasterStatus
 199              	.LVL11:
 200 0032 10F0020F 		tst	r0, #2
 201 0036 FAD0     		beq	.L9
 100:BMP180.c      ****     I2C_MasterClearStatus(); //Clear I2C master status
 202              		.loc 1 100 0
 203 0038 FFF7FEFF 		bl	I2C_MasterClearStatus
 204              	.LVL12:
 101:BMP180.c      ****     
 102:BMP180.c      ****     /* Read temperature from the sensor and store it in a buffer */
 103:BMP180.c      **** 	I2C_MasterReadBuf(I2CSlaveAddress, (uint8 *) I2CReadBuffer, sizeof(I2CReadBuffer), I2C_MODE_COMPLE
 205              		.loc 1 103 0
 206 003c 0023     		movs	r3, #0
 207 003e 0222     		movs	r2, #2
 208 0040 0B49     		ldr	r1, .L12+8
 209 0042 7720     		movs	r0, #119
 210 0044 FFF7FEFF 		bl	I2C_MasterReadBuf
 211              	.LVL13:
 212              	.L10:
 104:BMP180.c      ****     while(!(I2C_MasterStatus() & I2C_MSTAT_RD_CMPLT)); //Wait till the master completes reading
 213              		.loc 1 104 0 discriminator 1
 214 0048 FFF7FEFF 		bl	I2C_MasterStatus
 215              	.LVL14:
 216 004c 10F0010F 		tst	r0, #1
 217 0050 FAD0     		beq	.L10
 105:BMP180.c      ****     I2C_MasterClearStatus(); //Clear I2C master status
 218              		.loc 1 105 0
 219 0052 FFF7FEFF 		bl	I2C_MasterClearStatus
 220              	.LVL15:
 106:BMP180.c      ****     
 107:BMP180.c      **** 	UT = (I2CReadBuffer[0x00] << 0x08) | I2CReadBuffer[0x01]; //Return uncompensated temperature value
 221              		.loc 1 107 0
 222 0056 074A     		ldr	r2, .L12+12
 223 0058 1179     		ldrb	r1, [r2, #4]	@ zero_extendqisi2
 224 005a 5379     		ldrb	r3, [r2, #5]	@ zero_extendqisi2
 225 005c 43EA0123 		orr	r3, r3, r1, lsl #8
 226 0060 054A     		ldr	r2, .L12+16
 227 0062 1360     		str	r3, [r2]
 228 0064 08BD     		pop	{r3, pc}
 229              	.L13:
 230 0066 00BF     		.align	2
 231              	.L12:
 232 0068 04000000 		.word	.LANCHOR0+4
 233 006c 08000000 		.word	.LANCHOR0+8
 234 0070 04000000 		.word	.LANCHOR1+4
 235 0074 00000000 		.word	.LANCHOR1
ARM GAS  C:\Users\USUARIO\AppData\Local\Temp\cc3ZEDd3.s 			page 7


 236 0078 00000000 		.word	UT
 237              		.cfi_endproc
 238              	.LFE64:
 239              		.size	ReadUncompensatedTemperature, .-ReadUncompensatedTemperature
 240              		.section	.text.ReadUncompensatedPressure,"ax",%progbits
 241              		.align	2
 242              		.global	ReadUncompensatedPressure
 243              		.thumb
 244              		.thumb_func
 245              		.type	ReadUncompensatedPressure, %function
 246              	ReadUncompensatedPressure:
 247              	.LFB65:
 108:BMP180.c      **** }
 109:BMP180.c      **** /**************************************************************************************************
 110:BMP180.c      **** 
 111:BMP180.c      **** /**************************************************************************************************
 112:BMP180.c      **** * Function Name: ReadUncompensatedPressure
 113:BMP180.c      **** ***************************************************************************************************
 114:BMP180.c      **** * Summary: This function writes the pressure conversion command to the sensor and
 115:BMP180.c      **** * waits for conversion to complete, and then reads the converted data (uncompensated pressure) and 
 116:BMP180.c      **** *
 117:BMP180.c      **** * Parameters:
 118:BMP180.c      **** *  void
 119:BMP180.c      **** *
 120:BMP180.c      **** * Return:
 121:BMP180.c      **** *  void
 122:BMP180.c      **** *
 123:BMP180.c      **** ***************************************************************************************************
 124:BMP180.c      **** void ReadUncompensatedPressure(void)
 125:BMP180.c      **** {
 248              		.loc 1 125 0
 249              		.cfi_startproc
 250              		@ args = 0, pretend = 0, frame = 0
 251              		@ frame_needed = 0, uses_anonymous_args = 0
 252 0000 08B5     		push	{r3, lr}
 253              		.cfi_def_cfa_offset 8
 254              		.cfi_offset 3, -8
 255              		.cfi_offset 14, -4
 126:BMP180.c      ****     static uint8 I2CReadBuffer[0x03]; //The uncompensated pressure read from the sensor is stored h
 127:BMP180.c      ****     static uint8 I2CWriteBuffer[0x02] = {0xF4, 0x34 + (OSS << 0x06)}; //Command for pressure conver
 128:BMP180.c      ****     static uint8 SetReadAddressBuffer[0x01] = {0xF6}; //Register address from which the data is rea
 129:BMP180.c      ****     
 130:BMP180.c      ****     /* Do a write operation with the memory address bytes to get pressure data */
 131:BMP180.c      **** 	I2C_MasterWriteBuf(I2CSlaveAddress, (uint8 *) I2CWriteBuffer, sizeof(I2CWriteBuffer), I2C_MODE_COM
 256              		.loc 1 131 0
 257 0002 0023     		movs	r3, #0
 258 0004 0222     		movs	r2, #2
 259 0006 1A49     		ldr	r1, .L19
 260 0008 7720     		movs	r0, #119
 261 000a FFF7FEFF 		bl	I2C_MasterWriteBuf
 262              	.LVL16:
 263              	.L15:
 132:BMP180.c      ****     while(!(I2C_MasterStatus() & I2C_MSTAT_WR_CMPLT)); //Wait till the master completes writing
 264              		.loc 1 132 0 discriminator 1
 265 000e FFF7FEFF 		bl	I2C_MasterStatus
 266              	.LVL17:
 267 0012 10F0020F 		tst	r0, #2
ARM GAS  C:\Users\USUARIO\AppData\Local\Temp\cc3ZEDd3.s 			page 8


 268 0016 FAD0     		beq	.L15
 133:BMP180.c      ****     I2C_MasterClearStatus(); //Clear I2C master status
 269              		.loc 1 133 0
 270 0018 FFF7FEFF 		bl	I2C_MasterClearStatus
 271              	.LVL18:
 134:BMP180.c      ****     
 135:BMP180.c      ****     CyDelay(26); //Wait for 26ms pressure conversion
 272              		.loc 1 135 0
 273 001c 1A20     		movs	r0, #26
 274 001e FFF7FEFF 		bl	CyDelay
 275              	.LVL19:
 136:BMP180.c      ****     
 137:BMP180.c      ****     /* In order to do a read from a specific address, do a write operation with the memory address 
 138:BMP180.c      **** 	I2C_MasterWriteBuf(I2CSlaveAddress, (uint8 *) SetReadAddressBuffer, sizeof(SetReadAddressBuffer), 
 276              		.loc 1 138 0
 277 0022 0023     		movs	r3, #0
 278 0024 0122     		movs	r2, #1
 279 0026 1349     		ldr	r1, .L19+4
 280 0028 7720     		movs	r0, #119
 281 002a FFF7FEFF 		bl	I2C_MasterWriteBuf
 282              	.LVL20:
 283              	.L16:
 139:BMP180.c      ****     while(!(I2C_MasterStatus() & I2C_MSTAT_WR_CMPLT)); //Wait till the master completes writing
 284              		.loc 1 139 0 discriminator 1
 285 002e FFF7FEFF 		bl	I2C_MasterStatus
 286              	.LVL21:
 287 0032 10F0020F 		tst	r0, #2
 288 0036 FAD0     		beq	.L16
 140:BMP180.c      ****     I2C_MasterClearStatus(); //Clear I2C master status
 289              		.loc 1 140 0
 290 0038 FFF7FEFF 		bl	I2C_MasterClearStatus
 291              	.LVL22:
 141:BMP180.c      ****     
 142:BMP180.c      ****     /* Read pressure from the sensor and store it in a buffer */
 143:BMP180.c      **** 	I2C_MasterReadBuf(I2CSlaveAddress, (uint8 *) I2CReadBuffer, sizeof(I2CReadBuffer), I2C_MODE_COMPLE
 292              		.loc 1 143 0
 293 003c 0023     		movs	r3, #0
 294 003e 0322     		movs	r2, #3
 295 0040 0D49     		ldr	r1, .L19+8
 296 0042 7720     		movs	r0, #119
 297 0044 FFF7FEFF 		bl	I2C_MasterReadBuf
 298              	.LVL23:
 299              	.L17:
 144:BMP180.c      ****     while(!(I2C_MasterStatus() & I2C_MSTAT_RD_CMPLT)); //Wait till the master completes reading
 300              		.loc 1 144 0 discriminator 1
 301 0048 FFF7FEFF 		bl	I2C_MasterStatus
 302              	.LVL24:
 303 004c 10F0010F 		tst	r0, #1
 304 0050 FAD0     		beq	.L17
 145:BMP180.c      ****     I2C_MasterClearStatus(); //Clear I2C master status
 305              		.loc 1 145 0
 306 0052 FFF7FEFF 		bl	I2C_MasterClearStatus
 307              	.LVL25:
 146:BMP180.c      ****     
 147:BMP180.c      **** 	UP = ((I2CReadBuffer[0x00] << 0x10) | (I2CReadBuffer[0x01] << 0x08) | I2CReadBuffer[0x02]) >> (0x0
 308              		.loc 1 147 0
 309 0056 094A     		ldr	r2, .L19+12
ARM GAS  C:\Users\USUARIO\AppData\Local\Temp\cc3ZEDd3.s 			page 9


 310 0058 117A     		ldrb	r1, [r2, #8]	@ zero_extendqisi2
 311 005a 537A     		ldrb	r3, [r2, #9]	@ zero_extendqisi2
 312 005c 1B02     		lsls	r3, r3, #8
 313 005e 43EA0143 		orr	r3, r3, r1, lsl #16
 314 0062 927A     		ldrb	r2, [r2, #10]	@ zero_extendqisi2
 315 0064 1343     		orrs	r3, r3, r2
 316 0066 5B11     		asrs	r3, r3, #5
 317 0068 054A     		ldr	r2, .L19+16
 318 006a 1360     		str	r3, [r2]
 319 006c 08BD     		pop	{r3, pc}
 320              	.L20:
 321 006e 00BF     		.align	2
 322              	.L19:
 323 0070 0C000000 		.word	.LANCHOR0+12
 324 0074 10000000 		.word	.LANCHOR0+16
 325 0078 08000000 		.word	.LANCHOR1+8
 326 007c 00000000 		.word	.LANCHOR1
 327 0080 00000000 		.word	UP
 328              		.cfi_endproc
 329              	.LFE65:
 330              		.size	ReadUncompensatedPressure, .-ReadUncompensatedPressure
 331              		.global	__aeabi_i2d
 332              		.global	__aeabi_dmul
 333              		.global	__aeabi_d2iz
 334              		.global	__aeabi_ddiv
 335              		.global	__aeabi_ui2d
 336              		.global	__aeabi_d2uiz
 337              		.global	__aeabi_dadd
 338              		.section	.text.ReadAndCalculateSensorData,"ax",%progbits
 339              		.align	2
 340              		.global	ReadAndCalculateSensorData
 341              		.thumb
 342              		.thumb_func
 343              		.type	ReadAndCalculateSensorData, %function
 344              	ReadAndCalculateSensorData:
 345              	.LFB66:
 148:BMP180.c      **** }
 149:BMP180.c      **** /**************************************************************************************************
 150:BMP180.c      **** 
 151:BMP180.c      **** /**************************************************************************************************
 152:BMP180.c      **** * Function Name: ReadCalculateSensorData
 153:BMP180.c      **** ***************************************************************************************************
 154:BMP180.c      **** * Summary: This function reads the uncompensated temperature and pressure value and converts it
 155:BMP180.c      **** * into true temperature, pressure and altitude using the algorithm given in the sensor datasheet.
 156:BMP180.c      **** *
 157:BMP180.c      **** * Parameters:
 158:BMP180.c      **** *  void
 159:BMP180.c      **** *
 160:BMP180.c      **** * Return:
 161:BMP180.c      **** *  void
 162:BMP180.c      **** *
 163:BMP180.c      **** ***************************************************************************************************
 164:BMP180.c      **** void ReadAndCalculateSensorData(void)
 165:BMP180.c      **** {
 346              		.loc 1 165 0
 347              		.cfi_startproc
 348              		@ args = 0, pretend = 0, frame = 0
ARM GAS  C:\Users\USUARIO\AppData\Local\Temp\cc3ZEDd3.s 			page 10


 349              		@ frame_needed = 0, uses_anonymous_args = 0
 350 0000 2DE9F041 		push	{r4, r5, r6, r7, r8, lr}
 351              		.cfi_def_cfa_offset 24
 352              		.cfi_offset 4, -24
 353              		.cfi_offset 5, -20
 354              		.cfi_offset 6, -16
 355              		.cfi_offset 7, -12
 356              		.cfi_offset 8, -8
 357              		.cfi_offset 14, -4
 166:BMP180.c      ****     /* Read the sensor calibration data if not already available */
 167:BMP180.c      **** 	if(!CalibrationDataAvailable)
 358              		.loc 1 167 0
 359 0004 874B     		ldr	r3, .L27
 360 0006 1B78     		ldrb	r3, [r3]	@ zero_extendqisi2
 361 0008 0BB9     		cbnz	r3, .L22
 168:BMP180.c      ****     {
 169:BMP180.c      ****         ReadSensorCalibrationData(); //Read sensor calibration data
 362              		.loc 1 169 0
 363 000a FFF7FEFF 		bl	ReadSensorCalibrationData
 364              	.LVL26:
 365              	.L22:
 170:BMP180.c      ****     }
 171:BMP180.c      ****     
 172:BMP180.c      ****     ReadUncompensatedTemperature(); //Read the uncompensated temperature value
 366              		.loc 1 172 0
 367 000e FFF7FEFF 		bl	ReadUncompensatedTemperature
 368              	.LVL27:
 173:BMP180.c      ****     ReadUncompensatedPressure(); //Read the uncompensated pressure value
 369              		.loc 1 173 0
 370 0012 FFF7FEFF 		bl	ReadUncompensatedPressure
 371              	.LVL28:
 174:BMP180.c      ****     
 175:BMP180.c      ****     /* Calculate the true temperature as described in sensor datasheet */
 176:BMP180.c      ****     X1 = (UT - AC6) * AC5 / pow(2, 15);
 372              		.loc 1 176 0
 373 0016 844B     		ldr	r3, .L27+4
 374 0018 1888     		ldrh	r0, [r3]
 375 001a 844B     		ldr	r3, .L27+8
 376 001c 1B68     		ldr	r3, [r3]
 377 001e 1B1A     		subs	r3, r3, r0
 378 0020 834A     		ldr	r2, .L27+12
 379 0022 1088     		ldrh	r0, [r2]
 380 0024 03FB00F0 		mul	r0, r3, r0
 381 0028 FFF7FEFF 		bl	__aeabi_i2d
 382              	.LVL29:
 383 002c 0022     		movs	r2, #0
 384 002e 4FF07C53 		mov	r3, #1056964608
 385 0032 FFF7FEFF 		bl	__aeabi_dmul
 386              	.LVL30:
 387 0036 FFF7FEFF 		bl	__aeabi_d2iz
 388              	.LVL31:
 389 003a 0546     		mov	r5, r0
 177:BMP180.c      ****     X2 = MC * pow(2, 11) / (X1 + MD);
 390              		.loc 1 177 0
 391 003c 7D4B     		ldr	r3, .L27+16
 392 003e B3F90000 		ldrsh	r0, [r3]
 393 0042 FFF7FEFF 		bl	__aeabi_i2d
ARM GAS  C:\Users\USUARIO\AppData\Local\Temp\cc3ZEDd3.s 			page 11


 394              	.LVL32:
 395 0046 0022     		movs	r2, #0
 396 0048 7B4B     		ldr	r3, .L27+20
 397 004a FFF7FEFF 		bl	__aeabi_dmul
 398              	.LVL33:
 399 004e 0646     		mov	r6, r0
 400 0050 0F46     		mov	r7, r1
 401 0052 7A4B     		ldr	r3, .L27+24
 402 0054 B3F90000 		ldrsh	r0, [r3]
 403 0058 2844     		add	r0, r0, r5
 404 005a FFF7FEFF 		bl	__aeabi_i2d
 405              	.LVL34:
 406 005e 0246     		mov	r2, r0
 407 0060 0B46     		mov	r3, r1
 408 0062 3046     		mov	r0, r6
 409 0064 3946     		mov	r1, r7
 410 0066 FFF7FEFF 		bl	__aeabi_ddiv
 411              	.LVL35:
 412 006a FFF7FEFF 		bl	__aeabi_d2iz
 413              	.LVL36:
 178:BMP180.c      ****     B5 = X1 + X2;
 414              		.loc 1 178 0
 415 006e 0544     		add	r5, r5, r0
 416 0070 734B     		ldr	r3, .L27+28
 417 0072 1D60     		str	r5, [r3]
 179:BMP180.c      ****     Temperature2 = (B5 + 8) / pow(2, 4);
 418              		.loc 1 179 0
 419 0074 05F10800 		add	r0, r5, #8
 420 0078 FFF7FEFF 		bl	__aeabi_i2d
 421              	.LVL37:
 422 007c 0022     		movs	r2, #0
 423 007e 714B     		ldr	r3, .L27+32
 424 0080 FFF7FEFF 		bl	__aeabi_dmul
 425              	.LVL38:
 426 0084 FFF7FEFF 		bl	__aeabi_d2iz
 427              	.LVL39:
 428 0088 6F4B     		ldr	r3, .L27+36
 429 008a 1860     		str	r0, [r3]
 180:BMP180.c      ****     
 181:BMP180.c      ****     /* Calculate the true barometric pressure as described in sensor datasheet */
 182:BMP180.c      ****     B6 = B5 - 4000;
 430              		.loc 1 182 0
 431 008c A5F57A65 		sub	r5, r5, #4000
 432 0090 6E4B     		ldr	r3, .L27+40
 433 0092 1D60     		str	r5, [r3]
 183:BMP180.c      ****     X1 = (B2 * (B6 * B6 / pow(2, 12))) / pow(2, 11);
 434              		.loc 1 183 0
 435 0094 05FB05F0 		mul	r0, r5, r5
 436 0098 FFF7FEFF 		bl	__aeabi_i2d
 437              	.LVL40:
 438 009c 0022     		movs	r2, #0
 439 009e 6C4B     		ldr	r3, .L27+44
 440 00a0 FFF7FEFF 		bl	__aeabi_dmul
 441              	.LVL41:
 442 00a4 0646     		mov	r6, r0
 443 00a6 0F46     		mov	r7, r1
 444 00a8 6A4B     		ldr	r3, .L27+48
ARM GAS  C:\Users\USUARIO\AppData\Local\Temp\cc3ZEDd3.s 			page 12


 445 00aa B3F90000 		ldrsh	r0, [r3]
 446 00ae FFF7FEFF 		bl	__aeabi_i2d
 447              	.LVL42:
 448 00b2 3246     		mov	r2, r6
 449 00b4 3B46     		mov	r3, r7
 450 00b6 FFF7FEFF 		bl	__aeabi_dmul
 451              	.LVL43:
 452 00ba 0022     		movs	r2, #0
 453 00bc 4FF07D53 		mov	r3, #1061158912
 454 00c0 FFF7FEFF 		bl	__aeabi_dmul
 455              	.LVL44:
 456 00c4 FFF7FEFF 		bl	__aeabi_d2iz
 457              	.LVL45:
 458 00c8 0446     		mov	r4, r0
 184:BMP180.c      ****     X2 = AC2 * B6 / pow(2, 11);
 459              		.loc 1 184 0
 460 00ca 634B     		ldr	r3, .L27+52
 461 00cc B3F90000 		ldrsh	r0, [r3]
 462 00d0 05FB00F0 		mul	r0, r5, r0
 463 00d4 FFF7FEFF 		bl	__aeabi_i2d
 464              	.LVL46:
 465 00d8 0022     		movs	r2, #0
 466 00da 4FF07D53 		mov	r3, #1061158912
 467 00de FFF7FEFF 		bl	__aeabi_dmul
 468              	.LVL47:
 469 00e2 FFF7FEFF 		bl	__aeabi_d2iz
 470              	.LVL48:
 185:BMP180.c      ****     X3 = X1 + X2;
 471              		.loc 1 185 0
 472 00e6 2044     		add	r0, r0, r4
 186:BMP180.c      ****     B3 = (((AC1 * 4 + X3) << OSS) + 2) / 4;
 473              		.loc 1 186 0
 474 00e8 5C4B     		ldr	r3, .L27+56
 475 00ea B3F90040 		ldrsh	r4, [r3]
 476 00ee 00EB8404 		add	r4, r0, r4, lsl #2
 477 00f2 E400     		lsls	r4, r4, #3
 478 00f4 0234     		adds	r4, r4, #2
 479 00f6 00D5     		bpl	.L23
 480 00f8 0334     		adds	r4, r4, #3
 481              	.L23:
 482 00fa A410     		asrs	r4, r4, #2
 483 00fc 584B     		ldr	r3, .L27+60
 484 00fe 1C60     		str	r4, [r3]
 187:BMP180.c      ****     X1 = AC3 * B6 / pow(2, 13);
 485              		.loc 1 187 0
 486 0100 584B     		ldr	r3, .L27+64
 487 0102 B3F90000 		ldrsh	r0, [r3]
 488 0106 05FB00F0 		mul	r0, r5, r0
 489 010a FFF7FEFF 		bl	__aeabi_i2d
 490              	.LVL49:
 491 010e 0022     		movs	r2, #0
 492 0110 554B     		ldr	r3, .L27+68
 493 0112 FFF7FEFF 		bl	__aeabi_dmul
 494              	.LVL50:
 495 0116 FFF7FEFF 		bl	__aeabi_d2iz
 496              	.LVL51:
 497 011a 0546     		mov	r5, r0
ARM GAS  C:\Users\USUARIO\AppData\Local\Temp\cc3ZEDd3.s 			page 13


 188:BMP180.c      ****     X2 = (B1 * (B6 * B6 / pow(2, 12))) / pow(2, 16);
 498              		.loc 1 188 0
 499 011c 534B     		ldr	r3, .L27+72
 500 011e B3F90000 		ldrsh	r0, [r3]
 501 0122 FFF7FEFF 		bl	__aeabi_i2d
 502              	.LVL52:
 503 0126 3246     		mov	r2, r6
 504 0128 3B46     		mov	r3, r7
 505 012a FFF7FEFF 		bl	__aeabi_dmul
 506              	.LVL53:
 507 012e 0022     		movs	r2, #0
 508 0130 4F4B     		ldr	r3, .L27+76
 509 0132 FFF7FEFF 		bl	__aeabi_dmul
 510              	.LVL54:
 511 0136 FFF7FEFF 		bl	__aeabi_d2iz
 512              	.LVL55:
 189:BMP180.c      ****     X3 = ((X1 + X2) + 2) / pow(2, 2);
 513              		.loc 1 189 0
 514 013a 2844     		add	r0, r0, r5
 515 013c 0230     		adds	r0, r0, #2
 516 013e FFF7FEFF 		bl	__aeabi_i2d
 517              	.LVL56:
 518 0142 0022     		movs	r2, #0
 519 0144 4B4B     		ldr	r3, .L27+80
 520 0146 FFF7FEFF 		bl	__aeabi_dmul
 521              	.LVL57:
 522 014a FFF7FEFF 		bl	__aeabi_d2iz
 523              	.LVL58:
 524 014e 4A4B     		ldr	r3, .L27+84
 525 0150 1860     		str	r0, [r3]
 190:BMP180.c      ****     B4 = (AC4 * (unsigned long)(X3 + 32768)) / pow(2, 15);
 526              		.loc 1 190 0
 527 0152 00F50040 		add	r0, r0, #32768
 528 0156 494B     		ldr	r3, .L27+88
 529 0158 1B88     		ldrh	r3, [r3]
 530 015a 00FB03F0 		mul	r0, r0, r3
 531 015e FFF7FEFF 		bl	__aeabi_ui2d
 532              	.LVL59:
 533 0162 0022     		movs	r2, #0
 534 0164 4FF07C53 		mov	r3, #1056964608
 535 0168 FFF7FEFF 		bl	__aeabi_dmul
 536              	.LVL60:
 537 016c FFF7FEFF 		bl	__aeabi_d2uiz
 538              	.LVL61:
 539 0170 434B     		ldr	r3, .L27+92
 540 0172 1860     		str	r0, [r3]
 191:BMP180.c      ****     B7 = ((unsigned long)UP - B3) * (50000 >> OSS);
 541              		.loc 1 191 0
 542 0174 434B     		ldr	r3, .L27+96
 543 0176 1B68     		ldr	r3, [r3]
 544 0178 1C1B     		subs	r4, r3, r4
 545 017a 41F66A03 		movw	r3, #6250
 546 017e 03FB04F4 		mul	r4, r3, r4
 547 0182 414B     		ldr	r3, .L27+100
 548 0184 1C60     		str	r4, [r3]
 192:BMP180.c      ****     if(B7 < 0x80000000)
 549              		.loc 1 192 0
ARM GAS  C:\Users\USUARIO\AppData\Local\Temp\cc3ZEDd3.s 			page 14


 550 0186 002C     		cmp	r4, #0
 551 0188 05DB     		blt	.L24
 193:BMP180.c      ****     {
 194:BMP180.c      ****         Pressure = (B7 *2) / B4;
 552              		.loc 1 194 0
 553 018a 6400     		lsls	r4, r4, #1
 554 018c B4FBF0F0 		udiv	r0, r4, r0
 555 0190 3E4B     		ldr	r3, .L27+104
 556 0192 1860     		str	r0, [r3]
 557 0194 04E0     		b	.L25
 558              	.L24:
 195:BMP180.c      ****     }
 196:BMP180.c      ****     else 
 197:BMP180.c      ****     {
 198:BMP180.c      ****         Pressure = (B7 / B4) *2;
 559              		.loc 1 198 0
 560 0196 B4FBF0F4 		udiv	r4, r4, r0
 561 019a 6400     		lsls	r4, r4, #1
 562 019c 3B4B     		ldr	r3, .L27+104
 563 019e 1C60     		str	r4, [r3]
 564              	.L25:
 199:BMP180.c      ****     }
 200:BMP180.c      ****     X1 = (Pressure / pow(2, 8)) * (Pressure / pow(2, 8));
 565              		.loc 1 200 0
 566 01a0 3A4C     		ldr	r4, .L27+104
 567 01a2 D4F80080 		ldr	r8, [r4]
 568 01a6 4046     		mov	r0, r8
 569 01a8 FFF7FEFF 		bl	__aeabi_i2d
 570              	.LVL62:
 571 01ac 0646     		mov	r6, r0
 572 01ae 0F46     		mov	r7, r1
 573 01b0 0022     		movs	r2, #0
 574 01b2 374B     		ldr	r3, .L27+108
 575 01b4 FFF7FEFF 		bl	__aeabi_dmul
 576              	.LVL63:
 577 01b8 0246     		mov	r2, r0
 578 01ba 0B46     		mov	r3, r1
 579 01bc FFF7FEFF 		bl	__aeabi_dmul
 580              	.LVL64:
 581 01c0 FFF7FEFF 		bl	__aeabi_d2iz
 582              	.LVL65:
 201:BMP180.c      ****     X1 = (X1 * 3038) / pow(2, 16);
 583              		.loc 1 201 0
 584 01c4 40F6DE33 		movw	r3, #3038
 585 01c8 03FB00F0 		mul	r0, r3, r0
 586 01cc FFF7FEFF 		bl	__aeabi_i2d
 587              	.LVL66:
 588 01d0 0022     		movs	r2, #0
 589 01d2 274B     		ldr	r3, .L27+76
 590 01d4 FFF7FEFF 		bl	__aeabi_dmul
 591              	.LVL67:
 592 01d8 FFF7FEFF 		bl	__aeabi_d2iz
 593              	.LVL68:
 594 01dc 0546     		mov	r5, r0
 595 01de 2D4B     		ldr	r3, .L27+112
 596 01e0 1860     		str	r0, [r3]
 202:BMP180.c      ****     X2 = (-7357 * Pressure) / pow(2, 16);
ARM GAS  C:\Users\USUARIO\AppData\Local\Temp\cc3ZEDd3.s 			page 15


 597              		.loc 1 202 0
 598 01e2 2D48     		ldr	r0, .L27+116
 599 01e4 00FB08F0 		mul	r0, r0, r8
 600 01e8 FFF7FEFF 		bl	__aeabi_i2d
 601              	.LVL69:
 602 01ec 0022     		movs	r2, #0
 603 01ee 204B     		ldr	r3, .L27+76
 604 01f0 FFF7FEFF 		bl	__aeabi_dmul
 605              	.LVL70:
 606 01f4 FFF7FEFF 		bl	__aeabi_d2iz
 607              	.LVL71:
 608 01f8 284B     		ldr	r3, .L27+120
 609 01fa 1860     		str	r0, [r3]
 203:BMP180.c      ****     Pressure = Pressure + (X1 + X2 + 3791) / pow(2, 4);
 610              		.loc 1 203 0
 611 01fc 2844     		add	r0, r0, r5
 612 01fe 00F6CF60 		addw	r0, r0, #3791
 613 0202 FFF7FEFF 		bl	__aeabi_i2d
 614              	.LVL72:
 615 0206 0022     		movs	r2, #0
 616 0208 0E4B     		ldr	r3, .L27+32
 617 020a FFF7FEFF 		bl	__aeabi_dmul
 618              	.LVL73:
 619 020e 0246     		mov	r2, r0
 620 0210 0B46     		mov	r3, r1
 621 0212 3046     		mov	r0, r6
 622 0214 3946     		mov	r1, r7
 623 0216 FFF7FEFF 		bl	__aeabi_dadd
 624              	.LVL74:
 625 021a FFF7FEFF 		bl	__aeabi_d2iz
 626              	.LVL75:
 627 021e 2060     		str	r0, [r4]
 628 0220 BDE8F081 		pop	{r4, r5, r6, r7, r8, pc}
 629              	.L28:
 630              		.align	2
 631              	.L27:
 632 0224 00000000 		.word	.LANCHOR1
 633 0228 00000000 		.word	AC6
 634 022c 00000000 		.word	UT
 635 0230 00000000 		.word	AC5
 636 0234 00000000 		.word	MC
 637 0238 0000A040 		.word	1084227584
 638 023c 00000000 		.word	MD
 639 0240 00000000 		.word	B5
 640 0244 0000B03F 		.word	1068498944
 641 0248 00000000 		.word	Temperature2
 642 024c 00000000 		.word	B6
 643 0250 0000303F 		.word	1060110336
 644 0254 00000000 		.word	B2
 645 0258 00000000 		.word	AC2
 646 025c 00000000 		.word	AC1
 647 0260 00000000 		.word	B3
 648 0264 00000000 		.word	AC3
 649 0268 0000203F 		.word	1059061760
 650 026c 00000000 		.word	B1
 651 0270 0000F03E 		.word	1055916032
 652 0274 0000D03F 		.word	1070596096
ARM GAS  C:\Users\USUARIO\AppData\Local\Temp\cc3ZEDd3.s 			page 16


 653 0278 00000000 		.word	X3
 654 027c 00000000 		.word	AC4
 655 0280 00000000 		.word	B4
 656 0284 00000000 		.word	UP
 657 0288 00000000 		.word	B7
 658 028c 00000000 		.word	Pressure
 659 0290 0000703F 		.word	1064304640
 660 0294 00000000 		.word	X1
 661 0298 43E3FFFF 		.word	-7357
 662 029c 00000000 		.word	X2
 663              		.cfi_endproc
 664              	.LFE66:
 665              		.size	ReadAndCalculateSensorData, .-ReadAndCalculateSensorData
 666              		.comm	str,12,4
 667              		.global	CalibrationDataAvailable
 668              		.global	PressureAtSeaLevel
 669              		.comm	AC6,2,2
 670              		.comm	AC5,2,2
 671              		.comm	AC4,2,2
 672              		.comm	MD,2,2
 673              		.comm	MC,2,2
 674              		.comm	B2,2,2
 675              		.comm	B1,2,2
 676              		.comm	AC3,2,2
 677              		.comm	AC2,2,2
 678              		.comm	AC1,2,2
 679              		.comm	B7,4,4
 680              		.comm	B4,4,4
 681              		.comm	UP,4,4
 682              		.comm	UT,4,4
 683              		.comm	B6,4,4
 684              		.comm	B5,4,4
 685              		.comm	B3,4,4
 686              		.comm	X3,4,4
 687              		.comm	X2,4,4
 688              		.comm	X1,4,4
 689              		.comm	SensorCalibrationData,22,4
 690              		.comm	Altitude,4,4
 691              		.comm	Pressure,4,4
 692              		.comm	Temperature2,4,4
 693              		.data
 694              		.align	3
 695              		.set	.LANCHOR0,. + 0
 696              		.type	I2CWriteBuffer.7521, %object
 697              		.size	I2CWriteBuffer.7521, 1
 698              	I2CWriteBuffer.7521:
 699 0000 AA       		.byte	-86
 700 0001 000000   		.space	3
 701              		.type	I2CWriteBuffer.7532, %object
 702              		.size	I2CWriteBuffer.7532, 2
 703              	I2CWriteBuffer.7532:
 704 0004 F4       		.byte	-12
 705 0005 2E       		.byte	46
 706 0006 0000     		.space	2
 707              		.type	SetReadAddressBuffer.7533, %object
 708              		.size	SetReadAddressBuffer.7533, 1
 709              	SetReadAddressBuffer.7533:
ARM GAS  C:\Users\USUARIO\AppData\Local\Temp\cc3ZEDd3.s 			page 17


 710 0008 F6       		.byte	-10
 711 0009 000000   		.space	3
 712              		.type	I2CWriteBuffer.7547, %object
 713              		.size	I2CWriteBuffer.7547, 2
 714              	I2CWriteBuffer.7547:
 715 000c F4       		.byte	-12
 716 000d F4       		.byte	-12
 717 000e 0000     		.space	2
 718              		.type	SetReadAddressBuffer.7548, %object
 719              		.size	SetReadAddressBuffer.7548, 1
 720              	SetReadAddressBuffer.7548:
 721 0010 F6       		.byte	-10
 722 0011 00000000 		.space	7
 722      000000
 723              		.type	PressureAtSeaLevel, %object
 724              		.size	PressureAtSeaLevel, 8
 725              	PressureAtSeaLevel:
 726 0018 00000000 		.word	0
 727 001c D0BCF840 		.word	1090043088
 728              		.bss
 729              		.align	2
 730              		.set	.LANCHOR1,. + 0
 731              		.type	CalibrationDataAvailable, %object
 732              		.size	CalibrationDataAvailable, 1
 733              	CalibrationDataAvailable:
 734 0000 00       		.space	1
 735 0001 000000   		.space	3
 736              		.type	I2CReadBuffer.7531, %object
 737              		.size	I2CReadBuffer.7531, 2
 738              	I2CReadBuffer.7531:
 739 0004 0000     		.space	2
 740 0006 0000     		.space	2
 741              		.type	I2CReadBuffer.7546, %object
 742              		.size	I2CReadBuffer.7546, 3
 743              	I2CReadBuffer.7546:
 744 0008 000000   		.space	3
 745              		.text
 746              	.Letext0:
 747              		.file 2 "c:\\program files (x86)\\cypress\\psoc creator\\4.3\\psoc creator\\import\\gnu\\arm\\5.4.
 748              		.file 3 "c:\\program files (x86)\\cypress\\psoc creator\\4.3\\psoc creator\\import\\gnu\\arm\\5.4.
 749              		.file 4 "Generated_Source\\PSoC5/cytypes.h"
 750              		.file 5 "Generated_Source\\PSoC5/core_cm3.h"
 751              		.file 6 "./BMP180.h"
 752              		.file 7 "Generated_Source\\PSoC5/I2C.h"
 753              		.file 8 "Generated_Source\\PSoC5/CyLib.h"