ARM GAS  C:\Users\USUARIO\AppData\Local\Temp\ccb2VAtU.s 			page 1


   1              		.syntax unified
   2              		.cpu cortex-m3
   3              		.fpu softvfp
   4              		.eabi_attribute 20, 1
   5              		.eabi_attribute 21, 1
   6              		.eabi_attribute 23, 3
   7              		.eabi_attribute 24, 1
   8              		.eabi_attribute 25, 1
   9              		.eabi_attribute 26, 1
  10              		.eabi_attribute 30, 1
  11              		.eabi_attribute 34, 1
  12              		.eabi_attribute 18, 4
  13              		.thumb
  14              		.syntax unified
  15              		.file	"DS1302.c"
  16              		.text
  17              	.Ltext0:
  18              		.cfi_sections	.debug_frame
  19              		.section	.text._DS1302_start,"ax",%progbits
  20              		.align	2
  21              		.global	_DS1302_start
  22              		.thumb
  23              		.thumb_func
  24              		.type	_DS1302_start, %function
  25              	_DS1302_start:
  26              	.LFB64:
  27              		.file 1 "DS1302.c"
   1:DS1302.c      **** /* ========================================
   2:DS1302.c      ****  *
   3:DS1302.c      ****  * Copyright YOUR COMPANY, THE YEAR
   4:DS1302.c      ****  * All Rights Reserved
   5:DS1302.c      ****  * UNPUBLISHED, LICENSED SOFTWARE.
   6:DS1302.c      ****  *
   7:DS1302.c      ****  * CONFIDENTIAL AND PROPRIETARY INFORMATION
   8:DS1302.c      ****  * WHICH IS THE PROPERTY OF your company.
   9:DS1302.c      ****  *
  10:DS1302.c      ****  * ========================================
  11:DS1302.c      **** */
  12:DS1302.c      **** #include <DS1302.h>
  13:DS1302.c      **** 
  14:DS1302.c      **** // --------------------------------------------------------
  15:DS1302.c      **** // _DS1302_start
  16:DS1302.c      **** //
  17:DS1302.c      **** // A helper function to setup the start condition.
  18:DS1302.c      **** //
  19:DS1302.c      **** // An 'init' function is not used.
  20:DS1302.c      **** // But now the pinMode is set every time.
  21:DS1302.c      **** // That's not a big deal, and it's valid.
  22:DS1302.c      **** // At startup, the pins of the Arduino are high impedance.
  23:DS1302.c      **** // Since the DS1302 has pull-down resistors,
  24:DS1302.c      **** // the signals are low (inactive) until the DS1302 is used.
  25:DS1302.c      **** void _DS1302_start()
  26:DS1302.c      **** {
  28              		.loc 1 26 0
  29              		.cfi_startproc
  30              		@ args = 0, pretend = 0, frame = 0
  31              		@ frame_needed = 0, uses_anonymous_args = 0
ARM GAS  C:\Users\USUARIO\AppData\Local\Temp\ccb2VAtU.s 			page 2


  32 0000 08B5     		push	{r3, lr}
  33              		.cfi_def_cfa_offset 8
  34              		.cfi_offset 3, -8
  35              		.cfi_offset 14, -4
  27:DS1302.c      ****   DS1302_CE_PIN_Write(LOW); // default, not enabled
  36              		.loc 1 27 0
  37 0002 0020     		movs	r0, #0
  38 0004 FFF7FEFF 		bl	DS1302_CE_PIN_Write
  39              	.LVL0:
  28:DS1302.c      ****   //pinMode( DS1302_CE_PIN, OUTPUT);  
  29:DS1302.c      **** 
  30:DS1302.c      ****   DS1302_SCLK_PIN_Write(LOW); // default, clock low
  40              		.loc 1 30 0
  41 0008 0020     		movs	r0, #0
  42 000a FFF7FEFF 		bl	DS1302_SCLK_PIN_Write
  43              	.LVL1:
  31:DS1302.c      ****   //pinMode( DS1302_SCLK_PIN, OUTPUT);
  32:DS1302.c      **** 
  33:DS1302.c      ****   DS1302_CE_PIN_Write( HIGH); // start the session
  44              		.loc 1 33 0
  45 000e 0120     		movs	r0, #1
  46 0010 FFF7FEFF 		bl	DS1302_CE_PIN_Write
  47              	.LVL2:
  34:DS1302.c      ****   CyDelayUs( 4);           // tCC = 4us
  48              		.loc 1 34 0
  49 0014 0420     		movs	r0, #4
  50 0016 FFF7FEFF 		bl	CyDelayUs
  51              	.LVL3:
  52 001a 08BD     		pop	{r3, pc}
  53              		.cfi_endproc
  54              	.LFE64:
  55              		.size	_DS1302_start, .-_DS1302_start
  56              		.section	.text._DS1302_stop,"ax",%progbits
  57              		.align	2
  58              		.global	_DS1302_stop
  59              		.thumb
  60              		.thumb_func
  61              		.type	_DS1302_stop, %function
  62              	_DS1302_stop:
  63              	.LFB65:
  35:DS1302.c      **** }
  36:DS1302.c      **** 
  37:DS1302.c      **** // --------------------------------------------------------
  38:DS1302.c      **** // _DS1302_stop
  39:DS1302.c      **** //
  40:DS1302.c      **** // A helper function to finish the communication.
  41:DS1302.c      **** //
  42:DS1302.c      **** void _DS1302_stop(void)
  43:DS1302.c      **** {
  64              		.loc 1 43 0
  65              		.cfi_startproc
  66              		@ args = 0, pretend = 0, frame = 0
  67              		@ frame_needed = 0, uses_anonymous_args = 0
  68 0000 08B5     		push	{r3, lr}
  69              		.cfi_def_cfa_offset 8
  70              		.cfi_offset 3, -8
  71              		.cfi_offset 14, -4
ARM GAS  C:\Users\USUARIO\AppData\Local\Temp\ccb2VAtU.s 			page 3


  44:DS1302.c      ****   // Set CE low
  45:DS1302.c      ****   DS1302_CE_PIN_Write(LOW);
  72              		.loc 1 45 0
  73 0002 0020     		movs	r0, #0
  74 0004 FFF7FEFF 		bl	DS1302_CE_PIN_Write
  75              	.LVL4:
  46:DS1302.c      **** 
  47:DS1302.c      ****   CyDelayUs( 4);           // tCWH = 4us
  76              		.loc 1 47 0
  77 0008 0420     		movs	r0, #4
  78 000a FFF7FEFF 		bl	CyDelayUs
  79              	.LVL5:
  80 000e 08BD     		pop	{r3, pc}
  81              		.cfi_endproc
  82              	.LFE65:
  83              		.size	_DS1302_stop, .-_DS1302_stop
  84              		.section	.text._DS1302_togglewrite,"ax",%progbits
  85              		.align	2
  86              		.global	_DS1302_togglewrite
  87              		.thumb
  88              		.thumb_func
  89              		.type	_DS1302_togglewrite, %function
  90              	_DS1302_togglewrite:
  91              	.LFB66:
  48:DS1302.c      **** }
  49:DS1302.c      **** 
  50:DS1302.c      **** // --------------------------------------------------------
  51:DS1302.c      **** // _DS1302_togglewrite
  52:DS1302.c      **** //
  53:DS1302.c      **** // A helper function for writing a byte with bit toggle
  54:DS1302.c      **** //
  55:DS1302.c      **** // The 'release' parameter is for a read after this write.
  56:DS1302.c      **** // It will release the I/O-line and will keep the SCLK high.
  57:DS1302.c      **** //
  58:DS1302.c      **** void _DS1302_togglewrite( uint8_t data, uint8_t release)
  59:DS1302.c      **** {
  92              		.loc 1 59 0
  93              		.cfi_startproc
  94              		@ args = 0, pretend = 0, frame = 0
  95              		@ frame_needed = 0, uses_anonymous_args = 0
  96              	.LVL6:
  97 0000 70B5     		push	{r4, r5, r6, lr}
  98              		.cfi_def_cfa_offset 16
  99              		.cfi_offset 4, -16
 100              		.cfi_offset 5, -12
 101              		.cfi_offset 6, -8
 102              		.cfi_offset 14, -4
 103 0002 0646     		mov	r6, r0
 104 0004 0D46     		mov	r5, r1
 105              	.LVL7:
  60:DS1302.c      ****   int i;
  61:DS1302.c      **** 
  62:DS1302.c      ****   for( i = 0; i <= 7; i++)
 106              		.loc 1 62 0
 107 0006 0024     		movs	r4, #0
 108 0008 18E0     		b	.L6
 109              	.LVL8:
ARM GAS  C:\Users\USUARIO\AppData\Local\Temp\ccb2VAtU.s 			page 4


 110              	.L9:
  63:DS1302.c      ****   {
  64:DS1302.c      ****     // set a bit of the data on the I/O-line
  65:DS1302.c      ****     DS1302_IO_PIN_Write( bitRead(data, i));  
 111              		.loc 1 65 0
 112 000a 46FA04F0 		asr	r0, r6, r4
 113 000e 00F00100 		and	r0, r0, #1
 114 0012 FFF7FEFF 		bl	DS1302_IO_PIN_Write
 115              	.LVL9:
  66:DS1302.c      ****     CyDelayUs( 1);     // tDC = 200ns
 116              		.loc 1 66 0
 117 0016 0120     		movs	r0, #1
 118 0018 FFF7FEFF 		bl	CyDelayUs
 119              	.LVL10:
  67:DS1302.c      **** 
  68:DS1302.c      ****     // clock up, data is read by DS1302
  69:DS1302.c      ****     DS1302_SCLK_PIN_Write( HIGH);    
 120              		.loc 1 69 0
 121 001c 0120     		movs	r0, #1
 122 001e FFF7FEFF 		bl	DS1302_SCLK_PIN_Write
 123              	.LVL11:
  70:DS1302.c      ****     CyDelayUs( 1);     // tCH = 1000ns, tCDH = 800ns
 124              		.loc 1 70 0
 125 0022 0120     		movs	r0, #1
 126 0024 FFF7FEFF 		bl	CyDelayUs
 127              	.LVL12:
  71:DS1302.c      **** 
  72:DS1302.c      ****     if( release && i == 7)
 128              		.loc 1 72 0
 129 0028 0DB1     		cbz	r5, .L7
 130              		.loc 1 72 0 is_stmt 0 discriminator 1
 131 002a 072C     		cmp	r4, #7
 132 002c 05D0     		beq	.L8
 133              	.L7:
  73:DS1302.c      ****     {
  74:DS1302.c      ****       // If this write is followed by a read,
  75:DS1302.c      ****       // the I/O-line should be released after
  76:DS1302.c      ****       // the last bit, before the clock line is made low.
  77:DS1302.c      ****       // This is according the datasheet.
  78:DS1302.c      ****       // I have seen other programs that don't release
  79:DS1302.c      ****       // the I/O-line at this moment,
  80:DS1302.c      ****       // and that could cause a shortcut spike
  81:DS1302.c      ****       // on the I/O-line.
  82:DS1302.c      ****       //pinMode( DS1302_IO_PIN, INPUT);
  83:DS1302.c      **** 
  84:DS1302.c      ****       // For Arduino 1.0.3, removing the pull-up is no longer needed.
  85:DS1302.c      ****       // Setting the pin as 'INPUT' will already remove the pull-up.
  86:DS1302.c      ****       // digitalWrite (DS1302_IO, LOW); // remove any pull-up  
  87:DS1302.c      ****     }
  88:DS1302.c      ****     else
  89:DS1302.c      ****     {
  90:DS1302.c      ****       DS1302_SCLK_PIN_Write( LOW);
 134              		.loc 1 90 0 is_stmt 1
 135 002e 0020     		movs	r0, #0
 136 0030 FFF7FEFF 		bl	DS1302_SCLK_PIN_Write
 137              	.LVL13:
  91:DS1302.c      ****       CyDelayUs( 1);       // tCL=1000ns, tCDD=800ns
ARM GAS  C:\Users\USUARIO\AppData\Local\Temp\ccb2VAtU.s 			page 5


 138              		.loc 1 91 0
 139 0034 0120     		movs	r0, #1
 140 0036 FFF7FEFF 		bl	CyDelayUs
 141              	.LVL14:
 142              	.L8:
  62:DS1302.c      ****   {
 143              		.loc 1 62 0 discriminator 2
 144 003a 0134     		adds	r4, r4, #1
 145              	.LVL15:
 146              	.L6:
  62:DS1302.c      ****   {
 147              		.loc 1 62 0 is_stmt 0 discriminator 1
 148 003c 072C     		cmp	r4, #7
 149 003e E4DD     		ble	.L9
  92:DS1302.c      ****     }
  93:DS1302.c      ****   }
  94:DS1302.c      **** }
 150              		.loc 1 94 0 is_stmt 1
 151 0040 70BD     		pop	{r4, r5, r6, pc}
 152              		.cfi_endproc
 153              	.LFE66:
 154              		.size	_DS1302_togglewrite, .-_DS1302_togglewrite
 155 0042 00BF     		.section	.text._DS1302_toggleread,"ax",%progbits
 156              		.align	2
 157              		.global	_DS1302_toggleread
 158              		.thumb
 159              		.thumb_func
 160              		.type	_DS1302_toggleread, %function
 161              	_DS1302_toggleread:
 162              	.LFB67:
  95:DS1302.c      **** 
  96:DS1302.c      **** // --------------------------------------------------------
  97:DS1302.c      **** // _DS1302_toggleread
  98:DS1302.c      **** //
  99:DS1302.c      **** // A helper function for reading a byte with bit toggle
 100:DS1302.c      **** //
 101:DS1302.c      **** // This function assumes that the SCLK is still high.
 102:DS1302.c      **** //
 103:DS1302.c      **** uint8_t _DS1302_toggleread( void)
 104:DS1302.c      **** {
 163              		.loc 1 104 0
 164              		.cfi_startproc
 165              		@ args = 0, pretend = 0, frame = 0
 166              		@ frame_needed = 0, uses_anonymous_args = 0
 167 0000 38B5     		push	{r3, r4, r5, lr}
 168              		.cfi_def_cfa_offset 16
 169              		.cfi_offset 3, -16
 170              		.cfi_offset 4, -12
 171              		.cfi_offset 5, -8
 172              		.cfi_offset 14, -4
 173              	.LVL16:
 105:DS1302.c      ****   uint8_t i, data;
 106:DS1302.c      **** 
 107:DS1302.c      ****   data = 0;
 174              		.loc 1 107 0
 175 0002 0025     		movs	r5, #0
 108:DS1302.c      ****   for( i = 0; i <= 7; i++)
ARM GAS  C:\Users\USUARIO\AppData\Local\Temp\ccb2VAtU.s 			page 6


 176              		.loc 1 108 0
 177 0004 2C46     		mov	r4, r5
 178 0006 19E0     		b	.L12
 179              	.LVL17:
 180              	.L15:
 109:DS1302.c      ****   {
 110:DS1302.c      ****     // Issue a clock pulse for the next databit.
 111:DS1302.c      ****     // If the 'togglewrite' function was used before
 112:DS1302.c      ****     // this function, the SCLK is already high.
 113:DS1302.c      ****     DS1302_SCLK_PIN_Write(HIGH);
 181              		.loc 1 113 0
 182 0008 0120     		movs	r0, #1
 183 000a FFF7FEFF 		bl	DS1302_SCLK_PIN_Write
 184              	.LVL18:
 114:DS1302.c      ****     CyDelayUs( 1);
 185              		.loc 1 114 0
 186 000e 0120     		movs	r0, #1
 187 0010 FFF7FEFF 		bl	CyDelayUs
 188              	.LVL19:
 115:DS1302.c      **** 
 116:DS1302.c      ****     // Clock down, data is ready after some time.
 117:DS1302.c      ****     DS1302_SCLK_PIN_Write(LOW);
 189              		.loc 1 117 0
 190 0014 0020     		movs	r0, #0
 191 0016 FFF7FEFF 		bl	DS1302_SCLK_PIN_Write
 192              	.LVL20:
 118:DS1302.c      ****     CyDelayUs( 1);        // tCL=1000ns, tCDD=800ns
 193              		.loc 1 118 0
 194 001a 0120     		movs	r0, #1
 195 001c FFF7FEFF 		bl	CyDelayUs
 196              	.LVL21:
 119:DS1302.c      **** 
 120:DS1302.c      ****     // read bit, and set it in place in 'data' variable
 121:DS1302.c      ****     bitWrite( data, i, DS1302_IO_PIN_Read());
 197              		.loc 1 121 0
 198 0020 FFF7FEFF 		bl	DS1302_IO_PIN_Read
 199              	.LVL22:
 200 0024 20B1     		cbz	r0, .L13
 201              		.loc 1 121 0 is_stmt 0 discriminator 1
 202 0026 0123     		movs	r3, #1
 203 0028 A340     		lsls	r3, r3, r4
 204 002a 1D43     		orrs	r5, r5, r3
 205              	.LVL23:
 206 002c EDB2     		uxtb	r5, r5
 207              	.LVL24:
 208 002e 03E0     		b	.L14
 209              	.L13:
 210              		.loc 1 121 0 discriminator 2
 211 0030 0123     		movs	r3, #1
 212 0032 A340     		lsls	r3, r3, r4
 213 0034 25EA0305 		bic	r5, r5, r3
 214              	.LVL25:
 215              	.L14:
 108:DS1302.c      ****   {
 216              		.loc 1 108 0 is_stmt 1 discriminator 2
 217 0038 0134     		adds	r4, r4, #1
 218              	.LVL26:
ARM GAS  C:\Users\USUARIO\AppData\Local\Temp\ccb2VAtU.s 			page 7


 219 003a E4B2     		uxtb	r4, r4
 220              	.LVL27:
 221              	.L12:
 108:DS1302.c      ****   {
 222              		.loc 1 108 0 is_stmt 0 discriminator 1
 223 003c 072C     		cmp	r4, #7
 224 003e E3D9     		bls	.L15
 122:DS1302.c      ****   }
 123:DS1302.c      ****   return( data);
 124:DS1302.c      **** }
 225              		.loc 1 124 0 is_stmt 1
 226 0040 2846     		mov	r0, r5
 227 0042 38BD     		pop	{r3, r4, r5, pc}
 228              		.cfi_endproc
 229              	.LFE67:
 230              		.size	_DS1302_toggleread, .-_DS1302_toggleread
 231              		.section	.text.DS1302_clock_burst_write,"ax",%progbits
 232              		.align	2
 233              		.global	DS1302_clock_burst_write
 234              		.thumb
 235              		.thumb_func
 236              		.type	DS1302_clock_burst_write, %function
 237              	DS1302_clock_burst_write:
 238              	.LFB68:
 125:DS1302.c      **** 
 126:DS1302.c      **** // --------------------------------------------------------
 127:DS1302.c      **** // DS1302_clock_burst_write
 128:DS1302.c      **** //
 129:DS1302.c      **** // This function writes 8 bytes clock data in burst mode
 130:DS1302.c      **** // to the DS1302.
 131:DS1302.c      **** //
 132:DS1302.c      **** // This function may be called as the first function,
 133:DS1302.c      **** // also the pinMode is set.
 134:DS1302.c      **** //
 135:DS1302.c      **** void DS1302_clock_burst_write( uint8_t *p)
 136:DS1302.c      **** {
 239              		.loc 1 136 0
 240              		.cfi_startproc
 241              		@ args = 0, pretend = 0, frame = 0
 242              		@ frame_needed = 0, uses_anonymous_args = 0
 243              	.LVL28:
 244 0000 70B5     		push	{r4, r5, r6, lr}
 245              		.cfi_def_cfa_offset 16
 246              		.cfi_offset 4, -16
 247              		.cfi_offset 5, -12
 248              		.cfi_offset 6, -8
 249              		.cfi_offset 14, -4
 250 0002 0546     		mov	r5, r0
 137:DS1302.c      ****   int i;
 138:DS1302.c      **** 
 139:DS1302.c      ****   _DS1302_start();
 251              		.loc 1 139 0
 252 0004 FFF7FEFF 		bl	_DS1302_start
 253              	.LVL29:
 140:DS1302.c      **** 
 141:DS1302.c      ****   // Instead of the address,
 142:DS1302.c      ****   // the CLOCK_BURST_WRITE command is issued.
ARM GAS  C:\Users\USUARIO\AppData\Local\Temp\ccb2VAtU.s 			page 8


 143:DS1302.c      ****   // the I/O-line is not released
 144:DS1302.c      ****   _DS1302_togglewrite( DS1302_CLOCK_BURST_WRITE, false);  
 254              		.loc 1 144 0
 255 0008 0021     		movs	r1, #0
 256 000a BE20     		movs	r0, #190
 257 000c FFF7FEFF 		bl	_DS1302_togglewrite
 258              	.LVL30:
 145:DS1302.c      **** 
 146:DS1302.c      ****   for( i=0; i<8; i++)
 259              		.loc 1 146 0
 260 0010 0024     		movs	r4, #0
 261 0012 06E0     		b	.L18
 262              	.LVL31:
 263              	.L19:
 147:DS1302.c      ****   {
 148:DS1302.c      ****     // the I/O-line is not released
 149:DS1302.c      ****     _DS1302_togglewrite( *p++, false);  
 264              		.loc 1 149 0 discriminator 3
 265 0014 6E1C     		adds	r6, r5, #1
 266              	.LVL32:
 267 0016 0021     		movs	r1, #0
 268 0018 2878     		ldrb	r0, [r5]	@ zero_extendqisi2
 269 001a FFF7FEFF 		bl	_DS1302_togglewrite
 270              	.LVL33:
 146:DS1302.c      ****   {
 271              		.loc 1 146 0 discriminator 3
 272 001e 0134     		adds	r4, r4, #1
 273              	.LVL34:
 274              		.loc 1 149 0 discriminator 3
 275 0020 3546     		mov	r5, r6
 276              	.LVL35:
 277              	.L18:
 146:DS1302.c      ****   {
 278              		.loc 1 146 0 discriminator 1
 279 0022 072C     		cmp	r4, #7
 280 0024 F6DD     		ble	.L19
 150:DS1302.c      ****   }
 151:DS1302.c      ****   _DS1302_stop();
 281              		.loc 1 151 0
 282 0026 FFF7FEFF 		bl	_DS1302_stop
 283              	.LVL36:
 284 002a 70BD     		pop	{r4, r5, r6, pc}
 285              		.cfi_endproc
 286              	.LFE68:
 287              		.size	DS1302_clock_burst_write, .-DS1302_clock_burst_write
 288              		.section	.text.DS1302_read,"ax",%progbits
 289              		.align	2
 290              		.global	DS1302_read
 291              		.thumb
 292              		.thumb_func
 293              		.type	DS1302_read, %function
 294              	DS1302_read:
 295              	.LFB69:
 152:DS1302.c      **** }
 153:DS1302.c      **** 
 154:DS1302.c      **** 
 155:DS1302.c      **** // --------------------------------------------------------
ARM GAS  C:\Users\USUARIO\AppData\Local\Temp\ccb2VAtU.s 			page 9


 156:DS1302.c      **** // DS1302_read
 157:DS1302.c      **** //
 158:DS1302.c      **** // This function reads a byte from the DS1302
 159:DS1302.c      **** // (clock or ram).
 160:DS1302.c      **** //
 161:DS1302.c      **** // The address could be like "0x80" or "0x81",
 162:DS1302.c      **** // the lowest bit is set anyway.
 163:DS1302.c      **** //
 164:DS1302.c      **** // This function may be called as the first function,
 165:DS1302.c      **** // also the pinMode is set.
 166:DS1302.c      **** //
 167:DS1302.c      **** uint8_t DS1302_read(int address)
 168:DS1302.c      **** {
 296              		.loc 1 168 0
 297              		.cfi_startproc
 298              		@ args = 0, pretend = 0, frame = 0
 299              		@ frame_needed = 0, uses_anonymous_args = 0
 300              	.LVL37:
 301 0000 10B5     		push	{r4, lr}
 302              		.cfi_def_cfa_offset 8
 303              		.cfi_offset 4, -8
 304              		.cfi_offset 14, -4
 169:DS1302.c      ****   uint8_t data;
 170:DS1302.c      **** 
 171:DS1302.c      ****   // set lowest bit (read bit) in address
 172:DS1302.c      ****   bitSet( address, DS1302_READBIT);  
 305              		.loc 1 172 0
 306 0002 40F00104 		orr	r4, r0, #1
 307              	.LVL38:
 173:DS1302.c      **** 
 174:DS1302.c      ****   _DS1302_start();
 308              		.loc 1 174 0
 309 0006 FFF7FEFF 		bl	_DS1302_start
 310              	.LVL39:
 175:DS1302.c      ****   // the I/O-line is released for the data
 176:DS1302.c      ****   _DS1302_togglewrite( address, true);  
 311              		.loc 1 176 0
 312 000a 0121     		movs	r1, #1
 313 000c E0B2     		uxtb	r0, r4
 314 000e FFF7FEFF 		bl	_DS1302_togglewrite
 315              	.LVL40:
 177:DS1302.c      ****   data = _DS1302_toggleread();
 316              		.loc 1 177 0
 317 0012 FFF7FEFF 		bl	_DS1302_toggleread
 318              	.LVL41:
 319 0016 0446     		mov	r4, r0
 320              	.LVL42:
 178:DS1302.c      ****   _DS1302_stop();
 321              		.loc 1 178 0
 322 0018 FFF7FEFF 		bl	_DS1302_stop
 323              	.LVL43:
 179:DS1302.c      **** 
 180:DS1302.c      ****   return (data);
 181:DS1302.c      **** }
 324              		.loc 1 181 0
 325 001c 2046     		mov	r0, r4
 326 001e 10BD     		pop	{r4, pc}
ARM GAS  C:\Users\USUARIO\AppData\Local\Temp\ccb2VAtU.s 			page 10


 327              		.cfi_endproc
 328              	.LFE69:
 329              		.size	DS1302_read, .-DS1302_read
 330              		.section	.text.DS1302_write,"ax",%progbits
 331              		.align	2
 332              		.global	DS1302_write
 333              		.thumb
 334              		.thumb_func
 335              		.type	DS1302_write, %function
 336              	DS1302_write:
 337              	.LFB70:
 182:DS1302.c      **** 
 183:DS1302.c      **** 
 184:DS1302.c      **** // --------------------------------------------------------
 185:DS1302.c      **** // DS1302_write
 186:DS1302.c      **** //
 187:DS1302.c      **** // This function writes a byte to the DS1302 (clock or ram).
 188:DS1302.c      **** //
 189:DS1302.c      **** // The address could be like "0x80" or "0x81",
 190:DS1302.c      **** // the lowest bit is cleared anyway.
 191:DS1302.c      **** //
 192:DS1302.c      **** // This function may be called as the first function,
 193:DS1302.c      **** // also the pinMode is set.
 194:DS1302.c      **** //
 195:DS1302.c      **** void DS1302_write( int address, uint8_t data)
 196:DS1302.c      **** {
 338              		.loc 1 196 0
 339              		.cfi_startproc
 340              		@ args = 0, pretend = 0, frame = 0
 341              		@ frame_needed = 0, uses_anonymous_args = 0
 342              	.LVL44:
 343 0000 38B5     		push	{r3, r4, r5, lr}
 344              		.cfi_def_cfa_offset 16
 345              		.cfi_offset 3, -16
 346              		.cfi_offset 4, -12
 347              		.cfi_offset 5, -8
 348              		.cfi_offset 14, -4
 349 0002 0C46     		mov	r4, r1
 197:DS1302.c      ****   // clear lowest bit (read bit) in address
 198:DS1302.c      ****   bitClear( address, DS1302_READBIT);  
 350              		.loc 1 198 0
 351 0004 20F00105 		bic	r5, r0, #1
 352              	.LVL45:
 199:DS1302.c      **** 
 200:DS1302.c      ****   _DS1302_start();
 353              		.loc 1 200 0
 354 0008 FFF7FEFF 		bl	_DS1302_start
 355              	.LVL46:
 201:DS1302.c      ****   // don't release the I/O-line
 202:DS1302.c      ****   _DS1302_togglewrite( address, false);
 356              		.loc 1 202 0
 357 000c 0021     		movs	r1, #0
 358 000e 05F0FE00 		and	r0, r5, #254
 359 0012 FFF7FEFF 		bl	_DS1302_togglewrite
 360              	.LVL47:
 203:DS1302.c      ****   // don't release the I/O-line
 204:DS1302.c      ****   _DS1302_togglewrite( data, false);
ARM GAS  C:\Users\USUARIO\AppData\Local\Temp\ccb2VAtU.s 			page 11


 361              		.loc 1 204 0
 362 0016 0021     		movs	r1, #0
 363 0018 2046     		mov	r0, r4
 364 001a FFF7FEFF 		bl	_DS1302_togglewrite
 365              	.LVL48:
 205:DS1302.c      ****   _DS1302_stop();  
 366              		.loc 1 205 0
 367 001e FFF7FEFF 		bl	_DS1302_stop
 368              	.LVL49:
 369 0022 38BD     		pop	{r3, r4, r5, pc}
 370              		.cfi_endproc
 371              	.LFE70:
 372              		.size	DS1302_write, .-DS1302_write
 373              		.section	.text.DS1302_clock_burst_read,"ax",%progbits
 374              		.align	2
 375              		.global	DS1302_clock_burst_read
 376              		.thumb
 377              		.thumb_func
 378              		.type	DS1302_clock_burst_read, %function
 379              	DS1302_clock_burst_read:
 380              	.LFB71:
 206:DS1302.c      **** }
 207:DS1302.c      **** 
 208:DS1302.c      **** 
 209:DS1302.c      **** // --------------------------------------------------------
 210:DS1302.c      **** // DS1302_clock_burst_read
 211:DS1302.c      **** //
 212:DS1302.c      **** // This function reads 8 bytes clock data in burst mode
 213:DS1302.c      **** // from the DS1302.
 214:DS1302.c      **** //
 215:DS1302.c      **** // This function may be called as the first function,
 216:DS1302.c      **** // also the pinMode is set.
 217:DS1302.c      **** //
 218:DS1302.c      **** void DS1302_clock_burst_read( uint8_t *p)
 219:DS1302.c      **** {
 381              		.loc 1 219 0
 382              		.cfi_startproc
 383              		@ args = 0, pretend = 0, frame = 0
 384              		@ frame_needed = 0, uses_anonymous_args = 0
 385              	.LVL50:
 386 0000 70B5     		push	{r4, r5, r6, lr}
 387              		.cfi_def_cfa_offset 16
 388              		.cfi_offset 4, -16
 389              		.cfi_offset 5, -12
 390              		.cfi_offset 6, -8
 391              		.cfi_offset 14, -4
 392 0002 0546     		mov	r5, r0
 220:DS1302.c      ****   int i;
 221:DS1302.c      **** 
 222:DS1302.c      ****   _DS1302_start();
 393              		.loc 1 222 0
 394 0004 FFF7FEFF 		bl	_DS1302_start
 395              	.LVL51:
 223:DS1302.c      **** 
 224:DS1302.c      ****   // Instead of the address,
 225:DS1302.c      ****   // the CLOCK_BURST_READ command is issued
 226:DS1302.c      ****   // the I/O-line is released for the data
ARM GAS  C:\Users\USUARIO\AppData\Local\Temp\ccb2VAtU.s 			page 12


 227:DS1302.c      ****   _DS1302_togglewrite( DS1302_CLOCK_BURST_READ, true);  
 396              		.loc 1 227 0
 397 0008 0121     		movs	r1, #1
 398 000a BF20     		movs	r0, #191
 399 000c FFF7FEFF 		bl	_DS1302_togglewrite
 400              	.LVL52:
 228:DS1302.c      **** 
 229:DS1302.c      ****   for( i=0; i<8; i++)
 401              		.loc 1 229 0
 402 0010 0024     		movs	r4, #0
 403 0012 05E0     		b	.L26
 404              	.LVL53:
 405              	.L27:
 230:DS1302.c      ****   {
 231:DS1302.c      ****     *p++ = _DS1302_toggleread();
 406              		.loc 1 231 0 discriminator 3
 407 0014 6E1C     		adds	r6, r5, #1
 408              	.LVL54:
 409 0016 FFF7FEFF 		bl	_DS1302_toggleread
 410              	.LVL55:
 411 001a 2870     		strb	r0, [r5]
 229:DS1302.c      ****   {
 412              		.loc 1 229 0 discriminator 3
 413 001c 0134     		adds	r4, r4, #1
 414              	.LVL56:
 415              		.loc 1 231 0 discriminator 3
 416 001e 3546     		mov	r5, r6
 417              	.LVL57:
 418              	.L26:
 229:DS1302.c      ****   {
 419              		.loc 1 229 0 discriminator 1
 420 0020 072C     		cmp	r4, #7
 421 0022 F7DD     		ble	.L27
 232:DS1302.c      ****   }
 233:DS1302.c      ****   _DS1302_stop();
 422              		.loc 1 233 0
 423 0024 FFF7FEFF 		bl	_DS1302_stop
 424              	.LVL58:
 425 0028 70BD     		pop	{r4, r5, r6, pc}
 426              		.cfi_endproc
 427              	.LFE71:
 428              		.size	DS1302_clock_burst_read, .-DS1302_clock_burst_read
 429 002a 00BF     		.section	.text.rtc_set_datetime,"ax",%progbits
 430              		.align	2
 431              		.global	rtc_set_datetime
 432              		.thumb
 433              		.thumb_func
 434              		.type	rtc_set_datetime, %function
 435              	rtc_set_datetime:
 436              	.LFB72:
 234:DS1302.c      **** }
 235:DS1302.c      **** 
 236:DS1302.c      **** void rtc_set_datetime(uint8 dayofmonth, uint8 month, uint8 year, uint8 dayofweek, uint8 hours, uint
 437              		.loc 1 236 0
 438              		.cfi_startproc
 439              		@ args = 8, pretend = 0, frame = 0
 440              		@ frame_needed = 0, uses_anonymous_args = 0
ARM GAS  C:\Users\USUARIO\AppData\Local\Temp\ccb2VAtU.s 			page 13


 441              	.LVL59:
 442 0000 F8B5     		push	{r3, r4, r5, r6, r7, lr}
 443              		.cfi_def_cfa_offset 24
 444              		.cfi_offset 3, -24
 445              		.cfi_offset 4, -20
 446              		.cfi_offset 5, -16
 447              		.cfi_offset 6, -12
 448              		.cfi_offset 7, -8
 449              		.cfi_offset 14, -4
 450 0002 9DF818E0 		ldrb	lr, [sp, #24]	@ zero_extendqisi2
 451 0006 9DF81C60 		ldrb	r6, [sp, #28]	@ zero_extendqisi2
 237:DS1302.c      ****     // Fill the structure with zeros to make
 238:DS1302.c      ****     // any unused bits zero
 239:DS1302.c      ****     memset ((char *) &rtc2, 0, sizeof(rtc2));
 452              		.loc 1 239 0
 453 000a 274C     		ldr	r4, .L31
 454 000c 0025     		movs	r5, #0
 455 000e 2560     		str	r5, [r4]	@ unaligned
 456 0010 6560     		str	r5, [r4, #4]	@ unaligned
 240:DS1302.c      ****     
 241:DS1302.c      ****     rtc2.Seconds    = bin2bcd_l( 0);
 242:DS1302.c      ****     rtc2.Seconds10  = bin2bcd_h( 0);
 243:DS1302.c      ****     rtc2.CH         = 0;      // 1 for Clock Halt, 0 to run;
 244:DS1302.c      ****     rtc2.Minutes    = bin2bcd_l( minutes);
 457              		.loc 1 244 0
 458 0012 A5F13335 		sub	r5, r5, #858993459
 459 0016 A5FB06C7 		umull	ip, r7, r5, r6
 460 001a FF08     		lsrs	r7, r7, #3
 461 001c 07EB870C 		add	ip, r7, r7, lsl #2
 462 0020 A6EB4C0C 		sub	ip, r6, ip, lsl #1
 463 0024 6678     		ldrb	r6, [r4, #1]	@ zero_extendqisi2
 464 0026 6CF30306 		bfi	r6, ip, #0, #4
 245:DS1302.c      ****     rtc2.Minutes10  = bin2bcd_h( minutes);
 465              		.loc 1 245 0
 466 002a 67F30616 		bfi	r6, r7, #4, #3
 467 002e 6670     		strb	r6, [r4, #1]
 246:DS1302.c      ****     // To use the 12 hour format,
 247:DS1302.c      ****     // use it like these four lines:
 248:DS1302.c      ****     //    rtc.h12.Hour   = bin2bcd_l( hours);
 249:DS1302.c      ****     //    rtc.h12.Hour10 = bin2bcd_h( hours);
 250:DS1302.c      ****     //    rtc.h12.AM_PM  = 0;     // AM = 0
 251:DS1302.c      ****     //    rtc.h12.hour_12_24 = 1; // 1 for 24 hour format
 252:DS1302.c      ****     rtc2.h24.Hour   = bin2bcd_l( hours);
 468              		.loc 1 252 0
 469 0030 A5FB0E67 		umull	r6, r7, r5, lr
 470 0034 FF08     		lsrs	r7, r7, #3
 471 0036 07EB8706 		add	r6, r7, r7, lsl #2
 472 003a AEEB460E 		sub	lr, lr, r6, lsl #1
 473 003e A678     		ldrb	r6, [r4, #2]	@ zero_extendqisi2
 474 0040 6EF30306 		bfi	r6, lr, #0, #4
 253:DS1302.c      ****     rtc2.h24.Hour10 = bin2bcd_h( hours);
 475              		.loc 1 253 0
 476 0044 67F30516 		bfi	r6, r7, #4, #2
 477 0048 A670     		strb	r6, [r4, #2]
 254:DS1302.c      ****     rtc2.h24.hour_12_24 = 0; // 0 for 24 hour format
 255:DS1302.c      ****     rtc2.Date       = bin2bcd_l( dayofmonth);
 478              		.loc 1 255 0
ARM GAS  C:\Users\USUARIO\AppData\Local\Temp\ccb2VAtU.s 			page 14


 479 004a A5FB0076 		umull	r7, r6, r5, r0
 480 004e F608     		lsrs	r6, r6, #3
 481 0050 06EB8607 		add	r7, r6, r6, lsl #2
 482 0054 A0EB4707 		sub	r7, r0, r7, lsl #1
 483 0058 E078     		ldrb	r0, [r4, #3]	@ zero_extendqisi2
 484              	.LVL60:
 485 005a 67F30300 		bfi	r0, r7, #0, #4
 256:DS1302.c      ****     rtc2.Date10     = bin2bcd_h( dayofmonth);
 486              		.loc 1 256 0
 487 005e 66F30510 		bfi	r0, r6, #4, #2
 488 0062 E070     		strb	r0, [r4, #3]
 257:DS1302.c      ****     rtc2.Month      = bin2bcd_l( month);
 489              		.loc 1 257 0
 490 0064 A5FB0160 		umull	r6, r0, r5, r1
 491 0068 C008     		lsrs	r0, r0, #3
 492 006a 00EB8006 		add	r6, r0, r0, lsl #2
 493 006e A1EB4606 		sub	r6, r1, r6, lsl #1
 494 0072 2179     		ldrb	r1, [r4, #4]	@ zero_extendqisi2
 495              	.LVL61:
 496 0074 66F30301 		bfi	r1, r6, #0, #4
 258:DS1302.c      ****     rtc2.Month10    = bin2bcd_h( month);
 497              		.loc 1 258 0
 498 0078 60F30411 		bfi	r1, r0, #4, #1
 499 007c 2171     		strb	r1, [r4, #4]
 259:DS1302.c      ****     rtc2.Day        = dayofweek;
 500              		.loc 1 259 0
 501 007e 6179     		ldrb	r1, [r4, #5]	@ zero_extendqisi2
 502 0080 63F30201 		bfi	r1, r3, #0, #3
 503              	.LVL62:
 504 0084 6171     		strb	r1, [r4, #5]
 260:DS1302.c      ****     rtc2.Year       = bin2bcd_l( year);
 505              		.loc 1 260 0
 506 0086 A5FB0235 		umull	r3, r5, r5, r2
 507 008a ED08     		lsrs	r5, r5, #3
 508 008c 05EB8503 		add	r3, r5, r5, lsl #2
 509 0090 A2EB4302 		sub	r2, r2, r3, lsl #1
 510              	.LVL63:
 511 0094 A379     		ldrb	r3, [r4, #6]	@ zero_extendqisi2
 512 0096 62F30303 		bfi	r3, r2, #0, #4
 261:DS1302.c      ****     rtc2.Year10     = bin2bcd_h( year);
 513              		.loc 1 261 0
 514 009a 65F30713 		bfi	r3, r5, #4, #4
 515 009e A371     		strb	r3, [r4, #6]
 262:DS1302.c      ****     rtc2.WP = 0;  
 263:DS1302.c      ****     
 264:DS1302.c      ****     // Write all clock data at once (burst mode).
 265:DS1302.c      ****     DS1302_clock_burst_write( (uint8_t *) &rtc2);
 516              		.loc 1 265 0
 517 00a0 2046     		mov	r0, r4
 518 00a2 FFF7FEFF 		bl	DS1302_clock_burst_write
 519              	.LVL64:
 520 00a6 F8BD     		pop	{r3, r4, r5, r6, r7, pc}
 521              	.LVL65:
 522              	.L32:
 523              		.align	2
 524              	.L31:
 525 00a8 00000000 		.word	rtc2
ARM GAS  C:\Users\USUARIO\AppData\Local\Temp\ccb2VAtU.s 			page 15


 526              		.cfi_endproc
 527              	.LFE72:
 528              		.size	rtc_set_datetime, .-rtc_set_datetime
 529              		.section	.text.rtc_get_date,"ax",%progbits
 530              		.align	2
 531              		.global	rtc_get_date
 532              		.thumb
 533              		.thumb_func
 534              		.type	rtc_get_date, %function
 535              	rtc_get_date:
 536              	.LFB73:
 266:DS1302.c      **** }
 267:DS1302.c      **** 
 268:DS1302.c      **** void rtc_get_date(uint8* day, uint8* mth, uint8* year, uint8* dow) {
 537              		.loc 1 268 0
 538              		.cfi_startproc
 539              		@ args = 0, pretend = 0, frame = 0
 540              		@ frame_needed = 0, uses_anonymous_args = 0
 541              	.LVL66:
 542 0000 2DE9F041 		push	{r4, r5, r6, r7, r8, lr}
 543              		.cfi_def_cfa_offset 24
 544              		.cfi_offset 4, -24
 545              		.cfi_offset 5, -20
 546              		.cfi_offset 6, -16
 547              		.cfi_offset 7, -12
 548              		.cfi_offset 8, -8
 549              		.cfi_offset 14, -4
 550 0004 8046     		mov	r8, r0
 551 0006 0F46     		mov	r7, r1
 552 0008 1646     		mov	r6, r2
 553 000a 1D46     		mov	r5, r3
 269:DS1302.c      ****     // Read all clock data at once (burst mode).
 270:DS1302.c      ****     DS1302_clock_burst_read( (uint8_t *) &rtc2);
 554              		.loc 1 270 0
 555 000c 144C     		ldr	r4, .L35
 556 000e 2046     		mov	r0, r4
 557              	.LVL67:
 558 0010 FFF7FEFF 		bl	DS1302_clock_burst_read
 559              	.LVL68:
 271:DS1302.c      ****    *day=bcd2bin( rtc2.Date10, rtc2.Date);
 560              		.loc 1 271 0
 561 0014 E278     		ldrb	r2, [r4, #3]	@ zero_extendqisi2
 562 0016 C2F30113 		ubfx	r3, r2, #4, #2
 563 001a 02F00F01 		and	r1, r2, #15
 564 001e 03EB8303 		add	r3, r3, r3, lsl #2
 565 0022 5A00     		lsls	r2, r3, #1
 566 0024 0A44     		add	r2, r2, r1
 567 0026 88F80020 		strb	r2, [r8]
 272:DS1302.c      ****    *mth=bcd2bin( rtc2.Month10, rtc2.Month);
 568              		.loc 1 272 0
 569 002a 2279     		ldrb	r2, [r4, #4]	@ zero_extendqisi2
 570 002c C2F30013 		ubfx	r3, r2, #4, #1
 571 0030 02F00F01 		and	r1, r2, #15
 572 0034 9A00     		lsls	r2, r3, #2
 573 0036 1344     		add	r3, r3, r2
 574 0038 5A00     		lsls	r2, r3, #1
 575 003a 0A44     		add	r2, r2, r1
ARM GAS  C:\Users\USUARIO\AppData\Local\Temp\ccb2VAtU.s 			page 16


 576 003c 3A70     		strb	r2, [r7]
 273:DS1302.c      ****    *year=bcd2bin( rtc2.Year10, rtc2.Year);
 577              		.loc 1 273 0
 578 003e A279     		ldrb	r2, [r4, #6]	@ zero_extendqisi2
 579 0040 C2F30313 		ubfx	r3, r2, #4, #4
 580 0044 02F00F01 		and	r1, r2, #15
 581 0048 03EB8303 		add	r3, r3, r3, lsl #2
 582 004c 5A00     		lsls	r2, r3, #1
 583 004e 0A44     		add	r2, r2, r1
 584 0050 3270     		strb	r2, [r6]
 274:DS1302.c      ****    *dow=rtc2.Day;
 585              		.loc 1 274 0
 586 0052 6379     		ldrb	r3, [r4, #5]	@ zero_extendqisi2
 587 0054 C3F30203 		ubfx	r3, r3, #0, #3
 588 0058 2B70     		strb	r3, [r5]
 589 005a BDE8F081 		pop	{r4, r5, r6, r7, r8, pc}
 590              	.LVL69:
 591              	.L36:
 592 005e 00BF     		.align	2
 593              	.L35:
 594 0060 00000000 		.word	rtc2
 595              		.cfi_endproc
 596              	.LFE73:
 597              		.size	rtc_get_date, .-rtc_get_date
 598              		.section	.text.rtc_get_time,"ax",%progbits
 599              		.align	2
 600              		.global	rtc_get_time
 601              		.thumb
 602              		.thumb_func
 603              		.type	rtc_get_time, %function
 604              	rtc_get_time:
 605              	.LFB74:
 275:DS1302.c      **** }
 276:DS1302.c      **** 
 277:DS1302.c      **** void rtc_get_time(uint8* hr, uint8* min, uint8* sec) {
 606              		.loc 1 277 0
 607              		.cfi_startproc
 608              		@ args = 0, pretend = 0, frame = 0
 609              		@ frame_needed = 0, uses_anonymous_args = 0
 610              	.LVL70:
 611 0000 F8B5     		push	{r3, r4, r5, r6, r7, lr}
 612              		.cfi_def_cfa_offset 24
 613              		.cfi_offset 3, -24
 614              		.cfi_offset 4, -20
 615              		.cfi_offset 5, -16
 616              		.cfi_offset 6, -12
 617              		.cfi_offset 7, -8
 618              		.cfi_offset 14, -4
 619 0002 0746     		mov	r7, r0
 620 0004 0E46     		mov	r6, r1
 621 0006 1446     		mov	r4, r2
 278:DS1302.c      ****     // Read all clock data at once (burst mode).
 279:DS1302.c      ****     DS1302_clock_burst_read( (uint8_t *) &rtc2);
 622              		.loc 1 279 0
 623 0008 114D     		ldr	r5, .L39
 624 000a 2846     		mov	r0, r5
 625              	.LVL71:
ARM GAS  C:\Users\USUARIO\AppData\Local\Temp\ccb2VAtU.s 			page 17


 626 000c FFF7FEFF 		bl	DS1302_clock_burst_read
 627              	.LVL72:
 280:DS1302.c      ****    *hr=bcd2bin( rtc2.h24.Hour10, rtc2.h24.Hour);
 628              		.loc 1 280 0
 629 0010 AA78     		ldrb	r2, [r5, #2]	@ zero_extendqisi2
 630 0012 C2F30113 		ubfx	r3, r2, #4, #2
 631 0016 02F00F01 		and	r1, r2, #15
 632 001a 03EB8303 		add	r3, r3, r3, lsl #2
 633 001e 5A00     		lsls	r2, r3, #1
 634 0020 0A44     		add	r2, r2, r1
 635 0022 3A70     		strb	r2, [r7]
 281:DS1302.c      ****    *min=bcd2bin( rtc2.Minutes10, rtc2.Minutes);
 636              		.loc 1 281 0
 637 0024 6A78     		ldrb	r2, [r5, #1]	@ zero_extendqisi2
 638 0026 C2F30213 		ubfx	r3, r2, #4, #3
 639 002a 02F00F01 		and	r1, r2, #15
 640 002e 03EB8303 		add	r3, r3, r3, lsl #2
 641 0032 5A00     		lsls	r2, r3, #1
 642 0034 0A44     		add	r2, r2, r1
 643 0036 3270     		strb	r2, [r6]
 282:DS1302.c      ****    *sec=bcd2bin( rtc2.Seconds10, rtc2.Seconds);
 644              		.loc 1 282 0
 645 0038 2A78     		ldrb	r2, [r5]	@ zero_extendqisi2
 646 003a C2F30213 		ubfx	r3, r2, #4, #3
 647 003e 02F00F01 		and	r1, r2, #15
 648 0042 03EB8303 		add	r3, r3, r3, lsl #2
 649 0046 5A00     		lsls	r2, r3, #1
 650 0048 0A44     		add	r2, r2, r1
 651 004a 2270     		strb	r2, [r4]
 652 004c F8BD     		pop	{r3, r4, r5, r6, r7, pc}
 653              	.LVL73:
 654              	.L40:
 655 004e 00BF     		.align	2
 656              	.L39:
 657 0050 00000000 		.word	rtc2
 658              		.cfi_endproc
 659              	.LFE74:
 660              		.size	rtc_get_time, .-rtc_get_time
 661              		.comm	rtc2,8,4
 662              		.text
 663              	.Letext0:
 664              		.file 2 "c:\\program files (x86)\\cypress\\psoc creator\\4.3\\psoc creator\\import\\gnu\\arm\\5.4.
 665              		.file 3 "c:\\program files (x86)\\cypress\\psoc creator\\4.3\\psoc creator\\import\\gnu\\arm\\5.4.
 666              		.file 4 "Generated_Source\\PSoC5/cytypes.h"
 667              		.file 5 "./DS1302.h"
 668              		.file 6 "Generated_Source\\PSoC5/core_cm3.h"
 669              		.file 7 "Generated_Source\\PSoC5/DS1302_CE_PIN.h"
 670              		.file 8 "Generated_Source\\PSoC5/DS1302_SCLK_PIN.h"
 671              		.file 9 "Generated_Source\\PSoC5/CyLib.h"
 672              		.file 10 "Generated_Source\\PSoC5/DS1302_IO_PIN.h"