ARM GAS  C:\Users\USUARIO\AppData\Local\Temp\ccr2Jkwh.s 			page 1


   1              		.syntax unified
   2              		.cpu cortex-m3
   3              		.fpu softvfp
   4              		.eabi_attribute 20, 1
   5              		.eabi_attribute 21, 1
   6              		.eabi_attribute 23, 3
   7              		.eabi_attribute 24, 1
   8              		.eabi_attribute 25, 1
   9              		.eabi_attribute 26, 1
  10              		.eabi_attribute 30, 1
  11              		.eabi_attribute 34, 1
  12              		.eabi_attribute 18, 4
  13              		.thumb
  14              		.syntax unified
  15              		.file	"main.c"
  16              		.text
  17              	.Ltext0:
  18              		.cfi_sections	.debug_frame
  19              		.syntax unified
  20              		.global _printf_float
  21              		.thumb
  22              		.syntax unified
  23              		.section	.text.Reloj2,"ax",%progbits
  24              		.align	2
  25              		.global	Reloj2
  26              		.thumb
  27              		.thumb_func
  28              		.type	Reloj2, %function
  29              	Reloj2:
  30              	.LFB81:
  31              		.file 1 "main.c"
   1:main.c        **** /* ========================================
   2:main.c        ****  *
   3:main.c        ****  * Copyright YOUR COMPANY, THE YEAR
   4:main.c        ****  * All Rights Reserved
   5:main.c        ****  * UNPUBLISHED, LICENSED SOFTWARE.
   6:main.c        ****  *
   7:main.c        ****  * CONFIDENTIAL AND PROPRIETARY INFORMATION
   8:main.c        ****  * WHICH IS THE PROPERTY OF your company.
   9:main.c        ****  *
  10:main.c        ****  * ========================================
  11:main.c        **** */
  12:main.c        **** #include <BMP180.h>
  13:main.c        **** #include "removeOffsetNoise.h"
  14:main.c        **** #include "getResistance.h"
  15:main.c        **** #include <stdio.h>
  16:main.c        **** #include <main.h>
  17:main.c        **** #include <math.h>
  18:main.c        **** #include <stdlib.h>
  19:main.c        **** #include <DS1302.h>
  20:main.c        **** 
  21:main.c        **** #if defined (__GNUC__)
  22:main.c        ****     /* Add an explicit reference to the floating point printf library */
  23:main.c        ****     /* to allow the usage of floating point conversion specifiers. */
  24:main.c        ****     /* This is not linked in by default with the newlib-nano library. */
  25:main.c        ****     asm (".global _printf_float");
  26:main.c        **** #endif
ARM GAS  C:\Users\USUARIO\AppData\Local\Temp\ccr2Jkwh.s 			page 2


  27:main.c        **** 
  28:main.c        **** #define OFF 0
  29:main.c        **** #define ON  1
  30:main.c        **** #define false 0
  31:main.c        **** #define true  1
  32:main.c        **** #define LOW 0
  33:main.c        **** #define HIGH  1
  34:main.c        **** 
  35:main.c        **** int8 Regular[12]={0,3,3,6,1,4,6,2,5,0,3,5};
  36:main.c        **** int8 Bisiesto[12]={0,3,4,0,2,5,0,3,6,1,4,6};
  37:main.c        **** 
  38:main.c        **** int16 offset;
  39:main.c        **** int16 coldJnTemp;
  40:main.c        **** int32 tcColdJnuVolt;
  41:main.c        **** int32 hotJnCount;
  42:main.c        **** int32 filHotJnCount;
  43:main.c        **** int32 tcHotJnuVolt;
  44:main.c        **** int32 tcuVolt;
  45:main.c        **** int32 tcTemp;
  46:main.c        **** char displayStr[100];	
  47:main.c        **** uint8 first = 0;
  48:main.c        **** extern uint8 const CYCODE LCD_customFonts[];  
  49:main.c        **** uint8_t i,pwm1,pwm2,n,PantallaPrincipal,Programa,Opcion2,Derivativo,Integral,MediaMovil,MediaMovil2
  50:main.c        **** uint16 ctr,SetpointH,SetpointHAnt,derivativo_ant;
  51:main.c        **** float Setpoint,Setpoint1,Setpoint2,Setpoint3,SetpointAnt;
  52:main.c        **** uint32_t output,tGrafica;
  53:main.c        **** short flagButton0,flagButton1,flagButton2,flagButton3,dibujo,pulsoAumentar,pulsoDisminuir,flagBorra
  54:main.c        **** short estadoCR2,estadoCR3,inicioControlT,inicioControlH;
  55:main.c        **** float valor,pendiente,Ganancia,GananciaIn,vacio,pwmPeltier;
  56:main.c        **** 
  57:main.c        **** #define RX_BUFFER_SIZE  10
  58:main.c        **** char Rx_Buffer[RX_BUFFER_SIZE+1];
  59:main.c        **** char Rx_Buffer2[RX_BUFFER_SIZE+1];
  60:main.c        **** uint8 RX_Wr_Index=0;
  61:main.c        **** uint8 RX_Rd_Index=0;
  62:main.c        **** uint8 RX_Counter=0;
  63:main.c        **** 
  64:main.c        **** char Rx_Buffer3[RX_BUFFER_SIZE+1];
  65:main.c        **** char Rx_Buffer4[RX_BUFFER_SIZE+1];
  66:main.c        **** uint8 RX_Wr_Index2=0;
  67:main.c        **** uint8 RX_Rd_Index2=0;
  68:main.c        **** uint8 RX_Counter2=0;
  69:main.c        **** 
  70:main.c        **** uint8 i2cbuf[4];
  71:main.c        **** uint8 iconoGrande[15]={75,76,77,78,79,27,45};
  72:main.c        **** uint8 iconoPeque[15]={80,81,82,83,84,37,16};
  73:main.c        **** char const texto[9][20]={"PROGRAMA 1","PROGRAMA 2","PROGRAMA 3","PROGRAMA 4","PROGRAMA 5","TEST","C
  74:main.c        **** 
  75:main.c        **** uint8 Dato2,Dato3,Dato_Exitoso,Dato_Exitoso2,Menu,MenuAntt,MenuAnt,Menu2,MenuAntt2,z,TipoClave,Segm
  76:main.c        **** uint8 Dia,Mes,Year,Hora,Minuto,Segundo,dow;
  77:main.c        **** short Inicio,Inicio2,EstadoPaso,entro,GuardaEEPROM,rampa,Minutos,Horas,flagTemperatura,Test,x1,x10,
  78:main.c        **** uint8 Password[4];
  79:main.c        **** uint8 tiempo_esterilizacion,y,hEst,mEst,hEstp,mEstp,hEstpAnt,mEstpAnt,Segmento,conteo;
  80:main.c        **** uint16 tiempos,tiempos3,tiempoctrl,Tc,Tp,tiemporeset,TiempoControl,tiemporecta,tiemposetpoint,tinic
  81:main.c        **** short mensaje,Lectura2,flag_setpoint,flag_tiempocalentamiento,Lectura,flagup,flagdn,flagRampa,flag_
  82:main.c        **** short Finalizo,conteoPregunta,grafica,imprime,Infinito,flagControlT,flagControlH,Controlando,flag_c
  83:main.c        **** float X[2]={0.0,0.0};
ARM GAS  C:\Users\USUARIO\AppData\Local\Temp\ccr2Jkwh.s 			page 3


  84:main.c        **** float Temperatura,Temperatura2,Aumento,PendienteActual,DifPendiente,TempeInicial,Pendiente,Temperat
  85:main.c        **** float error,Potencia,TpulsoMax,TpulsoMax2,Tpulsomin,Tpulsomin2;
  86:main.c        **** uint16 TiempoActual,MinutosActual,HorasActual,Tiempo,TiempoRampa,tPregunta;
  87:main.c        **** uint8 dataReady = 0u,GananciaR;
  88:main.c        **** uint16 result;
  89:main.c        **** float Prom,Prom2,V0,V1,Temperature;
  90:main.c        **** uint8 YearTx=0,MesTx=0,DiaTx=0,HoraTx=0,MinutoTx=0,dowTx=0;
  91:main.c        **** 
  92:main.c        **** int32 rtdRes[2];
  93:main.c        **** int32 rtdTemp[2];
  94:main.c        **** int32 vRef,filt;
  95:main.c        **** uint8 i,l,h,entero;
  96:main.c        **** uint8 ll,hh;
  97:main.c        **** int32 decTemp[2];
  98:main.c        **** uint16 decTemplf,decTemphf;
  99:main.c        **** int32 fracTemp[2];
 100:main.c        **** uint16 adcReading,presmV;
 101:main.c        **** uint32 lm35,tmp;
 102:main.c        **** float presion,Temporal,presionHorno,Tam;
 103:main.c        **** uint8 i,temperaturaSeleccionada;
 104:main.c        **** uint8 l2,h2,k,kk,tEnvioUSB,tmuestreoUSB,controlH,controlT,controlR;
 105:main.c        **** float promedio2[20];
 106:main.c        **** 
 107:main.c        **** float promedioT1[90];
 108:main.c        **** float promedioT2[90];
 109:main.c        **** float promediolm35[20];
 110:main.c        **** 
 111:main.c        **** /*-------Variables Humedad-----------*/
 112:main.c        **** short Humidificar,flagHumedad,humidificador;
 113:main.c        **** uint8 f,T1Humedad,T2Humedad,T3Humedad;
 114:main.c        **** uint16 tdehumidificador,thumidificador,tllenado;
 115:main.c        **** float RH2,Tam,Humedad;
 116:main.c        **** float promedioH[80];
 117:main.c        **** float promedioTa[80];
 118:main.c        **** /*-------------------------------------*/
 119:main.c        **** 
 120:main.c        **** void LeeEEPROM(){
 121:main.c        ****    mEstp=EEPROM_ReadByte(0);CyDelay(5);  
 122:main.c        ****    hEstp=EEPROM_ReadByte(1);CyDelay(5);  
 123:main.c        ****    
 124:main.c        ****    entero=EEPROM_ReadByte(80);CyDelay(5);  
 125:main.c        ****    Temporal=EEPROM_ReadByte(81);CyDelay(5);  
 126:main.c        ****    Temporal=Temporal/10.0;
 127:main.c        ****    Setpoint=entero+Temporal;  
 128:main.c        ****    
 129:main.c        ****    entero=EEPROM_ReadByte(82);CyDelay(5);  
 130:main.c        ****    Temporal=EEPROM_ReadByte(83);CyDelay(5);  
 131:main.c        ****    Temporal=Temporal/10.0;
 132:main.c        ****    Setpoint1=entero+Temporal;  
 133:main.c        ****    
 134:main.c        ****    entero=EEPROM_ReadByte(84);CyDelay(5);  
 135:main.c        ****    Temporal=EEPROM_ReadByte(85);CyDelay(5);  
 136:main.c        ****    Temporal=Temporal/10.0;
 137:main.c        ****    Setpoint2=entero+Temporal;  
 138:main.c        **** 
 139:main.c        ****    entero=EEPROM_ReadByte(86);CyDelay(5);  
 140:main.c        ****    Temporal=EEPROM_ReadByte(87);CyDelay(5);  
ARM GAS  C:\Users\USUARIO\AppData\Local\Temp\ccr2Jkwh.s 			page 4


 141:main.c        ****    Temporal=Temporal/10.0;
 142:main.c        ****    Setpoint3=entero+Temporal;  
 143:main.c        **** 
 144:main.c        ****    Password[0]=EEPROM_ReadByte(10);CyDelay(5);  
 145:main.c        ****    Password[1]=EEPROM_ReadByte(11);CyDelay(5);  
 146:main.c        ****    Password[2]=EEPROM_ReadByte(12);CyDelay(5);  
 147:main.c        ****    Password[3]=EEPROM_ReadByte(13);CyDelay(5);  
 148:main.c        ****    
 149:main.c        ****    Ganancia=EEPROM_ReadByte(30);CyDelay(5);  
 150:main.c        ****    Derivativo=EEPROM_ReadByte(31);CyDelay(5);  
 151:main.c        ****    Integral=EEPROM_ReadByte(32);CyDelay(5);  
 152:main.c        ****    Tciclo=EEPROM_ReadByte(33);CyDelay(5);  
 153:main.c        ****    Ajuste=EEPROM_ReadByte(34);CyDelay(5);  
 154:main.c        ****    Ajusten=EEPROM_ReadByte(35);CyDelay(5);  
 155:main.c        ****    MediaMovil=EEPROM_ReadByte(36);CyDelay(5);  
 156:main.c        ****    Ajuste2=EEPROM_ReadByte(37);CyDelay(5);
 157:main.c        ****    Ajusten2=EEPROM_ReadByte(38);CyDelay(5);
 158:main.c        ****    //MediaMovil2=EEPROM_ReadByte(39);CyDelay(5);  
 159:main.c        ****    tmuestreoUSB=EEPROM_ReadByte(40);CyDelay(5);
 160:main.c        ****    controlT=EEPROM_ReadByte(41);CyDelay(5);
 161:main.c        ****    //controlH=EEPROM_ReadByte(42);CyDelay(5);
 162:main.c        ****    controlR=EEPROM_ReadByte(43);CyDelay(5);
 163:main.c        ****    //Coeficiente=EEPROM_ReadByte(37);CyDelay(5);  
 164:main.c        ****    //Saturacion=EEPROM_ReadByte(38);CyDelay(5);  
 165:main.c        ****    GananciaR=Ganancia;
 166:main.c        ****    
 167:main.c        ****    for(i=0;i<20;i++){//Lee valores almacenados de ciclos personalizados
 168:main.c        ****       rampas[i].TemperaturaInt=EEPROM_ReadByte(100+(i*6)); 
 169:main.c        ****       rampas[i].TemperaturaDec=EEPROM_ReadByte(101+(i*6)); 
 170:main.c        ****       //rampas[i].Humedad=EEPROM_ReadByte(102+(i*6)); 
 171:main.c        ****       rampas[i].Horas=EEPROM_ReadByte(103+(i*6)); 
 172:main.c        ****       rampas[i].Minutos=EEPROM_ReadByte(104+(i*6)); 
 173:main.c        ****       
 174:main.c        ****       rampas[i].Temperatura=rampas[i].TemperaturaInt+inttofloat(rampas[i].TemperaturaDec);
 175:main.c        ****       if(rampas[i].Temperatura>60.0 || rampas[i].Temperatura<0.1)rampas[i].Temperatura=30.0;
 176:main.c        ****       //if(rampas[i].Humedad>95 || rampas[i].Humedad<10)rampas[i].Humedad=60.0;
 177:main.c        ****       if(rampas[i].Horas>99)rampas[i].Horas=10;
 178:main.c        ****       if(rampas[i].Minutos>59)rampas[i].Minutos=10;
 179:main.c        ****    }
 180:main.c        **** }
 181:main.c        **** 
 182:main.c        **** void LimitaValores(){
 183:main.c        ****    if(mEstp>59){
 184:main.c        ****       mEstp=10;EEPROM_WriteByte(10,0);CyDelay(20);
 185:main.c        ****    }
 186:main.c        ****    if(hEstp>99){
 187:main.c        ****       hEstp=10;EEPROM_WriteByte(10,1);CyDelay(20);
 188:main.c        ****    }
 189:main.c        ****    if(Password[0]>9 || Password[0]<0){
 190:main.c        ****       Password[0]=0;EEPROM_WriteByte(0,10);CyDelay(20);
 191:main.c        ****    }
 192:main.c        ****    if(Password[1]>9 || Password[1]<0){
 193:main.c        ****       Password[1]=0;EEPROM_WriteByte(0,11);CyDelay(20);
 194:main.c        ****    }
 195:main.c        ****    if(Password[2]>9 || Password[2]<0){
 196:main.c        ****       Password[2]=0;EEPROM_WriteByte(0,12);CyDelay(20);
 197:main.c        ****    }
ARM GAS  C:\Users\USUARIO\AppData\Local\Temp\ccr2Jkwh.s 			page 5


 198:main.c        ****    if(Password[3]>9 || Password[3]<0){
 199:main.c        ****       Password[3]=0;EEPROM_WriteByte(0,13);CyDelay(20);
 200:main.c        ****    }
 201:main.c        ****    if(Setpoint>60.0 || Setpoint<0.0){
 202:main.c        ****       Setpoint=30.0;EEPROM_WriteByte(30,80);CyDelay(20);EEPROM_WriteByte(0,81);CyDelay(20);
 203:main.c        ****    }
 204:main.c        ****    if(Setpoint1>60.0 || Setpoint1<0.0){
 205:main.c        ****       Setpoint1=30.0;EEPROM_WriteByte(30,82);CyDelay(20);EEPROM_WriteByte(0,83);CyDelay(20);
 206:main.c        ****    }
 207:main.c        ****    if(Setpoint2>60.0 || Setpoint2<0.0){
 208:main.c        ****       Setpoint2=30.0;EEPROM_WriteByte(30,84);CyDelay(20);EEPROM_WriteByte(0,85);CyDelay(20);
 209:main.c        ****    }
 210:main.c        ****    if(Setpoint3>60.0 || Setpoint3<0.0){
 211:main.c        ****       Setpoint3=30.0;EEPROM_WriteByte(30,86);CyDelay(20);EEPROM_WriteByte(0,87);CyDelay(20);
 212:main.c        ****    }
 213:main.c        ****    if(Ganancia>20 || Ganancia<1){
 214:main.c        ****       Ganancia=2;EEPROM_WriteByte(2,30);CyDelay(20);
 215:main.c        ****    }
 216:main.c        ****    if(Derivativo>80 || Derivativo<5){
 217:main.c        ****       Derivativo=80;EEPROM_WriteByte(80,31);CyDelay(20);
 218:main.c        ****    }
 219:main.c        ****    if(Integral>4 || Integral<1){
 220:main.c        ****       Integral=1;EEPROM_WriteByte(1,32);CyDelay(20);
 221:main.c        ****    }
 222:main.c        ****    if(Tciclo>20 || Tciclo<5){
 223:main.c        ****       Tciclo=5;EEPROM_WriteByte(5,33);CyDelay(20);
 224:main.c        ****    }
 225:main.c        ****    if(Ajuste>100){
 226:main.c        ****       Ajuste=0;EEPROM_WriteByte(0,34);CyDelay(20);
 227:main.c        ****    }
 228:main.c        ****    if(Ajusten>100){
 229:main.c        ****       Ajusten=0;EEPROM_WriteByte(0,35);CyDelay(20);
 230:main.c        ****    }
 231:main.c        ****    if(MediaMovil>80 || MediaMovil<10){
 232:main.c        ****       MediaMovil=80;EEPROM_WriteByte(80,36);CyDelay(20);
 233:main.c        ****    }
 234:main.c        ****    if(Ajuste2>100){
 235:main.c        ****       Ajuste2=0;EEPROM_WriteByte(0,37);CyDelay(20);
 236:main.c        ****    }
 237:main.c        ****    if(Ajusten2>100){
 238:main.c        ****       Ajusten2=0;EEPROM_WriteByte(0,38);CyDelay(20);
 239:main.c        ****    }
 240:main.c        ****    //if(MediaMovil2>80 || MediaMovil2<10){
 241:main.c        ****    //   MediaMovil2=40;EEPROM_WriteByte(40,39);CyDelay(20);
 242:main.c        ****    //}
 243:main.c        ****    if(controlT>1){
 244:main.c        ****       controlT=0;EEPROM_WriteByte(0,41);CyDelay(20);
 245:main.c        ****    }
 246:main.c        ****    //if(controlH>1){
 247:main.c        ****    //   controlH=0;EEPROM_WriteByte(0,42);CyDelay(20);
 248:main.c        ****    //}
 249:main.c        ****    if(controlR>1){
 250:main.c        ****       controlR=0;EEPROM_WriteByte(0,43);CyDelay(20);
 251:main.c        ****    }
 252:main.c        **** }
 253:main.c        **** 
 254:main.c        **** void ActualizaRecta(){
ARM GAS  C:\Users\USUARIO\AppData\Local\Temp\ccr2Jkwh.s 			page 6


 255:main.c        ****    X[y]=Temperatura;
 256:main.c        ****    y++;
 257:main.c        ****    if(y>=2){
 258:main.c        ****       y=0;
 259:main.c        ****       Aumento=X[1]-X[0];
 260:main.c        ****       HorasActual=hEst;
 261:main.c        ****       MinutosActual=mEst;
 262:main.c        ****       TiempoActual=Tiempo-((HorasActual*3600)+(MinutosActual*60)+tinicio);
 263:main.c        ****       PendienteActual=((Setpoint-Temperatura)/TiempoActual);
 264:main.c        ****       DifPendiente=(PendienteActual*20)-Aumento;
 265:main.c        ****       DifPendiente=DifPendiente*5;
 266:main.c        ****    }
 267:main.c        **** }
 268:main.c        **** 
 269:main.c        **** void Controla(){
 270:main.c        **** //-------------------------------Control de Calentamiento------------------------------------------
 271:main.c        ****    float tmp=0.0;
 272:main.c        ****      if(!flagRampa){
 273:main.c        ****         if(tiemporecta>=Derivativo){
 274:main.c        ****             ActualizaRecta();
 275:main.c        ****             tiemporecta=0;
 276:main.c        ****         } 
 277:main.c        ****     }else{
 278:main.c        ****         if(tiemporecta>=10){
 279:main.c        ****             ActualizaRecta();
 280:main.c        ****             tiemporecta=0;
 281:main.c        ****         }
 282:main.c        ****     }
 283:main.c        ****     
 284:main.c        ****     CR6_Write(0); // activa Ventiladores de Celda de Peltier
 285:main.c        ****     
 286:main.c        ****     if(flagRampa){
 287:main.c        ****       if(Segmento==0){
 288:main.c        ****          if(flag_calcula==0){
 289:main.c        ****             Tiempo=(rampas[0].Horas*3600)+(rampas[0].Minutos*60);         
 290:main.c        ****             Setpoint=rampas[0].Temperatura;
 291:main.c        ****             Pendiente=(((float)Setpoint-TempeInicial)/(float)Tiempo);
 292:main.c        ****             hEstp=rampas[0].Horas;
 293:main.c        ****             mEstp=rampas[0].Minutos;
 294:main.c        ****             flag_calcula=1;
 295:main.c        ****             Ganancia=GananciaR*(Setpoint/200);
 296:main.c        ****          }
 297:main.c        ****       }else{
 298:main.c        ****          if(flag_calcula==0){
 299:main.c        ****             Tiempo=(rampas[Segmento].Horas*3600)+(rampas[Segmento].Minutos*60);         
 300:main.c        ****             Setpoint=rampas[Segmento].Temperatura;
 301:main.c        ****             Pendiente=(((float)rampas[Segmento].Temperatura-(float)rampas[Segmento-1].Temperatura)/
 302:main.c        ****             hEstp=rampas[Segmento].Horas;
 303:main.c        ****             mEstp=rampas[Segmento].Minutos;
 304:main.c        ****             flag_calcula=1;
 305:main.c        ****             Ganancia=GananciaR*(Setpoint/200);
 306:main.c        ****          }
 307:main.c        ****       }
 308:main.c        ****     }
 309:main.c        ****    
 310:main.c        ****   
 311:main.c        ****    if(Pendiente!=0 && flagRampa){// Si Esta realizando una Rampa debe realizar el control de acuerd
ARM GAS  C:\Users\USUARIO\AppData\Local\Temp\ccr2Jkwh.s 			page 7


 312:main.c        ****       
 313:main.c        ****       TiempoRampa=((hEst*3600)+(mEst*60)+tinicio);
 314:main.c        ****       if(Segmento==0){
 315:main.c        ****          TemperaturaIdeal=(Pendiente*TiempoRampa)+TempeInicial;
 316:main.c        ****       }else{
 317:main.c        ****          TemperaturaIdeal=(Pendiente*TiempoRampa)+rampas[Segmento-1].Temperatura;
 318:main.c        ****       }
 319:main.c        ****       PotenciaEntregada=((TemperaturaIdeal-Temperatura)*100)/penMufla;
 320:main.c        **** // Pendiente determinar si el comportamiento de la mufla es lineal 10°C/min o si tiene un comporta
 321:main.c        ****       if(Pendiente<0){
 322:main.c        ****          if(PotenciaEntregada<0 && PotenciaEntregada>-100.0){
 323:main.c        ****             if(PotenciaEntregada<0)
 324:main.c        ****                 PotenciaEntregada=PotenciaEntregada*-1;
 325:main.c        ****          }else if(PotenciaEntregada<-100.0){
 326:main.c        ****             PotenciaEntregada=100.0;
 327:main.c        ****          }else if(PotenciaEntregada>0){
 328:main.c        ****             PotenciaEntregada=0; 
 329:main.c        ****          }
 330:main.c        ****       }else{
 331:main.c        ****          if(PotenciaEntregada>100.0)
 332:main.c        ****             PotenciaEntregada=100.0;
 333:main.c        ****      
 334:main.c        ****          if(PotenciaEntregada<0)
 335:main.c        ****             PotenciaEntregada=0; 
 336:main.c        ****       }
 337:main.c        ****       
 338:main.c        ****       if(Enfria==1){
 339:main.c        ****          CR1_Write(0);
 340:main.c        ****          CR2_Write(0);
 341:main.c        ****          CR3_Write(0);
 342:main.c        ****          CR4_Write(0);
 343:main.c        ****       }else{
 344:main.c        ****          CR1_Write(1);
 345:main.c        ****          CR2_Write(1);
 346:main.c        ****          CR3_Write(1);
 347:main.c        ****          CR4_Write(1);
 348:main.c        ****       }
 349:main.c        ****       Tpulso=(PotenciaEntregada*Tciclo)/100;  
 350:main.c        ****    }else{
 351:main.c        ****                
 352:main.c        ****       if(Enfria==1){
 353:main.c        ****          CR1_Write(0);
 354:main.c        ****          CR2_Write(0);
 355:main.c        ****          CR3_Write(0);
 356:main.c        ****          CR4_Write(0);
 357:main.c        ****          error=Setpoint-desvio-Temperatura;      // Cálculo del error ******
 358:main.c        ****          
 359:main.c        ****          if(error<-0.6 && Aumento>-0.2){
 360:main.c        ****             if(Potencia<90.0){
 361:main.c        ****                if(TiempoControl>=Derivativo*2){
 362:main.c        ****                   TiempoControl=0;
 363:main.c        ****                   if(Aumento>0.2){
 364:main.c        ****                      Ganancia+=Integral;
 365:main.c        ****                   }else{
 366:main.c        ****                      if(Aumento>0.0){
 367:main.c        ****                         Ganancia+=Integral-0.4;
 368:main.c        ****                      }else{
ARM GAS  C:\Users\USUARIO\AppData\Local\Temp\ccr2Jkwh.s 			page 8


 369:main.c        ****                         Ganancia+=Integral-0.7;
 370:main.c        ****                      }
 371:main.c        ****                   }
 372:main.c        ****                }
 373:main.c        ****             }
 374:main.c        ****          }
 375:main.c        ****       
 376:main.c        ****          if(error>0.0)     // Anti Wind_DOWN
 377:main.c        ****             error=0.0;
 378:main.c        ****          
 379:main.c        ****          error=error*-1.0;
 380:main.c        ****          
 381:main.c        ****          if(Ganancia<0.1)      
 382:main.c        ****             Ganancia=0.1;
 383:main.c        ****       
 384:main.c        ****          tmp=error*Ganancia;  // Control Proporcional.
 385:main.c        ****                
 386:main.c        ****          if(tmp>Setpoint)   // Anti Wind-UP      
 387:main.c        ****             tmp=Setpoint;
 388:main.c        ****                      
 389:main.c        ****          if(tmp<0.0)     // Anti Wind_DOWN    
 390:main.c        ****             tmp=0.0;
 391:main.c        ****          
 392:main.c        ****          // Tpulso(t)= Tciclo*(y(t)-ymin)/(ymax - ymin); calculo de ciclo util para control de resi
 393:main.c        ****          // Tpulso es float, hay que pasar ese ciclo a una salida de un puerto usando el TMR1.
 394:main.c        ****          Tpulso=(tmp/Setpoint)*Tciclo;  
 395:main.c        ****          Controlando=1;       
 396:main.c        ****       }else{
 397:main.c        ****          CR1_Write(1);
 398:main.c        ****          CR2_Write(1);
 399:main.c        ****          CR3_Write(1);
 400:main.c        ****          CR4_Write(1);
 401:main.c        ****          error=desvio+Setpoint-Temperatura;      // Cálculo del error ******
 402:main.c        ****       
 403:main.c        ****          if(error>=20.0 && Aumento<=0.7){
 404:main.c        ****             derivativo_ant=Derivativo*4;
 405:main.c        ****             flag_ajuste=0;
 406:main.c        ****             flag_ajuste2=0;
 407:main.c        ****             Ajusto=10;
 408:main.c        ****             if(Potencia<90.0){
 409:main.c        ****                 if(TiempoControl>=derivativo_ant){
 410:main.c        ****                     TiempoControl=0;
 411:main.c        ****                     if(Aumento<-0.5){
 412:main.c        ****                         Ganancia+=Integral;//2
 413:main.c        ****                     }else{
 414:main.c        ****                         if(Aumento<-0.1)
 415:main.c        ****                             Ganancia+=Integral*0.5;//1
 416:main.c        ****                         else
 417:main.c        ****                             Ganancia+=Integral*0.3;//0.5
 418:main.c        ****                     }
 419:main.c        ****                 }
 420:main.c        ****             }
 421:main.c        ****          }else if(error>=6.0 && error<20 && Aumento<=0.5){
 422:main.c        ****             derivativo_ant=Derivativo*3;
 423:main.c        ****             flag_ajuste=0;
 424:main.c        ****             flag_ajuste2=0;
 425:main.c        ****             Ajusto=10;
ARM GAS  C:\Users\USUARIO\AppData\Local\Temp\ccr2Jkwh.s 			page 9


 426:main.c        ****             if(Potencia<70.0){
 427:main.c        ****                 if(TiempoControl>=derivativo_ant){//80
 428:main.c        ****                     TiempoControl=0;
 429:main.c        ****                     if(Aumento<-0.5){
 430:main.c        ****                         Ganancia+=Integral;//2
 431:main.c        ****                     }else{
 432:main.c        ****                         if(Aumento<-0.1)
 433:main.c        ****                             Ganancia+=Integral*0.3;//1
 434:main.c        ****                         else
 435:main.c        ****                             Ganancia+=Integral*0.1;//0.5
 436:main.c        ****                     }
 437:main.c        ****                 }
 438:main.c        ****             }
 439:main.c        ****          }else if(error>=desvio+0.5 && error<10 && Aumento<=0.3){
 440:main.c        ****             derivativo_ant=Derivativo*2;
 441:main.c        ****             flag_ajuste=0;
 442:main.c        ****             flag_ajuste2=0;
 443:main.c        ****             Ajusto=10;
 444:main.c        ****             if(Potencia<50.0){
 445:main.c        ****                 if(TiempoControl>=derivativo_ant){//80
 446:main.c        ****                     TiempoControl=0;
 447:main.c        ****                     if(Aumento<-0.5){
 448:main.c        ****                         Ganancia+=Integral;//2
 449:main.c        ****                     }else{
 450:main.c        ****                         if(Aumento<-0.1)
 451:main.c        ****                             Ganancia+=Integral*0.3;//1
 452:main.c        ****                         else
 453:main.c        ****                             Ganancia+=Integral*0.1;//0.5
 454:main.c        ****                     }
 455:main.c        ****                 }
 456:main.c        ****              }
 457:main.c        ****          }
 458:main.c        ****          
 459:main.c        ****          if(error<0.0){
 460:main.c        ****             Ganancia=GananciaR*(Setpoint/200);
 461:main.c        ****             //flag_ajuste=0;
 462:main.c        ****             //flag_ajuste2=0;
 463:main.c        ****          }
 464:main.c        ****          
 465:main.c        ****          if(Ganancia<0.1){
 466:main.c        ****             Ganancia=0.1;
 467:main.c        ****          }
 468:main.c        ****       
 469:main.c        ****          if(error<0.0)     // Anti Wind_DOWN     
 470:main.c        ****             error=0.0;
 471:main.c        ****          
 472:main.c        ****          //tmp=(Setpoint-Prom)*Ganancia;  // Control Proporcional.
 473:main.c        ****          tmp=error*Ganancia;  // Control Proporcional.
 474:main.c        ****                
 475:main.c        ****          if(tmp>Setpoint)   // Anti Wind-UP      
 476:main.c        ****             tmp=Setpoint;
 477:main.c        ****                      
 478:main.c        ****          if(tmp<0.0)     // Anti Wind_DOWN    
 479:main.c        ****             tmp=0.0;
 480:main.c        ****       
 481:main.c        ****          Tpulso=(tmp/Setpoint)*Tciclo; 
 482:main.c        ****          if(error<desvio+0.5 && error>0){
ARM GAS  C:\Users\USUARIO\AppData\Local\Temp\ccr2Jkwh.s 			page 10


 483:main.c        ****             if(error<=desvio+0.1 && error>0){   
 484:main.c        ****                 if(flag_ajuste==0){
 485:main.c        ****                     TpulsoMax=Tpulso;
 486:main.c        ****                     flag_ajuste=1;  
 487:main.c        ****                     Ajusto=5;
 488:main.c        ****                 }
 489:main.c        ****             }
 490:main.c        ****          
 491:main.c        ****             if(error<=desvio-0.4 && error>0){   
 492:main.c        ****                 if(flag_ajuste2==0){
 493:main.c        ****                     Tpulsomin=Tpulso;
 494:main.c        ****                     flag_ajuste2=1;           
 495:main.c        ****                     Ajusto=5;
 496:main.c        ****                 }
 497:main.c        ****             }
 498:main.c        ****          
 499:main.c        ****             if(flag_ajuste2==1){
 500:main.c        ****                 if(Tpulso<Tpulsomin)
 501:main.c        ****                     Tpulso=Tpulsomin;
 502:main.c        ****             }
 503:main.c        ****             if(flag_ajuste==1){   
 504:main.c        ****                 if(Tpulso>TpulsoMax)
 505:main.c        ****                     Tpulso=TpulsoMax;
 506:main.c        ****             }
 507:main.c        ****          }
 508:main.c        ****       }   
 509:main.c        ****    }
 510:main.c        ****    Tp=(Tpulso/0.002);
 511:main.c        ****    Tc=(Tciclo/0.002);
 512:main.c        ****    Control=1;     
 513:main.c        **** //-------------------------------------------------------------------------------------------------
 514:main.c        ****   
 515:main.c        **** }
 516:main.c        **** 
 517:main.c        **** void CuentaTiempo(){
 518:main.c        ****       if(tinicio>=60){
 519:main.c        ****          tinicio=0;
 520:main.c        ****          mEst+=1.0;
 521:main.c        ****          if(mEst>59){
 522:main.c        ****             mEst=0;
 523:main.c        ****             hEst+=1.0;
 524:main.c        ****          }
 525:main.c        ****       }
 526:main.c        **** }
 527:main.c        **** 
 528:main.c        **** void iniciaConteo(){
 529:main.c        ****    if(flagRampa && Pendiente!=0){
 530:main.c        ****       tiempo_esterilizacion=1;
 531:main.c        ****    }else if(flagRampa && Pendiente==0){
 532:main.c        ****       if(flagTemperatura)
 533:main.c        ****          tiempo_esterilizacion=1;
 534:main.c        ****       else
 535:main.c        ****          tiempo_esterilizacion=0;
 536:main.c        ****    }else{
 537:main.c        ****       if(!flagControlT){
 538:main.c        ****          tiempo_esterilizacion=0;
 539:main.c        ****        }else if(flagControlT){
ARM GAS  C:\Users\USUARIO\AppData\Local\Temp\ccr2Jkwh.s 			page 11


 540:main.c        ****           if(flagTemperatura)
 541:main.c        ****              tiempo_esterilizacion=1;
 542:main.c        ****           else
 543:main.c        ****              tiempo_esterilizacion=0;
 544:main.c        ****        }
 545:main.c        ****    }
 546:main.c        **** }
 547:main.c        **** 
 548:main.c        **** void escribeDisplay1(char Buffer[30]){
 549:main.c        ****     UART_1_PutString(Buffer);
 550:main.c        ****     CyDelayUs(10);
 551:main.c        ****     UART_1_PutChar(0xFF);
 552:main.c        ****     CyDelayUs(10);
 553:main.c        ****     UART_1_PutChar(0xFF);
 554:main.c        ****     CyDelayUs(10);
 555:main.c        ****     UART_1_PutChar(0xFF);
 556:main.c        ****     CyDelayUs(10);
 557:main.c        **** }
 558:main.c        **** 
 559:main.c        **** void LeeDisplay(void){    
 560:main.c        ****     if(Dato_Exitoso==5){
 561:main.c        ****          Rx_Buffer[0]=Rx_Buffer2[0];
 562:main.c        ****          Rx_Buffer[1]=Rx_Buffer2[1];
 563:main.c        ****          Rx_Buffer[2]=Rx_Buffer2[2];
 564:main.c        ****          Rx_Buffer[3]=Rx_Buffer2[3];
 565:main.c        ****          Rx_Buffer[4]=Rx_Buffer2[4];
 566:main.c        ****          Rx_Buffer[5]=Rx_Buffer2[5];
 567:main.c        ****          Rx_Buffer[6]=Rx_Buffer2[6];
 568:main.c        ****          Rx_Buffer[7]=Rx_Buffer2[7];
 569:main.c        ****          Rx_Buffer[8]=Rx_Buffer2[8];
 570:main.c        ****          Rx_Buffer[9]=Rx_Buffer2[9];
 571:main.c        ****          
 572:main.c        ****       if(Rx_Buffer[3]==0x01){// Pregunta por la pagina en la que esta el display,01 es Contraseña 
 573:main.c        ****          Menu=0;
 574:main.c        ****          if(MenuAntt!=Menu)
 575:main.c        ****             MenuAntt=Menu;
 576:main.c        ****       }else if(Rx_Buffer[3]==0x02){//02 es Menu Principal con PantallaPriincipal=0, y con PantallaP
 577:main.c        ****          Menu=1;
 578:main.c        ****          if(MenuAntt!=Menu)
 579:main.c        ****             MenuAntt=Menu;
 580:main.c        ****       }else if(Rx_Buffer[3]==0x04){//03 es Tiempo Esterilizacion
 581:main.c        ****          Menu=2;
 582:main.c        ****          if(MenuAntt!=Menu)
 583:main.c        ****             MenuAntt=Menu;
 584:main.c        ****       }else if(Rx_Buffer[3]==0x05){//05 es Temperatura
 585:main.c        ****          Menu=3;
 586:main.c        ****          if(MenuAntt!=Menu)
 587:main.c        ****             MenuAntt=Menu;
 588:main.c        ****       }else if(Rx_Buffer[3]==0x06){//06 es Temperatura2
 589:main.c        ****          Menu=4;
 590:main.c        ****          if(MenuAntt!=Menu)
 591:main.c        ****             MenuAntt=Menu;
 592:main.c        ****       }else if(Rx_Buffer[3]==0x07){//07 es Test de Componentes
 593:main.c        ****          Menu=6;
 594:main.c        ****          if(MenuAntt!=Menu)
 595:main.c        ****             MenuAntt=Menu;
 596:main.c        ****       }else if(Rx_Buffer[3]==0x08){//08 es Fecha y hora
ARM GAS  C:\Users\USUARIO\AppData\Local\Temp\ccr2Jkwh.s 			page 12


 597:main.c        ****          Menu=7;
 598:main.c        ****          if(MenuAntt!=Menu)
 599:main.c        ****             MenuAntt=Menu;
 600:main.c        ****       }else if(Rx_Buffer[3]==0x09){//09 es Rampas
 601:main.c        ****          Menu=8;
 602:main.c        ****          if(MenuAntt!=Menu)
 603:main.c        ****             MenuAntt=Menu;
 604:main.c        ****       }else if(Rx_Buffer[3]==0x0a){//0a es Pulsos de Vacio
 605:main.c        ****          Menu=9;
 606:main.c        ****          if(MenuAntt!=Menu)
 607:main.c        ****             MenuAntt=Menu;
 608:main.c        ****       }else if(Rx_Buffer[3]==0x0f){//0f es Recibe caracteres de contraseña desde display
 609:main.c        ****          
 610:main.c        ****       }else if(Rx_Buffer[3]==0x1a){//1a es Menu de Funcionamiento
 611:main.c        ****          Menu=20;
 612:main.c        ****          if(MenuAntt!=Menu)
 613:main.c        ****             MenuAntt=Menu;
 614:main.c        ****       }else if(Rx_Buffer[3]==0x1b){//1b es Menu de clave correcta
 615:main.c        ****          Menu=15;
 616:main.c        ****          if(MenuAntt!=Menu)
 617:main.c        ****             MenuAntt=Menu;
 618:main.c        ****       }else if(Rx_Buffer[3]==0x1c){//1c es Menu de clave incorrecta
 619:main.c        ****          Menu=16;
 620:main.c        ****          if(MenuAntt!=Menu)
 621:main.c        ****             MenuAntt=Menu;
 622:main.c        ****       }else if(Rx_Buffer[3]==0x1d){//1d es Menu de Eliminado Programa
 623:main.c        ****          Menu=17;
 624:main.c        ****          if(MenuAntt!=Menu)
 625:main.c        ****             MenuAntt=Menu;
 626:main.c        ****       }else if(Rx_Buffer[3]==0x1e){//1d es Menu de Pregunta
 627:main.c        ****          Menu=18;
 628:main.c        ****          if(MenuAntt!=Menu)
 629:main.c        ****             MenuAntt=Menu;
 630:main.c        ****       }else if(Rx_Buffer[3]==0x2c){//2c es Menu de Configuracion de Parametros
 631:main.c        ****          Menu=100;
 632:main.c        ****          if(MenuAntt!=Menu)
 633:main.c        ****             MenuAntt=Menu;
 634:main.c        ****       }else if(Rx_Buffer[3]==0xcc){//cc es Menu de Bienvenida
 635:main.c        ****         if(controlT==0 && controlR==0)
 636:main.c        ****             Menu=120;
 637:main.c        ****         else
 638:main.c        ****             Menu=20;
 639:main.c        ****          //if(MenuAntt!=120)
 640:main.c        ****             //reset_cpu();
 641:main.c        ****       }
 642:main.c        ****    }else{
 643:main.c        ****       for(z=0;z<RX_BUFFER_SIZE;z++){
 644:main.c        ****             //Rx_Buffer[z]=0;
 645:main.c        ****             //Rx_Buffer2[z]=0;
 646:main.c        ****          }
 647:main.c        ****    }
 648:main.c        **** 
 649:main.c        ****        if(Dato_Exitoso2==5){
 650:main.c        ****          Rx_Buffer3[0]=Rx_Buffer4[0];
 651:main.c        ****          Rx_Buffer3[1]=Rx_Buffer4[1];
 652:main.c        ****          Rx_Buffer3[2]=Rx_Buffer4[2];
 653:main.c        ****          Rx_Buffer3[3]=Rx_Buffer4[3];
ARM GAS  C:\Users\USUARIO\AppData\Local\Temp\ccr2Jkwh.s 			page 13


 654:main.c        ****          Rx_Buffer3[4]=Rx_Buffer4[4];
 655:main.c        ****          Rx_Buffer3[5]=Rx_Buffer4[5];
 656:main.c        ****          Rx_Buffer3[6]=Rx_Buffer4[6];
 657:main.c        ****          Rx_Buffer3[7]=Rx_Buffer4[7];
 658:main.c        ****          Rx_Buffer3[8]=Rx_Buffer4[8];
 659:main.c        ****          Rx_Buffer3[9]=Rx_Buffer4[9];
 660:main.c        ****          
 661:main.c        ****       if(Rx_Buffer3[3]==0x01){// Pregunta por la pagina en la que esta el display,01 es Contraseña
 662:main.c        ****          Menu2=0;
 663:main.c        ****          if(MenuAntt2!=Menu2)
 664:main.c        ****             MenuAntt2=Menu2;
 665:main.c        ****       }else if(Rx_Buffer3[3]==0x02){//02 es Menu Principal con PantallaPriincipal=0, y con Pantalla
 666:main.c        ****          Menu2=1;
 667:main.c        ****          if(MenuAntt2!=Menu2)
 668:main.c        ****             MenuAntt2=Menu2;
 669:main.c        ****       }else if(Rx_Buffer3[3]==0x04){//03 es Tiempo Esterilizacion
 670:main.c        ****          Menu2=2;
 671:main.c        ****          if(MenuAntt2!=Menu2)
 672:main.c        ****             MenuAntt2=Menu2;
 673:main.c        ****       }else if(Rx_Buffer3[3]==0x05){//05 es Temperatura
 674:main.c        ****          Menu2=3;
 675:main.c        ****          if(MenuAntt2!=Menu2)
 676:main.c        ****             MenuAntt2=Menu2;
 677:main.c        ****       }else if(Rx_Buffer3[3]==0x06){//06 es Nivel
 678:main.c        ****          Menu2=5;
 679:main.c        ****          if(MenuAntt2!=Menu2)
 680:main.c        ****             MenuAntt2=Menu2;
 681:main.c        ****       }else if(Rx_Buffer3[3]==0x07){//07 es Test de Componentes
 682:main.c        ****          Menu2=6;
 683:main.c        ****          if(MenuAntt2!=Menu2)
 684:main.c        ****             MenuAntt2=Menu2;
 685:main.c        ****       }else if(Rx_Buffer3[3]==0x08){//08 es Fecha y hora
 686:main.c        ****          Menu2=7;
 687:main.c        ****          if(MenuAntt2!=Menu2)
 688:main.c        ****             MenuAntt2=Menu2;
 689:main.c        ****       }else if(Rx_Buffer3[3]==0x09){//09 es Rampas
 690:main.c        ****          Menu2=8;
 691:main.c        ****          if(MenuAntt2!=Menu2)
 692:main.c        ****             MenuAntt2=Menu2;
 693:main.c        ****       }else if(Rx_Buffer3[3]==0x0a){//0a es Grafica
 694:main.c        ****          Menu2=9;
 695:main.c        ****          if(MenuAntt2!=Menu2)
 696:main.c        ****             MenuAntt2=Menu2;
 697:main.c        ****       }else if(Rx_Buffer3[3]==0x0f){//0f es Recibe caracteres de contraseña desde display
 698:main.c        ****          
 699:main.c        ****       }else if(Rx_Buffer3[3]==0x1a){//1a es Menu de Funcionamiento
 700:main.c        ****          Menu2=20;
 701:main.c        ****          if(MenuAntt2!=Menu2)
 702:main.c        ****             MenuAntt2=Menu2;
 703:main.c        ****       }else if(Rx_Buffer3[3]==0x1b){//1b es Menu de clave correcta
 704:main.c        ****          Menu2=15;
 705:main.c        ****          if(MenuAntt2!=Menu2)
 706:main.c        ****             MenuAntt2=Menu2;
 707:main.c        ****       }else if(Rx_Buffer3[3]==0x1c){//1c es Menu de clave incorrecta
 708:main.c        ****          Menu2=16;
 709:main.c        ****          if(MenuAntt2!=Menu2)
 710:main.c        ****             MenuAntt2=Menu2;
ARM GAS  C:\Users\USUARIO\AppData\Local\Temp\ccr2Jkwh.s 			page 14


 711:main.c        ****       }else if(Rx_Buffer3[3]==0x2c){//2c es Menu de Configuracion de Parametros
 712:main.c        ****          Menu2=100;
 713:main.c        ****          if(MenuAntt2!=Menu2)
 714:main.c        ****             MenuAntt2=Menu2;
 715:main.c        ****       }else if(Rx_Buffer3[3]==0xcc){//cc es Menu de Bienvenida
 716:main.c        ****          Menu2=120;
 717:main.c        ****          //if(MenuAntt!=120)
 718:main.c        ****             //reset_cpu();
 719:main.c        ****       }
 720:main.c        ****    }else{
 721:main.c        ****          for(z=0;z<RX_BUFFER_SIZE;z++){
 722:main.c        ****             //Rx_Buffer[z]=0;
 723:main.c        ****             //Rx_Buffer2[z]=0;
 724:main.c        ****          }
 725:main.c        ****    }
 726:main.c        **** }
 727:main.c        **** 
 728:main.c        **** void controlaRampa(){
 729:main.c        ****       if(Enfria==1){
 730:main.c        ****       if(Temperatura<=Setpoint+0.5 && Temperatura>=Setpoint-0.5){
 731:main.c        ****          if(Pendiente!=0){
 732:main.c        ****             escribeDisplay1("statusT.txt=\"Controlando\"");
 733:main.c        ****             flagTemperatura=ON;            
 734:main.c        ****          }
 735:main.c        ****          
 736:main.c        ****          if(Pendiente==0){
 737:main.c        ****             escribeDisplay1("statusT.txt=\"Meseta\"");
 738:main.c        ****             flagTemperatura=ON;
 739:main.c        ****          }
 740:main.c        ****          Controla();
 741:main.c        ****          flag_tiempocalentamiento=0;
 742:main.c        ****       }else if(Temperatura<Setpoint-0.5){
 743:main.c        ****          Enfria=0;
 744:main.c        ****          Ganancia=GananciaR*(Setpoint/200);
 745:main.c        ****          //Gananciamax=(0.21)*Setpoint;
 746:main.c        ****          SSR_Write(0);
 747:main.c        ****          Control=0;
 748:main.c        ****       }else if(Temperatura>Setpoint+0.6){
 749:main.c        ****          if(Pendiente!=0){
 750:main.c        ****             escribeDisplay1("statusT.txt=\"Rampa -\"");
 751:main.c        ****             flagTemperatura=ON;            
 752:main.c        ****          }
 753:main.c        ****          if(Pendiente==0){
 754:main.c        ****             escribeDisplay1("statusT.txt=\"Enfriando\"");
 755:main.c        ****             flagTemperatura=OFF;            
 756:main.c        ****          }
 757:main.c        ****          Controla();
 758:main.c        ****       }
 759:main.c        ****    }else{  
 760:main.c        ****       if(Temperatura>=Setpoint-0.5 && Temperatura<=Setpoint+0.5){
 761:main.c        ****          if(Pendiente!=0){
 762:main.c        ****             escribeDisplay1("statusT.txt=\"Controlando\"");
 763:main.c        ****             flagTemperatura=ON;            
 764:main.c        ****          }
 765:main.c        ****          
 766:main.c        ****          if(Pendiente==0){
 767:main.c        ****             escribeDisplay1("statusT.txt=\"Meseta\"");
ARM GAS  C:\Users\USUARIO\AppData\Local\Temp\ccr2Jkwh.s 			page 15


 768:main.c        ****             flagTemperatura=ON;
 769:main.c        ****          }
 770:main.c        ****          Controla();
 771:main.c        ****          flag_tiempocalentamiento=0;
 772:main.c        ****       }else if(Temperatura>Setpoint+0.5){
 773:main.c        ****          Enfria=1;
 774:main.c        ****          Ganancia=GananciaR*(Setpoint/200);
 775:main.c        ****          SSR_Write(0);
 776:main.c        ****          Control=0;
 777:main.c        ****       }else if(Temperatura<Setpoint-0.6){
 778:main.c        ****          if(Pendiente!=0){
 779:main.c        ****             escribeDisplay1("statusT.txt=\"Rampa +\"");
 780:main.c        ****             flagTemperatura=ON;            
 781:main.c        ****          }
 782:main.c        ****          if(Pendiente==0){
 783:main.c        ****             escribeDisplay1("statusT.txt=\"Calentando\"");
 784:main.c        ****             flagTemperatura=OFF;            
 785:main.c        ****          }
 786:main.c        ****          Controla();
 787:main.c        ****       }
 788:main.c        ****    }
 789:main.c        **** }
 790:main.c        **** 
 791:main.c        **** float leePt100(uint8 media){
 792:main.c        ****     float tmp2,ajp,ajn;
 793:main.c        ****     Prom=0.0;    
 794:main.c        ****     tmp2=0;
 795:main.c        ****     
 796:main.c        ****     /* Measure the voltage across reference resistance */
 797:main.c        ****     vRef = MeasureRefResVoltage();
 798:main.c        **** 	/* Find the RTD resistance */
 799:main.c        **** 	rtdRes[0] = GetRTDRes(vRef,0);
 800:main.c        **** 	/* Calculate RTD temperature from resistance */
 801:main.c        **** 	rtdTemp[0] = RTD_GetTemperature(rtdRes[0]);
 802:main.c        ****     /*Determine decimal portion of temperature by dividing temperature by 100*/
 803:main.c        ****     decTemp[0] = rtdTemp[0]/100;
 804:main.c        ****     /*Determine fraction portion of temperature by subtracting decimal portion from result*/
 805:main.c        ****     fracTemp[0] = rtdTemp[0] - (decTemp[0] * 100);
 806:main.c        ****     /*If fractional temperature is negative make it positive*/
 807:main.c        ****     if(fracTemp[0] < 0){
 808:main.c        ****         fracTemp[0] *= -1;
 809:main.c        ****     }
 810:main.c        ****     tmp2=(float)fracTemp[0];    
 811:main.c        ****     V0=(float)decTemp[0]+(tmp2/100.0);
 812:main.c        ****     
 813:main.c        ****     if(l>(media-1))
 814:main.c        ****          l=0;
 815:main.c        ****     
 816:main.c        ****     promedioT1[l]=V0;l++;
 817:main.c        ****              
 818:main.c        ****     for(h=0;h<media;h++){
 819:main.c        ****         Prom+=promedioT1[h];
 820:main.c        ****     } 
 821:main.c        ****     
 822:main.c        ****     ajp=(float)Ajuste;
 823:main.c        ****     ajp=ajp/10.0;
 824:main.c        ****     ajn=(float)Ajusten;
ARM GAS  C:\Users\USUARIO\AppData\Local\Temp\ccr2Jkwh.s 			page 16


 825:main.c        ****     ajn=ajn/10.0;
 826:main.c        ****     return (Prom/media)+ajp-ajn;   
 827:main.c        **** }
 828:main.c        **** 
 829:main.c        **** float leePt1002(uint8 media2){
 830:main.c        ****     float tmp3,ajp2,ajn2;
 831:main.c        ****     Prom2=0.0;
 832:main.c        ****     tmp3=0;
 833:main.c        ****     
 834:main.c        ****     /* Measure the voltage across reference resistance */
 835:main.c        ****     vRef = MeasureRefResVoltage();
 836:main.c        **** 	/* Find the RTD resistance */
 837:main.c        **** 	rtdRes[1] = GetRTDRes(vRef,1);
 838:main.c        **** 	/* Calculate RTD temperature from resistance */
 839:main.c        **** 	rtdTemp[1] = RTD_GetTemperature(rtdRes[1]);
 840:main.c        ****     /*Determine decimal portion of temperature by dividing temperature by 100*/
 841:main.c        ****     decTemp[1] = rtdTemp[1]/100;
 842:main.c        ****     /*Determine fraction portion of temperature by subtracting decimal portion from result*/
 843:main.c        ****     fracTemp[1] = rtdTemp[1] - (decTemp[1] * 100);
 844:main.c        ****     /*If fractional temperature is negative make it positive*/
 845:main.c        ****     if(fracTemp[1] < 0){
 846:main.c        ****         fracTemp[1] *= -1;
 847:main.c        ****     }
 848:main.c        ****     tmp3=(float)fracTemp[1];    
 849:main.c        ****     V1=(float)decTemp[1]+(tmp3/100.0);
 850:main.c        ****     
 851:main.c        ****     if(ll>(media2-1))
 852:main.c        ****         ll=0;
 853:main.c        **** 
 854:main.c        ****     promedioT2[ll]=V1;ll++;
 855:main.c        ****              
 856:main.c        ****     for(hh=0;hh<media2;hh++){
 857:main.c        ****         Prom2+=promedioT2[hh];
 858:main.c        ****     }
 859:main.c        ****     ajp2=(float)Ajuste2;
 860:main.c        ****     ajp2=ajp2/10.0;
 861:main.c        ****     ajn2=(float)Ajusten2;
 862:main.c        ****     ajn2=ajn2/10.0;
 863:main.c        ****     return (Prom2/media2)+ajp2-ajn2;
 864:main.c        **** }
 865:main.c        **** 
 866:main.c        **** int32 LowPassFilter(int32 input){
 867:main.c        ****     int32 k;
 868:main.c        ****     input <<= 8;
 869:main.c        ****     filt = filt + (((input-filt) >> 8) * 40);
 870:main.c        ****     k = (filt>>8) + ((filt & 0x00000080) >> 7);
 871:main.c        ****     return k;
 872:main.c        **** }
 873:main.c        **** 
 874:main.c        **** int32 leeLM35(){ //Falta hacerle promedio
 875:main.c        ****     float Promlm35;
 876:main.c        ****     Promlm35=0.0;
 877:main.c        ****     ADC_SAR_IsEndConversion(ADC_SAR_WAIT_FOR_RESULT);
 878:main.c        ****     tmp=ADC_SAR_GetResult16(0u);
 879:main.c        ****     lm35=LowPassFilter(ADC_SAR_CountsTo_mVolts(tmp));
 880:main.c        ****     if(k>(4))
 881:main.c        ****       k=0;
ARM GAS  C:\Users\USUARIO\AppData\Local\Temp\ccr2Jkwh.s 			page 17


 882:main.c        ****     promediolm35[k]=lm35;k++;
 883:main.c        ****          
 884:main.c        ****     for(kk=0;kk<5;kk++)
 885:main.c        ****       Promlm35+=promediolm35[kk]; 
 886:main.c        ****     Promlm35=Promlm35/5;
 887:main.c        ****     return Promlm35*10;
 888:main.c        **** }
 889:main.c        **** 
 890:main.c        **** short esBisiesto(uint8 year) {
 891:main.c        ****      return ((year % 4 == 0 && year % 100 != 0) || year % 400 == 0);
 892:main.c        **** }
 893:main.c        **** 
 894:main.c        **** void LimitaDia(){
 895:main.c        ****    if(MesTx>12)
 896:main.c        ****       MesTx=10;
 897:main.c        ****    if(DiaTx>31)
 898:main.c        ****       DiaTx=16;
 899:main.c        ****    if(YearTx>99)
 900:main.c        ****       YearTx=18;   
 901:main.c        ****    if(HoraTx>24)
 902:main.c        ****       HoraTx=11;      
 903:main.c        ****    if(MinutoTx>59)
 904:main.c        ****       MinutoTx=30;      
 905:main.c        ****    
 906:main.c        ****       if(MesTx==2){
 907:main.c        ****          if(esBisiesto(YearTx)){
 908:main.c        ****             if(DiaTx>29){
 909:main.c        ****                DiaTx=29;
 910:main.c        ****                //glcd_fillScreen(OFF);
 911:main.c        ****             }
 912:main.c        ****          }else{
 913:main.c        ****             if(DiaTx>28){
 914:main.c        ****                DiaTx=28;
 915:main.c        ****                //glcd_fillScreen(OFF);
 916:main.c        ****             }
 917:main.c        ****          }
 918:main.c        ****       }else{
 919:main.c        ****          if(MesTx<=7){
 920:main.c        ****             if(MesTx % 2 ==0){
 921:main.c        ****                if(DiaTx>30){
 922:main.c        ****                   DiaTx=30; 
 923:main.c        ****                   //glcd_fillScreen(OFF);
 924:main.c        ****                }
 925:main.c        ****             }
 926:main.c        ****          }else{
 927:main.c        ****             if(MesTx % 2 ==1){
 928:main.c        ****                if(DiaTx>30){
 929:main.c        ****                   DiaTx=30; 
 930:main.c        ****                   //glcd_fillScreen(OFF);
 931:main.c        ****                }
 932:main.c        ****             }
 933:main.c        ****          }
 934:main.c        ****       }
 935:main.c        **** }
 936:main.c        **** 
 937:main.c        **** void ApagaSalidas(){
 938:main.c        ****     BUZZER_Write(0);
ARM GAS  C:\Users\USUARIO\AppData\Local\Temp\ccr2Jkwh.s 			page 18


 939:main.c        ****     CR1_Write(0);
 940:main.c        ****     CR2_Write(0);
 941:main.c        ****     CR3_Write(0);
 942:main.c        ****     CR4_Write(0);
 943:main.c        ****     CR5_Write(0);
 944:main.c        ****     CR6_Write(1);
 945:main.c        ****     CR7_Write(1);
 946:main.c        ****     CR8_Write(0);
 947:main.c        ****     SSR_Write(0);
 948:main.c        **** }
 949:main.c        **** 
 950:main.c        **** void controlaTemperatura(){
 951:main.c        ****     if(TERM_Read()==1 || Temperatura>60){
 952:main.c        ****       escribeDisplay1("statusT.txt=\"!Termostato!\"");      
 953:main.c        ****       SSR_Write(0);
 954:main.c        ****       Control=0;
 955:main.c        ****       Ganancia=GananciaR*(Setpoint/200);
 956:main.c        ****       BUZZER_Write(1);
 957:main.c        ****       CyDelay(300);
 958:main.c        ****       BUZZER_Write(0);
 959:main.c        ****       CyDelay(300);
 960:main.c        ****     }else{
 961:main.c        ****         if(Enfria==1){
 962:main.c        ****             if(Temperatura<=Setpoint+0.5 && Temperatura>=Setpoint-0.5){
 963:main.c        ****                 escribeDisplay1("statusT.txt=\"Controlando -\"");
 964:main.c        ****                 if(!Infinito)
 965:main.c        ****                     flagTemperatura=ON;
 966:main.c        ****                 //tiempo_esterilizacion=1;
 967:main.c        ****             else
 968:main.c        ****                 flagTemperatura=OFF;
 969:main.c        ****                 //tiempo_esterilizacion=0;
 970:main.c        ****                 Controla();
 971:main.c        ****                 flag_tiempocalentamiento=0;
 972:main.c        ****             }else if(Temperatura<Setpoint-0.5){
 973:main.c        ****                 Enfria=0;
 974:main.c        ****                 Ganancia=GananciaR*(Setpoint/200);
 975:main.c        ****                 //Gananciamax=(0.21)*Setpoint;
 976:main.c        ****                 SSR_Write(0);
 977:main.c        ****                 Control=0;
 978:main.c        ****             }else if(Temperatura>Setpoint+0.6){
 979:main.c        ****                 flag_tiempocalentamiento=0;
 980:main.c        ****                 escribeDisplay1("statusT.txt=\"Enfriando\"");
 981:main.c        ****                 //tiempo_esterilizacion=0;
 982:main.c        ****                 flagTemperatura=OFF;
 983:main.c        ****                 Controla();
 984:main.c        ****             }
 985:main.c        ****         }else{  
 986:main.c        ****             if(Temperatura>=Setpoint-0.5 && Temperatura<=Setpoint+0.5){
 987:main.c        ****                 escribeDisplay1("statusT.txt=\"Controlando +\"");
 988:main.c        ****                 if(!Infinito)
 989:main.c        ****                     //tiempo_esterilizacion=1;
 990:main.c        ****                     flagTemperatura=ON;
 991:main.c        ****                 else
 992:main.c        ****                     //tiempo_esterilizacion=0;   
 993:main.c        ****                     flagTemperatura=OFF;
 994:main.c        ****                 Controla();
 995:main.c        ****                 flag_tiempocalentamiento=0;
ARM GAS  C:\Users\USUARIO\AppData\Local\Temp\ccr2Jkwh.s 			page 19


 996:main.c        ****             }else if(Temperatura>Setpoint+0.5){
 997:main.c        ****                 Enfria=1;
 998:main.c        ****                 Ganancia=GananciaR*(Setpoint/200);
 999:main.c        ****                 SSR_Write(0);
1000:main.c        ****                 Control=0;
1001:main.c        ****             }else if(Temperatura<Setpoint-0.6){
1002:main.c        ****                 flag_tiempocalentamiento=1;
1003:main.c        ****                 escribeDisplay1("statusT.txt=\"Calentando\"");
1004:main.c        ****                 //tiempo_esterilizacion=0;
1005:main.c        ****                 flagTemperatura=OFF;
1006:main.c        ****                 Controla();
1007:main.c        ****             }
1008:main.c        ****         }
1009:main.c        ****     }
1010:main.c        **** }
1011:main.c        **** 
1012:main.c        **** CY_ISR(Reloj2){ 
  32              		.loc 1 1012 0
  33              		.cfi_startproc
  34              		@ args = 0, pretend = 0, frame = 0
  35              		@ frame_needed = 0, uses_anonymous_args = 0
  36 0000 08B5     		push	{r3, lr}
  37              		.cfi_def_cfa_offset 8
  38              		.cfi_offset 3, -8
  39              		.cfi_offset 14, -4
1013:main.c        ****     //CapSense_DisplayState();
1014:main.c        ****     tiempos++;
  40              		.loc 1 1014 0
  41 0002 564A     		ldr	r2, .L17
  42 0004 1388     		ldrh	r3, [r2]
  43 0006 0133     		adds	r3, r3, #1
  44 0008 1380     		strh	r3, [r2]	@ movhi
1015:main.c        ****     tiempos3++;
  45              		.loc 1 1015 0
  46 000a 554A     		ldr	r2, .L17+4
  47 000c 1388     		ldrh	r3, [r2]
  48 000e 0133     		adds	r3, r3, #1
  49 0010 1380     		strh	r3, [r2]	@ movhi
1016:main.c        ****     tiempoctrl++;
  50              		.loc 1 1016 0
  51 0012 544A     		ldr	r2, .L17+8
  52 0014 1388     		ldrh	r3, [r2]
  53 0016 0133     		adds	r3, r3, #1
  54 0018 9BB2     		uxth	r3, r3
  55 001a 1380     		strh	r3, [r2]	@ movhi
1017:main.c        ****     
1018:main.c        ****     if(Control==1){// && tcHotJnuVolt > BROKEN_TC_THRESHOLD){
  56              		.loc 1 1018 0
  57 001c 524A     		ldr	r2, .L17+12
  58 001e B2F90020 		ldrsh	r2, [r2]
  59 0022 012A     		cmp	r2, #1
  60 0024 14D1     		bne	.L2
1019:main.c        ****         if(tiempoctrl>=Tc) // Si el tiempo de control es mayor al tiempo de ciclo se reinicia tiemp
  61              		.loc 1 1019 0
  62 0026 514A     		ldr	r2, .L17+16
  63 0028 1288     		ldrh	r2, [r2]
  64 002a 9342     		cmp	r3, r2
ARM GAS  C:\Users\USUARIO\AppData\Local\Temp\ccr2Jkwh.s 			page 20


  65 002c 02D3     		bcc	.L3
1020:main.c        ****             tiempoctrl=0;
  66              		.loc 1 1020 0
  67 002e 0022     		movs	r2, #0
  68 0030 4C4B     		ldr	r3, .L17+8
  69 0032 1A80     		strh	r2, [r3]	@ movhi
  70              	.L3:
1021:main.c        ****         // tiempoctrl incrementa una unidad cada 5ms, por eso se dividen los tiempos por 0.005.
1022:main.c        ****       
1023:main.c        ****         if(tiempoctrl<=Tp) // Si el tiempo es menor o igual al tiempo de control se enciende la res
  71              		.loc 1 1023 0
  72 0034 4B4B     		ldr	r3, .L17+8
  73 0036 1A88     		ldrh	r2, [r3]
  74 0038 4D4B     		ldr	r3, .L17+20
  75 003a 1B88     		ldrh	r3, [r3]
  76 003c 9A42     		cmp	r2, r3
  77 003e 03D8     		bhi	.L4
1024:main.c        ****             SSR_Write(1);
  78              		.loc 1 1024 0
  79 0040 0120     		movs	r0, #1
  80 0042 FFF7FEFF 		bl	SSR_Write
  81              	.LVL0:
  82 0046 0AE0     		b	.L5
  83              	.L4:
1025:main.c        ****         else         
1026:main.c        ****             SSR_Write(0);
  84              		.loc 1 1026 0
  85 0048 0020     		movs	r0, #0
  86 004a FFF7FEFF 		bl	SSR_Write
  87              	.LVL1:
  88 004e 06E0     		b	.L5
  89              	.L2:
1027:main.c        ****     }else{
1028:main.c        ****         if(!Test)
  90              		.loc 1 1028 0
  91 0050 484B     		ldr	r3, .L17+24
  92 0052 B3F90030 		ldrsh	r3, [r3]
  93 0056 13B9     		cbnz	r3, .L5
1029:main.c        ****             SSR_Write(0);
  94              		.loc 1 1029 0
  95 0058 0020     		movs	r0, #0
  96 005a FFF7FEFF 		bl	SSR_Write
  97              	.LVL2:
  98              	.L5:
1030:main.c        ****     }
1031:main.c        **** 
1032:main.c        ****     if(tiempos3>=200){
  99              		.loc 1 1032 0
 100 005e 404B     		ldr	r3, .L17+4
 101 0060 1B88     		ldrh	r3, [r3]
 102 0062 C72B     		cmp	r3, #199
 103 0064 15D9     		bls	.L6
1033:main.c        ****         Lectura2=1;
 104              		.loc 1 1033 0
 105 0066 0122     		movs	r2, #1
 106 0068 434B     		ldr	r3, .L17+28
 107 006a 1A80     		strh	r2, [r3]	@ movhi
ARM GAS  C:\Users\USUARIO\AppData\Local\Temp\ccr2Jkwh.s 			page 21


1034:main.c        ****         if(flagup)
 108              		.loc 1 1034 0
 109 006c 434B     		ldr	r3, .L17+32
 110 006e B3F90030 		ldrsh	r3, [r3]
 111 0072 1BB1     		cbz	r3, .L7
1035:main.c        ****             tiempoup++;
 112              		.loc 1 1035 0
 113 0074 424A     		ldr	r2, .L17+36
 114 0076 1388     		ldrh	r3, [r2]
 115 0078 0133     		adds	r3, r3, #1
 116 007a 1380     		strh	r3, [r2]	@ movhi
 117              	.L7:
1036:main.c        ****         if(flagdn)
 118              		.loc 1 1036 0
 119 007c 414B     		ldr	r3, .L17+40
 120 007e B3F90030 		ldrsh	r3, [r3]
 121 0082 1BB1     		cbz	r3, .L8
1037:main.c        ****             tiempodn++;   
 122              		.loc 1 1037 0
 123 0084 404A     		ldr	r2, .L17+44
 124 0086 1388     		ldrh	r3, [r2]
 125 0088 0133     		adds	r3, r3, #1
 126 008a 1380     		strh	r3, [r2]	@ movhi
 127              	.L8:
1038:main.c        ****         tiempos3=0;
 128              		.loc 1 1038 0
 129 008c 0022     		movs	r2, #0
 130 008e 344B     		ldr	r3, .L17+4
 131 0090 1A80     		strh	r2, [r3]	@ movhi
 132              	.L6:
1039:main.c        ****     }
1040:main.c        ****     
1041:main.c        ****     if(tiempos>=500){  // Cuenta cada 2ms   
 133              		.loc 1 1041 0
 134 0092 324B     		ldr	r3, .L17
 135 0094 1B88     		ldrh	r3, [r3]
 136 0096 B3F5FA7F 		cmp	r3, #500
 137 009a 5ED3     		bcc	.L1
1042:main.c        ****         tiempos=0;Lectura=1;tiemporeset++;TiempoControl++;tiemporecta++;mensaje=!mensaje;envioUSB=1
 138              		.loc 1 1042 0
 139 009c 0022     		movs	r2, #0
 140 009e 2F4B     		ldr	r3, .L17
 141 00a0 1A80     		strh	r2, [r3]	@ movhi
 142 00a2 0122     		movs	r2, #1
 143 00a4 394B     		ldr	r3, .L17+48
 144 00a6 1A80     		strh	r2, [r3]	@ movhi
 145 00a8 3949     		ldr	r1, .L17+52
 146 00aa 0B88     		ldrh	r3, [r1]
 147 00ac 1344     		add	r3, r3, r2
 148 00ae 0B80     		strh	r3, [r1]	@ movhi
 149 00b0 3849     		ldr	r1, .L17+56
 150 00b2 0B88     		ldrh	r3, [r1]
 151 00b4 1344     		add	r3, r3, r2
 152 00b6 0B80     		strh	r3, [r1]	@ movhi
 153 00b8 3749     		ldr	r1, .L17+60
 154 00ba 0B88     		ldrh	r3, [r1]
 155 00bc 1344     		add	r3, r3, r2
ARM GAS  C:\Users\USUARIO\AppData\Local\Temp\ccr2Jkwh.s 			page 22


 156 00be 0B80     		strh	r3, [r1]	@ movhi
 157 00c0 3649     		ldr	r1, .L17+64
 158 00c2 B1F90030 		ldrsh	r3, [r1]
 159 00c6 B3FA83F3 		clz	r3, r3
 160 00ca 5B09     		lsrs	r3, r3, #5
 161 00cc 0B80     		strh	r3, [r1]	@ movhi
 162 00ce 344B     		ldr	r3, .L17+68
 163 00d0 1A80     		strh	r2, [r3]	@ movhi
1043:main.c        ****         
1044:main.c        ****         if(LEVEL_Read()==1){
 164              		.loc 1 1044 0
 165 00d2 FFF7FEFF 		bl	LEVEL_Read
 166              	.LVL3:
 167 00d6 0128     		cmp	r0, #1
 168 00d8 07D1     		bne	.L10
1045:main.c        ****             if(tllenado<600)
 169              		.loc 1 1045 0
 170 00da 324B     		ldr	r3, .L17+72
 171 00dc 1B88     		ldrh	r3, [r3]
 172 00de B3F5167F 		cmp	r3, #600
 173 00e2 02D2     		bcs	.L10
1046:main.c        ****                 tllenado++;
 174              		.loc 1 1046 0
 175 00e4 0133     		adds	r3, r3, #1
 176 00e6 2F4A     		ldr	r2, .L17+72
 177 00e8 1380     		strh	r3, [r2]	@ movhi
 178              	.L10:
1047:main.c        ****         }
1048:main.c        ****         
1049:main.c        ****         if(dehumidificador){
 179              		.loc 1 1049 0
 180 00ea 2F4B     		ldr	r3, .L17+76
 181 00ec B3F90030 		ldrsh	r3, [r3]
 182 00f0 1BB1     		cbz	r3, .L11
1050:main.c        ****             tdehumidificador++;   
 183              		.loc 1 1050 0
 184 00f2 2E4A     		ldr	r2, .L17+80
 185 00f4 1388     		ldrh	r3, [r2]
 186 00f6 0133     		adds	r3, r3, #1
 187 00f8 1380     		strh	r3, [r2]	@ movhi
 188              	.L11:
1051:main.c        ****         }
1052:main.c        ****         
1053:main.c        ****         if(humidificador){
 189              		.loc 1 1053 0
 190 00fa 2D4B     		ldr	r3, .L17+84
 191 00fc B3F90030 		ldrsh	r3, [r3]
 192 0100 1BB1     		cbz	r3, .L12
1054:main.c        ****             thumidificador++;   
 193              		.loc 1 1054 0
 194 0102 2C4A     		ldr	r2, .L17+88
 195 0104 1388     		ldrh	r3, [r2]
 196 0106 0133     		adds	r3, r3, #1
 197 0108 1380     		strh	r3, [r2]	@ movhi
 198              	.L12:
1055:main.c        ****         }
1056:main.c        ****         
ARM GAS  C:\Users\USUARIO\AppData\Local\Temp\ccr2Jkwh.s 			page 23


1057:main.c        ****         if(conteoPregunta)tPregunta++;
 199              		.loc 1 1057 0
 200 010a 2B4B     		ldr	r3, .L17+92
 201 010c B3F90030 		ldrsh	r3, [r3]
 202 0110 1BB1     		cbz	r3, .L13
 203              		.loc 1 1057 0 is_stmt 0 discriminator 1
 204 0112 2A4A     		ldr	r2, .L17+96
 205 0114 1388     		ldrh	r3, [r2]
 206 0116 0133     		adds	r3, r3, #1
 207 0118 1380     		strh	r3, [r2]	@ movhi
 208              	.L13:
1058:main.c        ****         
1059:main.c        ****         if(flag_setpoint==1)
 209              		.loc 1 1059 0 is_stmt 1
 210 011a 294B     		ldr	r3, .L17+100
 211 011c B3F90030 		ldrsh	r3, [r3]
 212 0120 012B     		cmp	r3, #1
 213 0122 03D1     		bne	.L14
1060:main.c        ****             tiemposetpoint++;
 214              		.loc 1 1060 0
 215 0124 274A     		ldr	r2, .L17+104
 216 0126 1388     		ldrh	r3, [r2]
 217 0128 0133     		adds	r3, r3, #1
 218 012a 1380     		strh	r3, [r2]	@ movhi
 219              	.L14:
1061:main.c        ****       
1062:main.c        ****         if(tiempo_esterilizacion==1 || tiempo_esterilizacion==2){               
 220              		.loc 1 1062 0
 221 012c 264B     		ldr	r3, .L17+108
 222 012e 1B78     		ldrb	r3, [r3]	@ zero_extendqisi2
 223 0130 013B     		subs	r3, r3, #1
 224 0132 DBB2     		uxtb	r3, r3
 225 0134 012B     		cmp	r3, #1
 226 0136 07D8     		bhi	.L15
1063:main.c        ****             tinicio++;
 227              		.loc 1 1063 0
 228 0138 244A     		ldr	r2, .L17+112
 229 013a 1388     		ldrh	r3, [r2]
 230 013c 0133     		adds	r3, r3, #1
 231 013e 1380     		strh	r3, [r2]	@ movhi
1064:main.c        ****             tGrafica++;
 232              		.loc 1 1064 0
 233 0140 234A     		ldr	r2, .L17+116
 234 0142 1368     		ldr	r3, [r2]
 235 0144 0133     		adds	r3, r3, #1
 236 0146 1360     		str	r3, [r2]
 237              	.L15:
1065:main.c        ****         }
1066:main.c        ****              
1067:main.c        ****         if(flag_tiempocalentamiento==1)
 238              		.loc 1 1067 0
 239 0148 224B     		ldr	r3, .L17+120
 240 014a B3F90030 		ldrsh	r3, [r3]
 241 014e 012B     		cmp	r3, #1
 242 0150 03D1     		bne	.L1
1068:main.c        ****             tiempocalentamiento++;
 243              		.loc 1 1068 0
ARM GAS  C:\Users\USUARIO\AppData\Local\Temp\ccr2Jkwh.s 			page 24


 244 0152 214A     		ldr	r2, .L17+124
 245 0154 1388     		ldrh	r3, [r2]
 246 0156 0133     		adds	r3, r3, #1
 247 0158 1380     		strh	r3, [r2]	@ movhi
 248              	.L1:
 249 015a 08BD     		pop	{r3, pc}
 250              	.L18:
 251              		.align	2
 252              	.L17:
 253 015c 00000000 		.word	tiempos
 254 0160 00000000 		.word	tiempos3
 255 0164 00000000 		.word	tiempoctrl
 256 0168 00000000 		.word	Control
 257 016c 00000000 		.word	Tc
 258 0170 00000000 		.word	Tp
 259 0174 00000000 		.word	Test
 260 0178 00000000 		.word	Lectura2
 261 017c 00000000 		.word	flagup
 262 0180 00000000 		.word	tiempoup
 263 0184 00000000 		.word	flagdn
 264 0188 00000000 		.word	tiempodn
 265 018c 00000000 		.word	Lectura
 266 0190 00000000 		.word	tiemporeset
 267 0194 00000000 		.word	TiempoControl
 268 0198 00000000 		.word	tiemporecta
 269 019c 00000000 		.word	mensaje
 270 01a0 00000000 		.word	envioUSB
 271 01a4 00000000 		.word	tllenado
 272 01a8 00000000 		.word	dehumidificador
 273 01ac 00000000 		.word	tdehumidificador
 274 01b0 00000000 		.word	humidificador
 275 01b4 00000000 		.word	thumidificador
 276 01b8 00000000 		.word	conteoPregunta
 277 01bc 00000000 		.word	tPregunta
 278 01c0 00000000 		.word	flag_setpoint
 279 01c4 00000000 		.word	tiemposetpoint
 280 01c8 00000000 		.word	tiempo_esterilizacion
 281 01cc 00000000 		.word	tinicio
 282 01d0 00000000 		.word	tGrafica
 283 01d4 00000000 		.word	flag_tiempocalentamiento
 284 01d8 00000000 		.word	tiempocalentamiento
 285              		.cfi_endproc
 286              	.LFE81:
 287              		.size	Reloj2, .-Reloj2
 288              		.section	.text.inteRX,"ax",%progbits
 289              		.align	2
 290              		.global	inteRX
 291              		.thumb
 292              		.thumb_func
 293              		.type	inteRX, %function
 294              	inteRX:
 295              	.LFB82:
1069:main.c        ****     }     
1070:main.c        **** }
1071:main.c        **** 
1072:main.c        **** CY_ISR(inteRX){
 296              		.loc 1 1072 0
ARM GAS  C:\Users\USUARIO\AppData\Local\Temp\ccr2Jkwh.s 			page 25


 297              		.cfi_startproc
 298              		@ args = 0, pretend = 0, frame = 0
 299              		@ frame_needed = 0, uses_anonymous_args = 0
 300 0000 08B5     		push	{r3, lr}
 301              		.cfi_def_cfa_offset 8
 302              		.cfi_offset 3, -8
 303              		.cfi_offset 14, -4
1073:main.c        ****     Dato2=UART_1_GetByte();
 304              		.loc 1 1073 0
 305 0002 FFF7FEFF 		bl	UART_1_GetByte
 306              	.LVL4:
 307 0006 C0B2     		uxtb	r0, r0
 308 0008 1D4B     		ldr	r3, .L26
 309 000a 1870     		strb	r0, [r3]
1074:main.c        ****    if(Dato2==0x65){//Inicio Comunicacion
 310              		.loc 1 1074 0
 311 000c 6528     		cmp	r0, #101
 312 000e 05D1     		bne	.L20
1075:main.c        ****       Inicio=1;
 313              		.loc 1 1075 0
 314 0010 0122     		movs	r2, #1
 315 0012 1C4B     		ldr	r3, .L26+4
 316 0014 1A80     		strh	r2, [r3]	@ movhi
1076:main.c        ****       RX_Wr_Index =0;
 317              		.loc 1 1076 0
 318 0016 0022     		movs	r2, #0
 319 0018 1B4B     		ldr	r3, .L26+8
 320 001a 1A70     		strb	r2, [r3]
 321              	.L20:
1077:main.c        ****    }
1078:main.c        ****    if(Inicio==1){
 322              		.loc 1 1078 0
 323 001c 194B     		ldr	r3, .L26+4
 324 001e B3F90030 		ldrsh	r3, [r3]
 325 0022 012B     		cmp	r3, #1
 326 0024 05D1     		bne	.L21
1079:main.c        ****       Rx_Buffer2[RX_Wr_Index] = Dato2;
 327              		.loc 1 1079 0
 328 0026 184A     		ldr	r2, .L26+8
 329 0028 1378     		ldrb	r3, [r2]	@ zero_extendqisi2
 330 002a 1849     		ldr	r1, .L26+12
 331 002c C854     		strb	r0, [r1, r3]
1080:main.c        ****       RX_Wr_Index++;
 332              		.loc 1 1080 0
 333 002e 0133     		adds	r3, r3, #1
 334 0030 1370     		strb	r3, [r2]
 335              	.L21:
1081:main.c        ****    }
1082:main.c        ****    if(RX_Wr_Index >= RX_BUFFER_SIZE){
 336              		.loc 1 1082 0
 337 0032 154B     		ldr	r3, .L26+8
 338 0034 1B78     		ldrb	r3, [r3]	@ zero_extendqisi2
 339 0036 092B     		cmp	r3, #9
 340 0038 04D9     		bls	.L22
1083:main.c        ****       RX_Wr_Index =0;
 341              		.loc 1 1083 0
 342 003a 0023     		movs	r3, #0
ARM GAS  C:\Users\USUARIO\AppData\Local\Temp\ccr2Jkwh.s 			page 26


 343 003c 124A     		ldr	r2, .L26+8
 344 003e 1370     		strb	r3, [r2]
1084:main.c        ****       Inicio=0;
 345              		.loc 1 1084 0
 346 0040 104A     		ldr	r2, .L26+4
 347 0042 1380     		strh	r3, [r2]	@ movhi
 348              	.L22:
1085:main.c        ****    }
1086:main.c        ****    if(RX_Wr_Index==0){
 349              		.loc 1 1086 0
 350 0044 104B     		ldr	r3, .L26+8
 351 0046 1B78     		ldrb	r3, [r3]	@ zero_extendqisi2
 352 0048 CBB9     		cbnz	r3, .L19
1087:main.c        ****       if(Rx_Buffer2[0]==0x65 && Rx_Buffer2[1]==0xff && Rx_Buffer2[2]==0xff && Rx_Buffer2[8]==0x00 &
 353              		.loc 1 1087 0
 354 004a 104B     		ldr	r3, .L26+12
 355 004c 1B78     		ldrb	r3, [r3]	@ zero_extendqisi2
 356 004e 652B     		cmp	r3, #101
 357 0050 12D1     		bne	.L24
 358              		.loc 1 1087 0 is_stmt 0 discriminator 1
 359 0052 0E4B     		ldr	r3, .L26+12
 360 0054 5B78     		ldrb	r3, [r3, #1]	@ zero_extendqisi2
 361 0056 FF2B     		cmp	r3, #255
 362 0058 0ED1     		bne	.L24
 363              		.loc 1 1087 0 discriminator 2
 364 005a 0C4B     		ldr	r3, .L26+12
 365 005c 9B78     		ldrb	r3, [r3, #2]	@ zero_extendqisi2
 366 005e FF2B     		cmp	r3, #255
 367 0060 0AD1     		bne	.L24
 368              		.loc 1 1087 0 discriminator 3
 369 0062 0A4B     		ldr	r3, .L26+12
 370 0064 1B7A     		ldrb	r3, [r3, #8]	@ zero_extendqisi2
 371 0066 3BB9     		cbnz	r3, .L24
 372              		.loc 1 1087 0 discriminator 4
 373 0068 084B     		ldr	r3, .L26+12
 374 006a 5B7A     		ldrb	r3, [r3, #9]	@ zero_extendqisi2
 375 006c FF2B     		cmp	r3, #255
 376 006e 03D1     		bne	.L24
1088:main.c        ****          Dato_Exitoso=5;
 377              		.loc 1 1088 0 is_stmt 1
 378 0070 0522     		movs	r2, #5
 379 0072 074B     		ldr	r3, .L26+16
 380 0074 1A70     		strb	r2, [r3]
 381 0076 08BD     		pop	{r3, pc}
 382              	.L24:
1089:main.c        ****       else
1090:main.c        ****          Dato_Exitoso=10;
 383              		.loc 1 1090 0
 384 0078 0A22     		movs	r2, #10
 385 007a 054B     		ldr	r3, .L26+16
 386 007c 1A70     		strb	r2, [r3]
 387              	.L19:
 388 007e 08BD     		pop	{r3, pc}
 389              	.L27:
 390              		.align	2
 391              	.L26:
 392 0080 00000000 		.word	Dato2
ARM GAS  C:\Users\USUARIO\AppData\Local\Temp\ccr2Jkwh.s 			page 27


 393 0084 00000000 		.word	Inicio
 394 0088 00000000 		.word	.LANCHOR0
 395 008c 00000000 		.word	Rx_Buffer2
 396 0090 00000000 		.word	Dato_Exitoso
 397              		.cfi_endproc
 398              	.LFE82:
 399              		.size	inteRX, .-inteRX
 400              		.global	__aeabi_ui2f
 401              		.global	__aeabi_fdiv
 402              		.global	__aeabi_i2f
 403              		.global	__aeabi_fadd
 404              		.global	__aeabi_f2uiz
 405              		.global	__aeabi_fcmpgt
 406              		.global	__aeabi_f2d
 407              		.global	__aeabi_dcmplt
 408              		.section	.text.LeeEEPROM,"ax",%progbits
 409              		.align	2
 410              		.global	LeeEEPROM
 411              		.thumb
 412              		.thumb_func
 413              		.type	LeeEEPROM, %function
 414              	LeeEEPROM:
 415              	.LFB64:
 120:main.c        ****    mEstp=EEPROM_ReadByte(0);CyDelay(5);  
 416              		.loc 1 120 0
 417              		.cfi_startproc
 418              		@ args = 0, pretend = 0, frame = 0
 419              		@ frame_needed = 0, uses_anonymous_args = 0
 420 0000 2DE9F843 		push	{r3, r4, r5, r6, r7, r8, r9, lr}
 421              		.cfi_def_cfa_offset 32
 422              		.cfi_offset 3, -32
 423              		.cfi_offset 4, -28
 424              		.cfi_offset 5, -24
 425              		.cfi_offset 6, -20
 426              		.cfi_offset 7, -16
 427              		.cfi_offset 8, -12
 428              		.cfi_offset 9, -8
 429              		.cfi_offset 14, -4
 121:main.c        ****    hEstp=EEPROM_ReadByte(1);CyDelay(5);  
 430              		.loc 1 121 0
 431 0004 0020     		movs	r0, #0
 432 0006 FFF7FEFF 		bl	EEPROM_ReadByte
 433              	.LVL5:
 434 000a 874B     		ldr	r3, .L37
 435 000c 1870     		strb	r0, [r3]
 436 000e 0520     		movs	r0, #5
 437 0010 FFF7FEFF 		bl	CyDelay
 438              	.LVL6:
 122:main.c        ****    
 439              		.loc 1 122 0
 440 0014 0120     		movs	r0, #1
 441 0016 FFF7FEFF 		bl	EEPROM_ReadByte
 442              	.LVL7:
 443 001a 844B     		ldr	r3, .L37+4
 444 001c 1870     		strb	r0, [r3]
 445 001e 0520     		movs	r0, #5
 446 0020 FFF7FEFF 		bl	CyDelay
ARM GAS  C:\Users\USUARIO\AppData\Local\Temp\ccr2Jkwh.s 			page 28


 447              	.LVL8:
 124:main.c        ****    Temporal=EEPROM_ReadByte(81);CyDelay(5);  
 448              		.loc 1 124 0
 449 0024 5020     		movs	r0, #80
 450 0026 FFF7FEFF 		bl	EEPROM_ReadByte
 451              	.LVL9:
 452 002a 814D     		ldr	r5, .L37+8
 453 002c 2870     		strb	r0, [r5]
 454 002e 0520     		movs	r0, #5
 455 0030 FFF7FEFF 		bl	CyDelay
 456              	.LVL10:
 125:main.c        ****    Temporal=Temporal/10.0;
 457              		.loc 1 125 0
 458 0034 5120     		movs	r0, #81
 459 0036 FFF7FEFF 		bl	EEPROM_ReadByte
 460              	.LVL11:
 461 003a 7E4C     		ldr	r4, .L37+12
 462 003c FFF7FEFF 		bl	__aeabi_ui2f
 463              	.LVL12:
 464 0040 2060     		str	r0, [r4]	@ float
 465 0042 0520     		movs	r0, #5
 466 0044 FFF7FEFF 		bl	CyDelay
 467              	.LVL13:
 126:main.c        ****    Setpoint=entero+Temporal;  
 468              		.loc 1 126 0
 469 0048 7B49     		ldr	r1, .L37+16
 470 004a 2068     		ldr	r0, [r4]	@ float
 471 004c FFF7FEFF 		bl	__aeabi_fdiv
 472              	.LVL14:
 473 0050 0646     		mov	r6, r0
 474 0052 2060     		str	r0, [r4]	@ float
 127:main.c        ****    
 475              		.loc 1 127 0
 476 0054 2878     		ldrb	r0, [r5]	@ zero_extendqisi2
 477 0056 FFF7FEFF 		bl	__aeabi_i2f
 478              	.LVL15:
 479 005a 3146     		mov	r1, r6
 480 005c FFF7FEFF 		bl	__aeabi_fadd
 481              	.LVL16:
 482 0060 764B     		ldr	r3, .L37+20
 483 0062 1860     		str	r0, [r3]	@ float
 129:main.c        ****    Temporal=EEPROM_ReadByte(83);CyDelay(5);  
 484              		.loc 1 129 0
 485 0064 5220     		movs	r0, #82
 486 0066 FFF7FEFF 		bl	EEPROM_ReadByte
 487              	.LVL17:
 488 006a 2870     		strb	r0, [r5]
 489 006c 0520     		movs	r0, #5
 490 006e FFF7FEFF 		bl	CyDelay
 491              	.LVL18:
 130:main.c        ****    Temporal=Temporal/10.0;
 492              		.loc 1 130 0
 493 0072 5320     		movs	r0, #83
 494 0074 FFF7FEFF 		bl	EEPROM_ReadByte
 495              	.LVL19:
 496 0078 FFF7FEFF 		bl	__aeabi_ui2f
 497              	.LVL20:
ARM GAS  C:\Users\USUARIO\AppData\Local\Temp\ccr2Jkwh.s 			page 29


 498 007c 2060     		str	r0, [r4]	@ float
 499 007e 0520     		movs	r0, #5
 500 0080 FFF7FEFF 		bl	CyDelay
 501              	.LVL21:
 131:main.c        ****    Setpoint1=entero+Temporal;  
 502              		.loc 1 131 0
 503 0084 6C49     		ldr	r1, .L37+16
 504 0086 2068     		ldr	r0, [r4]	@ float
 505 0088 FFF7FEFF 		bl	__aeabi_fdiv
 506              	.LVL22:
 507 008c 0646     		mov	r6, r0
 508 008e 2060     		str	r0, [r4]	@ float
 132:main.c        ****    
 509              		.loc 1 132 0
 510 0090 2878     		ldrb	r0, [r5]	@ zero_extendqisi2
 511 0092 FFF7FEFF 		bl	__aeabi_i2f
 512              	.LVL23:
 513 0096 3146     		mov	r1, r6
 514 0098 FFF7FEFF 		bl	__aeabi_fadd
 515              	.LVL24:
 516 009c 684B     		ldr	r3, .L37+24
 517 009e 1860     		str	r0, [r3]	@ float
 134:main.c        ****    Temporal=EEPROM_ReadByte(85);CyDelay(5);  
 518              		.loc 1 134 0
 519 00a0 5420     		movs	r0, #84
 520 00a2 FFF7FEFF 		bl	EEPROM_ReadByte
 521              	.LVL25:
 522 00a6 2870     		strb	r0, [r5]
 523 00a8 0520     		movs	r0, #5
 524 00aa FFF7FEFF 		bl	CyDelay
 525              	.LVL26:
 135:main.c        ****    Temporal=Temporal/10.0;
 526              		.loc 1 135 0
 527 00ae 5520     		movs	r0, #85
 528 00b0 FFF7FEFF 		bl	EEPROM_ReadByte
 529              	.LVL27:
 530 00b4 FFF7FEFF 		bl	__aeabi_ui2f
 531              	.LVL28:
 532 00b8 2060     		str	r0, [r4]	@ float
 533 00ba 0520     		movs	r0, #5
 534 00bc FFF7FEFF 		bl	CyDelay
 535              	.LVL29:
 136:main.c        ****    Setpoint2=entero+Temporal;  
 536              		.loc 1 136 0
 537 00c0 5D49     		ldr	r1, .L37+16
 538 00c2 2068     		ldr	r0, [r4]	@ float
 539 00c4 FFF7FEFF 		bl	__aeabi_fdiv
 540              	.LVL30:
 541 00c8 0646     		mov	r6, r0
 542 00ca 2060     		str	r0, [r4]	@ float
 137:main.c        **** 
 543              		.loc 1 137 0
 544 00cc 2878     		ldrb	r0, [r5]	@ zero_extendqisi2
 545 00ce FFF7FEFF 		bl	__aeabi_i2f
 546              	.LVL31:
 547 00d2 3146     		mov	r1, r6
 548 00d4 FFF7FEFF 		bl	__aeabi_fadd
ARM GAS  C:\Users\USUARIO\AppData\Local\Temp\ccr2Jkwh.s 			page 30


 549              	.LVL32:
 550 00d8 5A4B     		ldr	r3, .L37+28
 551 00da 1860     		str	r0, [r3]	@ float
 139:main.c        ****    Temporal=EEPROM_ReadByte(87);CyDelay(5);  
 552              		.loc 1 139 0
 553 00dc 5620     		movs	r0, #86
 554 00de FFF7FEFF 		bl	EEPROM_ReadByte
 555              	.LVL33:
 556 00e2 2870     		strb	r0, [r5]
 557 00e4 0520     		movs	r0, #5
 558 00e6 FFF7FEFF 		bl	CyDelay
 559              	.LVL34:
 140:main.c        ****    Temporal=Temporal/10.0;
 560              		.loc 1 140 0
 561 00ea 5720     		movs	r0, #87
 562 00ec FFF7FEFF 		bl	EEPROM_ReadByte
 563              	.LVL35:
 564 00f0 FFF7FEFF 		bl	__aeabi_ui2f
 565              	.LVL36:
 566 00f4 2060     		str	r0, [r4]	@ float
 567 00f6 0520     		movs	r0, #5
 568 00f8 FFF7FEFF 		bl	CyDelay
 569              	.LVL37:
 141:main.c        ****    Setpoint3=entero+Temporal;  
 570              		.loc 1 141 0
 571 00fc 4E49     		ldr	r1, .L37+16
 572 00fe 2068     		ldr	r0, [r4]	@ float
 573 0100 FFF7FEFF 		bl	__aeabi_fdiv
 574              	.LVL38:
 575 0104 0646     		mov	r6, r0
 576 0106 2060     		str	r0, [r4]	@ float
 142:main.c        **** 
 577              		.loc 1 142 0
 578 0108 2878     		ldrb	r0, [r5]	@ zero_extendqisi2
 579 010a FFF7FEFF 		bl	__aeabi_i2f
 580              	.LVL39:
 581 010e 3146     		mov	r1, r6
 582 0110 FFF7FEFF 		bl	__aeabi_fadd
 583              	.LVL40:
 584 0114 4C4B     		ldr	r3, .L37+32
 585 0116 1860     		str	r0, [r3]	@ float
 144:main.c        ****    Password[1]=EEPROM_ReadByte(11);CyDelay(5);  
 586              		.loc 1 144 0
 587 0118 0A20     		movs	r0, #10
 588 011a FFF7FEFF 		bl	EEPROM_ReadByte
 589              	.LVL41:
 590 011e 4B4C     		ldr	r4, .L37+36
 591 0120 2070     		strb	r0, [r4]
 592 0122 0520     		movs	r0, #5
 593 0124 FFF7FEFF 		bl	CyDelay
 594              	.LVL42:
 145:main.c        ****    Password[2]=EEPROM_ReadByte(12);CyDelay(5);  
 595              		.loc 1 145 0
 596 0128 0B20     		movs	r0, #11
 597 012a FFF7FEFF 		bl	EEPROM_ReadByte
 598              	.LVL43:
 599 012e 6070     		strb	r0, [r4, #1]
ARM GAS  C:\Users\USUARIO\AppData\Local\Temp\ccr2Jkwh.s 			page 31


 600 0130 0520     		movs	r0, #5
 601 0132 FFF7FEFF 		bl	CyDelay
 602              	.LVL44:
 146:main.c        ****    Password[3]=EEPROM_ReadByte(13);CyDelay(5);  
 603              		.loc 1 146 0
 604 0136 0C20     		movs	r0, #12
 605 0138 FFF7FEFF 		bl	EEPROM_ReadByte
 606              	.LVL45:
 607 013c A070     		strb	r0, [r4, #2]
 608 013e 0520     		movs	r0, #5
 609 0140 FFF7FEFF 		bl	CyDelay
 610              	.LVL46:
 147:main.c        ****    
 611              		.loc 1 147 0
 612 0144 0D20     		movs	r0, #13
 613 0146 FFF7FEFF 		bl	EEPROM_ReadByte
 614              	.LVL47:
 615 014a E070     		strb	r0, [r4, #3]
 616 014c 0520     		movs	r0, #5
 617 014e FFF7FEFF 		bl	CyDelay
 618              	.LVL48:
 149:main.c        ****    Derivativo=EEPROM_ReadByte(31);CyDelay(5);  
 619              		.loc 1 149 0
 620 0152 1E20     		movs	r0, #30
 621 0154 FFF7FEFF 		bl	EEPROM_ReadByte
 622              	.LVL49:
 623 0158 3D4C     		ldr	r4, .L37+40
 624 015a FFF7FEFF 		bl	__aeabi_ui2f
 625              	.LVL50:
 626 015e 2060     		str	r0, [r4]	@ float
 627 0160 0520     		movs	r0, #5
 628 0162 FFF7FEFF 		bl	CyDelay
 629              	.LVL51:
 150:main.c        ****    Integral=EEPROM_ReadByte(32);CyDelay(5);  
 630              		.loc 1 150 0
 631 0166 1F20     		movs	r0, #31
 632 0168 FFF7FEFF 		bl	EEPROM_ReadByte
 633              	.LVL52:
 634 016c 394B     		ldr	r3, .L37+44
 635 016e 1870     		strb	r0, [r3]
 636 0170 0520     		movs	r0, #5
 637 0172 FFF7FEFF 		bl	CyDelay
 638              	.LVL53:
 151:main.c        ****    Tciclo=EEPROM_ReadByte(33);CyDelay(5);  
 639              		.loc 1 151 0
 640 0176 2020     		movs	r0, #32
 641 0178 FFF7FEFF 		bl	EEPROM_ReadByte
 642              	.LVL54:
 643 017c 364B     		ldr	r3, .L37+48
 644 017e 1870     		strb	r0, [r3]
 645 0180 0520     		movs	r0, #5
 646 0182 FFF7FEFF 		bl	CyDelay
 647              	.LVL55:
 152:main.c        ****    Ajuste=EEPROM_ReadByte(34);CyDelay(5);  
 648              		.loc 1 152 0
 649 0186 2120     		movs	r0, #33
 650 0188 FFF7FEFF 		bl	EEPROM_ReadByte
ARM GAS  C:\Users\USUARIO\AppData\Local\Temp\ccr2Jkwh.s 			page 32


 651              	.LVL56:
 652 018c 334B     		ldr	r3, .L37+52
 653 018e 1870     		strb	r0, [r3]
 654 0190 0520     		movs	r0, #5
 655 0192 FFF7FEFF 		bl	CyDelay
 656              	.LVL57:
 153:main.c        ****    Ajusten=EEPROM_ReadByte(35);CyDelay(5);  
 657              		.loc 1 153 0
 658 0196 2220     		movs	r0, #34
 659 0198 FFF7FEFF 		bl	EEPROM_ReadByte
 660              	.LVL58:
 661 019c 304B     		ldr	r3, .L37+56
 662 019e 1870     		strb	r0, [r3]
 663 01a0 0520     		movs	r0, #5
 664 01a2 FFF7FEFF 		bl	CyDelay
 665              	.LVL59:
 154:main.c        ****    MediaMovil=EEPROM_ReadByte(36);CyDelay(5);  
 666              		.loc 1 154 0
 667 01a6 2320     		movs	r0, #35
 668 01a8 FFF7FEFF 		bl	EEPROM_ReadByte
 669              	.LVL60:
 670 01ac 2D4B     		ldr	r3, .L37+60
 671 01ae 1870     		strb	r0, [r3]
 672 01b0 0520     		movs	r0, #5
 673 01b2 FFF7FEFF 		bl	CyDelay
 674              	.LVL61:
 155:main.c        ****    Ajuste2=EEPROM_ReadByte(37);CyDelay(5);
 675              		.loc 1 155 0
 676 01b6 2420     		movs	r0, #36
 677 01b8 FFF7FEFF 		bl	EEPROM_ReadByte
 678              	.LVL62:
 679 01bc 2A4B     		ldr	r3, .L37+64
 680 01be 1870     		strb	r0, [r3]
 681 01c0 0520     		movs	r0, #5
 682 01c2 FFF7FEFF 		bl	CyDelay
 683              	.LVL63:
 156:main.c        ****    Ajusten2=EEPROM_ReadByte(38);CyDelay(5);
 684              		.loc 1 156 0
 685 01c6 2520     		movs	r0, #37
 686 01c8 FFF7FEFF 		bl	EEPROM_ReadByte
 687              	.LVL64:
 688 01cc 274B     		ldr	r3, .L37+68
 689 01ce 1870     		strb	r0, [r3]
 690 01d0 0520     		movs	r0, #5
 691 01d2 FFF7FEFF 		bl	CyDelay
 692              	.LVL65:
 157:main.c        ****    //MediaMovil2=EEPROM_ReadByte(39);CyDelay(5);  
 693              		.loc 1 157 0
 694 01d6 2620     		movs	r0, #38
 695 01d8 FFF7FEFF 		bl	EEPROM_ReadByte
 696              	.LVL66:
 697 01dc 244B     		ldr	r3, .L37+72
 698 01de 1870     		strb	r0, [r3]
 699 01e0 0520     		movs	r0, #5
 700 01e2 FFF7FEFF 		bl	CyDelay
 701              	.LVL67:
 159:main.c        ****    controlT=EEPROM_ReadByte(41);CyDelay(5);
ARM GAS  C:\Users\USUARIO\AppData\Local\Temp\ccr2Jkwh.s 			page 33


 702              		.loc 1 159 0
 703 01e6 2820     		movs	r0, #40
 704 01e8 FFF7FEFF 		bl	EEPROM_ReadByte
 705              	.LVL68:
 706 01ec 214B     		ldr	r3, .L37+76
 707 01ee 1870     		strb	r0, [r3]
 708 01f0 0520     		movs	r0, #5
 709 01f2 FFF7FEFF 		bl	CyDelay
 710              	.LVL69:
 160:main.c        ****    //controlH=EEPROM_ReadByte(42);CyDelay(5);
 711              		.loc 1 160 0
 712 01f6 2920     		movs	r0, #41
 713 01f8 FFF7FEFF 		bl	EEPROM_ReadByte
 714              	.LVL70:
 715 01fc 1E4B     		ldr	r3, .L37+80
 716 01fe 1870     		strb	r0, [r3]
 717 0200 0520     		movs	r0, #5
 718 0202 FFF7FEFF 		bl	CyDelay
 719              	.LVL71:
 162:main.c        ****    //Coeficiente=EEPROM_ReadByte(37);CyDelay(5);  
 720              		.loc 1 162 0
 721 0206 2B20     		movs	r0, #43
 722 0208 FFF7FEFF 		bl	EEPROM_ReadByte
 723              	.LVL72:
 724 020c 1B4B     		ldr	r3, .L37+84
 725 020e 1870     		strb	r0, [r3]
 726 0210 0520     		movs	r0, #5
 727 0212 FFF7FEFF 		bl	CyDelay
 728              	.LVL73:
 165:main.c        ****    
 729              		.loc 1 165 0
 730 0216 2068     		ldr	r0, [r4]	@ float
 731 0218 FFF7FEFF 		bl	__aeabi_f2uiz
 732              	.LVL74:
 733 021c 184B     		ldr	r3, .L37+88
 734 021e 1870     		strb	r0, [r3]
 167:main.c        ****       rampas[i].TemperaturaInt=EEPROM_ReadByte(100+(i*6)); 
 735              		.loc 1 167 0
 736 0220 0022     		movs	r2, #0
 737 0222 184B     		ldr	r3, .L37+92
 738 0224 1A70     		strb	r2, [r3]
 739 0226 B4E0     		b	.L29
 740              	.L38:
 741              		.align	2
 742              	.L37:
 743 0228 00000000 		.word	mEstp
 744 022c 00000000 		.word	hEstp
 745 0230 00000000 		.word	entero
 746 0234 00000000 		.word	Temporal
 747 0238 00002041 		.word	1092616192
 748 023c 00000000 		.word	Setpoint
 749 0240 00000000 		.word	Setpoint1
 750 0244 00000000 		.word	Setpoint2
 751 0248 00000000 		.word	Setpoint3
 752 024c 00000000 		.word	Password
 753 0250 00000000 		.word	Ganancia
 754 0254 00000000 		.word	Derivativo
ARM GAS  C:\Users\USUARIO\AppData\Local\Temp\ccr2Jkwh.s 			page 34


 755 0258 00000000 		.word	Integral
 756 025c 00000000 		.word	Tciclo
 757 0260 00000000 		.word	Ajuste
 758 0264 00000000 		.word	Ajusten
 759 0268 00000000 		.word	MediaMovil
 760 026c 00000000 		.word	Ajuste2
 761 0270 00000000 		.word	Ajusten2
 762 0274 00000000 		.word	tmuestreoUSB
 763 0278 00000000 		.word	controlT
 764 027c 00000000 		.word	controlR
 765 0280 00000000 		.word	GananciaR
 766 0284 00000000 		.word	i
 767              	.L35:
 168:main.c        ****       rampas[i].TemperaturaDec=EEPROM_ReadByte(101+(i*6)); 
 768              		.loc 1 168 0
 769 0288 04EB4403 		add	r3, r4, r4, lsl #1
 770 028c 5800     		lsls	r0, r3, #1
 771 028e 6430     		adds	r0, r0, #100
 772 0290 80B2     		uxth	r0, r0
 773 0292 FFF7FEFF 		bl	EEPROM_ReadByte
 774              	.LVL75:
 775 0296 444D     		ldr	r5, .L39+8
 776 0298 04EB4404 		add	r4, r4, r4, lsl #1
 777 029c A300     		lsls	r3, r4, #2
 778 029e 2B44     		add	r3, r3, r5
 779 02a0 5870     		strb	r0, [r3, #1]
 169:main.c        ****       //rampas[i].Humedad=EEPROM_ReadByte(102+(i*6)); 
 780              		.loc 1 169 0
 781 02a2 424E     		ldr	r6, .L39+12
 782 02a4 3478     		ldrb	r4, [r6]	@ zero_extendqisi2
 783 02a6 04EB4403 		add	r3, r4, r4, lsl #1
 784 02aa 5800     		lsls	r0, r3, #1
 785 02ac 6530     		adds	r0, r0, #101
 786 02ae 80B2     		uxth	r0, r0
 787 02b0 FFF7FEFF 		bl	EEPROM_ReadByte
 788              	.LVL76:
 789 02b4 04EB4404 		add	r4, r4, r4, lsl #1
 790 02b8 A300     		lsls	r3, r4, #2
 791 02ba E854     		strb	r0, [r5, r3]
 171:main.c        ****       rampas[i].Minutos=EEPROM_ReadByte(104+(i*6)); 
 792              		.loc 1 171 0
 793 02bc 3478     		ldrb	r4, [r6]	@ zero_extendqisi2
 794 02be 04EB4403 		add	r3, r4, r4, lsl #1
 795 02c2 5800     		lsls	r0, r3, #1
 796 02c4 6730     		adds	r0, r0, #103
 797 02c6 80B2     		uxth	r0, r0
 798 02c8 FFF7FEFF 		bl	EEPROM_ReadByte
 799              	.LVL77:
 800 02cc 04EB4404 		add	r4, r4, r4, lsl #1
 801 02d0 A300     		lsls	r3, r4, #2
 802 02d2 2B44     		add	r3, r3, r5
 803 02d4 9870     		strb	r0, [r3, #2]
 172:main.c        ****       
 804              		.loc 1 172 0
 805 02d6 3478     		ldrb	r4, [r6]	@ zero_extendqisi2
 806 02d8 04EB4403 		add	r3, r4, r4, lsl #1
 807 02dc 5800     		lsls	r0, r3, #1
ARM GAS  C:\Users\USUARIO\AppData\Local\Temp\ccr2Jkwh.s 			page 35


 808 02de 6830     		adds	r0, r0, #104
 809 02e0 80B2     		uxth	r0, r0
 810 02e2 FFF7FEFF 		bl	EEPROM_ReadByte
 811              	.LVL78:
 812 02e6 04EB4404 		add	r4, r4, r4, lsl #1
 813 02ea A300     		lsls	r3, r4, #2
 814 02ec 2B44     		add	r3, r3, r5
 815 02ee D870     		strb	r0, [r3, #3]
 174:main.c        ****       if(rampas[i].Temperatura>60.0 || rampas[i].Temperatura<0.1)rampas[i].Temperatura=30.0;
 816              		.loc 1 174 0
 817 02f0 3478     		ldrb	r4, [r6]	@ zero_extendqisi2
 818 02f2 6700     		lsls	r7, r4, #1
 819 02f4 3A19     		adds	r2, r7, r4
 820 02f6 9300     		lsls	r3, r2, #2
 821 02f8 EA18     		adds	r2, r5, r3
 822 02fa 92F80190 		ldrb	r9, [r2, #1]	@ zero_extendqisi2
 823 02fe E85C     		ldrb	r0, [r5, r3]	@ zero_extendqisi2
 824 0300 FFF7FEFF 		bl	inttofloat
 825              	.LVL79:
 826 0304 8046     		mov	r8, r0
 827 0306 4846     		mov	r0, r9
 828 0308 FFF7FEFF 		bl	__aeabi_i2f
 829              	.LVL80:
 830 030c 4146     		mov	r1, r8
 831 030e FFF7FEFF 		bl	__aeabi_fadd
 832              	.LVL81:
 833 0312 3C44     		add	r4, r4, r7
 834 0314 A300     		lsls	r3, r4, #2
 835 0316 2B44     		add	r3, r3, r5
 836 0318 9860     		str	r0, [r3, #8]	@ float
 175:main.c        ****       //if(rampas[i].Humedad>95 || rampas[i].Humedad<10)rampas[i].Humedad=60.0;
 837              		.loc 1 175 0
 838 031a 3478     		ldrb	r4, [r6]	@ zero_extendqisi2
 839 031c 04EB4402 		add	r2, r4, r4, lsl #1
 840 0320 9300     		lsls	r3, r2, #2
 841 0322 1D44     		add	r5, r5, r3
 842 0324 AD68     		ldr	r5, [r5, #8]	@ float
 843 0326 2249     		ldr	r1, .L39+16
 844 0328 2846     		mov	r0, r5
 845 032a FFF7FEFF 		bl	__aeabi_fcmpgt
 846              	.LVL82:
 847 032e 40B9     		cbnz	r0, .L30
 175:main.c        ****       //if(rampas[i].Humedad>95 || rampas[i].Humedad<10)rampas[i].Humedad=60.0;
 848              		.loc 1 175 0 is_stmt 0 discriminator 2
 849 0330 2846     		mov	r0, r5
 850 0332 FFF7FEFF 		bl	__aeabi_f2d
 851              	.LVL83:
 852 0336 1AA3     		adr	r3, .L39
 853 0338 D3E90023 		ldrd	r2, [r3]
 854 033c FFF7FEFF 		bl	__aeabi_dcmplt
 855              	.LVL84:
 856 0340 30B1     		cbz	r0, .L31
 857              	.L30:
 175:main.c        ****       //if(rampas[i].Humedad>95 || rampas[i].Humedad<10)rampas[i].Humedad=60.0;
 858              		.loc 1 175 0 discriminator 3
 859 0342 04EB4402 		add	r2, r4, r4, lsl #1
 860 0346 9300     		lsls	r3, r2, #2
ARM GAS  C:\Users\USUARIO\AppData\Local\Temp\ccr2Jkwh.s 			page 36


 861 0348 174A     		ldr	r2, .L39+8
 862 034a 1344     		add	r3, r3, r2
 863 034c 194A     		ldr	r2, .L39+20
 864 034e 9A60     		str	r2, [r3, #8]	@ float
 865              	.L31:
 177:main.c        ****       if(rampas[i].Minutos>59)rampas[i].Minutos=10;
 866              		.loc 1 177 0 is_stmt 1
 867 0350 04EB4402 		add	r2, r4, r4, lsl #1
 868 0354 9300     		lsls	r3, r2, #2
 869 0356 144A     		ldr	r2, .L39+8
 870 0358 1344     		add	r3, r3, r2
 871 035a 9B78     		ldrb	r3, [r3, #2]	@ zero_extendqisi2
 872 035c 632B     		cmp	r3, #99
 873 035e 06D9     		bls	.L33
 177:main.c        ****       if(rampas[i].Minutos>59)rampas[i].Minutos=10;
 874              		.loc 1 177 0 is_stmt 0 discriminator 1
 875 0360 04EB4402 		add	r2, r4, r4, lsl #1
 876 0364 9300     		lsls	r3, r2, #2
 877 0366 104A     		ldr	r2, .L39+8
 878 0368 1344     		add	r3, r3, r2
 879 036a 0A22     		movs	r2, #10
 880 036c 9A70     		strb	r2, [r3, #2]
 881              	.L33:
 178:main.c        ****    }
 882              		.loc 1 178 0 is_stmt 1
 883 036e 04EB4402 		add	r2, r4, r4, lsl #1
 884 0372 9300     		lsls	r3, r2, #2
 885 0374 0C4A     		ldr	r2, .L39+8
 886 0376 1344     		add	r3, r3, r2
 887 0378 DB78     		ldrb	r3, [r3, #3]	@ zero_extendqisi2
 888 037a 3B2B     		cmp	r3, #59
 889 037c 06D9     		bls	.L34
 178:main.c        ****    }
 890              		.loc 1 178 0 is_stmt 0 discriminator 1
 891 037e 04EB4402 		add	r2, r4, r4, lsl #1
 892 0382 9300     		lsls	r3, r2, #2
 893 0384 084A     		ldr	r2, .L39+8
 894 0386 1344     		add	r3, r3, r2
 895 0388 0A22     		movs	r2, #10
 896 038a DA70     		strb	r2, [r3, #3]
 897              	.L34:
 167:main.c        ****       rampas[i].TemperaturaInt=EEPROM_ReadByte(100+(i*6)); 
 898              		.loc 1 167 0 is_stmt 1 discriminator 2
 899 038c 0134     		adds	r4, r4, #1
 900 038e 074B     		ldr	r3, .L39+12
 901 0390 1C70     		strb	r4, [r3]
 902              	.L29:
 167:main.c        ****       rampas[i].TemperaturaInt=EEPROM_ReadByte(100+(i*6)); 
 903              		.loc 1 167 0 is_stmt 0 discriminator 1
 904 0392 064B     		ldr	r3, .L39+12
 905 0394 1C78     		ldrb	r4, [r3]	@ zero_extendqisi2
 906 0396 132C     		cmp	r4, #19
 907 0398 7FF676AF 		bls	.L35
 180:main.c        **** 
 908              		.loc 1 180 0 is_stmt 1
 909 039c BDE8F883 		pop	{r3, r4, r5, r6, r7, r8, r9, pc}
 910              	.L40:
ARM GAS  C:\Users\USUARIO\AppData\Local\Temp\ccr2Jkwh.s 			page 37


 911              		.align	3
 912              	.L39:
 913 03a0 9A999999 		.word	-1717986918
 914 03a4 9999B93F 		.word	1069128089
 915 03a8 00000000 		.word	rampas
 916 03ac 00000000 		.word	i
 917 03b0 00007042 		.word	1114636288
 918 03b4 0000F041 		.word	1106247680
 919              		.cfi_endproc
 920              	.LFE64:
 921              		.size	LeeEEPROM, .-LeeEEPROM
 922              		.global	__aeabi_fcmplt
 923              		.section	.text.LimitaValores,"ax",%progbits
 924              		.align	2
 925              		.global	LimitaValores
 926              		.thumb
 927              		.thumb_func
 928              		.type	LimitaValores, %function
 929              	LimitaValores:
 930              	.LFB65:
 182:main.c        ****    if(mEstp>59){
 931              		.loc 1 182 0
 932              		.cfi_startproc
 933              		@ args = 0, pretend = 0, frame = 0
 934              		@ frame_needed = 0, uses_anonymous_args = 0
 935 0000 10B5     		push	{r4, lr}
 936              		.cfi_def_cfa_offset 8
 937              		.cfi_offset 4, -8
 938              		.cfi_offset 14, -4
 183:main.c        ****       mEstp=10;EEPROM_WriteByte(10,0);CyDelay(20);
 939              		.loc 1 183 0
 940 0002 B24B     		ldr	r3, .L74
 941 0004 1B78     		ldrb	r3, [r3]	@ zero_extendqisi2
 942 0006 3B2B     		cmp	r3, #59
 943 0008 08D9     		bls	.L42
 184:main.c        ****    }
 944              		.loc 1 184 0
 945 000a 0A20     		movs	r0, #10
 946 000c AF4B     		ldr	r3, .L74
 947 000e 1870     		strb	r0, [r3]
 948 0010 0021     		movs	r1, #0
 949 0012 FFF7FEFF 		bl	EEPROM_WriteByte
 950              	.LVL85:
 951 0016 1420     		movs	r0, #20
 952 0018 FFF7FEFF 		bl	CyDelay
 953              	.LVL86:
 954              	.L42:
 186:main.c        ****       hEstp=10;EEPROM_WriteByte(10,1);CyDelay(20);
 955              		.loc 1 186 0
 956 001c AC4B     		ldr	r3, .L74+4
 957 001e 1B78     		ldrb	r3, [r3]	@ zero_extendqisi2
 958 0020 632B     		cmp	r3, #99
 959 0022 08D9     		bls	.L43
 187:main.c        ****    }
 960              		.loc 1 187 0
 961 0024 0A20     		movs	r0, #10
 962 0026 AA4B     		ldr	r3, .L74+4
ARM GAS  C:\Users\USUARIO\AppData\Local\Temp\ccr2Jkwh.s 			page 38


 963 0028 1870     		strb	r0, [r3]
 964 002a 0121     		movs	r1, #1
 965 002c FFF7FEFF 		bl	EEPROM_WriteByte
 966              	.LVL87:
 967 0030 1420     		movs	r0, #20
 968 0032 FFF7FEFF 		bl	CyDelay
 969              	.LVL88:
 970              	.L43:
 189:main.c        ****       Password[0]=0;EEPROM_WriteByte(0,10);CyDelay(20);
 971              		.loc 1 189 0
 972 0036 A74B     		ldr	r3, .L74+8
 973 0038 1B78     		ldrb	r3, [r3]	@ zero_extendqisi2
 974 003a 092B     		cmp	r3, #9
 975 003c 08D9     		bls	.L44
 190:main.c        ****    }
 976              		.loc 1 190 0
 977 003e 0020     		movs	r0, #0
 978 0040 A44B     		ldr	r3, .L74+8
 979 0042 1870     		strb	r0, [r3]
 980 0044 0A21     		movs	r1, #10
 981 0046 FFF7FEFF 		bl	EEPROM_WriteByte
 982              	.LVL89:
 983 004a 1420     		movs	r0, #20
 984 004c FFF7FEFF 		bl	CyDelay
 985              	.LVL90:
 986              	.L44:
 192:main.c        ****       Password[1]=0;EEPROM_WriteByte(0,11);CyDelay(20);
 987              		.loc 1 192 0
 988 0050 A04B     		ldr	r3, .L74+8
 989 0052 5B78     		ldrb	r3, [r3, #1]	@ zero_extendqisi2
 990 0054 092B     		cmp	r3, #9
 991 0056 08D9     		bls	.L45
 193:main.c        ****    }
 992              		.loc 1 193 0
 993 0058 0020     		movs	r0, #0
 994 005a 9E4B     		ldr	r3, .L74+8
 995 005c 5870     		strb	r0, [r3, #1]
 996 005e 0B21     		movs	r1, #11
 997 0060 FFF7FEFF 		bl	EEPROM_WriteByte
 998              	.LVL91:
 999 0064 1420     		movs	r0, #20
 1000 0066 FFF7FEFF 		bl	CyDelay
 1001              	.LVL92:
 1002              	.L45:
 195:main.c        ****       Password[2]=0;EEPROM_WriteByte(0,12);CyDelay(20);
 1003              		.loc 1 195 0
 1004 006a 9A4B     		ldr	r3, .L74+8
 1005 006c 9B78     		ldrb	r3, [r3, #2]	@ zero_extendqisi2
 1006 006e 092B     		cmp	r3, #9
 1007 0070 08D9     		bls	.L46
 196:main.c        ****    }
 1008              		.loc 1 196 0
 1009 0072 0020     		movs	r0, #0
 1010 0074 974B     		ldr	r3, .L74+8
 1011 0076 9870     		strb	r0, [r3, #2]
 1012 0078 0C21     		movs	r1, #12
 1013 007a FFF7FEFF 		bl	EEPROM_WriteByte
ARM GAS  C:\Users\USUARIO\AppData\Local\Temp\ccr2Jkwh.s 			page 39


 1014              	.LVL93:
 1015 007e 1420     		movs	r0, #20
 1016 0080 FFF7FEFF 		bl	CyDelay
 1017              	.LVL94:
 1018              	.L46:
 198:main.c        ****       Password[3]=0;EEPROM_WriteByte(0,13);CyDelay(20);
 1019              		.loc 1 198 0
 1020 0084 934B     		ldr	r3, .L74+8
 1021 0086 DB78     		ldrb	r3, [r3, #3]	@ zero_extendqisi2
 1022 0088 092B     		cmp	r3, #9
 1023 008a 08D9     		bls	.L47
 199:main.c        ****    }
 1024              		.loc 1 199 0
 1025 008c 0020     		movs	r0, #0
 1026 008e 914B     		ldr	r3, .L74+8
 1027 0090 D870     		strb	r0, [r3, #3]
 1028 0092 0D21     		movs	r1, #13
 1029 0094 FFF7FEFF 		bl	EEPROM_WriteByte
 1030              	.LVL95:
 1031 0098 1420     		movs	r0, #20
 1032 009a FFF7FEFF 		bl	CyDelay
 1033              	.LVL96:
 1034              	.L47:
 201:main.c        ****       Setpoint=30.0;EEPROM_WriteByte(30,80);CyDelay(20);EEPROM_WriteByte(0,81);CyDelay(20);
 1035              		.loc 1 201 0
 1036 009e 8E4B     		ldr	r3, .L74+12
 1037 00a0 1C68     		ldr	r4, [r3]	@ float
 1038 00a2 8E49     		ldr	r1, .L74+16
 1039 00a4 2046     		mov	r0, r4
 1040 00a6 FFF7FEFF 		bl	__aeabi_fcmpgt
 1041              	.LVL97:
 1042 00aa 20B9     		cbnz	r0, .L48
 201:main.c        ****       Setpoint=30.0;EEPROM_WriteByte(30,80);CyDelay(20);EEPROM_WriteByte(0,81);CyDelay(20);
 1043              		.loc 1 201 0 is_stmt 0 discriminator 1
 1044 00ac 0021     		movs	r1, #0
 1045 00ae 2046     		mov	r0, r4
 1046 00b0 FFF7FEFF 		bl	__aeabi_fcmplt
 1047              	.LVL98:
 1048 00b4 80B1     		cbz	r0, .L49
 1049              	.L48:
 202:main.c        ****    }
 1050              		.loc 1 202 0 is_stmt 1
 1051 00b6 8A4A     		ldr	r2, .L74+20
 1052 00b8 874B     		ldr	r3, .L74+12
 1053 00ba 1A60     		str	r2, [r3]	@ float
 1054 00bc 5021     		movs	r1, #80
 1055 00be 1E20     		movs	r0, #30
 1056 00c0 FFF7FEFF 		bl	EEPROM_WriteByte
 1057              	.LVL99:
 1058 00c4 1420     		movs	r0, #20
 1059 00c6 FFF7FEFF 		bl	CyDelay
 1060              	.LVL100:
 1061 00ca 5121     		movs	r1, #81
 1062 00cc 0020     		movs	r0, #0
 1063 00ce FFF7FEFF 		bl	EEPROM_WriteByte
 1064              	.LVL101:
 1065 00d2 1420     		movs	r0, #20
ARM GAS  C:\Users\USUARIO\AppData\Local\Temp\ccr2Jkwh.s 			page 40


 1066 00d4 FFF7FEFF 		bl	CyDelay
 1067              	.LVL102:
 1068              	.L49:
 204:main.c        ****       Setpoint1=30.0;EEPROM_WriteByte(30,82);CyDelay(20);EEPROM_WriteByte(0,83);CyDelay(20);
 1069              		.loc 1 204 0
 1070 00d8 824B     		ldr	r3, .L74+24
 1071 00da 1C68     		ldr	r4, [r3]	@ float
 1072 00dc 7F49     		ldr	r1, .L74+16
 1073 00de 2046     		mov	r0, r4
 1074 00e0 FFF7FEFF 		bl	__aeabi_fcmpgt
 1075              	.LVL103:
 1076 00e4 20B9     		cbnz	r0, .L51
 204:main.c        ****       Setpoint1=30.0;EEPROM_WriteByte(30,82);CyDelay(20);EEPROM_WriteByte(0,83);CyDelay(20);
 1077              		.loc 1 204 0 is_stmt 0 discriminator 1
 1078 00e6 0021     		movs	r1, #0
 1079 00e8 2046     		mov	r0, r4
 1080 00ea FFF7FEFF 		bl	__aeabi_fcmplt
 1081              	.LVL104:
 1082 00ee 80B1     		cbz	r0, .L52
 1083              	.L51:
 205:main.c        ****    }
 1084              		.loc 1 205 0 is_stmt 1
 1085 00f0 7B4A     		ldr	r2, .L74+20
 1086 00f2 7C4B     		ldr	r3, .L74+24
 1087 00f4 1A60     		str	r2, [r3]	@ float
 1088 00f6 5221     		movs	r1, #82
 1089 00f8 1E20     		movs	r0, #30
 1090 00fa FFF7FEFF 		bl	EEPROM_WriteByte
 1091              	.LVL105:
 1092 00fe 1420     		movs	r0, #20
 1093 0100 FFF7FEFF 		bl	CyDelay
 1094              	.LVL106:
 1095 0104 5321     		movs	r1, #83
 1096 0106 0020     		movs	r0, #0
 1097 0108 FFF7FEFF 		bl	EEPROM_WriteByte
 1098              	.LVL107:
 1099 010c 1420     		movs	r0, #20
 1100 010e FFF7FEFF 		bl	CyDelay
 1101              	.LVL108:
 1102              	.L52:
 207:main.c        ****       Setpoint2=30.0;EEPROM_WriteByte(30,84);CyDelay(20);EEPROM_WriteByte(0,85);CyDelay(20);
 1103              		.loc 1 207 0
 1104 0112 754B     		ldr	r3, .L74+28
 1105 0114 1C68     		ldr	r4, [r3]	@ float
 1106 0116 7149     		ldr	r1, .L74+16
 1107 0118 2046     		mov	r0, r4
 1108 011a FFF7FEFF 		bl	__aeabi_fcmpgt
 1109              	.LVL109:
 1110 011e 20B9     		cbnz	r0, .L54
 207:main.c        ****       Setpoint2=30.0;EEPROM_WriteByte(30,84);CyDelay(20);EEPROM_WriteByte(0,85);CyDelay(20);
 1111              		.loc 1 207 0 is_stmt 0 discriminator 1
 1112 0120 0021     		movs	r1, #0
 1113 0122 2046     		mov	r0, r4
 1114 0124 FFF7FEFF 		bl	__aeabi_fcmplt
 1115              	.LVL110:
 1116 0128 80B1     		cbz	r0, .L55
 1117              	.L54:
ARM GAS  C:\Users\USUARIO\AppData\Local\Temp\ccr2Jkwh.s 			page 41


 208:main.c        ****    }
 1118              		.loc 1 208 0 is_stmt 1
 1119 012a 6D4A     		ldr	r2, .L74+20
 1120 012c 6E4B     		ldr	r3, .L74+28
 1121 012e 1A60     		str	r2, [r3]	@ float
 1122 0130 5421     		movs	r1, #84
 1123 0132 1E20     		movs	r0, #30
 1124 0134 FFF7FEFF 		bl	EEPROM_WriteByte
 1125              	.LVL111:
 1126 0138 1420     		movs	r0, #20
 1127 013a FFF7FEFF 		bl	CyDelay
 1128              	.LVL112:
 1129 013e 5521     		movs	r1, #85
 1130 0140 0020     		movs	r0, #0
 1131 0142 FFF7FEFF 		bl	EEPROM_WriteByte
 1132              	.LVL113:
 1133 0146 1420     		movs	r0, #20
 1134 0148 FFF7FEFF 		bl	CyDelay
 1135              	.LVL114:
 1136              	.L55:
 210:main.c        ****       Setpoint3=30.0;EEPROM_WriteByte(30,86);CyDelay(20);EEPROM_WriteByte(0,87);CyDelay(20);
 1137              		.loc 1 210 0
 1138 014c 674B     		ldr	r3, .L74+32
 1139 014e 1C68     		ldr	r4, [r3]	@ float
 1140 0150 6249     		ldr	r1, .L74+16
 1141 0152 2046     		mov	r0, r4
 1142 0154 FFF7FEFF 		bl	__aeabi_fcmpgt
 1143              	.LVL115:
 1144 0158 20B9     		cbnz	r0, .L57
 210:main.c        ****       Setpoint3=30.0;EEPROM_WriteByte(30,86);CyDelay(20);EEPROM_WriteByte(0,87);CyDelay(20);
 1145              		.loc 1 210 0 is_stmt 0 discriminator 1
 1146 015a 0021     		movs	r1, #0
 1147 015c 2046     		mov	r0, r4
 1148 015e FFF7FEFF 		bl	__aeabi_fcmplt
 1149              	.LVL116:
 1150 0162 80B1     		cbz	r0, .L58
 1151              	.L57:
 211:main.c        ****    }
 1152              		.loc 1 211 0 is_stmt 1
 1153 0164 5E4A     		ldr	r2, .L74+20
 1154 0166 614B     		ldr	r3, .L74+32
 1155 0168 1A60     		str	r2, [r3]	@ float
 1156 016a 5621     		movs	r1, #86
 1157 016c 1E20     		movs	r0, #30
 1158 016e FFF7FEFF 		bl	EEPROM_WriteByte
 1159              	.LVL117:
 1160 0172 1420     		movs	r0, #20
 1161 0174 FFF7FEFF 		bl	CyDelay
 1162              	.LVL118:
 1163 0178 5721     		movs	r1, #87
 1164 017a 0020     		movs	r0, #0
 1165 017c FFF7FEFF 		bl	EEPROM_WriteByte
 1166              	.LVL119:
 1167 0180 1420     		movs	r0, #20
 1168 0182 FFF7FEFF 		bl	CyDelay
 1169              	.LVL120:
 1170              	.L58:
ARM GAS  C:\Users\USUARIO\AppData\Local\Temp\ccr2Jkwh.s 			page 42


 213:main.c        ****       Ganancia=2;EEPROM_WriteByte(2,30);CyDelay(20);
 1171              		.loc 1 213 0
 1172 0186 5A4B     		ldr	r3, .L74+36
 1173 0188 1C68     		ldr	r4, [r3]	@ float
 1174 018a 5A49     		ldr	r1, .L74+40
 1175 018c 2046     		mov	r0, r4
 1176 018e FFF7FEFF 		bl	__aeabi_fcmpgt
 1177              	.LVL121:
 1178 0192 28B9     		cbnz	r0, .L60
 213:main.c        ****       Ganancia=2;EEPROM_WriteByte(2,30);CyDelay(20);
 1179              		.loc 1 213 0 is_stmt 0 discriminator 1
 1180 0194 4FF07E51 		mov	r1, #1065353216
 1181 0198 2046     		mov	r0, r4
 1182 019a FFF7FEFF 		bl	__aeabi_fcmplt
 1183              	.LVL122:
 1184 019e 50B1     		cbz	r0, .L61
 1185              	.L60:
 214:main.c        ****    }
 1186              		.loc 1 214 0 is_stmt 1
 1187 01a0 4FF08042 		mov	r2, #1073741824
 1188 01a4 524B     		ldr	r3, .L74+36
 1189 01a6 1A60     		str	r2, [r3]	@ float
 1190 01a8 1E21     		movs	r1, #30
 1191 01aa 0220     		movs	r0, #2
 1192 01ac FFF7FEFF 		bl	EEPROM_WriteByte
 1193              	.LVL123:
 1194 01b0 1420     		movs	r0, #20
 1195 01b2 FFF7FEFF 		bl	CyDelay
 1196              	.LVL124:
 1197              	.L61:
 216:main.c        ****       Derivativo=80;EEPROM_WriteByte(80,31);CyDelay(20);
 1198              		.loc 1 216 0
 1199 01b6 504B     		ldr	r3, .L74+44
 1200 01b8 1B78     		ldrb	r3, [r3]	@ zero_extendqisi2
 1201 01ba 053B     		subs	r3, r3, #5
 1202 01bc DBB2     		uxtb	r3, r3
 1203 01be 4B2B     		cmp	r3, #75
 1204 01c0 08D9     		bls	.L63
 217:main.c        ****    }
 1205              		.loc 1 217 0
 1206 01c2 5020     		movs	r0, #80
 1207 01c4 4C4B     		ldr	r3, .L74+44
 1208 01c6 1870     		strb	r0, [r3]
 1209 01c8 1F21     		movs	r1, #31
 1210 01ca FFF7FEFF 		bl	EEPROM_WriteByte
 1211              	.LVL125:
 1212 01ce 1420     		movs	r0, #20
 1213 01d0 FFF7FEFF 		bl	CyDelay
 1214              	.LVL126:
 1215              	.L63:
 219:main.c        ****       Integral=1;EEPROM_WriteByte(1,32);CyDelay(20);
 1216              		.loc 1 219 0
 1217 01d4 494B     		ldr	r3, .L74+48
 1218 01d6 1B78     		ldrb	r3, [r3]	@ zero_extendqisi2
 1219 01d8 013B     		subs	r3, r3, #1
 1220 01da DBB2     		uxtb	r3, r3
 1221 01dc 032B     		cmp	r3, #3
ARM GAS  C:\Users\USUARIO\AppData\Local\Temp\ccr2Jkwh.s 			page 43


 1222 01de 08D9     		bls	.L64
 220:main.c        ****    }
 1223              		.loc 1 220 0
 1224 01e0 0120     		movs	r0, #1
 1225 01e2 464B     		ldr	r3, .L74+48
 1226 01e4 1870     		strb	r0, [r3]
 1227 01e6 2021     		movs	r1, #32
 1228 01e8 FFF7FEFF 		bl	EEPROM_WriteByte
 1229              	.LVL127:
 1230 01ec 1420     		movs	r0, #20
 1231 01ee FFF7FEFF 		bl	CyDelay
 1232              	.LVL128:
 1233              	.L64:
 222:main.c        ****       Tciclo=5;EEPROM_WriteByte(5,33);CyDelay(20);
 1234              		.loc 1 222 0
 1235 01f2 434B     		ldr	r3, .L74+52
 1236 01f4 1B78     		ldrb	r3, [r3]	@ zero_extendqisi2
 1237 01f6 053B     		subs	r3, r3, #5
 1238 01f8 DBB2     		uxtb	r3, r3
 1239 01fa 0F2B     		cmp	r3, #15
 1240 01fc 08D9     		bls	.L65
 223:main.c        ****    }
 1241              		.loc 1 223 0
 1242 01fe 0520     		movs	r0, #5
 1243 0200 3F4B     		ldr	r3, .L74+52
 1244 0202 1870     		strb	r0, [r3]
 1245 0204 2121     		movs	r1, #33
 1246 0206 FFF7FEFF 		bl	EEPROM_WriteByte
 1247              	.LVL129:
 1248 020a 1420     		movs	r0, #20
 1249 020c FFF7FEFF 		bl	CyDelay
 1250              	.LVL130:
 1251              	.L65:
 225:main.c        ****       Ajuste=0;EEPROM_WriteByte(0,34);CyDelay(20);
 1252              		.loc 1 225 0
 1253 0210 3C4B     		ldr	r3, .L74+56
 1254 0212 1B78     		ldrb	r3, [r3]	@ zero_extendqisi2
 1255 0214 642B     		cmp	r3, #100
 1256 0216 08D9     		bls	.L66
 226:main.c        ****    }
 1257              		.loc 1 226 0
 1258 0218 0020     		movs	r0, #0
 1259 021a 3A4B     		ldr	r3, .L74+56
 1260 021c 1870     		strb	r0, [r3]
 1261 021e 2221     		movs	r1, #34
 1262 0220 FFF7FEFF 		bl	EEPROM_WriteByte
 1263              	.LVL131:
 1264 0224 1420     		movs	r0, #20
 1265 0226 FFF7FEFF 		bl	CyDelay
 1266              	.LVL132:
 1267              	.L66:
 228:main.c        ****       Ajusten=0;EEPROM_WriteByte(0,35);CyDelay(20);
 1268              		.loc 1 228 0
 1269 022a 374B     		ldr	r3, .L74+60
 1270 022c 1B78     		ldrb	r3, [r3]	@ zero_extendqisi2
 1271 022e 642B     		cmp	r3, #100
 1272 0230 08D9     		bls	.L67
ARM GAS  C:\Users\USUARIO\AppData\Local\Temp\ccr2Jkwh.s 			page 44


 229:main.c        ****    }
 1273              		.loc 1 229 0
 1274 0232 0020     		movs	r0, #0
 1275 0234 344B     		ldr	r3, .L74+60
 1276 0236 1870     		strb	r0, [r3]
 1277 0238 2321     		movs	r1, #35
 1278 023a FFF7FEFF 		bl	EEPROM_WriteByte
 1279              	.LVL133:
 1280 023e 1420     		movs	r0, #20
 1281 0240 FFF7FEFF 		bl	CyDelay
 1282              	.LVL134:
 1283              	.L67:
 231:main.c        ****       MediaMovil=80;EEPROM_WriteByte(80,36);CyDelay(20);
 1284              		.loc 1 231 0
 1285 0244 314B     		ldr	r3, .L74+64
 1286 0246 1B78     		ldrb	r3, [r3]	@ zero_extendqisi2
 1287 0248 0A3B     		subs	r3, r3, #10
 1288 024a DBB2     		uxtb	r3, r3
 1289 024c 462B     		cmp	r3, #70
 1290 024e 08D9     		bls	.L68
 232:main.c        ****    }
 1291              		.loc 1 232 0
 1292 0250 5020     		movs	r0, #80
 1293 0252 2E4B     		ldr	r3, .L74+64
 1294 0254 1870     		strb	r0, [r3]
 1295 0256 2421     		movs	r1, #36
 1296 0258 FFF7FEFF 		bl	EEPROM_WriteByte
 1297              	.LVL135:
 1298 025c 1420     		movs	r0, #20
 1299 025e FFF7FEFF 		bl	CyDelay
 1300              	.LVL136:
 1301              	.L68:
 234:main.c        ****       Ajuste2=0;EEPROM_WriteByte(0,37);CyDelay(20);
 1302              		.loc 1 234 0
 1303 0262 2B4B     		ldr	r3, .L74+68
 1304 0264 1B78     		ldrb	r3, [r3]	@ zero_extendqisi2
 1305 0266 642B     		cmp	r3, #100
 1306 0268 08D9     		bls	.L69
 235:main.c        ****    }
 1307              		.loc 1 235 0
 1308 026a 0020     		movs	r0, #0
 1309 026c 284B     		ldr	r3, .L74+68
 1310 026e 1870     		strb	r0, [r3]
 1311 0270 2521     		movs	r1, #37
 1312 0272 FFF7FEFF 		bl	EEPROM_WriteByte
 1313              	.LVL137:
 1314 0276 1420     		movs	r0, #20
 1315 0278 FFF7FEFF 		bl	CyDelay
 1316              	.LVL138:
 1317              	.L69:
 237:main.c        ****       Ajusten2=0;EEPROM_WriteByte(0,38);CyDelay(20);
 1318              		.loc 1 237 0
 1319 027c 254B     		ldr	r3, .L74+72
 1320 027e 1B78     		ldrb	r3, [r3]	@ zero_extendqisi2
 1321 0280 642B     		cmp	r3, #100
 1322 0282 08D9     		bls	.L70
 238:main.c        ****    }
ARM GAS  C:\Users\USUARIO\AppData\Local\Temp\ccr2Jkwh.s 			page 45


 1323              		.loc 1 238 0
 1324 0284 0020     		movs	r0, #0
 1325 0286 234B     		ldr	r3, .L74+72
 1326 0288 1870     		strb	r0, [r3]
 1327 028a 2621     		movs	r1, #38
 1328 028c FFF7FEFF 		bl	EEPROM_WriteByte
 1329              	.LVL139:
 1330 0290 1420     		movs	r0, #20
 1331 0292 FFF7FEFF 		bl	CyDelay
 1332              	.LVL140:
 1333              	.L70:
 243:main.c        ****       controlT=0;EEPROM_WriteByte(0,41);CyDelay(20);
 1334              		.loc 1 243 0
 1335 0296 204B     		ldr	r3, .L74+76
 1336 0298 1B78     		ldrb	r3, [r3]	@ zero_extendqisi2
 1337 029a 012B     		cmp	r3, #1
 1338 029c 08D9     		bls	.L71
 244:main.c        ****    }
 1339              		.loc 1 244 0
 1340 029e 0020     		movs	r0, #0
 1341 02a0 1D4B     		ldr	r3, .L74+76
 1342 02a2 1870     		strb	r0, [r3]
 1343 02a4 2921     		movs	r1, #41
 1344 02a6 FFF7FEFF 		bl	EEPROM_WriteByte
 1345              	.LVL141:
 1346 02aa 1420     		movs	r0, #20
 1347 02ac FFF7FEFF 		bl	CyDelay
 1348              	.LVL142:
 1349              	.L71:
 249:main.c        ****       controlR=0;EEPROM_WriteByte(0,43);CyDelay(20);
 1350              		.loc 1 249 0
 1351 02b0 1A4B     		ldr	r3, .L74+80
 1352 02b2 1B78     		ldrb	r3, [r3]	@ zero_extendqisi2
 1353 02b4 012B     		cmp	r3, #1
 1354 02b6 08D9     		bls	.L41
 250:main.c        ****    }
 1355              		.loc 1 250 0
 1356 02b8 0020     		movs	r0, #0
 1357 02ba 184B     		ldr	r3, .L74+80
 1358 02bc 1870     		strb	r0, [r3]
 1359 02be 2B21     		movs	r1, #43
 1360 02c0 FFF7FEFF 		bl	EEPROM_WriteByte
 1361              	.LVL143:
 1362 02c4 1420     		movs	r0, #20
 1363 02c6 FFF7FEFF 		bl	CyDelay
 1364              	.LVL144:
 1365              	.L41:
 1366 02ca 10BD     		pop	{r4, pc}
 1367              	.L75:
 1368              		.align	2
 1369              	.L74:
 1370 02cc 00000000 		.word	mEstp
 1371 02d0 00000000 		.word	hEstp
 1372 02d4 00000000 		.word	Password
 1373 02d8 00000000 		.word	Setpoint
 1374 02dc 00007042 		.word	1114636288
 1375 02e0 0000F041 		.word	1106247680
ARM GAS  C:\Users\USUARIO\AppData\Local\Temp\ccr2Jkwh.s 			page 46


 1376 02e4 00000000 		.word	Setpoint1
 1377 02e8 00000000 		.word	Setpoint2
 1378 02ec 00000000 		.word	Setpoint3
 1379 02f0 00000000 		.word	Ganancia
 1380 02f4 0000A041 		.word	1101004800
 1381 02f8 00000000 		.word	Derivativo
 1382 02fc 00000000 		.word	Integral
 1383 0300 00000000 		.word	Tciclo
 1384 0304 00000000 		.word	Ajuste
 1385 0308 00000000 		.word	Ajusten
 1386 030c 00000000 		.word	MediaMovil
 1387 0310 00000000 		.word	Ajuste2
 1388 0314 00000000 		.word	Ajusten2
 1389 0318 00000000 		.word	controlT
 1390 031c 00000000 		.word	controlR
 1391              		.cfi_endproc
 1392              	.LFE65:
 1393              		.size	LimitaValores, .-LimitaValores
 1394              		.global	__aeabi_fsub
 1395              		.global	__aeabi_fmul
 1396              		.section	.text.ActualizaRecta,"ax",%progbits
 1397              		.align	2
 1398              		.global	ActualizaRecta
 1399              		.thumb
 1400              		.thumb_func
 1401              		.type	ActualizaRecta, %function
 1402              	ActualizaRecta:
 1403              	.LFB66:
 254:main.c        ****    X[y]=Temperatura;
 1404              		.loc 1 254 0
 1405              		.cfi_startproc
 1406              		@ args = 0, pretend = 0, frame = 0
 1407              		@ frame_needed = 0, uses_anonymous_args = 0
 1408 0000 70B5     		push	{r4, r5, r6, lr}
 1409              		.cfi_def_cfa_offset 16
 1410              		.cfi_offset 4, -16
 1411              		.cfi_offset 5, -12
 1412              		.cfi_offset 6, -8
 1413              		.cfi_offset 14, -4
 255:main.c        ****    y++;
 1414              		.loc 1 255 0
 1415 0002 2649     		ldr	r1, .L79
 1416 0004 0B78     		ldrb	r3, [r1]	@ zero_extendqisi2
 1417 0006 264A     		ldr	r2, .L79+4
 1418 0008 1468     		ldr	r4, [r2]	@ float
 1419 000a 264A     		ldr	r2, .L79+8
 1420 000c 02EB8302 		add	r2, r2, r3, lsl #2
 1421 0010 5460     		str	r4, [r2, #4]	@ float
 256:main.c        ****    if(y>=2){
 1422              		.loc 1 256 0
 1423 0012 0133     		adds	r3, r3, #1
 1424 0014 DBB2     		uxtb	r3, r3
 1425 0016 0B70     		strb	r3, [r1]
 257:main.c        ****       y=0;
 1426              		.loc 1 257 0
 1427 0018 012B     		cmp	r3, #1
 1428 001a 3DD9     		bls	.L76
ARM GAS  C:\Users\USUARIO\AppData\Local\Temp\ccr2Jkwh.s 			page 47


 258:main.c        ****       Aumento=X[1]-X[0];
 1429              		.loc 1 258 0
 1430 001c 0022     		movs	r2, #0
 1431 001e 0A70     		strb	r2, [r1]
 259:main.c        ****       HorasActual=hEst;
 1432              		.loc 1 259 0
 1433 0020 204B     		ldr	r3, .L79+8
 1434 0022 5968     		ldr	r1, [r3, #4]	@ float
 1435 0024 9868     		ldr	r0, [r3, #8]	@ float
 1436 0026 FFF7FEFF 		bl	__aeabi_fsub
 1437              	.LVL145:
 1438 002a 0546     		mov	r5, r0
 1439 002c 1E4B     		ldr	r3, .L79+12
 1440 002e 1860     		str	r0, [r3]	@ float
 260:main.c        ****       MinutosActual=mEst;
 1441              		.loc 1 260 0
 1442 0030 1E4B     		ldr	r3, .L79+16
 1443 0032 1A78     		ldrb	r2, [r3]	@ zero_extendqisi2
 1444 0034 1E4B     		ldr	r3, .L79+20
 1445 0036 1A80     		strh	r2, [r3]	@ movhi
 261:main.c        ****       TiempoActual=Tiempo-((HorasActual*3600)+(MinutosActual*60)+tinicio);
 1446              		.loc 1 261 0
 1447 0038 1E4B     		ldr	r3, .L79+24
 1448 003a 1B78     		ldrb	r3, [r3]	@ zero_extendqisi2
 1449 003c 1E49     		ldr	r1, .L79+28
 1450 003e 0B80     		strh	r3, [r1]	@ movhi
 262:main.c        ****       PendienteActual=((Setpoint-Temperatura)/TiempoActual);
 1451              		.loc 1 262 0
 1452 0040 C2EB0212 		rsb	r2, r2, r2, lsl #4
 1453 0044 C2EB0212 		rsb	r2, r2, r2, lsl #4
 1454 0048 C3EB0313 		rsb	r3, r3, r3, lsl #4
 1455 004c 9B00     		lsls	r3, r3, #2
 1456 004e 03EB0213 		add	r3, r3, r2, lsl #4
 1457 0052 1A4A     		ldr	r2, .L79+32
 1458 0054 1688     		ldrh	r6, [r2]
 1459 0056 1E44     		add	r6, r6, r3
 1460 0058 194B     		ldr	r3, .L79+36
 1461 005a 1A88     		ldrh	r2, [r3]
 1462 005c 961B     		subs	r6, r2, r6
 1463 005e B6B2     		uxth	r6, r6
 1464 0060 184B     		ldr	r3, .L79+40
 1465 0062 1E80     		strh	r6, [r3]	@ movhi
 263:main.c        ****       DifPendiente=(PendienteActual*20)-Aumento;
 1466              		.loc 1 263 0
 1467 0064 2146     		mov	r1, r4
 1468 0066 184B     		ldr	r3, .L79+44
 1469 0068 1868     		ldr	r0, [r3]	@ float
 1470 006a FFF7FEFF 		bl	__aeabi_fsub
 1471              	.LVL146:
 1472 006e 0446     		mov	r4, r0
 1473 0070 3046     		mov	r0, r6
 1474 0072 FFF7FEFF 		bl	__aeabi_i2f
 1475              	.LVL147:
 1476 0076 0146     		mov	r1, r0
 1477 0078 2046     		mov	r0, r4
 1478 007a FFF7FEFF 		bl	__aeabi_fdiv
 1479              	.LVL148:
ARM GAS  C:\Users\USUARIO\AppData\Local\Temp\ccr2Jkwh.s 			page 48


 1480 007e 134B     		ldr	r3, .L79+48
 1481 0080 1860     		str	r0, [r3]	@ float
 264:main.c        ****       DifPendiente=DifPendiente*5;
 1482              		.loc 1 264 0
 1483 0082 1349     		ldr	r1, .L79+52
 1484 0084 FFF7FEFF 		bl	__aeabi_fmul
 1485              	.LVL149:
 1486 0088 2946     		mov	r1, r5
 1487 008a FFF7FEFF 		bl	__aeabi_fsub
 1488              	.LVL150:
 265:main.c        ****    }
 1489              		.loc 1 265 0
 1490 008e 1149     		ldr	r1, .L79+56
 1491 0090 FFF7FEFF 		bl	__aeabi_fmul
 1492              	.LVL151:
 1493 0094 104B     		ldr	r3, .L79+60
 1494 0096 1860     		str	r0, [r3]	@ float
 1495              	.L76:
 1496 0098 70BD     		pop	{r4, r5, r6, pc}
 1497              	.L80:
 1498 009a 00BF     		.align	2
 1499              	.L79:
 1500 009c 00000000 		.word	y
 1501 00a0 00000000 		.word	Temperatura
 1502 00a4 00000000 		.word	.LANCHOR0
 1503 00a8 00000000 		.word	Aumento
 1504 00ac 00000000 		.word	hEst
 1505 00b0 00000000 		.word	HorasActual
 1506 00b4 00000000 		.word	mEst
 1507 00b8 00000000 		.word	MinutosActual
 1508 00bc 00000000 		.word	tinicio
 1509 00c0 00000000 		.word	Tiempo
 1510 00c4 00000000 		.word	TiempoActual
 1511 00c8 00000000 		.word	Setpoint
 1512 00cc 00000000 		.word	PendienteActual
 1513 00d0 0000A041 		.word	1101004800
 1514 00d4 0000A040 		.word	1084227584
 1515 00d8 00000000 		.word	DifPendiente
 1516              		.cfi_endproc
 1517              	.LFE66:
 1518              		.size	ActualizaRecta, .-ActualizaRecta
 1519              		.global	__aeabi_fcmpeq
 1520              		.global	__aeabi_dsub
 1521              		.global	__aeabi_d2f
 1522              		.global	__aeabi_dcmpgt
 1523              		.global	__aeabi_i2d
 1524              		.global	__aeabi_dadd
 1525              		.global	__aeabi_fcmpge
 1526              		.global	__aeabi_dcmple
 1527              		.global	__aeabi_dmul
 1528              		.global	__aeabi_fcmple
 1529              		.global	__aeabi_ddiv
 1530              		.global	__aeabi_d2uiz
 1531              		.section	.text.Controla,"ax",%progbits
 1532              		.align	2
 1533              		.global	Controla
 1534              		.thumb
ARM GAS  C:\Users\USUARIO\AppData\Local\Temp\ccr2Jkwh.s 			page 49


 1535              		.thumb_func
 1536              		.type	Controla, %function
 1537              	Controla:
 1538              	.LFB67:
 269:main.c        **** //-------------------------------Control de Calentamiento------------------------------------------
 1539              		.loc 1 269 0
 1540              		.cfi_startproc
 1541              		@ args = 0, pretend = 0, frame = 0
 1542              		@ frame_needed = 0, uses_anonymous_args = 0
 1543 0000 2DE9F843 		push	{r3, r4, r5, r6, r7, r8, r9, lr}
 1544              		.cfi_def_cfa_offset 32
 1545              		.cfi_offset 3, -32
 1546              		.cfi_offset 4, -28
 1547              		.cfi_offset 5, -24
 1548              		.cfi_offset 6, -20
 1549              		.cfi_offset 7, -16
 1550              		.cfi_offset 8, -12
 1551              		.cfi_offset 9, -8
 1552              		.cfi_offset 14, -4
 1553              	.LVL152:
 272:main.c        ****         if(tiemporecta>=Derivativo){
 1554              		.loc 1 272 0
 1555 0004 A24B     		ldr	r3, .L225
 1556 0006 B3F90030 		ldrsh	r3, [r3]
 1557 000a 5BB9     		cbnz	r3, .L82
 273:main.c        ****             ActualizaRecta();
 1558              		.loc 1 273 0
 1559 000c A14B     		ldr	r3, .L225+4
 1560 000e 1A78     		ldrb	r2, [r3]	@ zero_extendqisi2
 1561 0010 A14B     		ldr	r3, .L225+8
 1562 0012 1B88     		ldrh	r3, [r3]
 1563 0014 9A42     		cmp	r2, r3
 1564 0016 0ED8     		bhi	.L83
 274:main.c        ****             tiemporecta=0;
 1565              		.loc 1 274 0
 1566 0018 FFF7FEFF 		bl	ActualizaRecta
 1567              	.LVL153:
 275:main.c        ****         } 
 1568              		.loc 1 275 0
 1569 001c 0022     		movs	r2, #0
 1570 001e 9E4B     		ldr	r3, .L225+8
 1571 0020 1A80     		strh	r2, [r3]	@ movhi
 1572 0022 08E0     		b	.L83
 1573              	.L82:
 278:main.c        ****             ActualizaRecta();
 1574              		.loc 1 278 0
 1575 0024 9C4B     		ldr	r3, .L225+8
 1576 0026 1B88     		ldrh	r3, [r3]
 1577 0028 092B     		cmp	r3, #9
 1578 002a 04D9     		bls	.L83
 279:main.c        ****             tiemporecta=0;
 1579              		.loc 1 279 0
 1580 002c FFF7FEFF 		bl	ActualizaRecta
 1581              	.LVL154:
 280:main.c        ****         }
 1582              		.loc 1 280 0
 1583 0030 0022     		movs	r2, #0
ARM GAS  C:\Users\USUARIO\AppData\Local\Temp\ccr2Jkwh.s 			page 50


 1584 0032 994B     		ldr	r3, .L225+8
 1585 0034 1A80     		strh	r2, [r3]	@ movhi
 1586              	.L83:
 284:main.c        ****     
 1587              		.loc 1 284 0
 1588 0036 0020     		movs	r0, #0
 1589 0038 FFF7FEFF 		bl	CR6_Write
 1590              	.LVL155:
 286:main.c        ****       if(Segmento==0){
 1591              		.loc 1 286 0
 1592 003c 944B     		ldr	r3, .L225
 1593 003e B3F90050 		ldrsh	r5, [r3]
 1594 0042 002D     		cmp	r5, #0
 1595 0044 00F08880 		beq	.L84
 287:main.c        ****          if(flag_calcula==0){
 1596              		.loc 1 287 0
 1597 0048 944B     		ldr	r3, .L225+12
 1598 004a 1B78     		ldrb	r3, [r3]	@ zero_extendqisi2
 1599 004c 002B     		cmp	r3, #0
 1600 004e 3DD1     		bne	.L85
 288:main.c        ****             Tiempo=(rampas[0].Horas*3600)+(rampas[0].Minutos*60);         
 1601              		.loc 1 288 0
 1602 0050 934B     		ldr	r3, .L225+16
 1603 0052 B3F90030 		ldrsh	r3, [r3]
 1604 0056 002B     		cmp	r3, #0
 1605 0058 7ED1     		bne	.L84
 289:main.c        ****             Setpoint=rampas[0].Temperatura;
 1606              		.loc 1 289 0
 1607 005a 924A     		ldr	r2, .L225+20
 1608 005c 9778     		ldrb	r7, [r2, #2]	@ zero_extendqisi2
 1609 005e D678     		ldrb	r6, [r2, #3]	@ zero_extendqisi2
 1610 0060 C7EB0713 		rsb	r3, r7, r7, lsl #4
 1611 0064 C3EB0313 		rsb	r3, r3, r3, lsl #4
 1612 0068 1C01     		lsls	r4, r3, #4
 1613 006a C6EB0611 		rsb	r1, r6, r6, lsl #4
 1614 006e 8B00     		lsls	r3, r1, #2
 1615 0070 1C44     		add	r4, r4, r3
 1616 0072 A4B2     		uxth	r4, r4
 1617 0074 8C4B     		ldr	r3, .L225+24
 1618 0076 1C80     		strh	r4, [r3]	@ movhi
 290:main.c        ****             Pendiente=(((float)Setpoint-TempeInicial)/(float)Tiempo);
 1619              		.loc 1 290 0
 1620 0078 D2F80880 		ldr	r8, [r2, #8]	@ float
 1621 007c 8B4B     		ldr	r3, .L225+28
 1622 007e C3F80080 		str	r8, [r3]	@ float
 291:main.c        ****             hEstp=rampas[0].Horas;
 1623              		.loc 1 291 0
 1624 0082 8B4B     		ldr	r3, .L225+32
 1625 0084 1968     		ldr	r1, [r3]	@ float
 1626 0086 4046     		mov	r0, r8
 1627 0088 FFF7FEFF 		bl	__aeabi_fsub
 1628              	.LVL156:
 1629 008c 8146     		mov	r9, r0
 1630 008e 2046     		mov	r0, r4
 1631 0090 FFF7FEFF 		bl	__aeabi_ui2f
 1632              	.LVL157:
 1633 0094 0146     		mov	r1, r0
ARM GAS  C:\Users\USUARIO\AppData\Local\Temp\ccr2Jkwh.s 			page 51


 1634 0096 4846     		mov	r0, r9
 1635 0098 FFF7FEFF 		bl	__aeabi_fdiv
 1636              	.LVL158:
 1637 009c 854B     		ldr	r3, .L225+36
 1638 009e 1860     		str	r0, [r3]	@ float
 292:main.c        ****             mEstp=rampas[0].Minutos;
 1639              		.loc 1 292 0
 1640 00a0 854B     		ldr	r3, .L225+40
 1641 00a2 1F70     		strb	r7, [r3]
 293:main.c        ****             flag_calcula=1;
 1642              		.loc 1 293 0
 1643 00a4 854B     		ldr	r3, .L225+44
 1644 00a6 1E70     		strb	r6, [r3]
 294:main.c        ****             Ganancia=GananciaR*(Setpoint/200);
 1645              		.loc 1 294 0
 1646 00a8 0122     		movs	r2, #1
 1647 00aa 7D4B     		ldr	r3, .L225+16
 1648 00ac 1A80     		strh	r2, [r3]	@ movhi
 295:main.c        ****          }
 1649              		.loc 1 295 0
 1650 00ae 8449     		ldr	r1, .L225+48
 1651 00b0 4046     		mov	r0, r8
 1652 00b2 FFF7FEFF 		bl	__aeabi_fdiv
 1653              	.LVL159:
 1654 00b6 0446     		mov	r4, r0
 1655 00b8 824B     		ldr	r3, .L225+52
 1656 00ba 1878     		ldrb	r0, [r3]	@ zero_extendqisi2
 1657 00bc FFF7FEFF 		bl	__aeabi_i2f
 1658              	.LVL160:
 1659 00c0 2146     		mov	r1, r4
 1660 00c2 FFF7FEFF 		bl	__aeabi_fmul
 1661              	.LVL161:
 1662 00c6 804B     		ldr	r3, .L225+56
 1663 00c8 1860     		str	r0, [r3]	@ float
 1664 00ca 45E0     		b	.L84
 1665              	.L85:
 298:main.c        ****             Tiempo=(rampas[Segmento].Horas*3600)+(rampas[Segmento].Minutos*60);         
 1666              		.loc 1 298 0
 1667 00cc 744A     		ldr	r2, .L225+16
 1668 00ce B2F90020 		ldrsh	r2, [r2]
 1669 00d2 002A     		cmp	r2, #0
 1670 00d4 40D1     		bne	.L84
 299:main.c        ****             Setpoint=rampas[Segmento].Temperatura;
 1671              		.loc 1 299 0
 1672 00d6 7348     		ldr	r0, .L225+20
 1673 00d8 5900     		lsls	r1, r3, #1
 1674 00da 1944     		add	r1, r1, r3
 1675 00dc 8A00     		lsls	r2, r1, #2
 1676 00de 0244     		add	r2, r2, r0
 1677 00e0 9778     		ldrb	r7, [r2, #2]	@ zero_extendqisi2
 1678 00e2 D678     		ldrb	r6, [r2, #3]	@ zero_extendqisi2
 1679 00e4 C7EB0711 		rsb	r1, r7, r7, lsl #4
 1680 00e8 C1EB0111 		rsb	r1, r1, r1, lsl #4
 1681 00ec 0C01     		lsls	r4, r1, #4
 1682 00ee C6EB061E 		rsb	lr, r6, r6, lsl #4
 1683 00f2 4FEA8E01 		lsl	r1, lr, #2
 1684 00f6 0C44     		add	r4, r4, r1
ARM GAS  C:\Users\USUARIO\AppData\Local\Temp\ccr2Jkwh.s 			page 52


 1685 00f8 A4B2     		uxth	r4, r4
 1686 00fa 6B49     		ldr	r1, .L225+24
 1687 00fc 0C80     		strh	r4, [r1]	@ movhi
 300:main.c        ****             Pendiente=(((float)rampas[Segmento].Temperatura-(float)rampas[Segmento-1].Temperatura)/
 1688              		.loc 1 300 0
 1689 00fe D2F80880 		ldr	r8, [r2, #8]	@ float
 1690 0102 6A4A     		ldr	r2, .L225+28
 1691 0104 C2F80080 		str	r8, [r2]	@ float
 301:main.c        ****             hEstp=rampas[Segmento].Horas;
 1692              		.loc 1 301 0
 1693 0108 013B     		subs	r3, r3, #1
 1694 010a 03EB4303 		add	r3, r3, r3, lsl #1
 1695 010e 9A00     		lsls	r2, r3, #2
 1696 0110 0244     		add	r2, r2, r0
 1697 0112 9168     		ldr	r1, [r2, #8]	@ float
 1698 0114 4046     		mov	r0, r8
 1699 0116 FFF7FEFF 		bl	__aeabi_fsub
 1700              	.LVL162:
 1701 011a 8146     		mov	r9, r0
 1702 011c 2046     		mov	r0, r4
 1703 011e FFF7FEFF 		bl	__aeabi_ui2f
 1704              	.LVL163:
 1705 0122 0146     		mov	r1, r0
 1706 0124 4846     		mov	r0, r9
 1707 0126 FFF7FEFF 		bl	__aeabi_fdiv
 1708              	.LVL164:
 1709 012a 624B     		ldr	r3, .L225+36
 1710 012c 1860     		str	r0, [r3]	@ float
 302:main.c        ****             mEstp=rampas[Segmento].Minutos;
 1711              		.loc 1 302 0
 1712 012e 624B     		ldr	r3, .L225+40
 1713 0130 1F70     		strb	r7, [r3]
 303:main.c        ****             flag_calcula=1;
 1714              		.loc 1 303 0
 1715 0132 624B     		ldr	r3, .L225+44
 1716 0134 1E70     		strb	r6, [r3]
 304:main.c        ****             Ganancia=GananciaR*(Setpoint/200);
 1717              		.loc 1 304 0
 1718 0136 0122     		movs	r2, #1
 1719 0138 594B     		ldr	r3, .L225+16
 1720 013a 1A80     		strh	r2, [r3]	@ movhi
 305:main.c        ****          }
 1721              		.loc 1 305 0
 1722 013c 6049     		ldr	r1, .L225+48
 1723 013e 4046     		mov	r0, r8
 1724 0140 FFF7FEFF 		bl	__aeabi_fdiv
 1725              	.LVL165:
 1726 0144 0446     		mov	r4, r0
 1727 0146 5F4B     		ldr	r3, .L225+52
 1728 0148 1878     		ldrb	r0, [r3]	@ zero_extendqisi2
 1729 014a FFF7FEFF 		bl	__aeabi_i2f
 1730              	.LVL166:
 1731 014e 2146     		mov	r1, r4
 1732 0150 FFF7FEFF 		bl	__aeabi_fmul
 1733              	.LVL167:
 1734 0154 5C4B     		ldr	r3, .L225+56
 1735 0156 1860     		str	r0, [r3]	@ float
ARM GAS  C:\Users\USUARIO\AppData\Local\Temp\ccr2Jkwh.s 			page 53


 1736              	.L84:
 311:main.c        ****       
 1737              		.loc 1 311 0
 1738 0158 564B     		ldr	r3, .L225+36
 1739 015a 1C68     		ldr	r4, [r3]	@ float
 1740 015c 0021     		movs	r1, #0
 1741 015e 2046     		mov	r0, r4
 1742 0160 FFF7FEFF 		bl	__aeabi_fcmpeq
 1743              	.LVL168:
 1744 0164 0028     		cmp	r0, #0
 1745 0166 40F0E180 		bne	.L86
 311:main.c        ****       
 1746              		.loc 1 311 0 is_stmt 0 discriminator 1
 1747 016a 002D     		cmp	r5, #0
 1748 016c 00F0DE80 		beq	.L86
 313:main.c        ****       if(Segmento==0){
 1749              		.loc 1 313 0 is_stmt 1
 1750 0170 564B     		ldr	r3, .L225+60
 1751 0172 1B78     		ldrb	r3, [r3]	@ zero_extendqisi2
 1752 0174 C3EB0313 		rsb	r3, r3, r3, lsl #4
 1753 0178 C3EB0313 		rsb	r3, r3, r3, lsl #4
 1754 017c 1801     		lsls	r0, r3, #4
 1755 017e 544B     		ldr	r3, .L225+64
 1756 0180 1B78     		ldrb	r3, [r3]	@ zero_extendqisi2
 1757 0182 C3EB0313 		rsb	r3, r3, r3, lsl #4
 1758 0186 9A00     		lsls	r2, r3, #2
 1759 0188 1044     		add	r0, r0, r2
 1760 018a 524B     		ldr	r3, .L225+68
 1761 018c 1B88     		ldrh	r3, [r3]
 1762 018e 1844     		add	r0, r0, r3
 1763 0190 80B2     		uxth	r0, r0
 1764 0192 514B     		ldr	r3, .L225+72
 1765 0194 1880     		strh	r0, [r3]	@ movhi
 314:main.c        ****          TemperaturaIdeal=(Pendiente*TiempoRampa)+TempeInicial;
 1766              		.loc 1 314 0
 1767 0196 414B     		ldr	r3, .L225+12
 1768 0198 1D78     		ldrb	r5, [r3]	@ zero_extendqisi2
 1769 019a 5DB9     		cbnz	r5, .L88
 315:main.c        ****       }else{
 1770              		.loc 1 315 0
 1771 019c FFF7FEFF 		bl	__aeabi_i2f
 1772              	.LVL169:
 1773 01a0 2146     		mov	r1, r4
 1774 01a2 FFF7FEFF 		bl	__aeabi_fmul
 1775              	.LVL170:
 1776 01a6 424B     		ldr	r3, .L225+32
 1777 01a8 1968     		ldr	r1, [r3]	@ float
 1778 01aa FFF7FEFF 		bl	__aeabi_fadd
 1779              	.LVL171:
 1780 01ae 4B4B     		ldr	r3, .L225+76
 1781 01b0 1860     		str	r0, [r3]	@ float
 1782 01b2 0FE0     		b	.L89
 1783              	.L88:
 317:main.c        ****       }
 1784              		.loc 1 317 0
 1785 01b4 FFF7FEFF 		bl	__aeabi_i2f
 1786              	.LVL172:
ARM GAS  C:\Users\USUARIO\AppData\Local\Temp\ccr2Jkwh.s 			page 54


 1787 01b8 2146     		mov	r1, r4
 1788 01ba FFF7FEFF 		bl	__aeabi_fmul
 1789              	.LVL173:
 1790 01be 013D     		subs	r5, r5, #1
 1791 01c0 05EB4505 		add	r5, r5, r5, lsl #1
 1792 01c4 AB00     		lsls	r3, r5, #2
 1793 01c6 374A     		ldr	r2, .L225+20
 1794 01c8 1344     		add	r3, r3, r2
 1795 01ca 9968     		ldr	r1, [r3, #8]	@ float
 1796 01cc FFF7FEFF 		bl	__aeabi_fadd
 1797              	.LVL174:
 1798 01d0 424B     		ldr	r3, .L225+76
 1799 01d2 1860     		str	r0, [r3]	@ float
 1800              	.L89:
 319:main.c        **** // Pendiente determinar si el comportamiento de la mufla es lineal 10°C/min o si tiene un comporta
 1801              		.loc 1 319 0
 1802 01d4 424B     		ldr	r3, .L225+80
 1803 01d6 1968     		ldr	r1, [r3]	@ float
 1804 01d8 404B     		ldr	r3, .L225+76
 1805 01da 1868     		ldr	r0, [r3]	@ float
 1806 01dc FFF7FEFF 		bl	__aeabi_fsub
 1807              	.LVL175:
 1808 01e0 4049     		ldr	r1, .L225+84
 1809 01e2 FFF7FEFF 		bl	__aeabi_fmul
 1810              	.LVL176:
 1811 01e6 404B     		ldr	r3, .L225+88
 1812 01e8 1968     		ldr	r1, [r3]	@ float
 1813 01ea FFF7FEFF 		bl	__aeabi_fdiv
 1814              	.LVL177:
 1815 01ee 0546     		mov	r5, r0
 1816 01f0 3E4B     		ldr	r3, .L225+92
 1817 01f2 1860     		str	r0, [r3]	@ float
 321:main.c        ****          if(PotenciaEntregada<0 && PotenciaEntregada>-100.0){
 1818              		.loc 1 321 0
 1819 01f4 0021     		movs	r1, #0
 1820 01f6 2046     		mov	r0, r4
 1821 01f8 FFF7FEFF 		bl	__aeabi_fcmplt
 1822              	.LVL178:
 1823 01fc 28B3     		cbz	r0, .L214
 322:main.c        ****             if(PotenciaEntregada<0)
 1824              		.loc 1 322 0
 1825 01fe 0021     		movs	r1, #0
 1826 0200 2846     		mov	r0, r5
 1827 0202 FFF7FEFF 		bl	__aeabi_fcmplt
 1828              	.LVL179:
 1829 0206 70B1     		cbz	r0, .L92
 322:main.c        ****             if(PotenciaEntregada<0)
 1830              		.loc 1 322 0 is_stmt 0 discriminator 1
 1831 0208 3949     		ldr	r1, .L225+96
 1832 020a 2846     		mov	r0, r5
 1833 020c FFF7FEFF 		bl	__aeabi_fcmpgt
 1834              	.LVL180:
 1835 0210 48B1     		cbz	r0, .L92
 323:main.c        ****                 PotenciaEntregada=PotenciaEntregada*-1;
 1836              		.loc 1 323 0 is_stmt 1
 1837 0212 0021     		movs	r1, #0
 1838 0214 2846     		mov	r0, r5
ARM GAS  C:\Users\USUARIO\AppData\Local\Temp\ccr2Jkwh.s 			page 55


 1839 0216 FFF7FEFF 		bl	__aeabi_fcmplt
 1840              	.LVL181:
 1841 021a 38B3     		cbz	r0, .L95
 324:main.c        ****          }else if(PotenciaEntregada<-100.0){
 1842              		.loc 1 324 0
 1843 021c 05F10045 		add	r5, r5, #-2147483648
 1844 0220 324B     		ldr	r3, .L225+92
 1845 0222 1D60     		str	r5, [r3]	@ float
 1846 0224 22E0     		b	.L95
 1847              	.L92:
 325:main.c        ****             PotenciaEntregada=100.0;
 1848              		.loc 1 325 0
 1849 0226 3249     		ldr	r1, .L225+96
 1850 0228 2846     		mov	r0, r5
 1851 022a FFF7FEFF 		bl	__aeabi_fcmplt
 1852              	.LVL182:
 1853 022e 18B1     		cbz	r0, .L215
 326:main.c        ****          }else if(PotenciaEntregada>0){
 1854              		.loc 1 326 0
 1855 0230 2C4A     		ldr	r2, .L225+84
 1856 0232 2E4B     		ldr	r3, .L225+92
 1857 0234 1A60     		str	r2, [r3]	@ float
 1858 0236 19E0     		b	.L95
 1859              	.L215:
 327:main.c        ****             PotenciaEntregada=0; 
 1860              		.loc 1 327 0
 1861 0238 0021     		movs	r1, #0
 1862 023a 2846     		mov	r0, r5
 1863 023c FFF7FEFF 		bl	__aeabi_fcmpgt
 1864              	.LVL183:
 1865 0240 A0B1     		cbz	r0, .L95
 328:main.c        ****          }
 1866              		.loc 1 328 0
 1867 0242 0022     		movs	r2, #0
 1868 0244 294B     		ldr	r3, .L225+92
 1869 0246 1A60     		str	r2, [r3]	@ float
 1870 0248 10E0     		b	.L95
 1871              	.L214:
 331:main.c        ****             PotenciaEntregada=100.0;
 1872              		.loc 1 331 0
 1873 024a 2649     		ldr	r1, .L225+84
 1874 024c 2846     		mov	r0, r5
 1875 024e FFF7FEFF 		bl	__aeabi_fcmpgt
 1876              	.LVL184:
 1877 0252 10B1     		cbz	r0, .L100
 332:main.c        ****      
 1878              		.loc 1 332 0
 1879 0254 234A     		ldr	r2, .L225+84
 1880 0256 254B     		ldr	r3, .L225+92
 1881 0258 1A60     		str	r2, [r3]	@ float
 1882              	.L100:
 334:main.c        ****             PotenciaEntregada=0; 
 1883              		.loc 1 334 0
 1884 025a 0021     		movs	r1, #0
 1885 025c 234B     		ldr	r3, .L225+92
 1886 025e 1868     		ldr	r0, [r3]	@ float
 1887 0260 FFF7FEFF 		bl	__aeabi_fcmplt
ARM GAS  C:\Users\USUARIO\AppData\Local\Temp\ccr2Jkwh.s 			page 56


 1888              	.LVL185:
 1889 0264 10B1     		cbz	r0, .L95
 335:main.c        ****       }
 1890              		.loc 1 335 0
 1891 0266 0022     		movs	r2, #0
 1892 0268 204B     		ldr	r3, .L225+92
 1893 026a 1A60     		str	r2, [r3]	@ float
 1894              	.L95:
 338:main.c        ****          CR1_Write(0);
 1895              		.loc 1 338 0
 1896 026c 214B     		ldr	r3, .L225+100
 1897 026e B3F90030 		ldrsh	r3, [r3]
 1898 0272 012B     		cmp	r3, #1
 1899 0274 40D1     		bne	.L103
 339:main.c        ****          CR2_Write(0);
 1900              		.loc 1 339 0
 1901 0276 0020     		movs	r0, #0
 1902 0278 FFF7FEFF 		bl	CR1_Write
 1903              	.LVL186:
 340:main.c        ****          CR3_Write(0);
 1904              		.loc 1 340 0
 1905 027c 0020     		movs	r0, #0
 1906 027e FFF7FEFF 		bl	CR2_Write
 1907              	.LVL187:
 341:main.c        ****          CR4_Write(0);
 1908              		.loc 1 341 0
 1909 0282 0020     		movs	r0, #0
 1910 0284 FFF7FEFF 		bl	CR3_Write
 1911              	.LVL188:
 342:main.c        ****       }else{
 1912              		.loc 1 342 0
 1913 0288 0020     		movs	r0, #0
 1914 028a FFF7FEFF 		bl	CR4_Write
 1915              	.LVL189:
 1916 028e 3FE0     		b	.L104
 1917              	.L226:
 1918              		.align	2
 1919              	.L225:
 1920 0290 00000000 		.word	flagRampa
 1921 0294 00000000 		.word	Derivativo
 1922 0298 00000000 		.word	tiemporecta
 1923 029c 00000000 		.word	Segmento
 1924 02a0 00000000 		.word	flag_calcula
 1925 02a4 00000000 		.word	rampas
 1926 02a8 00000000 		.word	Tiempo
 1927 02ac 00000000 		.word	Setpoint
 1928 02b0 00000000 		.word	TempeInicial
 1929 02b4 00000000 		.word	Pendiente
 1930 02b8 00000000 		.word	hEstp
 1931 02bc 00000000 		.word	mEstp
 1932 02c0 00004843 		.word	1128792064
 1933 02c4 00000000 		.word	GananciaR
 1934 02c8 00000000 		.word	Ganancia
 1935 02cc 00000000 		.word	hEst
 1936 02d0 00000000 		.word	mEst
 1937 02d4 00000000 		.word	tinicio
 1938 02d8 00000000 		.word	TiempoRampa
ARM GAS  C:\Users\USUARIO\AppData\Local\Temp\ccr2Jkwh.s 			page 57


 1939 02dc 00000000 		.word	TemperaturaIdeal
 1940 02e0 00000000 		.word	Temperatura
 1941 02e4 0000C842 		.word	1120403456
 1942 02e8 00000000 		.word	.LANCHOR1
 1943 02ec 00000000 		.word	PotenciaEntregada
 1944 02f0 0000C8C2 		.word	-1027080192
 1945 02f4 00000000 		.word	Enfria
 1946              	.L103:
 344:main.c        ****          CR2_Write(1);
 1947              		.loc 1 344 0
 1948 02f8 0120     		movs	r0, #1
 1949 02fa FFF7FEFF 		bl	CR1_Write
 1950              	.LVL190:
 345:main.c        ****          CR3_Write(1);
 1951              		.loc 1 345 0
 1952 02fe 0120     		movs	r0, #1
 1953 0300 FFF7FEFF 		bl	CR2_Write
 1954              	.LVL191:
 346:main.c        ****          CR4_Write(1);
 1955              		.loc 1 346 0
 1956 0304 0120     		movs	r0, #1
 1957 0306 FFF7FEFF 		bl	CR3_Write
 1958              	.LVL192:
 347:main.c        ****       }
 1959              		.loc 1 347 0
 1960 030a 0120     		movs	r0, #1
 1961 030c FFF7FEFF 		bl	CR4_Write
 1962              	.LVL193:
 1963              	.L104:
 349:main.c        ****    }else{
 1964              		.loc 1 349 0
 1965 0310 7D4B     		ldr	r3, .L227+48
 1966 0312 1878     		ldrb	r0, [r3]	@ zero_extendqisi2
 1967 0314 FFF7FEFF 		bl	__aeabi_i2f
 1968              	.LVL194:
 1969 0318 7C4B     		ldr	r3, .L227+52
 1970 031a 1968     		ldr	r1, [r3]	@ float
 1971 031c FFF7FEFF 		bl	__aeabi_fmul
 1972              	.LVL195:
 1973 0320 7B49     		ldr	r1, .L227+56
 1974 0322 FFF7FEFF 		bl	__aeabi_fdiv
 1975              	.LVL196:
 1976 0326 7B4B     		ldr	r3, .L227+60
 1977 0328 1860     		str	r0, [r3]	@ float
 1978 032a A9E3     		b	.L105
 1979              	.L86:
 352:main.c        ****          CR1_Write(0);
 1980              		.loc 1 352 0
 1981 032c 7A4B     		ldr	r3, .L227+64
 1982 032e B3F90030 		ldrsh	r3, [r3]
 1983 0332 012B     		cmp	r3, #1
 1984 0334 40F00C81 		bne	.L106
 353:main.c        ****          CR2_Write(0);
 1985              		.loc 1 353 0
 1986 0338 0020     		movs	r0, #0
 1987 033a FFF7FEFF 		bl	CR1_Write
 1988              	.LVL197:
ARM GAS  C:\Users\USUARIO\AppData\Local\Temp\ccr2Jkwh.s 			page 58


 354:main.c        ****          CR3_Write(0);
 1989              		.loc 1 354 0
 1990 033e 0020     		movs	r0, #0
 1991 0340 FFF7FEFF 		bl	CR2_Write
 1992              	.LVL198:
 355:main.c        ****          CR4_Write(0);
 1993              		.loc 1 355 0
 1994 0344 0020     		movs	r0, #0
 1995 0346 FFF7FEFF 		bl	CR3_Write
 1996              	.LVL199:
 356:main.c        ****          error=Setpoint-desvio-Temperatura;      // Cálculo del error ******
 1997              		.loc 1 356 0
 1998 034a 0020     		movs	r0, #0
 1999 034c FFF7FEFF 		bl	CR4_Write
 2000              	.LVL200:
 357:main.c        ****          
 2001              		.loc 1 357 0
 2002 0350 724B     		ldr	r3, .L227+68
 2003 0352 1D68     		ldr	r5, [r3]	@ float
 2004 0354 2846     		mov	r0, r5
 2005 0356 FFF7FEFF 		bl	__aeabi_f2d
 2006              	.LVL201:
 2007 035a 0022     		movs	r2, #0
 2008 035c 704B     		ldr	r3, .L227+72
 2009 035e FFF7FEFF 		bl	__aeabi_dsub
 2010              	.LVL202:
 2011 0362 0646     		mov	r6, r0
 2012 0364 0F46     		mov	r7, r1
 2013 0366 6F4B     		ldr	r3, .L227+76
 2014 0368 1868     		ldr	r0, [r3]	@ float
 2015 036a FFF7FEFF 		bl	__aeabi_f2d
 2016              	.LVL203:
 2017 036e 0246     		mov	r2, r0
 2018 0370 0B46     		mov	r3, r1
 2019 0372 3046     		mov	r0, r6
 2020 0374 3946     		mov	r1, r7
 2021 0376 FFF7FEFF 		bl	__aeabi_dsub
 2022              	.LVL204:
 2023 037a FFF7FEFF 		bl	__aeabi_d2f
 2024              	.LVL205:
 2025 037e 0446     		mov	r4, r0
 2026 0380 694B     		ldr	r3, .L227+80
 2027 0382 1860     		str	r0, [r3]	@ float
 359:main.c        ****             if(Potencia<90.0){
 2028              		.loc 1 359 0
 2029 0384 FFF7FEFF 		bl	__aeabi_f2d
 2030              	.LVL206:
 2031 0388 53A3     		adr	r3, .L227
 2032 038a D3E90023 		ldrd	r2, [r3]
 2033 038e FFF7FEFF 		bl	__aeabi_dcmplt
 2034              	.LVL207:
 2035 0392 0028     		cmp	r0, #0
 2036 0394 62D0     		beq	.L107
 359:main.c        ****             if(Potencia<90.0){
 2037              		.loc 1 359 0 is_stmt 0 discriminator 1
 2038 0396 654B     		ldr	r3, .L227+84
 2039 0398 1E68     		ldr	r6, [r3]	@ float
ARM GAS  C:\Users\USUARIO\AppData\Local\Temp\ccr2Jkwh.s 			page 59


 2040 039a 3046     		mov	r0, r6
 2041 039c FFF7FEFF 		bl	__aeabi_f2d
 2042              	.LVL208:
 2043 03a0 8046     		mov	r8, r0
 2044 03a2 8946     		mov	r9, r1
 2045 03a4 4EA3     		adr	r3, .L227+8
 2046 03a6 D3E90023 		ldrd	r2, [r3]
 2047 03aa FFF7FEFF 		bl	__aeabi_dcmpgt
 2048              	.LVL209:
 2049 03ae 0028     		cmp	r0, #0
 2050 03b0 54D0     		beq	.L107
 360:main.c        ****                if(TiempoControl>=Derivativo*2){
 2051              		.loc 1 360 0 is_stmt 1
 2052 03b2 5F49     		ldr	r1, .L227+88
 2053 03b4 5F4B     		ldr	r3, .L227+92
 2054 03b6 1868     		ldr	r0, [r3]	@ float
 2055 03b8 FFF7FEFF 		bl	__aeabi_fcmplt
 2056              	.LVL210:
 2057 03bc 0028     		cmp	r0, #0
 2058 03be 4DD0     		beq	.L107
 361:main.c        ****                   TiempoControl=0;
 2059              		.loc 1 361 0
 2060 03c0 5D4B     		ldr	r3, .L227+96
 2061 03c2 1B88     		ldrh	r3, [r3]
 2062 03c4 5D4A     		ldr	r2, .L227+100
 2063 03c6 1278     		ldrb	r2, [r2]	@ zero_extendqisi2
 2064 03c8 B3EB420F 		cmp	r3, r2, lsl #1
 2065 03cc 46DB     		blt	.L107
 362:main.c        ****                   if(Aumento>0.2){
 2066              		.loc 1 362 0
 2067 03ce 0022     		movs	r2, #0
 2068 03d0 594B     		ldr	r3, .L227+96
 2069 03d2 1A80     		strh	r2, [r3]	@ movhi
 363:main.c        ****                      Ganancia+=Integral;
 2070              		.loc 1 363 0
 2071 03d4 44A3     		adr	r3, .L227+16
 2072 03d6 D3E90023 		ldrd	r2, [r3]
 2073 03da 4046     		mov	r0, r8
 2074 03dc 4946     		mov	r1, r9
 2075 03de FFF7FEFF 		bl	__aeabi_dcmpgt
 2076              	.LVL211:
 2077 03e2 48B1     		cbz	r0, .L216
 364:main.c        ****                   }else{
 2078              		.loc 1 364 0
 2079 03e4 564E     		ldr	r6, .L227+104
 2080 03e6 574B     		ldr	r3, .L227+108
 2081 03e8 1878     		ldrb	r0, [r3]	@ zero_extendqisi2
 2082 03ea FFF7FEFF 		bl	__aeabi_i2f
 2083              	.LVL212:
 2084 03ee 3168     		ldr	r1, [r6]	@ float
 2085 03f0 FFF7FEFF 		bl	__aeabi_fadd
 2086              	.LVL213:
 2087 03f4 3060     		str	r0, [r6]	@ float
 2088 03f6 31E0     		b	.L107
 2089              	.L216:
 366:main.c        ****                         Ganancia+=Integral-0.4;
 2090              		.loc 1 366 0
ARM GAS  C:\Users\USUARIO\AppData\Local\Temp\ccr2Jkwh.s 			page 60


 2091 03f8 0021     		movs	r1, #0
 2092 03fa 3046     		mov	r0, r6
 2093 03fc FFF7FEFF 		bl	__aeabi_fcmpgt
 2094              	.LVL214:
 2095 0400 B0B1     		cbz	r0, .L217
 367:main.c        ****                      }else{
 2096              		.loc 1 367 0
 2097 0402 504B     		ldr	r3, .L227+108
 2098 0404 1878     		ldrb	r0, [r3]	@ zero_extendqisi2
 2099 0406 FFF7FEFF 		bl	__aeabi_i2d
 2100              	.LVL215:
 2101 040a 39A3     		adr	r3, .L227+24
 2102 040c D3E90023 		ldrd	r2, [r3]
 2103 0410 FFF7FEFF 		bl	__aeabi_dsub
 2104              	.LVL216:
 2105 0414 8046     		mov	r8, r0
 2106 0416 8946     		mov	r9, r1
 2107 0418 494E     		ldr	r6, .L227+104
 2108 041a 3068     		ldr	r0, [r6]	@ float
 2109 041c FFF7FEFF 		bl	__aeabi_f2d
 2110              	.LVL217:
 2111 0420 4246     		mov	r2, r8
 2112 0422 4B46     		mov	r3, r9
 2113 0424 FFF7FEFF 		bl	__aeabi_dadd
 2114              	.LVL218:
 2115 0428 FFF7FEFF 		bl	__aeabi_d2f
 2116              	.LVL219:
 2117 042c 3060     		str	r0, [r6]	@ float
 2118 042e 15E0     		b	.L107
 2119              	.L217:
 369:main.c        ****                      }
 2120              		.loc 1 369 0
 2121 0430 444B     		ldr	r3, .L227+108
 2122 0432 1878     		ldrb	r0, [r3]	@ zero_extendqisi2
 2123 0434 FFF7FEFF 		bl	__aeabi_i2d
 2124              	.LVL220:
 2125 0438 2FA3     		adr	r3, .L227+32
 2126 043a D3E90023 		ldrd	r2, [r3]
 2127 043e FFF7FEFF 		bl	__aeabi_dsub
 2128              	.LVL221:
 2129 0442 8046     		mov	r8, r0
 2130 0444 8946     		mov	r9, r1
 2131 0446 3E4E     		ldr	r6, .L227+104
 2132 0448 3068     		ldr	r0, [r6]	@ float
 2133 044a FFF7FEFF 		bl	__aeabi_f2d
 2134              	.LVL222:
 2135 044e 4246     		mov	r2, r8
 2136 0450 4B46     		mov	r3, r9
 2137 0452 FFF7FEFF 		bl	__aeabi_dadd
 2138              	.LVL223:
 2139 0456 FFF7FEFF 		bl	__aeabi_d2f
 2140              	.LVL224:
 2141 045a 3060     		str	r0, [r6]	@ float
 2142              	.L107:
 376:main.c        ****             error=0.0;
 2143              		.loc 1 376 0
 2144 045c 0021     		movs	r1, #0
ARM GAS  C:\Users\USUARIO\AppData\Local\Temp\ccr2Jkwh.s 			page 61


 2145 045e 2046     		mov	r0, r4
 2146 0460 FFF7FEFF 		bl	__aeabi_fcmpgt
 2147              	.LVL225:
 2148 0464 10B1     		cbz	r0, .L115
 377:main.c        ****          
 2149              		.loc 1 377 0
 2150 0466 0022     		movs	r2, #0
 2151 0468 2F4B     		ldr	r3, .L227+80
 2152 046a 1A60     		str	r2, [r3]	@ float
 2153              	.L115:
 379:main.c        ****          
 2154              		.loc 1 379 0
 2155 046c 2E4B     		ldr	r3, .L227+80
 2156 046e 1C68     		ldr	r4, [r3]
 2157 0470 04F10044 		add	r4, r4, #-2147483648
 2158 0474 1C60     		str	r4, [r3]	@ float
 381:main.c        ****             Ganancia=0.1;
 2159              		.loc 1 381 0
 2160 0476 324B     		ldr	r3, .L227+104
 2161 0478 1868     		ldr	r0, [r3]	@ float
 2162 047a FFF7FEFF 		bl	__aeabi_f2d
 2163              	.LVL226:
 2164 047e 20A3     		adr	r3, .L227+40
 2165 0480 D3E90023 		ldrd	r2, [r3]
 2166 0484 FFF7FEFF 		bl	__aeabi_dcmplt
 2167              	.LVL227:
 2168 0488 10B1     		cbz	r0, .L117
 382:main.c        ****       
 2169              		.loc 1 382 0
 2170 048a 2F4A     		ldr	r2, .L227+112
 2171 048c 2C4B     		ldr	r3, .L227+104
 2172 048e 1A60     		str	r2, [r3]	@ float
 2173              	.L117:
 384:main.c        ****                
 2174              		.loc 1 384 0
 2175 0490 2B4B     		ldr	r3, .L227+104
 2176 0492 1968     		ldr	r1, [r3]	@ float
 2177 0494 2046     		mov	r0, r4
 2178 0496 FFF7FEFF 		bl	__aeabi_fmul
 2179              	.LVL228:
 2180 049a 0446     		mov	r4, r0
 2181              	.LVL229:
 386:main.c        ****             tmp=Setpoint;
 2182              		.loc 1 386 0
 2183 049c 0146     		mov	r1, r0
 2184 049e 2846     		mov	r0, r5
 2185              	.LVL230:
 2186 04a0 FFF7FEFF 		bl	__aeabi_fcmplt
 2187              	.LVL231:
 2188 04a4 00B1     		cbz	r0, .L119
 387:main.c        ****                      
 2189              		.loc 1 387 0
 2190 04a6 2C46     		mov	r4, r5
 2191              	.LVL232:
 2192              	.L119:
 389:main.c        ****             tmp=0.0;
 2193              		.loc 1 389 0
ARM GAS  C:\Users\USUARIO\AppData\Local\Temp\ccr2Jkwh.s 			page 62


 2194 04a8 0021     		movs	r1, #0
 2195 04aa 2046     		mov	r0, r4
 2196 04ac FFF7FEFF 		bl	__aeabi_fcmplt
 2197              	.LVL233:
 2198 04b0 00B1     		cbz	r0, .L120
 390:main.c        ****          
 2199              		.loc 1 390 0
 2200 04b2 0024     		movs	r4, #0
 2201              	.LVL234:
 2202              	.L120:
 394:main.c        ****          Controlando=1;       
 2203              		.loc 1 394 0
 2204 04b4 2946     		mov	r1, r5
 2205 04b6 2046     		mov	r0, r4
 2206 04b8 FFF7FEFF 		bl	__aeabi_fdiv
 2207              	.LVL235:
 2208 04bc 0446     		mov	r4, r0
 2209              	.LVL236:
 2210 04be 124B     		ldr	r3, .L227+48
 2211 04c0 1878     		ldrb	r0, [r3]	@ zero_extendqisi2
 2212 04c2 FFF7FEFF 		bl	__aeabi_i2f
 2213              	.LVL237:
 2214 04c6 2146     		mov	r1, r4
 2215 04c8 FFF7FEFF 		bl	__aeabi_fmul
 2216              	.LVL238:
 2217 04cc 114B     		ldr	r3, .L227+60
 2218 04ce 1860     		str	r0, [r3]	@ float
 395:main.c        ****       }else{
 2219              		.loc 1 395 0
 2220 04d0 0122     		movs	r2, #1
 2221 04d2 1E4B     		ldr	r3, .L227+116
 2222 04d4 1A80     		strh	r2, [r3]	@ movhi
 2223 04d6 D3E2     		b	.L105
 2224              	.L228:
 2225              		.align	3
 2226              	.L227:
 2227 04d8 33333333 		.word	858993459
 2228 04dc 3333E3BF 		.word	-1075629261
 2229 04e0 9A999999 		.word	-1717986918
 2230 04e4 9999C9BF 		.word	-1077306983
 2231 04e8 9A999999 		.word	-1717986918
 2232 04ec 9999C93F 		.word	1070176665
 2233 04f0 9A999999 		.word	-1717986918
 2234 04f4 9999D93F 		.word	1071225241
 2235 04f8 66666666 		.word	1717986918
 2236 04fc 6666E63F 		.word	1072064102
 2237 0500 9A999999 		.word	-1717986918
 2238 0504 9999B93F 		.word	1069128089
 2239 0508 00000000 		.word	Tciclo
 2240 050c 00000000 		.word	PotenciaEntregada
 2241 0510 0000C842 		.word	1120403456
 2242 0514 00000000 		.word	Tpulso
 2243 0518 00000000 		.word	Enfria
 2244 051c 00000000 		.word	Setpoint
 2245 0520 0000E03F 		.word	1071644672
 2246 0524 00000000 		.word	Temperatura
 2247 0528 00000000 		.word	error
ARM GAS  C:\Users\USUARIO\AppData\Local\Temp\ccr2Jkwh.s 			page 63


 2248 052c 00000000 		.word	Aumento
 2249 0530 0000B442 		.word	1119092736
 2250 0534 00000000 		.word	Potencia
 2251 0538 00000000 		.word	TiempoControl
 2252 053c 00000000 		.word	Derivativo
 2253 0540 00000000 		.word	Ganancia
 2254 0544 00000000 		.word	Integral
 2255 0548 CDCCCC3D 		.word	1036831949
 2256 054c 00000000 		.word	Controlando
 2257              	.LVL239:
 2258              	.L106:
 397:main.c        ****          CR2_Write(1);
 2259              		.loc 1 397 0
 2260 0550 0120     		movs	r0, #1
 2261 0552 FFF7FEFF 		bl	CR1_Write
 2262              	.LVL240:
 398:main.c        ****          CR3_Write(1);
 2263              		.loc 1 398 0
 2264 0556 0120     		movs	r0, #1
 2265 0558 FFF7FEFF 		bl	CR2_Write
 2266              	.LVL241:
 399:main.c        ****          CR4_Write(1);
 2267              		.loc 1 399 0
 2268 055c 0120     		movs	r0, #1
 2269 055e FFF7FEFF 		bl	CR3_Write
 2270              	.LVL242:
 400:main.c        ****          error=desvio+Setpoint-Temperatura;      // Cálculo del error ******
 2271              		.loc 1 400 0
 2272 0562 0120     		movs	r0, #1
 2273 0564 FFF7FEFF 		bl	CR4_Write
 2274              	.LVL243:
 401:main.c        ****       
 2275              		.loc 1 401 0
 2276 0568 8D4B     		ldr	r3, .L229+32
 2277 056a 1D68     		ldr	r5, [r3]	@ float
 2278 056c 2846     		mov	r0, r5
 2279 056e FFF7FEFF 		bl	__aeabi_f2d
 2280              	.LVL244:
 2281 0572 0022     		movs	r2, #0
 2282 0574 8B4B     		ldr	r3, .L229+36
 2283 0576 FFF7FEFF 		bl	__aeabi_dadd
 2284              	.LVL245:
 2285 057a 0646     		mov	r6, r0
 2286 057c 0F46     		mov	r7, r1
 2287 057e 8A4B     		ldr	r3, .L229+40
 2288 0580 1868     		ldr	r0, [r3]	@ float
 2289 0582 FFF7FEFF 		bl	__aeabi_f2d
 2290              	.LVL246:
 2291 0586 0246     		mov	r2, r0
 2292 0588 0B46     		mov	r3, r1
 2293 058a 3046     		mov	r0, r6
 2294 058c 3946     		mov	r1, r7
 2295 058e FFF7FEFF 		bl	__aeabi_dsub
 2296              	.LVL247:
 2297 0592 FFF7FEFF 		bl	__aeabi_d2f
 2298              	.LVL248:
 2299 0596 0446     		mov	r4, r0
ARM GAS  C:\Users\USUARIO\AppData\Local\Temp\ccr2Jkwh.s 			page 64


 2300 0598 844B     		ldr	r3, .L229+44
 2301 059a 1860     		str	r0, [r3]	@ float
 403:main.c        ****             derivativo_ant=Derivativo*4;
 2302              		.loc 1 403 0
 2303 059c 8449     		ldr	r1, .L229+48
 2304 059e FFF7FEFF 		bl	__aeabi_fcmpge
 2305              	.LVL249:
 2306 05a2 0028     		cmp	r0, #0
 2307 05a4 6FD0     		beq	.L121
 403:main.c        ****             derivativo_ant=Derivativo*4;
 2308              		.loc 1 403 0 is_stmt 0 discriminator 1
 2309 05a6 834B     		ldr	r3, .L229+52
 2310 05a8 1F68     		ldr	r7, [r3]	@ float
 2311 05aa 3846     		mov	r0, r7
 2312 05ac FFF7FEFF 		bl	__aeabi_f2d
 2313              	.LVL250:
 2314 05b0 8046     		mov	r8, r0
 2315 05b2 8946     		mov	r9, r1
 2316 05b4 72A3     		adr	r3, .L229
 2317 05b6 D3E90023 		ldrd	r2, [r3]
 2318 05ba FFF7FEFF 		bl	__aeabi_dcmple
 2319              	.LVL251:
 2320 05be 0028     		cmp	r0, #0
 2321 05c0 61D0     		beq	.L121
 404:main.c        ****             flag_ajuste=0;
 2322              		.loc 1 404 0 is_stmt 1
 2323 05c2 7D4B     		ldr	r3, .L229+56
 2324 05c4 1E78     		ldrb	r6, [r3]	@ zero_extendqisi2
 2325 05c6 B600     		lsls	r6, r6, #2
 2326 05c8 7C4B     		ldr	r3, .L229+60
 2327 05ca 1E80     		strh	r6, [r3]	@ movhi
 405:main.c        ****             flag_ajuste2=0;
 2328              		.loc 1 405 0
 2329 05cc 0023     		movs	r3, #0
 2330 05ce 7C4A     		ldr	r2, .L229+64
 2331 05d0 1380     		strh	r3, [r2]	@ movhi
 406:main.c        ****             Ajusto=10;
 2332              		.loc 1 406 0
 2333 05d2 7C4A     		ldr	r2, .L229+68
 2334 05d4 1380     		strh	r3, [r2]	@ movhi
 407:main.c        ****             if(Potencia<90.0){
 2335              		.loc 1 407 0
 2336 05d6 0A22     		movs	r2, #10
 2337 05d8 7B4B     		ldr	r3, .L229+72
 2338 05da 1A70     		strb	r2, [r3]
 408:main.c        ****                 if(TiempoControl>=derivativo_ant){
 2339              		.loc 1 408 0
 2340 05dc 7B49     		ldr	r1, .L229+76
 2341 05de 7C4B     		ldr	r3, .L229+80
 2342 05e0 1868     		ldr	r0, [r3]	@ float
 2343 05e2 FFF7FEFF 		bl	__aeabi_fcmplt
 2344              	.LVL252:
 2345 05e6 0028     		cmp	r0, #0
 2346 05e8 00F0A081 		beq	.L124
 409:main.c        ****                     TiempoControl=0;
 2347              		.loc 1 409 0
 2348 05ec 794B     		ldr	r3, .L229+84
ARM GAS  C:\Users\USUARIO\AppData\Local\Temp\ccr2Jkwh.s 			page 65


 2349 05ee 1B88     		ldrh	r3, [r3]
 2350 05f0 9E42     		cmp	r6, r3
 2351 05f2 00F29B81 		bhi	.L124
 410:main.c        ****                     if(Aumento<-0.5){
 2352              		.loc 1 410 0
 2353 05f6 0022     		movs	r2, #0
 2354 05f8 764B     		ldr	r3, .L229+84
 2355 05fa 1A80     		strh	r2, [r3]	@ movhi
 411:main.c        ****                         Ganancia+=Integral;//2
 2356              		.loc 1 411 0
 2357 05fc 4FF03F41 		mov	r1, #-1090519040
 2358 0600 3846     		mov	r0, r7
 2359 0602 FFF7FEFF 		bl	__aeabi_fcmplt
 2360              	.LVL253:
 2361 0606 48B1     		cbz	r0, .L218
 412:main.c        ****                     }else{
 2362              		.loc 1 412 0
 2363 0608 734E     		ldr	r6, .L229+88
 2364 060a 744B     		ldr	r3, .L229+92
 2365 060c 1878     		ldrb	r0, [r3]	@ zero_extendqisi2
 2366 060e FFF7FEFF 		bl	__aeabi_i2f
 2367              	.LVL254:
 2368 0612 3168     		ldr	r1, [r6]	@ float
 2369 0614 FFF7FEFF 		bl	__aeabi_fadd
 2370              	.LVL255:
 2371 0618 3060     		str	r0, [r6]	@ float
 2372 061a 87E1     		b	.L124
 2373              	.L218:
 414:main.c        ****                             Ganancia+=Integral*0.5;//1
 2374              		.loc 1 414 0
 2375 061c 5AA3     		adr	r3, .L229+8
 2376 061e D3E90023 		ldrd	r2, [r3]
 2377 0622 4046     		mov	r0, r8
 2378 0624 4946     		mov	r1, r9
 2379 0626 FFF7FEFF 		bl	__aeabi_dcmplt
 2380              	.LVL256:
 2381 062a A8B1     		cbz	r0, .L219
 415:main.c        ****                         else
 2382              		.loc 1 415 0
 2383 062c 6B4B     		ldr	r3, .L229+92
 2384 062e 1878     		ldrb	r0, [r3]	@ zero_extendqisi2
 2385 0630 FFF7FEFF 		bl	__aeabi_i2d
 2386              	.LVL257:
 2387 0634 0022     		movs	r2, #0
 2388 0636 5B4B     		ldr	r3, .L229+36
 2389 0638 FFF7FEFF 		bl	__aeabi_dmul
 2390              	.LVL258:
 2391 063c 8046     		mov	r8, r0
 2392 063e 8946     		mov	r9, r1
 2393 0640 654E     		ldr	r6, .L229+88
 2394 0642 3068     		ldr	r0, [r6]	@ float
 2395 0644 FFF7FEFF 		bl	__aeabi_f2d
 2396              	.LVL259:
 2397 0648 4246     		mov	r2, r8
 2398 064a 4B46     		mov	r3, r9
 2399 064c FFF7FEFF 		bl	__aeabi_dadd
 2400              	.LVL260:
ARM GAS  C:\Users\USUARIO\AppData\Local\Temp\ccr2Jkwh.s 			page 66


 2401 0650 FFF7FEFF 		bl	__aeabi_d2f
 2402              	.LVL261:
 2403 0654 3060     		str	r0, [r6]	@ float
 2404 0656 69E1     		b	.L124
 2405              	.L219:
 417:main.c        ****                     }
 2406              		.loc 1 417 0
 2407 0658 604B     		ldr	r3, .L229+92
 2408 065a 1878     		ldrb	r0, [r3]	@ zero_extendqisi2
 2409 065c FFF7FEFF 		bl	__aeabi_i2d
 2410              	.LVL262:
 2411 0660 4BA3     		adr	r3, .L229+16
 2412 0662 D3E90023 		ldrd	r2, [r3]
 2413 0666 FFF7FEFF 		bl	__aeabi_dmul
 2414              	.LVL263:
 2415 066a 8046     		mov	r8, r0
 2416 066c 8946     		mov	r9, r1
 2417 066e 5A4E     		ldr	r6, .L229+88
 2418 0670 3068     		ldr	r0, [r6]	@ float
 2419 0672 FFF7FEFF 		bl	__aeabi_f2d
 2420              	.LVL264:
 2421 0676 4246     		mov	r2, r8
 2422 0678 4B46     		mov	r3, r9
 2423 067a FFF7FEFF 		bl	__aeabi_dadd
 2424              	.LVL265:
 2425 067e FFF7FEFF 		bl	__aeabi_d2f
 2426              	.LVL266:
 2427 0682 3060     		str	r0, [r6]	@ float
 2428 0684 52E1     		b	.L124
 2429              	.L121:
 421:main.c        ****             derivativo_ant=Derivativo*3;
 2430              		.loc 1 421 0
 2431 0686 5649     		ldr	r1, .L229+96
 2432 0688 2046     		mov	r0, r4
 2433 068a FFF7FEFF 		bl	__aeabi_fcmpge
 2434              	.LVL267:
 2435 068e 0028     		cmp	r0, #0
 2436 0690 00F0AA80 		beq	.L130
 421:main.c        ****             derivativo_ant=Derivativo*3;
 2437              		.loc 1 421 0 is_stmt 0 discriminator 1
 2438 0694 4649     		ldr	r1, .L229+48
 2439 0696 2046     		mov	r0, r4
 2440 0698 FFF7FEFF 		bl	__aeabi_fcmplt
 2441              	.LVL268:
 2442 069c 0028     		cmp	r0, #0
 2443 069e 00F0A380 		beq	.L130
 421:main.c        ****             derivativo_ant=Derivativo*3;
 2444              		.loc 1 421 0 discriminator 2
 2445 06a2 444B     		ldr	r3, .L229+52
 2446 06a4 1F68     		ldr	r7, [r3]	@ float
 2447 06a6 4FF07C51 		mov	r1, #1056964608
 2448 06aa 3846     		mov	r0, r7
 2449 06ac FFF7FEFF 		bl	__aeabi_fcmple
 2450              	.LVL269:
 2451 06b0 0028     		cmp	r0, #0
 2452 06b2 00F09980 		beq	.L130
 422:main.c        ****             flag_ajuste=0;
ARM GAS  C:\Users\USUARIO\AppData\Local\Temp\ccr2Jkwh.s 			page 67


 2453              		.loc 1 422 0 is_stmt 1
 2454 06b6 404B     		ldr	r3, .L229+56
 2455 06b8 1B78     		ldrb	r3, [r3]	@ zero_extendqisi2
 2456 06ba 03EB4306 		add	r6, r3, r3, lsl #1
 2457 06be 3F4B     		ldr	r3, .L229+60
 2458 06c0 1E80     		strh	r6, [r3]	@ movhi
 423:main.c        ****             flag_ajuste2=0;
 2459              		.loc 1 423 0
 2460 06c2 0023     		movs	r3, #0
 2461 06c4 3E4A     		ldr	r2, .L229+64
 2462 06c6 1380     		strh	r3, [r2]	@ movhi
 424:main.c        ****             Ajusto=10;
 2463              		.loc 1 424 0
 2464 06c8 3E4A     		ldr	r2, .L229+68
 2465 06ca 1380     		strh	r3, [r2]	@ movhi
 425:main.c        ****             if(Potencia<70.0){
 2466              		.loc 1 425 0
 2467 06cc 0A22     		movs	r2, #10
 2468 06ce 3E4B     		ldr	r3, .L229+72
 2469 06d0 1A70     		strb	r2, [r3]
 426:main.c        ****                 if(TiempoControl>=derivativo_ant){//80
 2470              		.loc 1 426 0
 2471 06d2 4449     		ldr	r1, .L229+100
 2472 06d4 3E4B     		ldr	r3, .L229+80
 2473 06d6 1868     		ldr	r0, [r3]	@ float
 2474 06d8 FFF7FEFF 		bl	__aeabi_fcmplt
 2475              	.LVL270:
 2476 06dc 0028     		cmp	r0, #0
 2477 06de 00F02581 		beq	.L124
 427:main.c        ****                     TiempoControl=0;
 2478              		.loc 1 427 0
 2479 06e2 3C4B     		ldr	r3, .L229+84
 2480 06e4 1B88     		ldrh	r3, [r3]
 2481 06e6 9E42     		cmp	r6, r3
 2482 06e8 00F22081 		bhi	.L124
 428:main.c        ****                     if(Aumento<-0.5){
 2483              		.loc 1 428 0
 2484 06ec 0022     		movs	r2, #0
 2485 06ee 394B     		ldr	r3, .L229+84
 2486 06f0 1A80     		strh	r2, [r3]	@ movhi
 429:main.c        ****                         Ganancia+=Integral;//2
 2487              		.loc 1 429 0
 2488 06f2 4FF03F41 		mov	r1, #-1090519040
 2489 06f6 3846     		mov	r0, r7
 2490 06f8 FFF7FEFF 		bl	__aeabi_fcmplt
 2491              	.LVL271:
 2492 06fc 48B1     		cbz	r0, .L220
 430:main.c        ****                     }else{
 2493              		.loc 1 430 0
 2494 06fe 364E     		ldr	r6, .L229+88
 2495 0700 364B     		ldr	r3, .L229+92
 2496 0702 1878     		ldrb	r0, [r3]	@ zero_extendqisi2
 2497 0704 FFF7FEFF 		bl	__aeabi_i2f
 2498              	.LVL272:
 2499 0708 3168     		ldr	r1, [r6]	@ float
 2500 070a FFF7FEFF 		bl	__aeabi_fadd
 2501              	.LVL273:
ARM GAS  C:\Users\USUARIO\AppData\Local\Temp\ccr2Jkwh.s 			page 68


 2502 070e 3060     		str	r0, [r6]	@ float
 2503 0710 0CE1     		b	.L124
 2504              	.L220:
 432:main.c        ****                             Ganancia+=Integral*0.3;//1
 2505              		.loc 1 432 0
 2506 0712 3846     		mov	r0, r7
 2507 0714 FFF7FEFF 		bl	__aeabi_f2d
 2508              	.LVL274:
 2509 0718 1BA3     		adr	r3, .L229+8
 2510 071a D3E90023 		ldrd	r2, [r3]
 2511 071e FFF7FEFF 		bl	__aeabi_dcmplt
 2512              	.LVL275:
 2513 0722 B0B1     		cbz	r0, .L221
 433:main.c        ****                         else
 2514              		.loc 1 433 0
 2515 0724 2D4B     		ldr	r3, .L229+92
 2516 0726 1878     		ldrb	r0, [r3]	@ zero_extendqisi2
 2517 0728 FFF7FEFF 		bl	__aeabi_i2d
 2518              	.LVL276:
 2519 072c 18A3     		adr	r3, .L229+16
 2520 072e D3E90023 		ldrd	r2, [r3]
 2521 0732 FFF7FEFF 		bl	__aeabi_dmul
 2522              	.LVL277:
 2523 0736 8046     		mov	r8, r0
 2524 0738 8946     		mov	r9, r1
 2525 073a 274E     		ldr	r6, .L229+88
 2526 073c 3068     		ldr	r0, [r6]	@ float
 2527 073e FFF7FEFF 		bl	__aeabi_f2d
 2528              	.LVL278:
 2529 0742 4246     		mov	r2, r8
 2530 0744 4B46     		mov	r3, r9
 2531 0746 FFF7FEFF 		bl	__aeabi_dadd
 2532              	.LVL279:
 2533 074a FFF7FEFF 		bl	__aeabi_d2f
 2534              	.LVL280:
 2535 074e 3060     		str	r0, [r6]	@ float
 2536 0750 ECE0     		b	.L124
 2537              	.L221:
 435:main.c        ****                     }
 2538              		.loc 1 435 0
 2539 0752 224B     		ldr	r3, .L229+92
 2540 0754 1878     		ldrb	r0, [r3]	@ zero_extendqisi2
 2541 0756 FFF7FEFF 		bl	__aeabi_i2d
 2542              	.LVL281:
 2543 075a 0FA3     		adr	r3, .L229+24
 2544 075c D3E90023 		ldrd	r2, [r3]
 2545 0760 FFF7FEFF 		bl	__aeabi_dmul
 2546              	.LVL282:
 2547 0764 8046     		mov	r8, r0
 2548 0766 8946     		mov	r9, r1
 2549 0768 1B4E     		ldr	r6, .L229+88
 2550 076a 3068     		ldr	r0, [r6]	@ float
 2551 076c FFF7FEFF 		bl	__aeabi_f2d
 2552              	.LVL283:
 2553 0770 4246     		mov	r2, r8
 2554 0772 4B46     		mov	r3, r9
 2555 0774 FFF7FEFF 		bl	__aeabi_dadd
ARM GAS  C:\Users\USUARIO\AppData\Local\Temp\ccr2Jkwh.s 			page 69


 2556              	.LVL284:
 2557 0778 FFF7FEFF 		bl	__aeabi_d2f
 2558              	.LVL285:
 2559 077c 3060     		str	r0, [r6]	@ float
 2560 077e D5E0     		b	.L124
 2561              	.L230:
 2562              		.align	3
 2563              	.L229:
 2564 0780 66666666 		.word	1717986918
 2565 0784 6666E63F 		.word	1072064102
 2566 0788 9A999999 		.word	-1717986918
 2567 078c 9999B9BF 		.word	-1078355559
 2568 0790 33333333 		.word	858993459
 2569 0794 3333D33F 		.word	1070805811
 2570 0798 9A999999 		.word	-1717986918
 2571 079c 9999B93F 		.word	1069128089
 2572 07a0 00000000 		.word	Setpoint
 2573 07a4 0000E03F 		.word	1071644672
 2574 07a8 00000000 		.word	Temperatura
 2575 07ac 00000000 		.word	error
 2576 07b0 0000A041 		.word	1101004800
 2577 07b4 00000000 		.word	Aumento
 2578 07b8 00000000 		.word	Derivativo
 2579 07bc 00000000 		.word	derivativo_ant
 2580 07c0 00000000 		.word	flag_ajuste
 2581 07c4 00000000 		.word	flag_ajuste2
 2582 07c8 00000000 		.word	Ajusto
 2583 07cc 0000B442 		.word	1119092736
 2584 07d0 00000000 		.word	Potencia
 2585 07d4 00000000 		.word	TiempoControl
 2586 07d8 00000000 		.word	Ganancia
 2587 07dc 00000000 		.word	Integral
 2588 07e0 0000C040 		.word	1086324736
 2589 07e4 00008C42 		.word	1116471296
 2590              	.L130:
 439:main.c        ****             derivativo_ant=Derivativo*2;
 2591              		.loc 1 439 0
 2592 07e8 4FF07E51 		mov	r1, #1065353216
 2593 07ec 2046     		mov	r0, r4
 2594 07ee FFF7FEFF 		bl	__aeabi_fcmpge
 2595              	.LVL286:
 2596 07f2 0028     		cmp	r0, #0
 2597 07f4 00F09A80 		beq	.L124
 439:main.c        ****             derivativo_ant=Derivativo*2;
 2598              		.loc 1 439 0 is_stmt 0 discriminator 1
 2599 07f8 3549     		ldr	r1, .L231+16
 2600 07fa 2046     		mov	r0, r4
 2601 07fc FFF7FEFF 		bl	__aeabi_fcmplt
 2602              	.LVL287:
 2603 0800 0028     		cmp	r0, #0
 2604 0802 00F09380 		beq	.L124
 439:main.c        ****             derivativo_ant=Derivativo*2;
 2605              		.loc 1 439 0 discriminator 2
 2606 0806 334B     		ldr	r3, .L231+20
 2607 0808 1F68     		ldr	r7, [r3]	@ float
 2608 080a 3846     		mov	r0, r7
 2609 080c FFF7FEFF 		bl	__aeabi_f2d
ARM GAS  C:\Users\USUARIO\AppData\Local\Temp\ccr2Jkwh.s 			page 70


 2610              	.LVL288:
 2611 0810 8046     		mov	r8, r0
 2612 0812 8946     		mov	r9, r1
 2613 0814 2AA3     		adr	r3, .L231
 2614 0816 D3E90023 		ldrd	r2, [r3]
 2615 081a FFF7FEFF 		bl	__aeabi_dcmple
 2616              	.LVL289:
 2617 081e 0028     		cmp	r0, #0
 2618 0820 00F08480 		beq	.L124
 440:main.c        ****             flag_ajuste=0;
 2619              		.loc 1 440 0 is_stmt 1
 2620 0824 2C4B     		ldr	r3, .L231+24
 2621 0826 1E78     		ldrb	r6, [r3]	@ zero_extendqisi2
 2622 0828 7600     		lsls	r6, r6, #1
 2623 082a 2C4B     		ldr	r3, .L231+28
 2624 082c 1E80     		strh	r6, [r3]	@ movhi
 441:main.c        ****             flag_ajuste2=0;
 2625              		.loc 1 441 0
 2626 082e 0023     		movs	r3, #0
 2627 0830 2B4A     		ldr	r2, .L231+32
 2628 0832 1380     		strh	r3, [r2]	@ movhi
 442:main.c        ****             Ajusto=10;
 2629              		.loc 1 442 0
 2630 0834 2B4A     		ldr	r2, .L231+36
 2631 0836 1380     		strh	r3, [r2]	@ movhi
 443:main.c        ****             if(Potencia<50.0){
 2632              		.loc 1 443 0
 2633 0838 0A22     		movs	r2, #10
 2634 083a 2B4B     		ldr	r3, .L231+40
 2635 083c 1A70     		strb	r2, [r3]
 444:main.c        ****                 if(TiempoControl>=derivativo_ant){//80
 2636              		.loc 1 444 0
 2637 083e 2B49     		ldr	r1, .L231+44
 2638 0840 2B4B     		ldr	r3, .L231+48
 2639 0842 1868     		ldr	r0, [r3]	@ float
 2640 0844 FFF7FEFF 		bl	__aeabi_fcmplt
 2641              	.LVL290:
 2642 0848 0028     		cmp	r0, #0
 2643 084a 6FD0     		beq	.L124
 445:main.c        ****                     TiempoControl=0;
 2644              		.loc 1 445 0
 2645 084c 294B     		ldr	r3, .L231+52
 2646 084e 1B88     		ldrh	r3, [r3]
 2647 0850 9E42     		cmp	r6, r3
 2648 0852 6BD8     		bhi	.L124
 446:main.c        ****                     if(Aumento<-0.5){
 2649              		.loc 1 446 0
 2650 0854 0022     		movs	r2, #0
 2651 0856 274B     		ldr	r3, .L231+52
 2652 0858 1A80     		strh	r2, [r3]	@ movhi
 447:main.c        ****                         Ganancia+=Integral;//2
 2653              		.loc 1 447 0
 2654 085a 4FF03F41 		mov	r1, #-1090519040
 2655 085e 3846     		mov	r0, r7
 2656 0860 FFF7FEFF 		bl	__aeabi_fcmplt
 2657              	.LVL291:
 2658 0864 48B1     		cbz	r0, .L222
ARM GAS  C:\Users\USUARIO\AppData\Local\Temp\ccr2Jkwh.s 			page 71


 448:main.c        ****                     }else{
 2659              		.loc 1 448 0
 2660 0866 244E     		ldr	r6, .L231+56
 2661 0868 244B     		ldr	r3, .L231+60
 2662 086a 1878     		ldrb	r0, [r3]	@ zero_extendqisi2
 2663 086c FFF7FEFF 		bl	__aeabi_i2f
 2664              	.LVL292:
 2665 0870 3168     		ldr	r1, [r6]	@ float
 2666 0872 FFF7FEFF 		bl	__aeabi_fadd
 2667              	.LVL293:
 2668 0876 3060     		str	r0, [r6]	@ float
 2669 0878 58E0     		b	.L124
 2670              	.L222:
 450:main.c        ****                             Ganancia+=Integral*0.3;//1
 2671              		.loc 1 450 0
 2672 087a 13A3     		adr	r3, .L231+8
 2673 087c D3E90023 		ldrd	r2, [r3]
 2674 0880 4046     		mov	r0, r8
 2675 0882 4946     		mov	r1, r9
 2676 0884 FFF7FEFF 		bl	__aeabi_dcmplt
 2677              	.LVL294:
 2678 0888 0028     		cmp	r0, #0
 2679 088a 39D0     		beq	.L223
 451:main.c        ****                         else
 2680              		.loc 1 451 0
 2681 088c 1B4B     		ldr	r3, .L231+60
 2682 088e 1878     		ldrb	r0, [r3]	@ zero_extendqisi2
 2683 0890 FFF7FEFF 		bl	__aeabi_i2d
 2684              	.LVL295:
 2685 0894 0AA3     		adr	r3, .L231
 2686 0896 D3E90023 		ldrd	r2, [r3]
 2687 089a FFF7FEFF 		bl	__aeabi_dmul
 2688              	.LVL296:
 2689 089e 8046     		mov	r8, r0
 2690 08a0 8946     		mov	r9, r1
 2691 08a2 154E     		ldr	r6, .L231+56
 2692 08a4 3068     		ldr	r0, [r6]	@ float
 2693 08a6 FFF7FEFF 		bl	__aeabi_f2d
 2694              	.LVL297:
 2695 08aa 4246     		mov	r2, r8
 2696 08ac 4B46     		mov	r3, r9
 2697 08ae FFF7FEFF 		bl	__aeabi_dadd
 2698              	.LVL298:
 2699 08b2 FFF7FEFF 		bl	__aeabi_d2f
 2700              	.LVL299:
 2701 08b6 3060     		str	r0, [r6]	@ float
 2702 08b8 38E0     		b	.L124
 2703              	.L232:
 2704 08ba 00BFAFF3 		.align	3
 2704      0080
 2705              	.L231:
 2706 08c0 33333333 		.word	858993459
 2707 08c4 3333D33F 		.word	1070805811
 2708 08c8 9A999999 		.word	-1717986918
 2709 08cc 9999B9BF 		.word	-1078355559
 2710 08d0 00002041 		.word	1092616192
 2711 08d4 00000000 		.word	Aumento
ARM GAS  C:\Users\USUARIO\AppData\Local\Temp\ccr2Jkwh.s 			page 72


 2712 08d8 00000000 		.word	Derivativo
 2713 08dc 00000000 		.word	derivativo_ant
 2714 08e0 00000000 		.word	flag_ajuste
 2715 08e4 00000000 		.word	flag_ajuste2
 2716 08e8 00000000 		.word	Ajusto
 2717 08ec 00004842 		.word	1112014848
 2718 08f0 00000000 		.word	Potencia
 2719 08f4 00000000 		.word	TiempoControl
 2720 08f8 00000000 		.word	Ganancia
 2721 08fc 00000000 		.word	Integral
 2722              	.L223:
 453:main.c        ****                     }
 2723              		.loc 1 453 0
 2724 0900 774B     		ldr	r3, .L233+32
 2725 0902 1878     		ldrb	r0, [r3]	@ zero_extendqisi2
 2726 0904 FFF7FEFF 		bl	__aeabi_i2d
 2727              	.LVL300:
 2728 0908 6DA3     		adr	r3, .L233
 2729 090a D3E90023 		ldrd	r2, [r3]
 2730 090e FFF7FEFF 		bl	__aeabi_dmul
 2731              	.LVL301:
 2732 0912 8046     		mov	r8, r0
 2733 0914 8946     		mov	r9, r1
 2734 0916 734E     		ldr	r6, .L233+36
 2735 0918 3068     		ldr	r0, [r6]	@ float
 2736 091a FFF7FEFF 		bl	__aeabi_f2d
 2737              	.LVL302:
 2738 091e 4246     		mov	r2, r8
 2739 0920 4B46     		mov	r3, r9
 2740 0922 FFF7FEFF 		bl	__aeabi_dadd
 2741              	.LVL303:
 2742 0926 FFF7FEFF 		bl	__aeabi_d2f
 2743              	.LVL304:
 2744 092a 3060     		str	r0, [r6]	@ float
 2745              	.L124:
 459:main.c        ****             Ganancia=GananciaR*(Setpoint/200);
 2746              		.loc 1 459 0
 2747 092c 0021     		movs	r1, #0
 2748 092e 2046     		mov	r0, r4
 2749 0930 FFF7FEFF 		bl	__aeabi_fcmplt
 2750              	.LVL305:
 2751 0934 68B1     		cbz	r0, .L147
 460:main.c        ****             //flag_ajuste=0;
 2752              		.loc 1 460 0
 2753 0936 6C49     		ldr	r1, .L233+40
 2754 0938 2846     		mov	r0, r5
 2755 093a FFF7FEFF 		bl	__aeabi_fdiv
 2756              	.LVL306:
 2757 093e 0646     		mov	r6, r0
 2758 0940 6A4B     		ldr	r3, .L233+44
 2759 0942 1878     		ldrb	r0, [r3]	@ zero_extendqisi2
 2760 0944 FFF7FEFF 		bl	__aeabi_i2f
 2761              	.LVL307:
 2762 0948 3146     		mov	r1, r6
 2763 094a FFF7FEFF 		bl	__aeabi_fmul
 2764              	.LVL308:
 2765 094e 654B     		ldr	r3, .L233+36
ARM GAS  C:\Users\USUARIO\AppData\Local\Temp\ccr2Jkwh.s 			page 73


 2766 0950 1860     		str	r0, [r3]	@ float
 2767              	.L147:
 465:main.c        ****             Ganancia=0.1;
 2768              		.loc 1 465 0
 2769 0952 644B     		ldr	r3, .L233+36
 2770 0954 1868     		ldr	r0, [r3]	@ float
 2771 0956 FFF7FEFF 		bl	__aeabi_f2d
 2772              	.LVL309:
 2773 095a 59A3     		adr	r3, .L233
 2774 095c D3E90023 		ldrd	r2, [r3]
 2775 0960 FFF7FEFF 		bl	__aeabi_dcmplt
 2776              	.LVL310:
 2777 0964 10B1     		cbz	r0, .L149
 466:main.c        ****          }
 2778              		.loc 1 466 0
 2779 0966 624A     		ldr	r2, .L233+48
 2780 0968 5E4B     		ldr	r3, .L233+36
 2781 096a 1A60     		str	r2, [r3]	@ float
 2782              	.L149:
 469:main.c        ****             error=0.0;
 2783              		.loc 1 469 0
 2784 096c 0021     		movs	r1, #0
 2785 096e 2046     		mov	r0, r4
 2786 0970 FFF7FEFF 		bl	__aeabi_fcmplt
 2787              	.LVL311:
 2788 0974 10B1     		cbz	r0, .L151
 470:main.c        ****          
 2789              		.loc 1 470 0
 2790 0976 0022     		movs	r2, #0
 2791 0978 5E4B     		ldr	r3, .L233+52
 2792 097a 1A60     		str	r2, [r3]	@ float
 2793              	.L151:
 473:main.c        ****                
 2794              		.loc 1 473 0
 2795 097c 5D4B     		ldr	r3, .L233+52
 2796 097e 1E68     		ldr	r6, [r3]	@ float
 2797 0980 584B     		ldr	r3, .L233+36
 2798 0982 1968     		ldr	r1, [r3]	@ float
 2799 0984 3046     		mov	r0, r6
 2800 0986 FFF7FEFF 		bl	__aeabi_fmul
 2801              	.LVL312:
 2802 098a 0446     		mov	r4, r0
 2803              	.LVL313:
 475:main.c        ****             tmp=Setpoint;
 2804              		.loc 1 475 0
 2805 098c 0146     		mov	r1, r0
 2806 098e 2846     		mov	r0, r5
 2807              	.LVL314:
 2808 0990 FFF7FEFF 		bl	__aeabi_fcmplt
 2809              	.LVL315:
 2810 0994 00B1     		cbz	r0, .L153
 476:main.c        ****                      
 2811              		.loc 1 476 0
 2812 0996 2C46     		mov	r4, r5
 2813              	.LVL316:
 2814              	.L153:
 478:main.c        ****             tmp=0.0;
ARM GAS  C:\Users\USUARIO\AppData\Local\Temp\ccr2Jkwh.s 			page 74


 2815              		.loc 1 478 0
 2816 0998 0021     		movs	r1, #0
 2817 099a 2046     		mov	r0, r4
 2818 099c FFF7FEFF 		bl	__aeabi_fcmplt
 2819              	.LVL317:
 2820 09a0 00B1     		cbz	r0, .L154
 479:main.c        ****       
 2821              		.loc 1 479 0
 2822 09a2 0024     		movs	r4, #0
 2823              	.LVL318:
 2824              	.L154:
 481:main.c        ****          if(error<desvio+0.5 && error>0){
 2825              		.loc 1 481 0
 2826 09a4 2946     		mov	r1, r5
 2827 09a6 2046     		mov	r0, r4
 2828 09a8 FFF7FEFF 		bl	__aeabi_fdiv
 2829              	.LVL319:
 2830 09ac 0446     		mov	r4, r0
 2831              	.LVL320:
 2832 09ae 524B     		ldr	r3, .L233+56
 2833 09b0 1878     		ldrb	r0, [r3]	@ zero_extendqisi2
 2834 09b2 FFF7FEFF 		bl	__aeabi_i2f
 2835              	.LVL321:
 2836 09b6 2146     		mov	r1, r4
 2837 09b8 FFF7FEFF 		bl	__aeabi_fmul
 2838              	.LVL322:
 2839 09bc 0446     		mov	r4, r0
 2840 09be 4F4B     		ldr	r3, .L233+60
 2841 09c0 1860     		str	r0, [r3]	@ float
 482:main.c        ****             if(error<=desvio+0.1 && error>0){   
 2842              		.loc 1 482 0
 2843 09c2 4FF07E51 		mov	r1, #1065353216
 2844 09c6 3046     		mov	r0, r6
 2845 09c8 FFF7FEFF 		bl	__aeabi_fcmplt
 2846              	.LVL323:
 2847 09cc 0028     		cmp	r0, #0
 2848 09ce 57D0     		beq	.L105
 482:main.c        ****             if(error<=desvio+0.1 && error>0){   
 2849              		.loc 1 482 0 is_stmt 0 discriminator 1
 2850 09d0 0021     		movs	r1, #0
 2851 09d2 3046     		mov	r0, r6
 2852 09d4 FFF7FEFF 		bl	__aeabi_fcmpgt
 2853              	.LVL324:
 2854 09d8 0028     		cmp	r0, #0
 2855 09da 51D0     		beq	.L105
 483:main.c        ****                 if(flag_ajuste==0){
 2856              		.loc 1 483 0 is_stmt 1
 2857 09dc 3046     		mov	r0, r6
 2858 09de FFF7FEFF 		bl	__aeabi_f2d
 2859              	.LVL325:
 2860 09e2 8046     		mov	r8, r0
 2861 09e4 8946     		mov	r9, r1
 2862 09e6 38A3     		adr	r3, .L233+8
 2863 09e8 D3E90023 		ldrd	r2, [r3]
 2864 09ec FFF7FEFF 		bl	__aeabi_dcmple
 2865              	.LVL326:
 2866 09f0 80B1     		cbz	r0, .L157
ARM GAS  C:\Users\USUARIO\AppData\Local\Temp\ccr2Jkwh.s 			page 75


 483:main.c        ****                 if(flag_ajuste==0){
 2867              		.loc 1 483 0 is_stmt 0 discriminator 1
 2868 09f2 0021     		movs	r1, #0
 2869 09f4 3046     		mov	r0, r6
 2870 09f6 FFF7FEFF 		bl	__aeabi_fcmpgt
 2871              	.LVL327:
 2872 09fa 58B1     		cbz	r0, .L157
 484:main.c        ****                     TpulsoMax=Tpulso;
 2873              		.loc 1 484 0 is_stmt 1
 2874 09fc 404B     		ldr	r3, .L233+64
 2875 09fe B3F90030 		ldrsh	r3, [r3]
 2876 0a02 3BB9     		cbnz	r3, .L157
 485:main.c        ****                     flag_ajuste=1;  
 2877              		.loc 1 485 0
 2878 0a04 3F4B     		ldr	r3, .L233+68
 2879 0a06 1C60     		str	r4, [r3]	@ float
 486:main.c        ****                     Ajusto=5;
 2880              		.loc 1 486 0
 2881 0a08 0122     		movs	r2, #1
 2882 0a0a 3D4B     		ldr	r3, .L233+64
 2883 0a0c 1A80     		strh	r2, [r3]	@ movhi
 487:main.c        ****                 }
 2884              		.loc 1 487 0
 2885 0a0e 0522     		movs	r2, #5
 2886 0a10 3D4B     		ldr	r3, .L233+72
 2887 0a12 1A70     		strb	r2, [r3]
 2888              	.L157:
 491:main.c        ****                 if(flag_ajuste2==0){
 2889              		.loc 1 491 0
 2890 0a14 2EA3     		adr	r3, .L233+16
 2891 0a16 D3E90023 		ldrd	r2, [r3]
 2892 0a1a 4046     		mov	r0, r8
 2893 0a1c 4946     		mov	r1, r9
 2894 0a1e FFF7FEFF 		bl	__aeabi_dcmple
 2895              	.LVL328:
 2896 0a22 80B1     		cbz	r0, .L160
 491:main.c        ****                 if(flag_ajuste2==0){
 2897              		.loc 1 491 0 is_stmt 0 discriminator 1
 2898 0a24 0021     		movs	r1, #0
 2899 0a26 3046     		mov	r0, r6
 2900 0a28 FFF7FEFF 		bl	__aeabi_fcmpgt
 2901              	.LVL329:
 2902 0a2c 58B1     		cbz	r0, .L160
 492:main.c        ****                     Tpulsomin=Tpulso;
 2903              		.loc 1 492 0 is_stmt 1
 2904 0a2e 374B     		ldr	r3, .L233+76
 2905 0a30 B3F90030 		ldrsh	r3, [r3]
 2906 0a34 3BB9     		cbnz	r3, .L160
 493:main.c        ****                     flag_ajuste2=1;           
 2907              		.loc 1 493 0
 2908 0a36 364B     		ldr	r3, .L233+80
 2909 0a38 1C60     		str	r4, [r3]	@ float
 494:main.c        ****                     Ajusto=5;
 2910              		.loc 1 494 0
 2911 0a3a 0122     		movs	r2, #1
 2912 0a3c 334B     		ldr	r3, .L233+76
 2913 0a3e 1A80     		strh	r2, [r3]	@ movhi
ARM GAS  C:\Users\USUARIO\AppData\Local\Temp\ccr2Jkwh.s 			page 76


 495:main.c        ****                 }
 2914              		.loc 1 495 0
 2915 0a40 0522     		movs	r2, #5
 2916 0a42 314B     		ldr	r3, .L233+72
 2917 0a44 1A70     		strb	r2, [r3]
 2918              	.L160:
 499:main.c        ****                 if(Tpulso<Tpulsomin)
 2919              		.loc 1 499 0
 2920 0a46 314B     		ldr	r3, .L233+76
 2921 0a48 B3F90030 		ldrsh	r3, [r3]
 2922 0a4c 012B     		cmp	r3, #1
 2923 0a4e 08D1     		bne	.L163
 500:main.c        ****                     Tpulso=Tpulsomin;
 2924              		.loc 1 500 0
 2925 0a50 2F4B     		ldr	r3, .L233+80
 2926 0a52 1D68     		ldr	r5, [r3]	@ float
 2927 0a54 2946     		mov	r1, r5
 2928 0a56 2046     		mov	r0, r4
 2929 0a58 FFF7FEFF 		bl	__aeabi_fcmplt
 2930              	.LVL330:
 2931 0a5c 08B1     		cbz	r0, .L163
 501:main.c        ****             }
 2932              		.loc 1 501 0
 2933 0a5e 274B     		ldr	r3, .L233+60
 2934 0a60 1D60     		str	r5, [r3]	@ float
 2935              	.L163:
 503:main.c        ****                 if(Tpulso>TpulsoMax)
 2936              		.loc 1 503 0
 2937 0a62 274B     		ldr	r3, .L233+64
 2938 0a64 B3F90030 		ldrsh	r3, [r3]
 2939 0a68 012B     		cmp	r3, #1
 2940 0a6a 09D1     		bne	.L105
 504:main.c        ****                     Tpulso=TpulsoMax;
 2941              		.loc 1 504 0
 2942 0a6c 254B     		ldr	r3, .L233+68
 2943 0a6e 1C68     		ldr	r4, [r3]	@ float
 2944 0a70 2146     		mov	r1, r4
 2945 0a72 224B     		ldr	r3, .L233+60
 2946 0a74 1868     		ldr	r0, [r3]	@ float
 2947 0a76 FFF7FEFF 		bl	__aeabi_fcmpgt
 2948              	.LVL331:
 2949 0a7a 08B1     		cbz	r0, .L105
 505:main.c        ****             }
 2950              		.loc 1 505 0
 2951 0a7c 1F4B     		ldr	r3, .L233+60
 2952 0a7e 1C60     		str	r4, [r3]	@ float
 2953              	.L105:
 510:main.c        ****    Tc=(Tciclo/0.002);
 2954              		.loc 1 510 0
 2955 0a80 1E4B     		ldr	r3, .L233+60
 2956 0a82 1868     		ldr	r0, [r3]	@ float
 2957 0a84 FFF7FEFF 		bl	__aeabi_f2d
 2958              	.LVL332:
 2959 0a88 13A3     		adr	r3, .L233+24
 2960 0a8a D3E90023 		ldrd	r2, [r3]
 2961 0a8e FFF7FEFF 		bl	__aeabi_ddiv
 2962              	.LVL333:
ARM GAS  C:\Users\USUARIO\AppData\Local\Temp\ccr2Jkwh.s 			page 77


 2963 0a92 FFF7FEFF 		bl	__aeabi_d2uiz
 2964              	.LVL334:
 2965 0a96 1F4B     		ldr	r3, .L233+84
 2966 0a98 1880     		strh	r0, [r3]	@ movhi
 511:main.c        ****    Control=1;     
 2967              		.loc 1 511 0
 2968 0a9a 174B     		ldr	r3, .L233+56
 2969 0a9c 1878     		ldrb	r0, [r3]	@ zero_extendqisi2
 2970 0a9e FFF7FEFF 		bl	__aeabi_i2d
 2971              	.LVL335:
 2972 0aa2 0DA3     		adr	r3, .L233+24
 2973 0aa4 D3E90023 		ldrd	r2, [r3]
 2974 0aa8 FFF7FEFF 		bl	__aeabi_ddiv
 2975              	.LVL336:
 2976 0aac FFF7FEFF 		bl	__aeabi_d2uiz
 2977              	.LVL337:
 2978 0ab0 194B     		ldr	r3, .L233+88
 2979 0ab2 1880     		strh	r0, [r3]	@ movhi
 512:main.c        **** //-------------------------------------------------------------------------------------------------
 2980              		.loc 1 512 0
 2981 0ab4 0122     		movs	r2, #1
 2982 0ab6 194B     		ldr	r3, .L233+92
 2983 0ab8 1A80     		strh	r2, [r3]	@ movhi
 2984 0aba BDE8F883 		pop	{r3, r4, r5, r6, r7, r8, r9, pc}
 2985              	.L234:
 2986 0abe 00BF     		.align	3
 2987              	.L233:
 2988 0ac0 9A999999 		.word	-1717986918
 2989 0ac4 9999B93F 		.word	1069128089
 2990 0ac8 33333333 		.word	858993459
 2991 0acc 3333E33F 		.word	1071854387
 2992 0ad0 98999999 		.word	-1717986920
 2993 0ad4 9999B93F 		.word	1069128089
 2994 0ad8 FCA9F1D2 		.word	-755914244
 2995 0adc 4D62603F 		.word	1063281229
 2996 0ae0 00000000 		.word	Integral
 2997 0ae4 00000000 		.word	Ganancia
 2998 0ae8 00004843 		.word	1128792064
 2999 0aec 00000000 		.word	GananciaR
 3000 0af0 CDCCCC3D 		.word	1036831949
 3001 0af4 00000000 		.word	error
 3002 0af8 00000000 		.word	Tciclo
 3003 0afc 00000000 		.word	Tpulso
 3004 0b00 00000000 		.word	flag_ajuste
 3005 0b04 00000000 		.word	TpulsoMax
 3006 0b08 00000000 		.word	Ajusto
 3007 0b0c 00000000 		.word	flag_ajuste2
 3008 0b10 00000000 		.word	Tpulsomin
 3009 0b14 00000000 		.word	Tp
 3010 0b18 00000000 		.word	Tc
 3011 0b1c 00000000 		.word	Control
 3012              		.cfi_endproc
 3013              	.LFE67:
 3014              		.size	Controla, .-Controla
 3015              		.section	.text.CuentaTiempo,"ax",%progbits
 3016              		.align	2
 3017              		.global	CuentaTiempo
ARM GAS  C:\Users\USUARIO\AppData\Local\Temp\ccr2Jkwh.s 			page 78


 3018              		.thumb
 3019              		.thumb_func
 3020              		.type	CuentaTiempo, %function
 3021              	CuentaTiempo:
 3022              	.LFB68:
 517:main.c        ****       if(tinicio>=60){
 3023              		.loc 1 517 0
 3024              		.cfi_startproc
 3025              		@ args = 0, pretend = 0, frame = 0
 3026              		@ frame_needed = 0, uses_anonymous_args = 0
 518:main.c        ****          tinicio=0;
 3027              		.loc 1 518 0
 3028 0000 124B     		ldr	r3, .L239
 3029 0002 1B88     		ldrh	r3, [r3]
 3030 0004 3B2B     		cmp	r3, #59
 3031 0006 1FD9     		bls	.L238
 517:main.c        ****       if(tinicio>=60){
 3032              		.loc 1 517 0
 3033 0008 10B5     		push	{r4, lr}
 3034              		.cfi_def_cfa_offset 8
 3035              		.cfi_offset 4, -8
 3036              		.cfi_offset 14, -4
 519:main.c        ****          mEst+=1.0;
 3037              		.loc 1 519 0
 3038 000a 0022     		movs	r2, #0
 3039 000c 0F4B     		ldr	r3, .L239
 3040 000e 1A80     		strh	r2, [r3]	@ movhi
 520:main.c        ****          if(mEst>59){
 3041              		.loc 1 520 0
 3042 0010 0F4C     		ldr	r4, .L239+4
 3043 0012 2078     		ldrb	r0, [r4]	@ zero_extendqisi2
 3044 0014 FFF7FEFF 		bl	__aeabi_i2d
 3045              	.LVL338:
 3046 0018 0022     		movs	r2, #0
 3047 001a 0E4B     		ldr	r3, .L239+8
 3048 001c FFF7FEFF 		bl	__aeabi_dadd
 3049              	.LVL339:
 3050 0020 FFF7FEFF 		bl	__aeabi_d2uiz
 3051              	.LVL340:
 3052 0024 C0B2     		uxtb	r0, r0
 3053 0026 2070     		strb	r0, [r4]
 521:main.c        ****             mEst=0;
 3054              		.loc 1 521 0
 3055 0028 3B28     		cmp	r0, #59
 3056 002a 0CD9     		bls	.L235
 522:main.c        ****             hEst+=1.0;
 3057              		.loc 1 522 0
 3058 002c 0022     		movs	r2, #0
 3059 002e 2270     		strb	r2, [r4]
 523:main.c        ****          }
 3060              		.loc 1 523 0
 3061 0030 094C     		ldr	r4, .L239+12
 3062 0032 2078     		ldrb	r0, [r4]	@ zero_extendqisi2
 3063 0034 FFF7FEFF 		bl	__aeabi_i2d
 3064              	.LVL341:
 3065 0038 0022     		movs	r2, #0
 3066 003a 064B     		ldr	r3, .L239+8
ARM GAS  C:\Users\USUARIO\AppData\Local\Temp\ccr2Jkwh.s 			page 79


 3067 003c FFF7FEFF 		bl	__aeabi_dadd
 3068              	.LVL342:
 3069 0040 FFF7FEFF 		bl	__aeabi_d2uiz
 3070              	.LVL343:
 3071 0044 2070     		strb	r0, [r4]
 3072              	.L235:
 3073 0046 10BD     		pop	{r4, pc}
 3074              	.L238:
 3075              		.cfi_def_cfa_offset 0
 3076              		.cfi_restore 4
 3077              		.cfi_restore 14
 3078 0048 7047     		bx	lr
 3079              	.L240:
 3080 004a 00BF     		.align	2
 3081              	.L239:
 3082 004c 00000000 		.word	tinicio
 3083 0050 00000000 		.word	mEst
 3084 0054 0000F03F 		.word	1072693248
 3085 0058 00000000 		.word	hEst
 3086              		.cfi_endproc
 3087              	.LFE68:
 3088              		.size	CuentaTiempo, .-CuentaTiempo
 3089              		.section	.text.iniciaConteo,"ax",%progbits
 3090              		.align	2
 3091              		.global	iniciaConteo
 3092              		.thumb
 3093              		.thumb_func
 3094              		.type	iniciaConteo, %function
 3095              	iniciaConteo:
 3096              	.LFB69:
 528:main.c        ****    if(flagRampa && Pendiente!=0){
 3097              		.loc 1 528 0
 3098              		.cfi_startproc
 3099              		@ args = 0, pretend = 0, frame = 0
 3100              		@ frame_needed = 0, uses_anonymous_args = 0
 3101 0000 10B5     		push	{r4, lr}
 3102              		.cfi_def_cfa_offset 8
 3103              		.cfi_offset 4, -8
 3104              		.cfi_offset 14, -4
 529:main.c        ****       tiempo_esterilizacion=1;
 3105              		.loc 1 529 0
 3106 0002 1B4B     		ldr	r3, .L253
 3107 0004 B3F90040 		ldrsh	r4, [r3]
 3108 0008 4CB1     		cbz	r4, .L242
 529:main.c        ****       tiempo_esterilizacion=1;
 3109              		.loc 1 529 0 is_stmt 0 discriminator 1
 3110 000a 0021     		movs	r1, #0
 3111 000c 194B     		ldr	r3, .L253+4
 3112 000e 1868     		ldr	r0, [r3]	@ float
 3113 0010 FFF7FEFF 		bl	__aeabi_fcmpeq
 3114              	.LVL344:
 3115 0014 18B9     		cbnz	r0, .L242
 530:main.c        ****    }else if(flagRampa && Pendiente==0){
 3116              		.loc 1 530 0 is_stmt 1
 3117 0016 0122     		movs	r2, #1
 3118 0018 174B     		ldr	r3, .L253+8
 3119 001a 1A70     		strb	r2, [r3]
ARM GAS  C:\Users\USUARIO\AppData\Local\Temp\ccr2Jkwh.s 			page 80


 3120 001c 10BD     		pop	{r4, pc}
 3121              	.L242:
 531:main.c        ****       if(flagTemperatura)
 3122              		.loc 1 531 0
 3123 001e 8CB1     		cbz	r4, .L245
 531:main.c        ****       if(flagTemperatura)
 3124              		.loc 1 531 0 is_stmt 0 discriminator 1
 3125 0020 0021     		movs	r1, #0
 3126 0022 144B     		ldr	r3, .L253+4
 3127 0024 1868     		ldr	r0, [r3]	@ float
 3128 0026 FFF7FEFF 		bl	__aeabi_fcmpeq
 3129              	.LVL345:
 3130 002a 58B1     		cbz	r0, .L245
 532:main.c        ****          tiempo_esterilizacion=1;
 3131              		.loc 1 532 0 is_stmt 1
 3132 002c 134B     		ldr	r3, .L253+12
 3133 002e B3F90030 		ldrsh	r3, [r3]
 3134 0032 1BB1     		cbz	r3, .L247
 533:main.c        ****       else
 3135              		.loc 1 533 0
 3136 0034 0122     		movs	r2, #1
 3137 0036 104B     		ldr	r3, .L253+8
 3138 0038 1A70     		strb	r2, [r3]
 3139 003a 10BD     		pop	{r4, pc}
 3140              	.L247:
 535:main.c        ****    }else{
 3141              		.loc 1 535 0
 3142 003c 0022     		movs	r2, #0
 3143 003e 0E4B     		ldr	r3, .L253+8
 3144 0040 1A70     		strb	r2, [r3]
 3145 0042 10BD     		pop	{r4, pc}
 3146              	.L245:
 537:main.c        ****          tiempo_esterilizacion=0;
 3147              		.loc 1 537 0
 3148 0044 0E4B     		ldr	r3, .L253+16
 3149 0046 B3F90030 		ldrsh	r3, [r3]
 3150 004a 1BB9     		cbnz	r3, .L248
 538:main.c        ****        }else if(flagControlT){
 3151              		.loc 1 538 0
 3152 004c 0022     		movs	r2, #0
 3153 004e 0A4B     		ldr	r3, .L253+8
 3154 0050 1A70     		strb	r2, [r3]
 3155 0052 10BD     		pop	{r4, pc}
 3156              	.L248:
 539:main.c        ****           if(flagTemperatura)
 3157              		.loc 1 539 0
 3158 0054 53B1     		cbz	r3, .L241
 540:main.c        ****              tiempo_esterilizacion=1;
 3159              		.loc 1 540 0
 3160 0056 094B     		ldr	r3, .L253+12
 3161 0058 B3F90030 		ldrsh	r3, [r3]
 3162 005c 1BB1     		cbz	r3, .L249
 541:main.c        ****           else
 3163              		.loc 1 541 0
 3164 005e 0122     		movs	r2, #1
 3165 0060 054B     		ldr	r3, .L253+8
 3166 0062 1A70     		strb	r2, [r3]
ARM GAS  C:\Users\USUARIO\AppData\Local\Temp\ccr2Jkwh.s 			page 81


 3167 0064 10BD     		pop	{r4, pc}
 3168              	.L249:
 543:main.c        ****        }
 3169              		.loc 1 543 0
 3170 0066 0022     		movs	r2, #0
 3171 0068 034B     		ldr	r3, .L253+8
 3172 006a 1A70     		strb	r2, [r3]
 3173              	.L241:
 3174 006c 10BD     		pop	{r4, pc}
 3175              	.L254:
 3176 006e 00BF     		.align	2
 3177              	.L253:
 3178 0070 00000000 		.word	flagRampa
 3179 0074 00000000 		.word	Pendiente
 3180 0078 00000000 		.word	tiempo_esterilizacion
 3181 007c 00000000 		.word	flagTemperatura
 3182 0080 00000000 		.word	flagControlT
 3183              		.cfi_endproc
 3184              	.LFE69:
 3185              		.size	iniciaConteo, .-iniciaConteo
 3186              		.section	.text.escribeDisplay1,"ax",%progbits
 3187              		.align	2
 3188              		.global	escribeDisplay1
 3189              		.thumb
 3190              		.thumb_func
 3191              		.type	escribeDisplay1, %function
 3192              	escribeDisplay1:
 3193              	.LFB70:
 548:main.c        ****     UART_1_PutString(Buffer);
 3194              		.loc 1 548 0
 3195              		.cfi_startproc
 3196              		@ args = 0, pretend = 0, frame = 0
 3197              		@ frame_needed = 0, uses_anonymous_args = 0
 3198              	.LVL346:
 3199 0000 08B5     		push	{r3, lr}
 3200              		.cfi_def_cfa_offset 8
 3201              		.cfi_offset 3, -8
 3202              		.cfi_offset 14, -4
 549:main.c        ****     CyDelayUs(10);
 3203              		.loc 1 549 0
 3204 0002 FFF7FEFF 		bl	UART_1_PutString
 3205              	.LVL347:
 550:main.c        ****     UART_1_PutChar(0xFF);
 3206              		.loc 1 550 0
 3207 0006 0A20     		movs	r0, #10
 3208 0008 FFF7FEFF 		bl	CyDelayUs
 3209              	.LVL348:
 551:main.c        ****     CyDelayUs(10);
 3210              		.loc 1 551 0
 3211 000c FF20     		movs	r0, #255
 3212 000e FFF7FEFF 		bl	UART_1_PutChar
 3213              	.LVL349:
 552:main.c        ****     UART_1_PutChar(0xFF);
 3214              		.loc 1 552 0
 3215 0012 0A20     		movs	r0, #10
 3216 0014 FFF7FEFF 		bl	CyDelayUs
 3217              	.LVL350:
ARM GAS  C:\Users\USUARIO\AppData\Local\Temp\ccr2Jkwh.s 			page 82


 553:main.c        ****     CyDelayUs(10);
 3218              		.loc 1 553 0
 3219 0018 FF20     		movs	r0, #255
 3220 001a FFF7FEFF 		bl	UART_1_PutChar
 3221              	.LVL351:
 554:main.c        ****     UART_1_PutChar(0xFF);
 3222              		.loc 1 554 0
 3223 001e 0A20     		movs	r0, #10
 3224 0020 FFF7FEFF 		bl	CyDelayUs
 3225              	.LVL352:
 555:main.c        ****     CyDelayUs(10);
 3226              		.loc 1 555 0
 3227 0024 FF20     		movs	r0, #255
 3228 0026 FFF7FEFF 		bl	UART_1_PutChar
 3229              	.LVL353:
 556:main.c        **** }
 3230              		.loc 1 556 0
 3231 002a 0A20     		movs	r0, #10
 3232 002c FFF7FEFF 		bl	CyDelayUs
 3233              	.LVL354:
 3234 0030 08BD     		pop	{r3, pc}
 3235              		.cfi_endproc
 3236              	.LFE70:
 3237              		.size	escribeDisplay1, .-escribeDisplay1
 3238 0032 00BF     		.section	.text.LeeDisplay,"ax",%progbits
 3239              		.align	2
 3240              		.global	LeeDisplay
 3241              		.thumb
 3242              		.thumb_func
 3243              		.type	LeeDisplay, %function
 3244              	LeeDisplay:
 3245              	.LFB71:
 559:main.c        ****     if(Dato_Exitoso==5){
 3246              		.loc 1 559 0
 3247              		.cfi_startproc
 3248              		@ args = 0, pretend = 0, frame = 0
 3249              		@ frame_needed = 0, uses_anonymous_args = 0
 3250              		@ link register save eliminated.
 560:main.c        ****          Rx_Buffer[0]=Rx_Buffer2[0];
 3251              		.loc 1 560 0
 3252 0000 A04B     		ldr	r3, .L295
 3253 0002 1B78     		ldrb	r3, [r3]	@ zero_extendqisi2
 3254 0004 052B     		cmp	r3, #5
 3255 0006 40F0E280 		bne	.L258
 561:main.c        ****          Rx_Buffer[1]=Rx_Buffer2[1];
 3256              		.loc 1 561 0
 3257 000a 9F4A     		ldr	r2, .L295+4
 3258 000c 1178     		ldrb	r1, [r2]	@ zero_extendqisi2
 3259 000e 9F4B     		ldr	r3, .L295+8
 3260 0010 1970     		strb	r1, [r3]
 562:main.c        ****          Rx_Buffer[2]=Rx_Buffer2[2];
 3261              		.loc 1 562 0
 3262 0012 5178     		ldrb	r1, [r2, #1]	@ zero_extendqisi2
 3263 0014 5970     		strb	r1, [r3, #1]
 563:main.c        ****          Rx_Buffer[3]=Rx_Buffer2[3];
 3264              		.loc 1 563 0
 3265 0016 9178     		ldrb	r1, [r2, #2]	@ zero_extendqisi2
ARM GAS  C:\Users\USUARIO\AppData\Local\Temp\ccr2Jkwh.s 			page 83


 3266 0018 9970     		strb	r1, [r3, #2]
 564:main.c        ****          Rx_Buffer[4]=Rx_Buffer2[4];
 3267              		.loc 1 564 0
 3268 001a D178     		ldrb	r1, [r2, #3]	@ zero_extendqisi2
 3269 001c D970     		strb	r1, [r3, #3]
 565:main.c        ****          Rx_Buffer[5]=Rx_Buffer2[5];
 3270              		.loc 1 565 0
 3271 001e 1079     		ldrb	r0, [r2, #4]	@ zero_extendqisi2
 3272 0020 1871     		strb	r0, [r3, #4]
 566:main.c        ****          Rx_Buffer[6]=Rx_Buffer2[6];
 3273              		.loc 1 566 0
 3274 0022 5079     		ldrb	r0, [r2, #5]	@ zero_extendqisi2
 3275 0024 5871     		strb	r0, [r3, #5]
 567:main.c        ****          Rx_Buffer[7]=Rx_Buffer2[7];
 3276              		.loc 1 567 0
 3277 0026 9079     		ldrb	r0, [r2, #6]	@ zero_extendqisi2
 3278 0028 9871     		strb	r0, [r3, #6]
 568:main.c        ****          Rx_Buffer[8]=Rx_Buffer2[8];
 3279              		.loc 1 568 0
 3280 002a D079     		ldrb	r0, [r2, #7]	@ zero_extendqisi2
 3281 002c D871     		strb	r0, [r3, #7]
 569:main.c        ****          Rx_Buffer[9]=Rx_Buffer2[9];
 3282              		.loc 1 569 0
 3283 002e 107A     		ldrb	r0, [r2, #8]	@ zero_extendqisi2
 3284 0030 1872     		strb	r0, [r3, #8]
 570:main.c        ****          
 3285              		.loc 1 570 0
 3286 0032 527A     		ldrb	r2, [r2, #9]	@ zero_extendqisi2
 3287 0034 5A72     		strb	r2, [r3, #9]
 572:main.c        ****          Menu=0;
 3288              		.loc 1 572 0
 3289 0036 0129     		cmp	r1, #1
 3290 0038 0AD1     		bne	.L259
 573:main.c        ****          if(MenuAntt!=Menu)
 3291              		.loc 1 573 0
 3292 003a 0022     		movs	r2, #0
 3293 003c 944B     		ldr	r3, .L295+12
 3294 003e 1A70     		strb	r2, [r3]
 574:main.c        ****             MenuAntt=Menu;
 3295              		.loc 1 574 0
 3296 0040 944B     		ldr	r3, .L295+16
 3297 0042 1B78     		ldrb	r3, [r3]	@ zero_extendqisi2
 3298 0044 002B     		cmp	r3, #0
 3299 0046 00F0CD80 		beq	.L260
 575:main.c        ****       }else if(Rx_Buffer[3]==0x02){//02 es Menu Principal con PantallaPriincipal=0, y con PantallaP
 3300              		.loc 1 575 0
 3301 004a 924B     		ldr	r3, .L295+16
 3302 004c 1A70     		strb	r2, [r3]
 3303 004e C9E0     		b	.L260
 3304              	.L259:
 576:main.c        ****          Menu=1;
 3305              		.loc 1 576 0
 3306 0050 0229     		cmp	r1, #2
 3307 0052 0AD1     		bne	.L261
 577:main.c        ****          if(MenuAntt!=Menu)
 3308              		.loc 1 577 0
 3309 0054 0122     		movs	r2, #1
ARM GAS  C:\Users\USUARIO\AppData\Local\Temp\ccr2Jkwh.s 			page 84


 3310 0056 8E4B     		ldr	r3, .L295+12
 3311 0058 1A70     		strb	r2, [r3]
 578:main.c        ****             MenuAntt=Menu;
 3312              		.loc 1 578 0
 3313 005a 8E4B     		ldr	r3, .L295+16
 3314 005c 1B78     		ldrb	r3, [r3]	@ zero_extendqisi2
 3315 005e 9342     		cmp	r3, r2
 3316 0060 00F0C080 		beq	.L260
 579:main.c        ****       }else if(Rx_Buffer[3]==0x04){//03 es Tiempo Esterilizacion
 3317              		.loc 1 579 0
 3318 0064 8B4B     		ldr	r3, .L295+16
 3319 0066 1A70     		strb	r2, [r3]
 3320 0068 BCE0     		b	.L260
 3321              	.L261:
 580:main.c        ****          Menu=2;
 3322              		.loc 1 580 0
 3323 006a 0429     		cmp	r1, #4
 3324 006c 0AD1     		bne	.L262
 581:main.c        ****          if(MenuAntt!=Menu)
 3325              		.loc 1 581 0
 3326 006e 0222     		movs	r2, #2
 3327 0070 874B     		ldr	r3, .L295+12
 3328 0072 1A70     		strb	r2, [r3]
 582:main.c        ****             MenuAntt=Menu;
 3329              		.loc 1 582 0
 3330 0074 874B     		ldr	r3, .L295+16
 3331 0076 1B78     		ldrb	r3, [r3]	@ zero_extendqisi2
 3332 0078 9342     		cmp	r3, r2
 3333 007a 00F0B380 		beq	.L260
 583:main.c        ****       }else if(Rx_Buffer[3]==0x05){//05 es Temperatura
 3334              		.loc 1 583 0
 3335 007e 854B     		ldr	r3, .L295+16
 3336 0080 1A70     		strb	r2, [r3]
 3337 0082 AFE0     		b	.L260
 3338              	.L262:
 584:main.c        ****          Menu=3;
 3339              		.loc 1 584 0
 3340 0084 0529     		cmp	r1, #5
 3341 0086 0AD1     		bne	.L263
 585:main.c        ****          if(MenuAntt!=Menu)
 3342              		.loc 1 585 0
 3343 0088 0322     		movs	r2, #3
 3344 008a 814B     		ldr	r3, .L295+12
 3345 008c 1A70     		strb	r2, [r3]
 586:main.c        ****             MenuAntt=Menu;
 3346              		.loc 1 586 0
 3347 008e 814B     		ldr	r3, .L295+16
 3348 0090 1B78     		ldrb	r3, [r3]	@ zero_extendqisi2
 3349 0092 9342     		cmp	r3, r2
 3350 0094 00F0A680 		beq	.L260
 587:main.c        ****       }else if(Rx_Buffer[3]==0x06){//06 es Temperatura2
 3351              		.loc 1 587 0
 3352 0098 7E4B     		ldr	r3, .L295+16
 3353 009a 1A70     		strb	r2, [r3]
 3354 009c A2E0     		b	.L260
 3355              	.L263:
 588:main.c        ****          Menu=4;
ARM GAS  C:\Users\USUARIO\AppData\Local\Temp\ccr2Jkwh.s 			page 85


 3356              		.loc 1 588 0
 3357 009e 0629     		cmp	r1, #6
 3358 00a0 0AD1     		bne	.L264
 589:main.c        ****          if(MenuAntt!=Menu)
 3359              		.loc 1 589 0
 3360 00a2 0422     		movs	r2, #4
 3361 00a4 7A4B     		ldr	r3, .L295+12
 3362 00a6 1A70     		strb	r2, [r3]
 590:main.c        ****             MenuAntt=Menu;
 3363              		.loc 1 590 0
 3364 00a8 7A4B     		ldr	r3, .L295+16
 3365 00aa 1B78     		ldrb	r3, [r3]	@ zero_extendqisi2
 3366 00ac 9342     		cmp	r3, r2
 3367 00ae 00F09980 		beq	.L260
 591:main.c        ****       }else if(Rx_Buffer[3]==0x07){//07 es Test de Componentes
 3368              		.loc 1 591 0
 3369 00b2 784B     		ldr	r3, .L295+16
 3370 00b4 1A70     		strb	r2, [r3]
 3371 00b6 95E0     		b	.L260
 3372              	.L264:
 592:main.c        ****          Menu=6;
 3373              		.loc 1 592 0
 3374 00b8 0729     		cmp	r1, #7
 3375 00ba 0AD1     		bne	.L265
 593:main.c        ****          if(MenuAntt!=Menu)
 3376              		.loc 1 593 0
 3377 00bc 0622     		movs	r2, #6
 3378 00be 744B     		ldr	r3, .L295+12
 3379 00c0 1A70     		strb	r2, [r3]
 594:main.c        ****             MenuAntt=Menu;
 3380              		.loc 1 594 0
 3381 00c2 744B     		ldr	r3, .L295+16
 3382 00c4 1B78     		ldrb	r3, [r3]	@ zero_extendqisi2
 3383 00c6 9342     		cmp	r3, r2
 3384 00c8 00F08C80 		beq	.L260
 595:main.c        ****       }else if(Rx_Buffer[3]==0x08){//08 es Fecha y hora
 3385              		.loc 1 595 0
 3386 00cc 714B     		ldr	r3, .L295+16
 3387 00ce 1A70     		strb	r2, [r3]
 3388 00d0 88E0     		b	.L260
 3389              	.L265:
 596:main.c        ****          Menu=7;
 3390              		.loc 1 596 0
 3391 00d2 0829     		cmp	r1, #8
 3392 00d4 09D1     		bne	.L266
 597:main.c        ****          if(MenuAntt!=Menu)
 3393              		.loc 1 597 0
 3394 00d6 0722     		movs	r2, #7
 3395 00d8 6D4B     		ldr	r3, .L295+12
 3396 00da 1A70     		strb	r2, [r3]
 598:main.c        ****             MenuAntt=Menu;
 3397              		.loc 1 598 0
 3398 00dc 6D4B     		ldr	r3, .L295+16
 3399 00de 1B78     		ldrb	r3, [r3]	@ zero_extendqisi2
 3400 00e0 9342     		cmp	r3, r2
 3401 00e2 7FD0     		beq	.L260
 599:main.c        ****       }else if(Rx_Buffer[3]==0x09){//09 es Rampas
ARM GAS  C:\Users\USUARIO\AppData\Local\Temp\ccr2Jkwh.s 			page 86


 3402              		.loc 1 599 0
 3403 00e4 6B4B     		ldr	r3, .L295+16
 3404 00e6 1A70     		strb	r2, [r3]
 3405 00e8 7CE0     		b	.L260
 3406              	.L266:
 600:main.c        ****          Menu=8;
 3407              		.loc 1 600 0
 3408 00ea 0929     		cmp	r1, #9
 3409 00ec 09D1     		bne	.L267
 601:main.c        ****          if(MenuAntt!=Menu)
 3410              		.loc 1 601 0
 3411 00ee 0822     		movs	r2, #8
 3412 00f0 674B     		ldr	r3, .L295+12
 3413 00f2 1A70     		strb	r2, [r3]
 602:main.c        ****             MenuAntt=Menu;
 3414              		.loc 1 602 0
 3415 00f4 674B     		ldr	r3, .L295+16
 3416 00f6 1B78     		ldrb	r3, [r3]	@ zero_extendqisi2
 3417 00f8 9342     		cmp	r3, r2
 3418 00fa 73D0     		beq	.L260
 603:main.c        ****       }else if(Rx_Buffer[3]==0x0a){//0a es Pulsos de Vacio
 3419              		.loc 1 603 0
 3420 00fc 654B     		ldr	r3, .L295+16
 3421 00fe 1A70     		strb	r2, [r3]
 3422 0100 70E0     		b	.L260
 3423              	.L267:
 604:main.c        ****          Menu=9;
 3424              		.loc 1 604 0
 3425 0102 0A29     		cmp	r1, #10
 3426 0104 09D1     		bne	.L268
 605:main.c        ****          if(MenuAntt!=Menu)
 3427              		.loc 1 605 0
 3428 0106 0922     		movs	r2, #9
 3429 0108 614B     		ldr	r3, .L295+12
 3430 010a 1A70     		strb	r2, [r3]
 606:main.c        ****             MenuAntt=Menu;
 3431              		.loc 1 606 0
 3432 010c 614B     		ldr	r3, .L295+16
 3433 010e 1B78     		ldrb	r3, [r3]	@ zero_extendqisi2
 3434 0110 9342     		cmp	r3, r2
 3435 0112 67D0     		beq	.L260
 607:main.c        ****       }else if(Rx_Buffer[3]==0x0f){//0f es Recibe caracteres de contraseña desde display
 3436              		.loc 1 607 0
 3437 0114 5F4B     		ldr	r3, .L295+16
 3438 0116 1A70     		strb	r2, [r3]
 3439 0118 64E0     		b	.L260
 3440              	.L268:
 608:main.c        ****          
 3441              		.loc 1 608 0
 3442 011a 0F29     		cmp	r1, #15
 3443 011c 62D0     		beq	.L260
 610:main.c        ****          Menu=20;
 3444              		.loc 1 610 0
 3445 011e 1A29     		cmp	r1, #26
 3446 0120 09D1     		bne	.L269
 611:main.c        ****          if(MenuAntt!=Menu)
 3447              		.loc 1 611 0
ARM GAS  C:\Users\USUARIO\AppData\Local\Temp\ccr2Jkwh.s 			page 87


 3448 0122 1422     		movs	r2, #20
 3449 0124 5A4B     		ldr	r3, .L295+12
 3450 0126 1A70     		strb	r2, [r3]
 612:main.c        ****             MenuAntt=Menu;
 3451              		.loc 1 612 0
 3452 0128 5A4B     		ldr	r3, .L295+16
 3453 012a 1B78     		ldrb	r3, [r3]	@ zero_extendqisi2
 3454 012c 9342     		cmp	r3, r2
 3455 012e 59D0     		beq	.L260
 613:main.c        ****       }else if(Rx_Buffer[3]==0x1b){//1b es Menu de clave correcta
 3456              		.loc 1 613 0
 3457 0130 584B     		ldr	r3, .L295+16
 3458 0132 1A70     		strb	r2, [r3]
 3459 0134 56E0     		b	.L260
 3460              	.L269:
 614:main.c        ****          Menu=15;
 3461              		.loc 1 614 0
 3462 0136 1B29     		cmp	r1, #27
 3463 0138 09D1     		bne	.L270
 615:main.c        ****          if(MenuAntt!=Menu)
 3464              		.loc 1 615 0
 3465 013a 0F22     		movs	r2, #15
 3466 013c 544B     		ldr	r3, .L295+12
 3467 013e 1A70     		strb	r2, [r3]
 616:main.c        ****             MenuAntt=Menu;
 3468              		.loc 1 616 0
 3469 0140 544B     		ldr	r3, .L295+16
 3470 0142 1B78     		ldrb	r3, [r3]	@ zero_extendqisi2
 3471 0144 9342     		cmp	r3, r2
 3472 0146 4DD0     		beq	.L260
 617:main.c        ****       }else if(Rx_Buffer[3]==0x1c){//1c es Menu de clave incorrecta
 3473              		.loc 1 617 0
 3474 0148 524B     		ldr	r3, .L295+16
 3475 014a 1A70     		strb	r2, [r3]
 3476 014c 4AE0     		b	.L260
 3477              	.L270:
 618:main.c        ****          Menu=16;
 3478              		.loc 1 618 0
 3479 014e 1C29     		cmp	r1, #28
 3480 0150 09D1     		bne	.L271
 619:main.c        ****          if(MenuAntt!=Menu)
 3481              		.loc 1 619 0
 3482 0152 1022     		movs	r2, #16
 3483 0154 4E4B     		ldr	r3, .L295+12
 3484 0156 1A70     		strb	r2, [r3]
 620:main.c        ****             MenuAntt=Menu;
 3485              		.loc 1 620 0
 3486 0158 4E4B     		ldr	r3, .L295+16
 3487 015a 1B78     		ldrb	r3, [r3]	@ zero_extendqisi2
 3488 015c 9342     		cmp	r3, r2
 3489 015e 41D0     		beq	.L260
 621:main.c        ****       }else if(Rx_Buffer[3]==0x1d){//1d es Menu de Eliminado Programa
 3490              		.loc 1 621 0
 3491 0160 4C4B     		ldr	r3, .L295+16
 3492 0162 1A70     		strb	r2, [r3]
 3493 0164 3EE0     		b	.L260
 3494              	.L271:
ARM GAS  C:\Users\USUARIO\AppData\Local\Temp\ccr2Jkwh.s 			page 88


 622:main.c        ****          Menu=17;
 3495              		.loc 1 622 0
 3496 0166 1D29     		cmp	r1, #29
 3497 0168 09D1     		bne	.L272
 623:main.c        ****          if(MenuAntt!=Menu)
 3498              		.loc 1 623 0
 3499 016a 1122     		movs	r2, #17
 3500 016c 484B     		ldr	r3, .L295+12
 3501 016e 1A70     		strb	r2, [r3]
 624:main.c        ****             MenuAntt=Menu;
 3502              		.loc 1 624 0
 3503 0170 484B     		ldr	r3, .L295+16
 3504 0172 1B78     		ldrb	r3, [r3]	@ zero_extendqisi2
 3505 0174 9342     		cmp	r3, r2
 3506 0176 35D0     		beq	.L260
 625:main.c        ****       }else if(Rx_Buffer[3]==0x1e){//1d es Menu de Pregunta
 3507              		.loc 1 625 0
 3508 0178 464B     		ldr	r3, .L295+16
 3509 017a 1A70     		strb	r2, [r3]
 3510 017c 32E0     		b	.L260
 3511              	.L272:
 626:main.c        ****          Menu=18;
 3512              		.loc 1 626 0
 3513 017e 1E29     		cmp	r1, #30
 3514 0180 09D1     		bne	.L273
 627:main.c        ****          if(MenuAntt!=Menu)
 3515              		.loc 1 627 0
 3516 0182 1222     		movs	r2, #18
 3517 0184 424B     		ldr	r3, .L295+12
 3518 0186 1A70     		strb	r2, [r3]
 628:main.c        ****             MenuAntt=Menu;
 3519              		.loc 1 628 0
 3520 0188 424B     		ldr	r3, .L295+16
 3521 018a 1B78     		ldrb	r3, [r3]	@ zero_extendqisi2
 3522 018c 9342     		cmp	r3, r2
 3523 018e 29D0     		beq	.L260
 629:main.c        ****       }else if(Rx_Buffer[3]==0x2c){//2c es Menu de Configuracion de Parametros
 3524              		.loc 1 629 0
 3525 0190 404B     		ldr	r3, .L295+16
 3526 0192 1A70     		strb	r2, [r3]
 3527 0194 26E0     		b	.L260
 3528              	.L273:
 630:main.c        ****          Menu=100;
 3529              		.loc 1 630 0
 3530 0196 2C29     		cmp	r1, #44
 3531 0198 09D1     		bne	.L274
 631:main.c        ****          if(MenuAntt!=Menu)
 3532              		.loc 1 631 0
 3533 019a 6422     		movs	r2, #100
 3534 019c 3C4B     		ldr	r3, .L295+12
 3535 019e 1A70     		strb	r2, [r3]
 632:main.c        ****             MenuAntt=Menu;
 3536              		.loc 1 632 0
 3537 01a0 3C4B     		ldr	r3, .L295+16
 3538 01a2 1B78     		ldrb	r3, [r3]	@ zero_extendqisi2
 3539 01a4 9342     		cmp	r3, r2
 3540 01a6 1DD0     		beq	.L260
ARM GAS  C:\Users\USUARIO\AppData\Local\Temp\ccr2Jkwh.s 			page 89


 633:main.c        ****       }else if(Rx_Buffer[3]==0xcc){//cc es Menu de Bienvenida
 3541              		.loc 1 633 0
 3542 01a8 3A4B     		ldr	r3, .L295+16
 3543 01aa 1A70     		strb	r2, [r3]
 3544 01ac 1AE0     		b	.L260
 3545              	.L274:
 634:main.c        ****         if(controlT==0 && controlR==0)
 3546              		.loc 1 634 0
 3547 01ae CC29     		cmp	r1, #204
 3548 01b0 18D1     		bne	.L260
 635:main.c        ****             Menu=120;
 3549              		.loc 1 635 0
 3550 01b2 394B     		ldr	r3, .L295+20
 3551 01b4 1B78     		ldrb	r3, [r3]	@ zero_extendqisi2
 3552 01b6 33B9     		cbnz	r3, .L275
 635:main.c        ****             Menu=120;
 3553              		.loc 1 635 0 is_stmt 0 discriminator 1
 3554 01b8 384B     		ldr	r3, .L295+24
 3555 01ba 1B78     		ldrb	r3, [r3]	@ zero_extendqisi2
 3556 01bc 1BB9     		cbnz	r3, .L275
 636:main.c        ****         else
 3557              		.loc 1 636 0 is_stmt 1
 3558 01be 7822     		movs	r2, #120
 3559 01c0 334B     		ldr	r3, .L295+12
 3560 01c2 1A70     		strb	r2, [r3]
 3561 01c4 0EE0     		b	.L260
 3562              	.L275:
 638:main.c        ****          //if(MenuAntt!=120)
 3563              		.loc 1 638 0
 3564 01c6 1422     		movs	r2, #20
 3565 01c8 314B     		ldr	r3, .L295+12
 3566 01ca 1A70     		strb	r2, [r3]
 3567 01cc 0AE0     		b	.L260
 3568              	.L258:
 643:main.c        ****             //Rx_Buffer[z]=0;
 3569              		.loc 1 643 0
 3570 01ce 0022     		movs	r2, #0
 3571 01d0 334B     		ldr	r3, .L295+28
 3572 01d2 1A70     		strb	r2, [r3]
 3573 01d4 02E0     		b	.L276
 3574              	.L277:
 643:main.c        ****             //Rx_Buffer[z]=0;
 3575              		.loc 1 643 0 is_stmt 0 discriminator 3
 3576 01d6 0133     		adds	r3, r3, #1
 3577 01d8 314A     		ldr	r2, .L295+28
 3578 01da 1370     		strb	r3, [r2]
 3579              	.L276:
 643:main.c        ****             //Rx_Buffer[z]=0;
 3580              		.loc 1 643 0 discriminator 1
 3581 01dc 304B     		ldr	r3, .L295+28
 3582 01de 1B78     		ldrb	r3, [r3]	@ zero_extendqisi2
 3583 01e0 092B     		cmp	r3, #9
 3584 01e2 F8D9     		bls	.L277
 3585              	.L260:
 649:main.c        ****          Rx_Buffer3[0]=Rx_Buffer4[0];
 3586              		.loc 1 649 0 is_stmt 1
 3587 01e4 2F4B     		ldr	r3, .L295+32
ARM GAS  C:\Users\USUARIO\AppData\Local\Temp\ccr2Jkwh.s 			page 90


 3588 01e6 1B78     		ldrb	r3, [r3]	@ zero_extendqisi2
 3589 01e8 052B     		cmp	r3, #5
 3590 01ea 40F0D980 		bne	.L278
 650:main.c        ****          Rx_Buffer3[1]=Rx_Buffer4[1];
 3591              		.loc 1 650 0
 3592 01ee 2E4A     		ldr	r2, .L295+36
 3593 01f0 1178     		ldrb	r1, [r2]	@ zero_extendqisi2
 3594 01f2 2E4B     		ldr	r3, .L295+40
 3595 01f4 1970     		strb	r1, [r3]
 651:main.c        ****          Rx_Buffer3[2]=Rx_Buffer4[2];
 3596              		.loc 1 651 0
 3597 01f6 5178     		ldrb	r1, [r2, #1]	@ zero_extendqisi2
 3598 01f8 5970     		strb	r1, [r3, #1]
 652:main.c        ****          Rx_Buffer3[3]=Rx_Buffer4[3];
 3599              		.loc 1 652 0
 3600 01fa 9178     		ldrb	r1, [r2, #2]	@ zero_extendqisi2
 3601 01fc 9970     		strb	r1, [r3, #2]
 653:main.c        ****          Rx_Buffer3[4]=Rx_Buffer4[4];
 3602              		.loc 1 653 0
 3603 01fe D178     		ldrb	r1, [r2, #3]	@ zero_extendqisi2
 3604 0200 D970     		strb	r1, [r3, #3]
 654:main.c        ****          Rx_Buffer3[5]=Rx_Buffer4[5];
 3605              		.loc 1 654 0
 3606 0202 1079     		ldrb	r0, [r2, #4]	@ zero_extendqisi2
 3607 0204 1871     		strb	r0, [r3, #4]
 655:main.c        ****          Rx_Buffer3[6]=Rx_Buffer4[6];
 3608              		.loc 1 655 0
 3609 0206 5079     		ldrb	r0, [r2, #5]	@ zero_extendqisi2
 3610 0208 5871     		strb	r0, [r3, #5]
 656:main.c        ****          Rx_Buffer3[7]=Rx_Buffer4[7];
 3611              		.loc 1 656 0
 3612 020a 9079     		ldrb	r0, [r2, #6]	@ zero_extendqisi2
 3613 020c 9871     		strb	r0, [r3, #6]
 657:main.c        ****          Rx_Buffer3[8]=Rx_Buffer4[8];
 3614              		.loc 1 657 0
 3615 020e D079     		ldrb	r0, [r2, #7]	@ zero_extendqisi2
 3616 0210 D871     		strb	r0, [r3, #7]
 658:main.c        ****          Rx_Buffer3[9]=Rx_Buffer4[9];
 3617              		.loc 1 658 0
 3618 0212 107A     		ldrb	r0, [r2, #8]	@ zero_extendqisi2
 3619 0214 1872     		strb	r0, [r3, #8]
 659:main.c        ****          
 3620              		.loc 1 659 0
 3621 0216 527A     		ldrb	r2, [r2, #9]	@ zero_extendqisi2
 3622 0218 5A72     		strb	r2, [r3, #9]
 661:main.c        ****          Menu2=0;
 3623              		.loc 1 661 0
 3624 021a 0129     		cmp	r1, #1
 3625 021c 0AD1     		bne	.L279
 662:main.c        ****          if(MenuAntt2!=Menu2)
 3626              		.loc 1 662 0
 3627 021e 0022     		movs	r2, #0
 3628 0220 234B     		ldr	r3, .L295+44
 3629 0222 1A70     		strb	r2, [r3]
 663:main.c        ****             MenuAntt2=Menu2;
 3630              		.loc 1 663 0
 3631 0224 234B     		ldr	r3, .L295+48
ARM GAS  C:\Users\USUARIO\AppData\Local\Temp\ccr2Jkwh.s 			page 91


 3632 0226 1B78     		ldrb	r3, [r3]	@ zero_extendqisi2
 3633 0228 002B     		cmp	r3, #0
 3634 022a 00F0C480 		beq	.L257
 664:main.c        ****       }else if(Rx_Buffer3[3]==0x02){//02 es Menu Principal con PantallaPriincipal=0, y con Pantalla
 3635              		.loc 1 664 0
 3636 022e 214B     		ldr	r3, .L295+48
 3637 0230 1A70     		strb	r2, [r3]
 3638 0232 7047     		bx	lr
 3639              	.L279:
 665:main.c        ****          Menu2=1;
 3640              		.loc 1 665 0
 3641 0234 0229     		cmp	r1, #2
 3642 0236 0AD1     		bne	.L281
 666:main.c        ****          if(MenuAntt2!=Menu2)
 3643              		.loc 1 666 0
 3644 0238 0122     		movs	r2, #1
 3645 023a 1D4B     		ldr	r3, .L295+44
 3646 023c 1A70     		strb	r2, [r3]
 667:main.c        ****             MenuAntt2=Menu2;
 3647              		.loc 1 667 0
 3648 023e 1D4B     		ldr	r3, .L295+48
 3649 0240 1B78     		ldrb	r3, [r3]	@ zero_extendqisi2
 3650 0242 9342     		cmp	r3, r2
 3651 0244 00F0B780 		beq	.L257
 668:main.c        ****       }else if(Rx_Buffer3[3]==0x04){//03 es Tiempo Esterilizacion
 3652              		.loc 1 668 0
 3653 0248 1A4B     		ldr	r3, .L295+48
 3654 024a 1A70     		strb	r2, [r3]
 3655 024c 7047     		bx	lr
 3656              	.L281:
 669:main.c        ****          Menu2=2;
 3657              		.loc 1 669 0
 3658 024e 0429     		cmp	r1, #4
 3659 0250 0AD1     		bne	.L282
 670:main.c        ****          if(MenuAntt2!=Menu2)
 3660              		.loc 1 670 0
 3661 0252 0222     		movs	r2, #2
 3662 0254 164B     		ldr	r3, .L295+44
 3663 0256 1A70     		strb	r2, [r3]
 671:main.c        ****             MenuAntt2=Menu2;
 3664              		.loc 1 671 0
 3665 0258 164B     		ldr	r3, .L295+48
 3666 025a 1B78     		ldrb	r3, [r3]	@ zero_extendqisi2
 3667 025c 9342     		cmp	r3, r2
 3668 025e 00F0AA80 		beq	.L257
 672:main.c        ****       }else if(Rx_Buffer3[3]==0x05){//05 es Temperatura
 3669              		.loc 1 672 0
 3670 0262 144B     		ldr	r3, .L295+48
 3671 0264 1A70     		strb	r2, [r3]
 3672 0266 7047     		bx	lr
 3673              	.L282:
 673:main.c        ****          Menu2=3;
 3674              		.loc 1 673 0
 3675 0268 0529     		cmp	r1, #5
 3676 026a 25D1     		bne	.L283
 674:main.c        ****          if(MenuAntt2!=Menu2)
 3677              		.loc 1 674 0
ARM GAS  C:\Users\USUARIO\AppData\Local\Temp\ccr2Jkwh.s 			page 92


 3678 026c 0322     		movs	r2, #3
 3679 026e 104B     		ldr	r3, .L295+44
 3680 0270 1A70     		strb	r2, [r3]
 675:main.c        ****             MenuAntt2=Menu2;
 3681              		.loc 1 675 0
 3682 0272 104B     		ldr	r3, .L295+48
 3683 0274 1B78     		ldrb	r3, [r3]	@ zero_extendqisi2
 3684 0276 9342     		cmp	r3, r2
 3685 0278 00F09D80 		beq	.L257
 676:main.c        ****       }else if(Rx_Buffer3[3]==0x06){//06 es Nivel
 3686              		.loc 1 676 0
 3687 027c 0D4B     		ldr	r3, .L295+48
 3688 027e 1A70     		strb	r2, [r3]
 3689 0280 7047     		bx	lr
 3690              	.L296:
 3691 0282 00BF     		.align	2
 3692              	.L295:
 3693 0284 00000000 		.word	Dato_Exitoso
 3694 0288 00000000 		.word	Rx_Buffer2
 3695 028c 00000000 		.word	Rx_Buffer
 3696 0290 00000000 		.word	Menu
 3697 0294 00000000 		.word	MenuAntt
 3698 0298 00000000 		.word	controlT
 3699 029c 00000000 		.word	controlR
 3700 02a0 00000000 		.word	z
 3701 02a4 00000000 		.word	Dato_Exitoso2
 3702 02a8 00000000 		.word	Rx_Buffer4
 3703 02ac 00000000 		.word	Rx_Buffer3
 3704 02b0 00000000 		.word	Menu2
 3705 02b4 00000000 		.word	MenuAntt2
 3706              	.L283:
 677:main.c        ****          Menu2=5;
 3707              		.loc 1 677 0
 3708 02b8 0629     		cmp	r1, #6
 3709 02ba 09D1     		bne	.L284
 678:main.c        ****          if(MenuAntt2!=Menu2)
 3710              		.loc 1 678 0
 3711 02bc 0522     		movs	r2, #5
 3712 02be 3E4B     		ldr	r3, .L297
 3713 02c0 1A70     		strb	r2, [r3]
 679:main.c        ****             MenuAntt2=Menu2;
 3714              		.loc 1 679 0
 3715 02c2 3E4B     		ldr	r3, .L297+4
 3716 02c4 1B78     		ldrb	r3, [r3]	@ zero_extendqisi2
 3717 02c6 9342     		cmp	r3, r2
 3718 02c8 75D0     		beq	.L257
 680:main.c        ****       }else if(Rx_Buffer3[3]==0x07){//07 es Test de Componentes
 3719              		.loc 1 680 0
 3720 02ca 3C4B     		ldr	r3, .L297+4
 3721 02cc 1A70     		strb	r2, [r3]
 3722 02ce 7047     		bx	lr
 3723              	.L284:
 681:main.c        ****          Menu2=6;
 3724              		.loc 1 681 0
 3725 02d0 0729     		cmp	r1, #7
 3726 02d2 09D1     		bne	.L285
 682:main.c        ****          if(MenuAntt2!=Menu2)
ARM GAS  C:\Users\USUARIO\AppData\Local\Temp\ccr2Jkwh.s 			page 93


 3727              		.loc 1 682 0
 3728 02d4 0622     		movs	r2, #6
 3729 02d6 384B     		ldr	r3, .L297
 3730 02d8 1A70     		strb	r2, [r3]
 683:main.c        ****             MenuAntt2=Menu2;
 3731              		.loc 1 683 0
 3732 02da 384B     		ldr	r3, .L297+4
 3733 02dc 1B78     		ldrb	r3, [r3]	@ zero_extendqisi2
 3734 02de 9342     		cmp	r3, r2
 3735 02e0 69D0     		beq	.L257
 684:main.c        ****       }else if(Rx_Buffer3[3]==0x08){//08 es Fecha y hora
 3736              		.loc 1 684 0
 3737 02e2 364B     		ldr	r3, .L297+4
 3738 02e4 1A70     		strb	r2, [r3]
 3739 02e6 7047     		bx	lr
 3740              	.L285:
 685:main.c        ****          Menu2=7;
 3741              		.loc 1 685 0
 3742 02e8 0829     		cmp	r1, #8
 3743 02ea 09D1     		bne	.L286
 686:main.c        ****          if(MenuAntt2!=Menu2)
 3744              		.loc 1 686 0
 3745 02ec 0722     		movs	r2, #7
 3746 02ee 324B     		ldr	r3, .L297
 3747 02f0 1A70     		strb	r2, [r3]
 687:main.c        ****             MenuAntt2=Menu2;
 3748              		.loc 1 687 0
 3749 02f2 324B     		ldr	r3, .L297+4
 3750 02f4 1B78     		ldrb	r3, [r3]	@ zero_extendqisi2
 3751 02f6 9342     		cmp	r3, r2
 3752 02f8 5DD0     		beq	.L257
 688:main.c        ****       }else if(Rx_Buffer3[3]==0x09){//09 es Rampas
 3753              		.loc 1 688 0
 3754 02fa 304B     		ldr	r3, .L297+4
 3755 02fc 1A70     		strb	r2, [r3]
 3756 02fe 7047     		bx	lr
 3757              	.L286:
 689:main.c        ****          Menu2=8;
 3758              		.loc 1 689 0
 3759 0300 0929     		cmp	r1, #9
 3760 0302 09D1     		bne	.L287
 690:main.c        ****          if(MenuAntt2!=Menu2)
 3761              		.loc 1 690 0
 3762 0304 0822     		movs	r2, #8
 3763 0306 2C4B     		ldr	r3, .L297
 3764 0308 1A70     		strb	r2, [r3]
 691:main.c        ****             MenuAntt2=Menu2;
 3765              		.loc 1 691 0
 3766 030a 2C4B     		ldr	r3, .L297+4
 3767 030c 1B78     		ldrb	r3, [r3]	@ zero_extendqisi2
 3768 030e 9342     		cmp	r3, r2
 3769 0310 51D0     		beq	.L257
 692:main.c        ****       }else if(Rx_Buffer3[3]==0x0a){//0a es Grafica
 3770              		.loc 1 692 0
 3771 0312 2A4B     		ldr	r3, .L297+4
 3772 0314 1A70     		strb	r2, [r3]
 3773 0316 7047     		bx	lr
ARM GAS  C:\Users\USUARIO\AppData\Local\Temp\ccr2Jkwh.s 			page 94


 3774              	.L287:
 693:main.c        ****          Menu2=9;
 3775              		.loc 1 693 0
 3776 0318 0A29     		cmp	r1, #10
 3777 031a 09D1     		bne	.L288
 694:main.c        ****          if(MenuAntt2!=Menu2)
 3778              		.loc 1 694 0
 3779 031c 0922     		movs	r2, #9
 3780 031e 264B     		ldr	r3, .L297
 3781 0320 1A70     		strb	r2, [r3]
 695:main.c        ****             MenuAntt2=Menu2;
 3782              		.loc 1 695 0
 3783 0322 264B     		ldr	r3, .L297+4
 3784 0324 1B78     		ldrb	r3, [r3]	@ zero_extendqisi2
 3785 0326 9342     		cmp	r3, r2
 3786 0328 45D0     		beq	.L257
 696:main.c        ****       }else if(Rx_Buffer3[3]==0x0f){//0f es Recibe caracteres de contraseña desde display
 3787              		.loc 1 696 0
 3788 032a 244B     		ldr	r3, .L297+4
 3789 032c 1A70     		strb	r2, [r3]
 3790 032e 7047     		bx	lr
 3791              	.L288:
 697:main.c        ****          
 3792              		.loc 1 697 0
 3793 0330 0F29     		cmp	r1, #15
 3794 0332 40D0     		beq	.L257
 699:main.c        ****          Menu2=20;
 3795              		.loc 1 699 0
 3796 0334 1A29     		cmp	r1, #26
 3797 0336 09D1     		bne	.L289
 700:main.c        ****          if(MenuAntt2!=Menu2)
 3798              		.loc 1 700 0
 3799 0338 1422     		movs	r2, #20
 3800 033a 1F4B     		ldr	r3, .L297
 3801 033c 1A70     		strb	r2, [r3]
 701:main.c        ****             MenuAntt2=Menu2;
 3802              		.loc 1 701 0
 3803 033e 1F4B     		ldr	r3, .L297+4
 3804 0340 1B78     		ldrb	r3, [r3]	@ zero_extendqisi2
 3805 0342 9342     		cmp	r3, r2
 3806 0344 37D0     		beq	.L257
 702:main.c        ****       }else if(Rx_Buffer3[3]==0x1b){//1b es Menu de clave correcta
 3807              		.loc 1 702 0
 3808 0346 1D4B     		ldr	r3, .L297+4
 3809 0348 1A70     		strb	r2, [r3]
 3810 034a 7047     		bx	lr
 3811              	.L289:
 703:main.c        ****          Menu2=15;
 3812              		.loc 1 703 0
 3813 034c 1B29     		cmp	r1, #27
 3814 034e 09D1     		bne	.L290
 704:main.c        ****          if(MenuAntt2!=Menu2)
 3815              		.loc 1 704 0
 3816 0350 0F22     		movs	r2, #15
 3817 0352 194B     		ldr	r3, .L297
 3818 0354 1A70     		strb	r2, [r3]
 705:main.c        ****             MenuAntt2=Menu2;
ARM GAS  C:\Users\USUARIO\AppData\Local\Temp\ccr2Jkwh.s 			page 95


 3819              		.loc 1 705 0
 3820 0356 194B     		ldr	r3, .L297+4
 3821 0358 1B78     		ldrb	r3, [r3]	@ zero_extendqisi2
 3822 035a 9342     		cmp	r3, r2
 3823 035c 2BD0     		beq	.L257
 706:main.c        ****       }else if(Rx_Buffer3[3]==0x1c){//1c es Menu de clave incorrecta
 3824              		.loc 1 706 0
 3825 035e 174B     		ldr	r3, .L297+4
 3826 0360 1A70     		strb	r2, [r3]
 3827 0362 7047     		bx	lr
 3828              	.L290:
 707:main.c        ****          Menu2=16;
 3829              		.loc 1 707 0
 3830 0364 1C29     		cmp	r1, #28
 3831 0366 09D1     		bne	.L291
 708:main.c        ****          if(MenuAntt2!=Menu2)
 3832              		.loc 1 708 0
 3833 0368 1022     		movs	r2, #16
 3834 036a 134B     		ldr	r3, .L297
 3835 036c 1A70     		strb	r2, [r3]
 709:main.c        ****             MenuAntt2=Menu2;
 3836              		.loc 1 709 0
 3837 036e 134B     		ldr	r3, .L297+4
 3838 0370 1B78     		ldrb	r3, [r3]	@ zero_extendqisi2
 3839 0372 9342     		cmp	r3, r2
 3840 0374 1FD0     		beq	.L257
 710:main.c        ****       }else if(Rx_Buffer3[3]==0x2c){//2c es Menu de Configuracion de Parametros
 3841              		.loc 1 710 0
 3842 0376 114B     		ldr	r3, .L297+4
 3843 0378 1A70     		strb	r2, [r3]
 3844 037a 7047     		bx	lr
 3845              	.L291:
 711:main.c        ****          Menu2=100;
 3846              		.loc 1 711 0
 3847 037c 2C29     		cmp	r1, #44
 3848 037e 09D1     		bne	.L292
 712:main.c        ****          if(MenuAntt2!=Menu2)
 3849              		.loc 1 712 0
 3850 0380 6422     		movs	r2, #100
 3851 0382 0D4B     		ldr	r3, .L297
 3852 0384 1A70     		strb	r2, [r3]
 713:main.c        ****             MenuAntt2=Menu2;
 3853              		.loc 1 713 0
 3854 0386 0D4B     		ldr	r3, .L297+4
 3855 0388 1B78     		ldrb	r3, [r3]	@ zero_extendqisi2
 3856 038a 9342     		cmp	r3, r2
 3857 038c 13D0     		beq	.L257
 714:main.c        ****       }else if(Rx_Buffer3[3]==0xcc){//cc es Menu de Bienvenida
 3858              		.loc 1 714 0
 3859 038e 0B4B     		ldr	r3, .L297+4
 3860 0390 1A70     		strb	r2, [r3]
 3861 0392 7047     		bx	lr
 3862              	.L292:
 715:main.c        ****          Menu2=120;
 3863              		.loc 1 715 0
 3864 0394 CC29     		cmp	r1, #204
 3865 0396 0ED1     		bne	.L257
ARM GAS  C:\Users\USUARIO\AppData\Local\Temp\ccr2Jkwh.s 			page 96


 716:main.c        ****          //if(MenuAntt!=120)
 3866              		.loc 1 716 0
 3867 0398 7822     		movs	r2, #120
 3868 039a 074B     		ldr	r3, .L297
 3869 039c 1A70     		strb	r2, [r3]
 3870 039e 7047     		bx	lr
 3871              	.L278:
 721:main.c        ****             //Rx_Buffer[z]=0;
 3872              		.loc 1 721 0
 3873 03a0 0022     		movs	r2, #0
 3874 03a2 074B     		ldr	r3, .L297+8
 3875 03a4 1A70     		strb	r2, [r3]
 3876 03a6 02E0     		b	.L293
 3877              	.L294:
 721:main.c        ****             //Rx_Buffer[z]=0;
 3878              		.loc 1 721 0 is_stmt 0 discriminator 3
 3879 03a8 0133     		adds	r3, r3, #1
 3880 03aa 054A     		ldr	r2, .L297+8
 3881 03ac 1370     		strb	r3, [r2]
 3882              	.L293:
 721:main.c        ****             //Rx_Buffer[z]=0;
 3883              		.loc 1 721 0 discriminator 1
 3884 03ae 044B     		ldr	r3, .L297+8
 3885 03b0 1B78     		ldrb	r3, [r3]	@ zero_extendqisi2
 3886 03b2 092B     		cmp	r3, #9
 3887 03b4 F8D9     		bls	.L294
 3888              	.L257:
 3889 03b6 7047     		bx	lr
 3890              	.L298:
 3891              		.align	2
 3892              	.L297:
 3893 03b8 00000000 		.word	Menu2
 3894 03bc 00000000 		.word	MenuAntt2
 3895 03c0 00000000 		.word	z
 3896              		.cfi_endproc
 3897              	.LFE71:
 3898              		.size	LeeDisplay, .-LeeDisplay
 3899              		.global	__aeabi_dcmpge
 3900              		.section	.text.controlaRampa,"ax",%progbits
 3901              		.align	2
 3902              		.global	controlaRampa
 3903              		.thumb
 3904              		.thumb_func
 3905              		.type	controlaRampa, %function
 3906              	controlaRampa:
 3907              	.LFB72:
 728:main.c        ****       if(Enfria==1){
 3908              		.loc 1 728 0 is_stmt 1
 3909              		.cfi_startproc
 3910              		@ args = 0, pretend = 0, frame = 0
 3911              		@ frame_needed = 0, uses_anonymous_args = 0
 3912 0000 2DE9F041 		push	{r4, r5, r6, r7, r8, lr}
 3913              		.cfi_def_cfa_offset 24
 3914              		.cfi_offset 4, -24
 3915              		.cfi_offset 5, -20
 3916              		.cfi_offset 6, -16
 3917              		.cfi_offset 7, -12
ARM GAS  C:\Users\USUARIO\AppData\Local\Temp\ccr2Jkwh.s 			page 97


 3918              		.cfi_offset 8, -8
 3919              		.cfi_offset 14, -4
 729:main.c        ****       if(Temperatura<=Setpoint+0.5 && Temperatura>=Setpoint-0.5){
 3920              		.loc 1 729 0
 3921 0004 9A4B     		ldr	r3, .L349+8
 3922 0006 B3F90030 		ldrsh	r3, [r3]
 3923 000a 012B     		cmp	r3, #1
 3924 000c 40F09680 		bne	.L300
 730:main.c        ****          if(Pendiente!=0){
 3925              		.loc 1 730 0
 3926 0010 984B     		ldr	r3, .L349+12
 3927 0012 1868     		ldr	r0, [r3]	@ float
 3928 0014 FFF7FEFF 		bl	__aeabi_f2d
 3929              	.LVL355:
 3930 0018 0446     		mov	r4, r0
 3931 001a 0D46     		mov	r5, r1
 3932 001c 964B     		ldr	r3, .L349+16
 3933 001e D3F80080 		ldr	r8, [r3]	@ float
 3934 0022 4046     		mov	r0, r8
 3935 0024 FFF7FEFF 		bl	__aeabi_f2d
 3936              	.LVL356:
 3937 0028 0646     		mov	r6, r0
 3938 002a 0F46     		mov	r7, r1
 3939 002c 0022     		movs	r2, #0
 3940 002e 934B     		ldr	r3, .L349+20
 3941 0030 FFF7FEFF 		bl	__aeabi_dadd
 3942              	.LVL357:
 3943 0034 0246     		mov	r2, r0
 3944 0036 0B46     		mov	r3, r1
 3945 0038 2046     		mov	r0, r4
 3946 003a 2946     		mov	r1, r5
 3947 003c FFF7FEFF 		bl	__aeabi_dcmple
 3948              	.LVL358:
 3949 0040 58B3     		cbz	r0, .L301
 730:main.c        ****          if(Pendiente!=0){
 3950              		.loc 1 730 0 is_stmt 0 discriminator 1
 3951 0042 0022     		movs	r2, #0
 3952 0044 8D4B     		ldr	r3, .L349+20
 3953 0046 3046     		mov	r0, r6
 3954 0048 3946     		mov	r1, r7
 3955 004a FFF7FEFF 		bl	__aeabi_dsub
 3956              	.LVL359:
 3957 004e 0246     		mov	r2, r0
 3958 0050 0B46     		mov	r3, r1
 3959 0052 2046     		mov	r0, r4
 3960 0054 2946     		mov	r1, r5
 3961 0056 FFF7FEFF 		bl	__aeabi_dcmpge
 3962              	.LVL360:
 3963 005a F0B1     		cbz	r0, .L301
 731:main.c        ****             escribeDisplay1("statusT.txt=\"Controlando\"");
 3964              		.loc 1 731 0 is_stmt 1
 3965 005c 0021     		movs	r1, #0
 3966 005e 884B     		ldr	r3, .L349+24
 3967 0060 1868     		ldr	r0, [r3]	@ float
 3968 0062 FFF7FEFF 		bl	__aeabi_fcmpeq
 3969              	.LVL361:
 3970 0066 28B9     		cbnz	r0, .L304
ARM GAS  C:\Users\USUARIO\AppData\Local\Temp\ccr2Jkwh.s 			page 98


 732:main.c        ****             flagTemperatura=ON;            
 3971              		.loc 1 732 0
 3972 0068 8648     		ldr	r0, .L349+28
 3973 006a FFF7FEFF 		bl	escribeDisplay1
 3974              	.LVL362:
 733:main.c        ****          }
 3975              		.loc 1 733 0
 3976 006e 0122     		movs	r2, #1
 3977 0070 854B     		ldr	r3, .L349+32
 3978 0072 1A80     		strh	r2, [r3]	@ movhi
 3979              	.L304:
 736:main.c        ****             escribeDisplay1("statusT.txt=\"Meseta\"");
 3980              		.loc 1 736 0
 3981 0074 0021     		movs	r1, #0
 3982 0076 824B     		ldr	r3, .L349+24
 3983 0078 1868     		ldr	r0, [r3]	@ float
 3984 007a FFF7FEFF 		bl	__aeabi_fcmpeq
 3985              	.LVL363:
 3986 007e 28B1     		cbz	r0, .L306
 737:main.c        ****             flagTemperatura=ON;
 3987              		.loc 1 737 0
 3988 0080 8248     		ldr	r0, .L349+36
 3989 0082 FFF7FEFF 		bl	escribeDisplay1
 3990              	.LVL364:
 738:main.c        ****          }
 3991              		.loc 1 738 0
 3992 0086 0122     		movs	r2, #1
 3993 0088 7F4B     		ldr	r3, .L349+32
 3994 008a 1A80     		strh	r2, [r3]	@ movhi
 3995              	.L306:
 740:main.c        ****          flag_tiempocalentamiento=0;
 3996              		.loc 1 740 0
 3997 008c FFF7FEFF 		bl	Controla
 3998              	.LVL365:
 741:main.c        ****       }else if(Temperatura<Setpoint-0.5){
 3999              		.loc 1 741 0
 4000 0090 0022     		movs	r2, #0
 4001 0092 7F4B     		ldr	r3, .L349+40
 4002 0094 1A80     		strh	r2, [r3]	@ movhi
 4003 0096 BDE8F081 		pop	{r4, r5, r6, r7, r8, pc}
 4004              	.L301:
 742:main.c        ****          Enfria=0;
 4005              		.loc 1 742 0
 4006 009a 0022     		movs	r2, #0
 4007 009c 774B     		ldr	r3, .L349+20
 4008 009e 3046     		mov	r0, r6
 4009 00a0 3946     		mov	r1, r7
 4010 00a2 FFF7FEFF 		bl	__aeabi_dsub
 4011              	.LVL366:
 4012 00a6 0246     		mov	r2, r0
 4013 00a8 0B46     		mov	r3, r1
 4014 00aa 2046     		mov	r0, r4
 4015 00ac 2946     		mov	r1, r5
 4016 00ae FFF7FEFF 		bl	__aeabi_dcmplt
 4017              	.LVL367:
 4018 00b2 B8B1     		cbz	r0, .L346
 743:main.c        ****          Ganancia=GananciaR*(Setpoint/200);
ARM GAS  C:\Users\USUARIO\AppData\Local\Temp\ccr2Jkwh.s 			page 99


 4019              		.loc 1 743 0
 4020 00b4 0024     		movs	r4, #0
 4021 00b6 6E4B     		ldr	r3, .L349+8
 4022 00b8 1C80     		strh	r4, [r3]	@ movhi
 744:main.c        ****          //Gananciamax=(0.21)*Setpoint;
 4023              		.loc 1 744 0
 4024 00ba 7649     		ldr	r1, .L349+44
 4025 00bc 4046     		mov	r0, r8
 4026 00be FFF7FEFF 		bl	__aeabi_fdiv
 4027              	.LVL368:
 4028 00c2 0546     		mov	r5, r0
 4029 00c4 744B     		ldr	r3, .L349+48
 4030 00c6 1878     		ldrb	r0, [r3]	@ zero_extendqisi2
 4031 00c8 FFF7FEFF 		bl	__aeabi_i2f
 4032              	.LVL369:
 4033 00cc 2946     		mov	r1, r5
 4034 00ce FFF7FEFF 		bl	__aeabi_fmul
 4035              	.LVL370:
 4036 00d2 724B     		ldr	r3, .L349+52
 4037 00d4 1860     		str	r0, [r3]	@ float
 746:main.c        ****          Control=0;
 4038              		.loc 1 746 0
 4039 00d6 2046     		mov	r0, r4
 4040 00d8 FFF7FEFF 		bl	SSR_Write
 4041              	.LVL371:
 747:main.c        ****       }else if(Temperatura>Setpoint+0.6){
 4042              		.loc 1 747 0
 4043 00dc 704B     		ldr	r3, .L349+56
 4044 00de 1C80     		strh	r4, [r3]	@ movhi
 4045 00e0 BDE8F081 		pop	{r4, r5, r6, r7, r8, pc}
 4046              	.L346:
 748:main.c        ****          if(Pendiente!=0){
 4047              		.loc 1 748 0
 4048 00e4 60A3     		adr	r3, .L349
 4049 00e6 D3E90023 		ldrd	r2, [r3]
 4050 00ea 3046     		mov	r0, r6
 4051 00ec 3946     		mov	r1, r7
 4052 00ee FFF7FEFF 		bl	__aeabi_dadd
 4053              	.LVL372:
 4054 00f2 0246     		mov	r2, r0
 4055 00f4 0B46     		mov	r3, r1
 4056 00f6 2046     		mov	r0, r4
 4057 00f8 2946     		mov	r1, r5
 4058 00fa FFF7FEFF 		bl	__aeabi_dcmpgt
 4059              	.LVL373:
 4060 00fe 0028     		cmp	r0, #0
 4061 0100 00F0AF80 		beq	.L299
 749:main.c        ****             escribeDisplay1("statusT.txt=\"Rampa -\"");
 4062              		.loc 1 749 0
 4063 0104 0021     		movs	r1, #0
 4064 0106 5E4B     		ldr	r3, .L349+24
 4065 0108 1868     		ldr	r0, [r3]	@ float
 4066 010a FFF7FEFF 		bl	__aeabi_fcmpeq
 4067              	.LVL374:
 4068 010e 28B9     		cbnz	r0, .L312
 750:main.c        ****             flagTemperatura=ON;            
 4069              		.loc 1 750 0
ARM GAS  C:\Users\USUARIO\AppData\Local\Temp\ccr2Jkwh.s 			page 100


 4070 0110 6448     		ldr	r0, .L349+60
 4071 0112 FFF7FEFF 		bl	escribeDisplay1
 4072              	.LVL375:
 751:main.c        ****          }
 4073              		.loc 1 751 0
 4074 0116 0122     		movs	r2, #1
 4075 0118 5B4B     		ldr	r3, .L349+32
 4076 011a 1A80     		strh	r2, [r3]	@ movhi
 4077              	.L312:
 753:main.c        ****             escribeDisplay1("statusT.txt=\"Enfriando\"");
 4078              		.loc 1 753 0
 4079 011c 0021     		movs	r1, #0
 4080 011e 584B     		ldr	r3, .L349+24
 4081 0120 1868     		ldr	r0, [r3]	@ float
 4082 0122 FFF7FEFF 		bl	__aeabi_fcmpeq
 4083              	.LVL376:
 4084 0126 28B1     		cbz	r0, .L314
 754:main.c        ****             flagTemperatura=OFF;            
 4085              		.loc 1 754 0
 4086 0128 5F48     		ldr	r0, .L349+64
 4087 012a FFF7FEFF 		bl	escribeDisplay1
 4088              	.LVL377:
 755:main.c        ****          }
 4089              		.loc 1 755 0
 4090 012e 0022     		movs	r2, #0
 4091 0130 554B     		ldr	r3, .L349+32
 4092 0132 1A80     		strh	r2, [r3]	@ movhi
 4093              	.L314:
 757:main.c        ****       }
 4094              		.loc 1 757 0
 4095 0134 FFF7FEFF 		bl	Controla
 4096              	.LVL378:
 4097 0138 BDE8F081 		pop	{r4, r5, r6, r7, r8, pc}
 4098              	.L300:
 760:main.c        ****          if(Pendiente!=0){
 4099              		.loc 1 760 0
 4100 013c 4D4B     		ldr	r3, .L349+12
 4101 013e 1868     		ldr	r0, [r3]	@ float
 4102 0140 FFF7FEFF 		bl	__aeabi_f2d
 4103              	.LVL379:
 4104 0144 0446     		mov	r4, r0
 4105 0146 0D46     		mov	r5, r1
 4106 0148 4B4B     		ldr	r3, .L349+16
 4107 014a D3F80080 		ldr	r8, [r3]	@ float
 4108 014e 4046     		mov	r0, r8
 4109 0150 FFF7FEFF 		bl	__aeabi_f2d
 4110              	.LVL380:
 4111 0154 0646     		mov	r6, r0
 4112 0156 0F46     		mov	r7, r1
 4113 0158 0022     		movs	r2, #0
 4114 015a 484B     		ldr	r3, .L349+20
 4115 015c FFF7FEFF 		bl	__aeabi_dsub
 4116              	.LVL381:
 4117 0160 0246     		mov	r2, r0
 4118 0162 0B46     		mov	r3, r1
 4119 0164 2046     		mov	r0, r4
 4120 0166 2946     		mov	r1, r5
ARM GAS  C:\Users\USUARIO\AppData\Local\Temp\ccr2Jkwh.s 			page 101


 4121 0168 FFF7FEFF 		bl	__aeabi_dcmpge
 4122              	.LVL382:
 4123 016c 58B3     		cbz	r0, .L316
 760:main.c        ****          if(Pendiente!=0){
 4124              		.loc 1 760 0 is_stmt 0 discriminator 1
 4125 016e 0022     		movs	r2, #0
 4126 0170 424B     		ldr	r3, .L349+20
 4127 0172 3046     		mov	r0, r6
 4128 0174 3946     		mov	r1, r7
 4129 0176 FFF7FEFF 		bl	__aeabi_dadd
 4130              	.LVL383:
 4131 017a 0246     		mov	r2, r0
 4132 017c 0B46     		mov	r3, r1
 4133 017e 2046     		mov	r0, r4
 4134 0180 2946     		mov	r1, r5
 4135 0182 FFF7FEFF 		bl	__aeabi_dcmple
 4136              	.LVL384:
 4137 0186 F0B1     		cbz	r0, .L316
 761:main.c        ****             escribeDisplay1("statusT.txt=\"Controlando\"");
 4138              		.loc 1 761 0 is_stmt 1
 4139 0188 0021     		movs	r1, #0
 4140 018a 3D4B     		ldr	r3, .L349+24
 4141 018c 1868     		ldr	r0, [r3]	@ float
 4142 018e FFF7FEFF 		bl	__aeabi_fcmpeq
 4143              	.LVL385:
 4144 0192 28B9     		cbnz	r0, .L319
 762:main.c        ****             flagTemperatura=ON;            
 4145              		.loc 1 762 0
 4146 0194 3B48     		ldr	r0, .L349+28
 4147 0196 FFF7FEFF 		bl	escribeDisplay1
 4148              	.LVL386:
 763:main.c        ****          }
 4149              		.loc 1 763 0
 4150 019a 0122     		movs	r2, #1
 4151 019c 3A4B     		ldr	r3, .L349+32
 4152 019e 1A80     		strh	r2, [r3]	@ movhi
 4153              	.L319:
 766:main.c        ****             escribeDisplay1("statusT.txt=\"Meseta\"");
 4154              		.loc 1 766 0
 4155 01a0 0021     		movs	r1, #0
 4156 01a2 374B     		ldr	r3, .L349+24
 4157 01a4 1868     		ldr	r0, [r3]	@ float
 4158 01a6 FFF7FEFF 		bl	__aeabi_fcmpeq
 4159              	.LVL387:
 4160 01aa 28B1     		cbz	r0, .L321
 767:main.c        ****             flagTemperatura=ON;
 4161              		.loc 1 767 0
 4162 01ac 3748     		ldr	r0, .L349+36
 4163 01ae FFF7FEFF 		bl	escribeDisplay1
 4164              	.LVL388:
 768:main.c        ****          }
 4165              		.loc 1 768 0
 4166 01b2 0122     		movs	r2, #1
 4167 01b4 344B     		ldr	r3, .L349+32
 4168 01b6 1A80     		strh	r2, [r3]	@ movhi
 4169              	.L321:
 770:main.c        ****          flag_tiempocalentamiento=0;
ARM GAS  C:\Users\USUARIO\AppData\Local\Temp\ccr2Jkwh.s 			page 102


 4170              		.loc 1 770 0
 4171 01b8 FFF7FEFF 		bl	Controla
 4172              	.LVL389:
 771:main.c        ****       }else if(Temperatura>Setpoint+0.5){
 4173              		.loc 1 771 0
 4174 01bc 0022     		movs	r2, #0
 4175 01be 344B     		ldr	r3, .L349+40
 4176 01c0 1A80     		strh	r2, [r3]	@ movhi
 4177 01c2 BDE8F081 		pop	{r4, r5, r6, r7, r8, pc}
 4178              	.L316:
 772:main.c        ****          Enfria=1;
 4179              		.loc 1 772 0
 4180 01c6 0022     		movs	r2, #0
 4181 01c8 2C4B     		ldr	r3, .L349+20
 4182 01ca 3046     		mov	r0, r6
 4183 01cc 3946     		mov	r1, r7
 4184 01ce FFF7FEFF 		bl	__aeabi_dadd
 4185              	.LVL390:
 4186 01d2 0246     		mov	r2, r0
 4187 01d4 0B46     		mov	r3, r1
 4188 01d6 2046     		mov	r0, r4
 4189 01d8 2946     		mov	r1, r5
 4190 01da FFF7FEFF 		bl	__aeabi_dcmpgt
 4191              	.LVL391:
 4192 01de C0B1     		cbz	r0, .L347
 773:main.c        ****          Ganancia=GananciaR*(Setpoint/200);
 4193              		.loc 1 773 0
 4194 01e0 0122     		movs	r2, #1
 4195 01e2 234B     		ldr	r3, .L349+8
 4196 01e4 1A80     		strh	r2, [r3]	@ movhi
 774:main.c        ****          SSR_Write(0);
 4197              		.loc 1 774 0
 4198 01e6 2B49     		ldr	r1, .L349+44
 4199 01e8 4046     		mov	r0, r8
 4200 01ea FFF7FEFF 		bl	__aeabi_fdiv
 4201              	.LVL392:
 4202 01ee 0446     		mov	r4, r0
 4203 01f0 294B     		ldr	r3, .L349+48
 4204 01f2 1878     		ldrb	r0, [r3]	@ zero_extendqisi2
 4205 01f4 FFF7FEFF 		bl	__aeabi_i2f
 4206              	.LVL393:
 4207 01f8 2146     		mov	r1, r4
 4208 01fa FFF7FEFF 		bl	__aeabi_fmul
 4209              	.LVL394:
 4210 01fe 274B     		ldr	r3, .L349+52
 4211 0200 1860     		str	r0, [r3]	@ float
 775:main.c        ****          Control=0;
 4212              		.loc 1 775 0
 4213 0202 0020     		movs	r0, #0
 4214 0204 FFF7FEFF 		bl	SSR_Write
 4215              	.LVL395:
 776:main.c        ****       }else if(Temperatura<Setpoint-0.6){
 4216              		.loc 1 776 0
 4217 0208 0022     		movs	r2, #0
 4218 020a 254B     		ldr	r3, .L349+56
 4219 020c 1A80     		strh	r2, [r3]	@ movhi
 4220 020e BDE8F081 		pop	{r4, r5, r6, r7, r8, pc}
ARM GAS  C:\Users\USUARIO\AppData\Local\Temp\ccr2Jkwh.s 			page 103


 4221              	.L347:
 777:main.c        ****          if(Pendiente!=0){
 4222              		.loc 1 777 0
 4223 0212 15A3     		adr	r3, .L349
 4224 0214 D3E90023 		ldrd	r2, [r3]
 4225 0218 3046     		mov	r0, r6
 4226 021a 3946     		mov	r1, r7
 4227 021c FFF7FEFF 		bl	__aeabi_dsub
 4228              	.LVL396:
 4229 0220 0246     		mov	r2, r0
 4230 0222 0B46     		mov	r3, r1
 4231 0224 2046     		mov	r0, r4
 4232 0226 2946     		mov	r1, r5
 4233 0228 FFF7FEFF 		bl	__aeabi_dcmplt
 4234              	.LVL397:
 4235 022c C8B1     		cbz	r0, .L299
 778:main.c        ****             escribeDisplay1("statusT.txt=\"Rampa +\"");
 4236              		.loc 1 778 0
 4237 022e 0021     		movs	r1, #0
 4238 0230 134B     		ldr	r3, .L349+24
 4239 0232 1868     		ldr	r0, [r3]	@ float
 4240 0234 FFF7FEFF 		bl	__aeabi_fcmpeq
 4241              	.LVL398:
 4242 0238 28B9     		cbnz	r0, .L326
 779:main.c        ****             flagTemperatura=ON;            
 4243              		.loc 1 779 0
 4244 023a 1C48     		ldr	r0, .L349+68
 4245 023c FFF7FEFF 		bl	escribeDisplay1
 4246              	.LVL399:
 780:main.c        ****          }
 4247              		.loc 1 780 0
 4248 0240 0122     		movs	r2, #1
 4249 0242 114B     		ldr	r3, .L349+32
 4250 0244 1A80     		strh	r2, [r3]	@ movhi
 4251              	.L326:
 782:main.c        ****             escribeDisplay1("statusT.txt=\"Calentando\"");
 4252              		.loc 1 782 0
 4253 0246 0021     		movs	r1, #0
 4254 0248 0D4B     		ldr	r3, .L349+24
 4255 024a 1868     		ldr	r0, [r3]	@ float
 4256 024c FFF7FEFF 		bl	__aeabi_fcmpeq
 4257              	.LVL400:
 4258 0250 28B1     		cbz	r0, .L328
 783:main.c        ****             flagTemperatura=OFF;            
