CCS PCH C Compiler, Version 4.104, 5967               11-feb.-21 12:33

               Filename: D:\Laboratorio\Incubadora\2019\Incubadora Dual Avantika OP2019176 #004588068\Firmware V1.1.2-VariacionVelocidad\Horno.lst

               ROM used: 46274 bytes (47%)
                         Largest free fragment is 32768
               RAM used: 1692 (51%) at main() level
                         1750 (53%) worst case
               Stack:    7 worst case (6 in main + 1 for interrupts)

*
00000:  GOTO   6EC8
*
00008:  GOTO   00AE
0000C:  NOP   
0000E:  NOP   
00010:  NOP   
00012:  NOP   
00014:  NOP   
00016:  NOP   
00018:  MOVWF  04
0001A:  MOVFF  FD8,05
0001E:  MOVFF  FE0,06
00022:  MOVLB  0
00024:  MOVFF  FE9,0C
00028:  MOVFF  FEA,07
0002C:  MOVFF  FE1,08
00030:  MOVFF  FE2,09
00034:  MOVFF  FD9,0A
00038:  MOVFF  FDA,0B
0003C:  MOVFF  FF3,12
00040:  MOVFF  FF4,13
00044:  MOVFF  FFA,14
00048:  MOVFF  FFB,15
0004C:  MOVFF  00,0E
00050:  MOVFF  01,0F
00054:  MOVFF  02,10
00058:  MOVFF  03,11
0005C:  BTFSS  F9D.0
0005E:  GOTO   0068
00062:  BTFSC  F9E.0
00064:  GOTO   122E
00068:  MOVFF  0E,00
0006C:  MOVFF  0F,01
00070:  MOVFF  10,02
00074:  MOVFF  11,03
00078:  MOVFF  0C,FE9
0007C:  MOVFF  07,FEA
00080:  BSF    07.7
00082:  MOVFF  08,FE1
00086:  MOVFF  09,FE2
0008A:  MOVFF  0A,FD9
0008E:  MOVFF  0B,FDA
00092:  MOVFF  12,FF3
00096:  MOVFF  13,FF4
0009A:  MOVFF  14,FFA
0009E:  MOVFF  15,FFB
000A2:  MOVF   04,W
000A4:  MOVFF  06,FE0
000A8:  MOVFF  05,FD8
000AC:  RETFIE 0
000AE:  MOVWF  17
000B0:  MOVFF  FD8,18
000B4:  MOVFF  FE0,19
000B8:  MOVLB  0
000BA:  MOVFF  FE9,1F
000BE:  MOVFF  FEA,1A
000C2:  MOVFF  FE1,1B
000C6:  MOVFF  FE2,1C
000CA:  MOVFF  FD9,1D
000CE:  MOVFF  FDA,1E
000D2:  MOVFF  FF3,25
000D6:  MOVFF  FF4,26
000DA:  MOVFF  FFA,27
000DE:  MOVFF  FFB,28
000E2:  MOVFF  00,21
000E6:  MOVFF  01,22
000EA:  MOVFF  02,23
000EE:  MOVFF  03,24
000F2:  BTFSS  FF2.5
000F4:  GOTO   00FE
000F8:  BTFSC  FF2.2
000FA:  GOTO   1200
000FE:  BTFSS  FF2.4
00100:  GOTO   010A
00104:  BTFSC  FF2.1
00106:  GOTO   1154
0010A:  MOVFF  21,00
0010E:  MOVFF  22,01
00112:  MOVFF  23,02
00116:  MOVFF  24,03
0011A:  MOVFF  1F,FE9
0011E:  MOVFF  1A,FEA
00122:  BSF    1A.7
00124:  MOVFF  1B,FE1
00128:  MOVFF  1C,FE2
0012C:  MOVFF  1D,FD9
00130:  MOVFF  1E,FDA
00134:  MOVFF  25,FF3
00138:  MOVFF  26,FF4
0013C:  MOVFF  27,FFA
00140:  MOVFF  28,FFB
00144:  MOVF   17,W
00146:  MOVFF  19,FE0
0014A:  MOVFF  18,FD8
0014E:  RETFIE 0
.................... #include <18F4685.h> 
.................... //////// Standard Header file for the PIC18F4685 device //////////////// 
.................... #device PIC18F4685 
.................... #list 
....................  
.................... #device adc=10 
.................... #device HIGH_INTS=TRUE //Activamos niveles de prioridad 
.................... #fuses HS,WDT8192,NOPROTECT,NOLVP,NODEBUG,NOSTVREN,NOPUT,NOCPD,NOWRT,NOIESO,NOFCMEN,NOPBADEN,NOWRTC,NOWRTB,NOEBTR,NOEBTRB,NOCPB,NOXINST,NOLPT1OSC,NOMCLR 
.................... #use delay(clock=20000000) 
*
0132E:  MOVLW  06
01330:  MOVWF  FEA
01332:  MOVLW  A1
01334:  MOVWF  FE9
01336:  MOVF   FEF,W
01338:  BZ    1354
0133A:  MOVLW  06
0133C:  MOVWF  01
0133E:  CLRF   00
01340:  DECFSZ 00,F
01342:  BRA    1340
01344:  DECFSZ 01,F
01346:  BRA    133E
01348:  MOVLW  7B
0134A:  MOVWF  00
0134C:  DECFSZ 00,F
0134E:  BRA    134C
01350:  DECFSZ FEF,F
01352:  BRA    133A
01354:  RETLW  00
.................... #use i2c(Master,slow,sda=PIN_C4,scl=PIN_C3) 
*
03A80:  MOVLW  08
03A82:  MOVWF  01
03A84:  MOVLW  05
03A86:  MOVWF  00
03A88:  DECFSZ 00,F
03A8A:  BRA    3A88
03A8C:  BCF    F8B.3
03A8E:  BCF    F94.3
03A90:  MOVLW  06
03A92:  MOVWF  00
03A94:  DECFSZ 00,F
03A96:  BRA    3A94
03A98:  MOVLB  6
03A9A:  RLCF   x9C,F
03A9C:  BCF    F8B.4
03A9E:  BTFSC  FD8.0
03AA0:  BSF    F94.4
03AA2:  BTFSS  FD8.0
03AA4:  BCF    F94.4
03AA6:  BSF    F94.3
03AA8:  BTFSS  F82.3
03AAA:  BRA    3AA8
03AAC:  DECFSZ 01,F
03AAE:  BRA    3AB2
03AB0:  BRA    3AB6
03AB2:  MOVLB  0
03AB4:  BRA    3A84
03AB6:  MOVLW  05
03AB8:  MOVWF  00
03ABA:  DECFSZ 00,F
03ABC:  BRA    3ABA
03ABE:  BCF    F8B.3
03AC0:  BCF    F94.3
03AC2:  NOP   
03AC4:  BSF    F94.4
03AC6:  MOVLW  06
03AC8:  MOVWF  00
03ACA:  DECFSZ 00,F
03ACC:  BRA    3ACA
03ACE:  MOVLW  06
03AD0:  MOVWF  00
03AD2:  DECFSZ 00,F
03AD4:  BRA    3AD2
03AD6:  BSF    F94.3
03AD8:  BTFSS  F82.3
03ADA:  BRA    3AD8
03ADC:  CLRF   01
03ADE:  MOVLW  06
03AE0:  MOVWF  00
03AE2:  DECFSZ 00,F
03AE4:  BRA    3AE2
03AE6:  BTFSC  F82.4
03AE8:  BSF    01.0
03AEA:  BCF    F8B.3
03AEC:  BCF    F94.3
03AEE:  BCF    F8B.4
03AF0:  BCF    F94.4
03AF2:  MOVLB  0
03AF4:  RETLW  00
.................... #include "HDM64GS12.c" 
.................... ///////////////////////////////////////////////////////////////////////// 
.................... ////                           HDM64GS12.c                           //// 
.................... ////                                                                 //// 
.................... //// This file contains drivers for using a Hantronix HDM64GS12 with //// 
.................... //// a KS0108 display controller. The HDM64GS12 is 128 by 64 pixels. //// 
.................... //// The driver treats the upper left pixel as (0,0).                //// 
.................... ////                                                                 //// 
.................... //// Use #define FAST_GLCD if the target chip has at least 1k of RAM //// 
.................... //// to decrease the time it takes to update the display.            //// 
.................... //// glcd_update() must then be called to update the display after   //// 
.................... //// changing the pixel information.                                 //// 
.................... //// See ex_glcd.c for suggested usage.                              //// 
.................... //// See KS0108.c for controlling a single 64 by 64 display          //// 
.................... ///////////////////////////////////////////////////////////////////////// 
.................... ////                                                                 //// 
.................... //// LCD Pin connections:                                            //// 
.................... //// (These can be changed as needed in the following defines).      //// 
.................... ////  * 1: VSS is connected to GND                                   //// 
.................... ////  * 2: VDD is connected to +5V                                   //// 
.................... ////  * 3: V0  - LCD operating voltage (Constrast adjustment)        //// 
.................... ////  * 4: D/I - Data or Instruction is connected to B2              //// 
.................... ////  * 5: R/W - Read or Write is connected to B4                    //// 
.................... ////  * 6: Enable is connected to B5                                 //// 
.................... ////  *7-14: Data Bus 0 to 7 is connected to port d                  //// 
.................... ////  *15: Chip Select 1 is connected to B0                          //// 
.................... ////  *16: Chip Select 2 is connected to B1                          //// 
.................... ////  *17: Reset is connected to C0                                  //// 
.................... ////  *18: Negative voltage is also connected to the 20k Ohm POT     //// 
.................... ////  *19: Positive voltage for LED backlight is connected to +5V    //// 
.................... ////  *20: Negavtive voltage for LED backlight is connected to GND   //// 
.................... ////                                                                 //// 
.................... ///////////////////////////////////////////////////////////////////////// 
.................... ////                                                                 //// 
.................... ////  glcd_init(mode)                                                //// 
.................... ////     * Must be called before any other function.                 //// 
.................... ////       - mode can be ON or OFF to turn the LCD on or off         //// 
.................... ////                                                                 //// 
.................... ////  glcd_pixel(x,y,color)                                          //// 
.................... ////     * Sets the pixel to the given color.                        //// 
.................... ////       - color can be ON or OFF                                  //// 
.................... ////                                                                 //// 
.................... ////  glcd_fillScreen(color)                                         //// 
.................... ////     * Fills the entire LCD with the given color.                //// 
.................... ////       - color can be ON or OFF                                  //// 
.................... ////                                                                 //// 
.................... ////  glcd_update()                                                  //// 
.................... ////     * Write the display data stored in RAM to the LCD           //// 
.................... ////     * Only available if FAST_GLCD is defined                    //// 
.................... ////                                                                 //// 
.................... ///////////////////////////////////////////////////////////////////////// 
.................... ////        (C) Copyright 1996, 2004 Custom Computer Services        //// 
.................... //// This source code may only be used by licensed users of the CCS  //// 
.................... //// C compiler.  This source code may only be distributed to other  //// 
.................... //// licensed users of the CCS C compiler.  No other use,            //// 
.................... //// reproduction or distribution is permitted without written       //// 
.................... //// permission.  Derivative programs created using this software    //// 
.................... //// in object code form are not restricted in any way.              //// 
.................... ///////////////////////////////////////////////////////////////////////// 
....................  
....................  
....................  
.................... #ifndef HDM64GS12 
.................... #define HDM64GS12 
....................  
.................... #ifndef FAST_GLCD 
.................... #define FAST_GLCD 
....................  
.................... #ifndef GLCD_WIDTH 
.................... #define GLCD_WIDTH   128 
.................... #endif 
....................  
.................... #ifndef GLCD_CS1 
.................... #define GLCD_CS1     PIN_B2   // Chip Selection 1 
.................... #endif 
....................  
.................... #ifndef GLCD_CS2 
.................... #define GLCD_CS2     PIN_B3   // Chip Selection 2 
.................... #endif 
....................  
.................... #ifndef GLCD_DI 
.................... #define GLCD_DI      PIN_B5   // Data or Instruction input 
.................... #endif 
....................  
.................... #ifndef GLCD_RW 
.................... #define GLCD_RW      PIN_B6   // Read/Write 
.................... #endif 
....................  
.................... #ifndef GLCD_E 
.................... #define GLCD_E       PIN_B7   // Enable 
.................... #endif 
....................  
.................... #ifndef GLCD_RST 
.................... #define GLCD_RST     PIN_B4   // Reset 
.................... #endif 
....................  
.................... #define GLCD_LEFT    0 
.................... #define GLCD_RIGHT   1 
....................  
.................... #ifndef ON 
.................... #define ON           1 
.................... #endif 
....................  
.................... #ifndef OFF 
.................... #define OFF          0 
.................... #endif 
....................  
.................... ///////////////////////////////////////////////////////////////////////// 
.................... // Function Prototypes 
.................... ///////////////////////////////////////////////////////////////////////// 
.................... void glcd_init(int1 mode); 
.................... void glcd_pixel(int8 x, int8 y, int1 color); 
.................... void glcd_fillScreen(int1 color); 
.................... void glcd_writeByte(int1 side, BYTE data); 
.................... BYTE glcd_readByte(int1 side); 
.................... void glcd_update(); 
.................... ///////////////////////////////////////////////////////////////////////// 
....................  
.................... #ifdef FAST_GLCD 
.................... struct 
.................... { 
....................    int8 left[512]; 
....................    int8 right[512]; 
.................... } displayData; 
.................... #endif 
....................  
....................  
.................... // Purpose:       Initialize the LCD. 
.................... //                Call before using any other LCD function. 
.................... // Inputs:        OFF - Turns the LCD off 
.................... //                ON  - Turns the LCD on 
.................... void glcd_init(int1 mode) 
.................... { 
....................    // Initialze some pins 
....................    output_high(GLCD_RST); 
*
02D10:  BCF    F93.4
02D12:  BSF    F8A.4
....................    output_low(GLCD_E); 
02D14:  BCF    F93.7
02D16:  BCF    F8A.7
....................    output_low(GLCD_CS1); 
02D18:  BCF    F93.2
02D1A:  BCF    F8A.2
....................    output_low(GLCD_CS2); 
02D1C:  BCF    F93.3
02D1E:  BCF    F8A.3
....................  
....................    output_low(GLCD_DI);                 // Set for instruction 
02D20:  BCF    F93.5
02D22:  BCF    F8A.5
....................    glcd_writeByte(GLCD_LEFT,  0xC0);    // Specify first RAM line at the top 
02D24:  MOVLB  6
02D26:  CLRF   xB2
02D28:  MOVLW  C0
02D2A:  MOVWF  xB3
02D2C:  MOVLB  0
02D2E:  RCALL  2BC8
....................    glcd_writeByte(GLCD_RIGHT, 0xC0);    //   of the screen 
02D30:  MOVLW  01
02D32:  MOVLB  6
02D34:  MOVWF  xB2
02D36:  MOVLW  C0
02D38:  MOVWF  xB3
02D3A:  MOVLB  0
02D3C:  RCALL  2BC8
....................    glcd_writeByte(GLCD_LEFT,  0x40);    // Set the column address to 0 
02D3E:  MOVLB  6
02D40:  CLRF   xB2
02D42:  MOVLW  40
02D44:  MOVWF  xB3
02D46:  MOVLB  0
02D48:  RCALL  2BC8
....................    glcd_writeByte(GLCD_RIGHT, 0x40); 
02D4A:  MOVLW  01
02D4C:  MOVLB  6
02D4E:  MOVWF  xB2
02D50:  MOVLW  40
02D52:  MOVWF  xB3
02D54:  MOVLB  0
02D56:  RCALL  2BC8
....................    glcd_writeByte(GLCD_LEFT,  0xB8);    // Set the page address to 0 
02D58:  MOVLB  6
02D5A:  CLRF   xB2
02D5C:  MOVLW  B8
02D5E:  MOVWF  xB3
02D60:  MOVLB  0
02D62:  RCALL  2BC8
....................    glcd_writeByte(GLCD_RIGHT, 0xB8); 
02D64:  MOVLW  01
02D66:  MOVLB  6
02D68:  MOVWF  xB2
02D6A:  MOVLW  B8
02D6C:  MOVWF  xB3
02D6E:  MOVLB  0
02D70:  RCALL  2BC8
....................  
....................    if(mode == ON) 
02D72:  MOVLB  6
02D74:  DECFSZ x98,W
02D76:  BRA    2D94
....................    { 
....................       glcd_writeByte(GLCD_LEFT,  0x3F); // Turn the display on 
02D78:  CLRF   xB2
02D7A:  MOVLW  3F
02D7C:  MOVWF  xB3
02D7E:  MOVLB  0
02D80:  RCALL  2BC8
....................       glcd_writeByte(GLCD_RIGHT, 0x3F); 
02D82:  MOVLW  01
02D84:  MOVLB  6
02D86:  MOVWF  xB2
02D88:  MOVLW  3F
02D8A:  MOVWF  xB3
02D8C:  MOVLB  0
02D8E:  RCALL  2BC8
....................    } 
....................    else 
02D90:  BRA    2DAC
02D92:  MOVLB  6
....................    { 
....................       glcd_writeByte(GLCD_LEFT,  0x3E); // Turn the display off 
02D94:  CLRF   xB2
02D96:  MOVLW  3E
02D98:  MOVWF  xB3
02D9A:  MOVLB  0
02D9C:  RCALL  2BC8
....................       glcd_writeByte(GLCD_RIGHT, 0x3E); 
02D9E:  MOVLW  01
02DA0:  MOVLB  6
02DA2:  MOVWF  xB2
02DA4:  MOVLW  3E
02DA6:  MOVWF  xB3
02DA8:  MOVLB  0
02DAA:  RCALL  2BC8
....................    } 
....................  
....................    glcd_fillScreen(OFF);                // Clear the display 
02DAC:  MOVLB  6
02DAE:  CLRF   xA0
02DB0:  MOVLB  0
02DB2:  RCALL  2BFE
....................  
....................    #ifdef FAST_GLCD 
....................    glcd_update(); 
02DB4:  RCALL  2C58
....................    #endif 
.................... } 
02DB6:  RETLW  00
....................  
....................  
.................... // Purpose:    Update the LCD with data from the display arrays 
.................... #ifdef FAST_GLCD 
.................... void glcd_update() 
.................... { 
....................    int8 i, j; 
....................    int8 *p1, *p2; 
....................  
....................    p1 = displayData.left; 
*
02C58:  MOVLB  6
02C5A:  CLRF   xAE
02C5C:  MOVLW  2A
02C5E:  MOVWF  xAD
....................    p2 = displayData.right; 
02C60:  MOVLW  02
02C62:  MOVWF  xB0
02C64:  MOVLW  2A
02C66:  MOVWF  xAF
....................  
....................    // Loop through the vertical pages 
....................    for(i = 0; i < 8; ++i) 
02C68:  CLRF   xAB
02C6A:  MOVF   xAB,W
02C6C:  SUBLW  07
02C6E:  BNC   2D0C
....................    { 
....................       output_low(GLCD_DI);                      // Set for instruction 
02C70:  BCF    F93.5
02C72:  BCF    F8A.5
....................       glcd_writeByte(GLCD_LEFT, 0x40);          // Set horizontal address to 0 
02C74:  CLRF   xB2
02C76:  MOVLW  40
02C78:  MOVWF  xB3
02C7A:  MOVLB  0
02C7C:  RCALL  2BC8
....................       glcd_writeByte(GLCD_RIGHT, 0x40); 
02C7E:  MOVLW  01
02C80:  MOVLB  6
02C82:  MOVWF  xB2
02C84:  MOVLW  40
02C86:  MOVWF  xB3
02C88:  MOVLB  0
02C8A:  RCALL  2BC8
....................       glcd_writeByte(GLCD_LEFT, i | 0xB8);      // Set page address 
02C8C:  MOVLB  6
02C8E:  MOVF   xAB,W
02C90:  IORLW  B8
02C92:  MOVWF  xB1
02C94:  CLRF   xB2
02C96:  MOVWF  xB3
02C98:  MOVLB  0
02C9A:  RCALL  2BC8
....................       glcd_writeByte(GLCD_RIGHT, i | 0xB8); 
02C9C:  MOVLB  6
02C9E:  MOVF   xAB,W
02CA0:  IORLW  B8
02CA2:  MOVWF  xB1
02CA4:  MOVLW  01
02CA6:  MOVWF  xB2
02CA8:  MOVFF  6B1,6B3
02CAC:  MOVLB  0
02CAE:  RCALL  2BC8
....................       output_high(GLCD_DI);                     // Set for data 
02CB0:  BCF    F93.5
02CB2:  BSF    F8A.5
....................  
....................       // Loop through the horizontal sections 
....................       for(j = 0; j < 64; ++j) 
02CB4:  MOVLB  6
02CB6:  CLRF   xAC
02CB8:  MOVF   xAC,W
02CBA:  SUBLW  3F
02CBC:  BNC   2D08
....................       { 
....................          glcd_writeByte(GLCD_LEFT, *p1++);      // Turn pixels on or off 
02CBE:  MOVFF  6AE,03
02CC2:  MOVF   xAD,W
02CC4:  INCF   xAD,F
02CC6:  BTFSC  FD8.2
02CC8:  INCF   xAE,F
02CCA:  MOVWF  FE9
02CCC:  MOVFF  03,FEA
02CD0:  MOVFF  FEF,6B1
02CD4:  CLRF   xB2
02CD6:  MOVFF  6B1,6B3
02CDA:  MOVLB  0
02CDC:  RCALL  2BC8
....................          glcd_writeByte(GLCD_RIGHT, *p2++);     // Turn pixels on or off 
02CDE:  MOVLB  6
02CE0:  MOVFF  6B0,03
02CE4:  MOVF   xAF,W
02CE6:  INCF   xAF,F
02CE8:  BTFSC  FD8.2
02CEA:  INCF   xB0,F
02CEC:  MOVWF  FE9
02CEE:  MOVFF  03,FEA
02CF2:  MOVFF  FEF,6B1
02CF6:  MOVLW  01
02CF8:  MOVWF  xB2
02CFA:  MOVFF  6B1,6B3
02CFE:  MOVLB  0
02D00:  RCALL  2BC8
....................       } 
02D02:  MOVLB  6
02D04:  INCF   xAC,F
02D06:  BRA    2CB8
....................    } 
02D08:  INCF   xAB,F
02D0A:  BRA    2C6A
.................... } 
02D0C:  MOVLB  0
02D0E:  RETLW  00
.................... #endif 
....................  
....................  
.................... // Purpose:    Turn a pixel on a graphic LCD on or off 
.................... // Inputs:     1) x - the x coordinate of the pixel 
.................... //             2) y - the y coordinate of the pixel 
.................... //             3) color - ON or OFF 
.................... void glcd_pixel(int8 x, int8 y, int1 color) 
.................... #ifdef FAST_GLCD 
.................... { 
....................    int8* p; 
....................    int16 temp; 
....................    temp =  y/8; 
*
02DB8:  MOVLB  6
02DBA:  CLRF   xD2
02DBC:  RRCF   xCD,W
02DBE:  MOVWF  xD1
02DC0:  RRCF   xD1,F
02DC2:  RRCF   xD1,F
02DC4:  MOVLW  1F
02DC6:  ANDWF  xD1,F
....................    temp *= 64; 
02DC8:  RLCF   xD1,F
02DCA:  RLCF   xD2,F
02DCC:  RLCF   xD1,F
02DCE:  RLCF   xD2,F
02DD0:  RLCF   xD1,F
02DD2:  RLCF   xD2,F
02DD4:  RLCF   xD1,F
02DD6:  RLCF   xD2,F
02DD8:  RLCF   xD1,F
02DDA:  RLCF   xD2,F
02DDC:  RLCF   xD1,F
02DDE:  RLCF   xD2,F
02DE0:  MOVLW  C0
02DE2:  ANDWF  xD1,F
....................    temp += x; 
02DE4:  MOVF   xCC,W
02DE6:  ADDWF  xD1,F
02DE8:  MOVLW  00
02DEA:  ADDWFC xD2,F
....................  
....................    if(x > 63) 
02DEC:  MOVF   xCC,W
02DEE:  SUBLW  3F
02DF0:  BC    2E0C
....................    { 
....................       p = displayData.right + temp - 64; 
02DF2:  MOVLW  2A
02DF4:  ADDWF  xD1,W
02DF6:  MOVWF  xD3
02DF8:  MOVLW  02
02DFA:  ADDWFC xD2,W
02DFC:  MOVWF  xD4
02DFE:  MOVLW  40
02E00:  SUBWF  xD3,W
02E02:  MOVWF  xCF
02E04:  MOVLW  00
02E06:  SUBWFB xD4,W
02E08:  MOVWF  xD0
....................    } 
....................    else 
02E0A:  BRA    2E18
....................    { 
....................       p = displayData.left + temp; 
02E0C:  MOVLW  2A
02E0E:  ADDWF  xD1,W
02E10:  MOVWF  xCF
02E12:  MOVLW  00
02E14:  ADDWFC xD2,W
02E16:  MOVWF  xD0
....................    } 
....................  
....................    if(color) 
02E18:  MOVF   xCE,F
02E1A:  BZ    2E46
....................    { 
....................       bit_set(*p, y%8); 
02E1C:  MOVFF  6D0,03
02E20:  MOVFF  6CF,FE9
02E24:  MOVFF  6D0,FEA
02E28:  MOVF   xCD,W
02E2A:  ANDLW  07
02E2C:  MOVWF  xD3
02E2E:  MOVLW  01
02E30:  MOVWF  00
02E32:  MOVF   xD3,W
02E34:  MOVWF  01
02E36:  BZ    2E40
02E38:  BCF    FD8.0
02E3A:  RLCF   00,F
02E3C:  DECFSZ 01,F
02E3E:  BRA    2E38
02E40:  MOVF   00,W
02E42:  IORWF  FEF,F
....................    } 
....................    else 
02E44:  BRA    2E70
....................    { 
....................       bit_clear(*p, y%8); 
02E46:  MOVFF  6D0,03
02E4A:  MOVFF  6CF,FE9
02E4E:  MOVFF  6D0,FEA
02E52:  MOVF   xCD,W
02E54:  ANDLW  07
02E56:  MOVWF  xD3
02E58:  MOVLW  01
02E5A:  MOVWF  00
02E5C:  MOVF   xD3,W
02E5E:  MOVWF  01
02E60:  BZ    2E6A
02E62:  BCF    FD8.0
02E64:  RLCF   00,F
02E66:  DECFSZ 01,F
02E68:  BRA    2E62
02E6A:  MOVF   00,W
02E6C:  XORLW  FF
02E6E:  ANDWF  FEF,F
....................    } 
.................... } 
02E70:  MOVLB  0
02E72:  RETLW  00
.................... #else 
.................... { 
....................    BYTE data; 
....................    int1 side = GLCD_LEFT;  // Stores which chip to use on the LCD 
....................  
....................    if(x > 63)              // Check for first or second display area 
....................    { 
....................       x -= 64; 
....................       side = GLCD_RIGHT; 
....................    } 
....................  
....................    output_low(GLCD_DI);                         // Set for instruction 
....................    bit_clear(x,7);                              // Clear the MSB. Part of an instruction code 
....................    bit_set(x,6);                                // Set bit 6. Also part of an instruction code 
....................    glcd_writeByte(side, x);                     // Set the horizontal address 
....................    glcd_writeByte(side, (y/8 & 0xBF) | 0xB8);   // Set the vertical page address 
....................    output_high(GLCD_DI);                        // Set for data 
....................    glcd_readByte(side);                         // Need two reads to get data 
....................    data = glcd_readByte(side);                  //  at new address 
....................  
....................    if(color == ON) 
....................       bit_set(data, y%8);        // Turn the pixel on 
....................    else                          // or 
....................       bit_clear(data, y%8);      // turn the pixel off 
....................  
....................    output_low(GLCD_DI);          // Set for instruction 
....................    glcd_writeByte(side, x);      // Set the horizontal address 
....................    output_high(GLCD_DI);         // Set for data 
....................    glcd_writeByte(side, data);   // Write the pixel data 
.................... } 
.................... #endif 
....................  
....................  
.................... // Purpose:    Fill the LCD screen with the passed in color 
.................... // Inputs:     ON  - turn all the pixels on 
.................... //             OFF - turn all the pixels off 
.................... void glcd_fillScreen(int1 color) 
.................... #ifdef FAST_GLCD 
.................... { 
....................    int8  data; 
....................    int8  *p1, *p2; 
....................    int16 i; 
....................  
....................    p1 = displayData.left; 
*
02BFE:  MOVLB  6
02C00:  CLRF   xA3
02C02:  MOVLW  2A
02C04:  MOVWF  xA2
....................    p2 = displayData.right; 
02C06:  MOVLW  02
02C08:  MOVWF  xA5
02C0A:  MOVLW  2A
02C0C:  MOVWF  xA4
....................    data = 0xFF * color; 
02C0E:  MOVF   xA0,W
02C10:  MULLW  FF
02C12:  MOVFF  FF3,6A1
....................  
....................    for(i=0; i<512; ++i) 
02C16:  CLRF   xA7
02C18:  CLRF   xA6
02C1A:  MOVF   xA7,W
02C1C:  SUBLW  01
02C1E:  BNC   2C54
....................    { 
....................       *p1++ = data; 
02C20:  MOVFF  6A3,03
02C24:  MOVF   xA2,W
02C26:  INCF   xA2,F
02C28:  BTFSC  FD8.2
02C2A:  INCF   xA3,F
02C2C:  MOVWF  FE9
02C2E:  MOVFF  03,FEA
02C32:  MOVFF  6A1,FEF
....................       *p2++ = data; 
02C36:  MOVFF  6A5,03
02C3A:  MOVF   xA4,W
02C3C:  INCF   xA4,F
02C3E:  BTFSC  FD8.2
02C40:  INCF   xA5,F
02C42:  MOVWF  FE9
02C44:  MOVFF  03,FEA
02C48:  MOVFF  6A1,FEF
....................    } 
02C4C:  INCF   xA6,F
02C4E:  BTFSC  FD8.2
02C50:  INCF   xA7,F
02C52:  BRA    2C1A
.................... } 
02C54:  MOVLB  0
02C56:  RETLW  00
.................... #else 
.................... { 
....................    int8 i, j; 
....................  
....................    // Loop through the vertical pages 
....................    for(i = 0; i < 8; ++i) 
....................    { 
....................       output_low(GLCD_DI);                      // Set for instruction 
....................       glcd_writeByte(GLCD_LEFT, 0b01000000);    // Set horizontal address to 0 
....................       glcd_writeByte(GLCD_RIGHT, 0b01000000); 
....................       glcd_writeByte(GLCD_LEFT, i | 0b10111000);// Set page address 
....................       glcd_writeByte(GLCD_RIGHT, i | 0b10111000); 
....................       output_high(GLCD_DI);                     // Set for data 
....................  
....................       // Loop through the horizontal sections 
....................       for(j = 0; j < 64; ++j) 
....................       { 
....................          glcd_writeByte(GLCD_LEFT, 0xFF*color);  // Turn pixels on or off 
....................          glcd_writeByte(GLCD_RIGHT, 0xFF*color); // Turn pixels on or off 
....................       } 
....................    } 
.................... } 
.................... #endif 
....................  
....................  
.................... // Purpose:    Write a byte of data to the specified chip 
.................... // Inputs:     1) chipSelect - which chip to write the data to 
.................... //             2) data - the byte of data to write 
.................... void glcd_writeByte(int1 side, BYTE data) 
.................... { 
....................    if(side)                   // Choose which side to write to 
*
02BC8:  MOVLB  6
02BCA:  MOVF   xB2,F
02BCC:  BZ    2BD4
....................       output_high(GLCD_CS2); 
02BCE:  BCF    F93.3
02BD0:  BSF    F8A.3
....................    else 
02BD2:  BRA    2BD8
....................       output_high(GLCD_CS1); 
02BD4:  BCF    F93.2
02BD6:  BSF    F8A.2
....................  
....................    output_low(GLCD_RW);       // Set for writing 
02BD8:  BCF    F93.6
02BDA:  BCF    F8A.6
....................    output_d(data);            // Put the data on the port 
02BDC:  CLRF   F95
02BDE:  MOVFF  6B3,F8C
....................    delay_cycles(1); 
02BE2:  NOP   
....................    output_high(GLCD_E);       // Pulse the enable pin 
02BE4:  BCF    F93.7
02BE6:  BSF    F8A.7
....................    delay_cycles(5); 
02BE8:  BRA    2BEA
02BEA:  BRA    2BEC
02BEC:  NOP   
....................    output_low(GLCD_E); 
02BEE:  BCF    F93.7
02BF0:  BCF    F8A.7
....................  
....................    output_low(GLCD_CS1);      // Reset the chip select lines 
02BF2:  BCF    F93.2
02BF4:  BCF    F8A.2
....................    output_low(GLCD_CS2); 
02BF6:  BCF    F93.3
02BF8:  BCF    F8A.3
.................... } 
02BFA:  MOVLB  0
02BFC:  RETLW  00
....................  
....................  
.................... // Purpose:    Reads a byte of data from the specified chip 
.................... // Ouputs:     A byte of data read from the chip 
.................... BYTE glcd_readByte(int1 side) 
.................... { 
....................    BYTE data;                 // Stores the data read from the LCD 
....................  
....................    set_tris_d(0xFF);          // Set port d to input 
....................    output_high(GLCD_RW);      // Set for reading 
....................  
....................    if(side)                   // Choose which side to write to 
....................       output_high(GLCD_CS2); 
....................    else 
....................       output_high(GLCD_CS1); 
....................  
....................    delay_cycles(1); 
....................    output_high(GLCD_E);       // Pulse the enable pin 
....................    delay_cycles(4); 
....................    data = input_d();          // Get the data from the display's output register 
....................    output_low(GLCD_E); 
....................  
....................    output_low(GLCD_CS1);      // Reset the chip select lines 
....................    output_low(GLCD_CS2); 
....................    return data;               // Return the read data 
.................... } 
....................  
.................... #endif 
....................  
.................... #include "GRAPHICS.c" 
.................... ///////////////////////////////////////////////////////////////////////// 
.................... ////                          graphics.c                             //// 
.................... ////                                                                 //// 
.................... ////   This file contains functions to draw lines, rectangles, bars, //// 
.................... ////   circles and text to a display. A function which draws a       //// 
.................... ////   single pixel must be defined before calling the functions in  //// 
.................... ////   this file. Call it glcd_pixel(x, y, color) where x is the     //// 
.................... ////   horizontal coordinate, y is the vertical coordinate, and      //// 
.................... ////   color is 1 bit to turn the pixel on or off.                   //// 
.................... ////                                                                 //// 
.................... ////   * Note: (0, 0) is treated as the upper left corner            //// 
.................... ////                                                                 //// 
.................... ///////////////////////////////////////////////////////////////////////// 
.................... ////                                                                 //// 
.................... ////  glcd_line(x1, y1, x2, y2, color)                               //// 
.................... ////     * Draws a line from the first point to the second point     //// 
.................... ////       with the given color                                      //// 
.................... ////       - color can be ON or OFF                                  //// 
.................... ////                                                                 //// 
.................... ////  glcd_rect(x1, y1, x2, y2, fill, color)                         //// 
.................... ////     * Draws a rectangle with one corner at point (x1,y1) and    //// 
.................... ////       the other corner at point (x2,y2)                         //// 
.................... ////       - fill can be YES or NO                                   //// 
.................... ////       - color can be ON or OFF                                  //// 
.................... ////                                                                 //// 
.................... ////  glcd_bar(x1, y1, x2, y2, width, color)                         //// 
.................... ////     * Draws a bar (wide line) from the first point to the       //// 
.................... ////       second point                                              //// 
.................... ////       - width is the number of pixels wide                      //// 
.................... ////       - color is ON or OFF                                      //// 
.................... ////                                                                 //// 
.................... ////  glcd_circle(x, y, radius, fill, color)                         //// 
.................... ////     * Draws a circle with center at (x,y)                       //// 
.................... ////       - fill can be YES or NO                                   //// 
.................... ////       - color can be ON or OFF                                  //// 
.................... ////                                                                 //// 
.................... ////  glcd_text57(x, y, textptr, size, color)                        //// 
.................... ////     * Write the null terminated text pointed to by textptr with //// 
.................... ////       the upper left coordinate of the first character at (x,y) //// 
.................... ////       Characters are 5 pixels wide and 7 pixels tall            //// 
.................... ////       - size is an integer that scales the size of the text     //// 
.................... ////       - color is ON or OFF                                      //// 
.................... ////     * Note - This function wraps characters to the next line    //// 
.................... ////              use #define GLCD_WIDTH to specify a display width  //// 
.................... ////                                                                 //// 
.................... ///////////////////////////////////////////////////////////////////////// 
.................... ////        (C) Copyright 1996, 2004 Custom Computer Services        //// 
.................... //// This source code may only be used by licensed users of the CCS  //// 
.................... //// C compiler.  This source code may only be distributed to other  //// 
.................... //// licensed users of the CCS C compiler.  No other use,            //// 
.................... //// reproduction or distribution is permitted without written       //// 
.................... //// permission.  Derivative programs created using this software    //// 
.................... //// in object code form are not restricted in any way.              //// 
.................... ///////////////////////////////////////////////////////////////////////// 
....................  
....................  
.................... ///////////////////////////////////////////////////////////////////////// 
.................... #ifndef GRAPHICS_DRAWING_FUNCTIONS 
.................... #define GRAPHICS_DRAWING_FUNCTIONS 
.................... ///////////////////////////////////////////////////////////////////////// 
....................  
....................  
.................... ///////////////////////////////////////////////////////////////////////// 
.................... #ifndef ON 
.................... #define ON  1 
.................... #endif 
....................  
.................... #ifndef OFF 
.................... #define OFF 0 
.................... #endif 
....................  
.................... #ifndef YES 
.................... #define YES 1 
.................... #endif 
....................  
.................... #ifndef NO 
.................... #define NO  0 
.................... #endif 
.................... ///////////////////////////////////////////////////////////////////////// 
....................  
....................  
.................... ///////////////////////////////////////////////////////////////////////// 
.................... //// Defines a 5x7 font 
.................... ///////////////////////////////////////////////////////////////////////// 
.................... const int8 FONT[51][5] ={0x00, 0x00, 0x00, 0x00, 0x00, // SPACE 
....................                          0x00, 0x00, 0x5F, 0x00, 0x00, // ! 
....................                          0x00, 0x03, 0x00, 0x03, 0x00, // " 
....................                          0x14, 0x3E, 0x14, 0x3E, 0x14, // # 
....................                          0x24, 0x2A, 0x7F, 0x2A, 0x12, // $ 
....................                          0x43, 0x33, 0x08, 0x66, 0x61, // % 
....................                          0x36, 0x49, 0x55, 0x22, 0x50, // & 
....................                          0x00, 0x05, 0x03, 0x00, 0x00, // ' 
....................                          0x00, 0x1C, 0x22, 0x41, 0x00, // ( 
....................                          0x00, 0x41, 0x22, 0x1C, 0x00, // ) 
....................                          0x14, 0x08, 0x3E, 0x08, 0x14, // * 
....................                          0x08, 0x08, 0x3E, 0x08, 0x08, // + 
....................                          0x00, 0x50, 0x30, 0x00, 0x00, // , 
....................                          0x08, 0x08, 0x08, 0x08, 0x08, // - 
....................                          0x00, 0x60, 0x60, 0x00, 0x00, // . 
....................                          0x20, 0x10, 0x08, 0x04, 0x02, // / 
....................                          0x3E, 0x51, 0x49, 0x45, 0x3E, // 0 
....................                          0x00, 0x04, 0x02, 0x7F, 0x00, // 1 
....................                          0x42, 0x61, 0x51, 0x49, 0x46, // 2 
....................                          0x22, 0x41, 0x49, 0x49, 0x36, // 3 
....................                          0x18, 0x14, 0x12, 0x7F, 0x10, // 4 
....................                          0x27, 0x45, 0x45, 0x45, 0x39, // 5 
....................                          0x3E, 0x49, 0x49, 0x49, 0x32, // 6 
....................                          0x01, 0x01, 0x71, 0x09, 0x07, // 7 
....................                          0x36, 0x49, 0x49, 0x49, 0x36, // 8 
....................                          0x26, 0x49, 0x49, 0x49, 0x3E, // 9 
....................                          0x00, 0x36, 0x36, 0x00, 0x00, // : 
....................                          0x00, 0x56, 0x36, 0x00, 0x00, // ; 
....................                          0x08, 0x14, 0x22, 0x41, 0x00, // < 
....................                          0x14, 0x14, 0x14, 0x14, 0x14, // = 
....................                          0x00, 0x41, 0x22, 0x14, 0x08, // > 
....................                          0x02, 0x01, 0x51, 0x09, 0x06, // ? 
....................                          0x3E, 0x41, 0x59, 0x55, 0x5E, // @ 
....................                          0x7E, 0x09, 0x09, 0x09, 0x7E, // A 
....................                          0x7F, 0x49, 0x49, 0x49, 0x36, // B 
....................                          0x3E, 0x41, 0x41, 0x41, 0x22, // C 
....................                          0x7F, 0x41, 0x41, 0x41, 0x3E, // D 
....................                          0x7F, 0x49, 0x49, 0x49, 0x41, // E 
....................                          0x7F, 0x09, 0x09, 0x09, 0x01, // F 
....................                          0x3E, 0x41, 0x41, 0x49, 0x3A, // G 
....................                          0x7F, 0x08, 0x08, 0x08, 0x7F, // H 
....................                          0x00, 0x41, 0x7F, 0x41, 0x00, // I 
....................                          0x30, 0x40, 0x40, 0x40, 0x3F, // J 
....................                          0x7F, 0x08, 0x14, 0x22, 0x41, // K 
....................                          0x7F, 0x40, 0x40, 0x40, 0x40, // L 
....................                          0x7F, 0x02, 0x0C, 0x02, 0x7F, // M 
....................                          0x7F, 0x02, 0x04, 0x08, 0x7F, // N 
....................                          0x3E, 0x41, 0x41, 0x41, 0x3E, // O 
....................                          0x7F, 0x09, 0x09, 0x09, 0x06, // P 
....................                          0x1E, 0x21, 0x21, 0x21, 0x5E, // Q 
....................                          0x7F, 0x09, 0x09, 0x09, 0x76};// R 
....................  
.................... const int8 FONT2[44][5]={0x26, 0x49, 0x49, 0x49, 0x32, // S 
....................                          0x01, 0x01, 0x7F, 0x01, 0x01, // T 
....................                          0x3F, 0x40, 0x40, 0x40, 0x3F, // U 
....................                          0x1F, 0x20, 0x40, 0x20, 0x1F, // V 
....................                          0x7F, 0x20, 0x10, 0x20, 0x7F, // W 
....................                          0x41, 0x22, 0x1C, 0x22, 0x41, // X 
....................                          0x07, 0x08, 0x70, 0x08, 0x07, // Y 
....................                          0x61, 0x51, 0x49, 0x45, 0x43, // Z 
....................                          0x00, 0x7F, 0x41, 0x00, 0x00, // [ 
....................                          0x02, 0x04, 0x08, 0x10, 0x20, // \ 
....................                          0x00, 0x00, 0x41, 0x7F, 0x00, // ] 
....................                          0x04, 0x02, 0x01, 0x02, 0x04, // ^ 
....................                          0x40, 0x40, 0x40, 0x40, 0x40, // _ 
....................                          0x00, 0x01, 0x02, 0x04, 0x00, // ` 
....................                          0x20, 0x54, 0x54, 0x54, 0x78, // a 
....................                          0x7F, 0x44, 0x44, 0x44, 0x38, // b 
....................                          0x38, 0x44, 0x44, 0x44, 0x44, // c 
....................                          0x38, 0x44, 0x44, 0x44, 0x7F, // d 
....................                          0x38, 0x54, 0x54, 0x54, 0x18, // e 
....................                          0x04, 0x04, 0x7E, 0x05, 0x05, // f 
....................                          0x08, 0x54, 0x54, 0x54, 0x3C, // g 
....................                          0x7F, 0x08, 0x04, 0x04, 0x78, // h 
....................                          0x00, 0x44, 0x7D, 0x40, 0x00, // i 
....................                          0x20, 0x40, 0x44, 0x3D, 0x00, // j 
....................                          0x7F, 0x10, 0x28, 0x44, 0x00, // k 
....................                          0x00, 0x41, 0x7F, 0x40, 0x00, // l 
....................                          0x7C, 0x04, 0x78, 0x04, 0x78, // m 
....................                          0x7C, 0x08, 0x04, 0x04, 0x78, // n 
....................                          0x38, 0x44, 0x44, 0x44, 0x38, // o 
....................                          0x7C, 0x14, 0x14, 0x14, 0x08, // p 
....................                          0x08, 0x14, 0x14, 0x14, 0x7C, // q 
....................                          0x00, 0x7C, 0x08, 0x04, 0x04, // r 
....................                          0x48, 0x54, 0x54, 0x54, 0x20, // s 
....................                          0x04, 0x04, 0x3F, 0x44, 0x44, // t 
....................                          0x3C, 0x40, 0x40, 0x20, 0x7C, // u 
....................                          0x1C, 0x20, 0x40, 0x20, 0x1C, // v 
....................                          0x3C, 0x40, 0x30, 0x40, 0x3C, // w 
....................                          0x44, 0x28, 0x10, 0x28, 0x44, // x 
....................                          0x0C, 0x50, 0x50, 0x50, 0x3C, // y 
....................                          0x44, 0x64, 0x54, 0x4C, 0x44, // z 
....................                          0x00, 0x08, 0x36, 0x41, 0x41, // { 
....................                          0x00, 0x00, 0x7F, 0x00, 0x00, // | 
....................                          0x41, 0x41, 0x36, 0x08, 0x00, // } 
....................                          0x02, 0x01, 0x02, 0x04, 0x02};// ~ 
.................... ///////////////////////////////////////////////////////////////////////// 
....................  
....................  
.................... ///////////////////////////////////////////////////////////////////////// 
.................... // Purpose:       Draw a line on a graphic LCD using Bresenham's 
.................... //                line drawing algorithm 
.................... // Inputs:        (x1, y1) - the start coordinate 
.................... //                (x2, y2) - the end coordinate 
.................... //                color - ON or OFF 
.................... // Dependencies:  glcd_pixel() 
.................... ///////////////////////////////////////////////////////////////////////// 
.................... #ifdef LARGE_LCD 
.................... void glcd_line(int16 x1, int16 y1, int16 x2, int16 y2, int1 color) 
.................... #else 
.................... void glcd_line(int8 x1, int8 y1, int8 x2, int8 y2, int1 color) 
.................... #endif 
.................... { 
*
03038:  MOVLW  01
0303A:  MOVLB  6
0303C:  MOVWF  xC5
0303E:  MOVWF  xC6
03040:  CLRF   xCB
....................    int16        dy, dx; 
....................    signed int8  addx=1, addy=1; 
....................    signed int16 P, diff; 
....................  
....................    #ifdef LARGE_LCD 
....................    int16 i=0; 
....................    dx = abs((signed int16)(x2 - x1)); 
....................    dy = abs((signed int16)(y2 - y1)); 
....................    #else 
....................    int8 i=0; 
....................    dx = abs((signed int8)(x2 - x1)); 
03042:  MOVF   xBC,W
03044:  SUBWF  xBE,W
03046:  MOVWF  xCC
03048:  MOVF   xCC,W
0304A:  BTFSS  xCC.7
0304C:  BRA    3054
0304E:  MOVLW  00
03050:  BSF    FD8.0
03052:  SUBFWB xCC,W
03054:  CLRF   03
03056:  MOVWF  xC3
03058:  MOVFF  03,6C4
....................    dy = abs((signed int8)(y2 - y1)); 
0305C:  MOVF   xBD,W
0305E:  SUBWF  xBF,W
03060:  MOVWF  xCC
03062:  MOVF   xCC,W
03064:  BTFSS  xCC.7
03066:  BRA    306E
03068:  MOVLW  00
0306A:  BSF    FD8.0
0306C:  SUBFWB xCC,W
0306E:  CLRF   03
03070:  MOVWF  xC1
03072:  MOVFF  03,6C2
....................    #endif 
....................  
....................    if(x1 > x2) 
03076:  MOVF   xBC,W
03078:  SUBWF  xBE,W
0307A:  BC    3080
....................       addx = -1; 
0307C:  MOVLW  FF
0307E:  MOVWF  xC5
....................    if(y1 > y2) 
03080:  MOVF   xBD,W
03082:  SUBWF  xBF,W
03084:  BC    308A
....................       addy = -1; 
03086:  MOVLW  FF
03088:  MOVWF  xC6
....................  
....................    if(dx >= dy) 
0308A:  MOVF   xC2,W
0308C:  SUBWF  xC4,W
0308E:  BNC   3106
03090:  BNZ   3098
03092:  MOVF   xC1,W
03094:  SUBWF  xC3,W
03096:  BNC   3106
....................    { 
....................       dy *= 2; 
03098:  BCF    FD8.0
0309A:  RLCF   xC1,F
0309C:  RLCF   xC2,F
....................       P = dy - dx; 
0309E:  MOVF   xC3,W
030A0:  SUBWF  xC1,W
030A2:  MOVWF  00
030A4:  MOVF   xC4,W
030A6:  SUBWFB xC2,W
030A8:  MOVFF  00,6C7
030AC:  MOVWF  xC8
....................       diff = P - dx; 
030AE:  MOVF   xC3,W
030B0:  SUBWF  xC7,W
030B2:  MOVWF  xC9
030B4:  MOVF   xC4,W
030B6:  SUBWFB xC8,W
030B8:  MOVWF  xCA
....................  
....................       for(; i<=dx; ++i) 
030BA:  MOVF   xC4,F
030BC:  BNZ   30C4
030BE:  MOVF   xCB,W
030C0:  SUBWF  xC3,W
030C2:  BNC   3104
....................       { 
....................          glcd_pixel(x1, y1, color); 
030C4:  MOVFF  6BC,6CC
030C8:  MOVFF  6BD,6CD
030CC:  MOVFF  6C0,6CE
030D0:  MOVLB  0
030D2:  RCALL  2DB8
....................  
....................          if(P < 0) 
030D4:  MOVLB  6
030D6:  BTFSC  xC8.7
030D8:  BRA    30DC
030DA:  BRA    30EC
....................          { 
....................             P  += dy; 
030DC:  MOVF   xC1,W
030DE:  ADDWF  xC7,F
030E0:  MOVF   xC2,W
030E2:  ADDWFC xC8,F
....................             x1 += addx; 
030E4:  MOVF   xC5,W
030E6:  ADDWF  xBC,W
030E8:  MOVWF  xBC
....................          } 
....................          else 
030EA:  BRA    3100
....................          { 
....................             P  += diff; 
030EC:  MOVF   xC9,W
030EE:  ADDWF  xC7,F
030F0:  MOVF   xCA,W
030F2:  ADDWFC xC8,F
....................             x1 += addx; 
030F4:  MOVF   xC5,W
030F6:  ADDWF  xBC,W
030F8:  MOVWF  xBC
....................             y1 += addy; 
030FA:  MOVF   xC6,W
030FC:  ADDWF  xBD,W
030FE:  MOVWF  xBD
....................          } 
....................       } 
03100:  INCF   xCB,F
03102:  BRA    30BA
....................    } 
....................    else 
03104:  BRA    3172
....................    { 
....................       dx *= 2; 
03106:  BCF    FD8.0
03108:  RLCF   xC3,F
0310A:  RLCF   xC4,F
....................       P = dx - dy; 
0310C:  MOVF   xC1,W
0310E:  SUBWF  xC3,W
03110:  MOVWF  00
03112:  MOVF   xC2,W
03114:  SUBWFB xC4,W
03116:  MOVFF  00,6C7
0311A:  MOVWF  xC8
....................       diff = P - dy; 
0311C:  MOVF   xC1,W
0311E:  SUBWF  xC7,W
03120:  MOVWF  xC9
03122:  MOVF   xC2,W
03124:  SUBWFB xC8,W
03126:  MOVWF  xCA
....................  
....................       for(; i<=dy; ++i) 
03128:  MOVF   xC2,F
0312A:  BNZ   3132
0312C:  MOVF   xCB,W
0312E:  SUBWF  xC1,W
03130:  BNC   3172
....................       { 
....................          glcd_pixel(x1, y1, color); 
03132:  MOVFF  6BC,6CC
03136:  MOVFF  6BD,6CD
0313A:  MOVFF  6C0,6CE
0313E:  MOVLB  0
03140:  RCALL  2DB8
....................  
....................          if(P < 0) 
03142:  MOVLB  6
03144:  BTFSC  xC8.7
03146:  BRA    314A
03148:  BRA    315A
....................          { 
....................             P  += dx; 
0314A:  MOVF   xC3,W
0314C:  ADDWF  xC7,F
0314E:  MOVF   xC4,W
03150:  ADDWFC xC8,F
....................             y1 += addy; 
03152:  MOVF   xC6,W
03154:  ADDWF  xBD,W
03156:  MOVWF  xBD
....................          } 
....................          else 
03158:  BRA    316E
....................          { 
....................             P  += diff; 
0315A:  MOVF   xC9,W
0315C:  ADDWF  xC7,F
0315E:  MOVF   xCA,W
03160:  ADDWFC xC8,F
....................             x1 += addx; 
03162:  MOVF   xC5,W
03164:  ADDWF  xBC,W
03166:  MOVWF  xBC
....................             y1 += addy; 
03168:  MOVF   xC6,W
0316A:  ADDWF  xBD,W
0316C:  MOVWF  xBD
....................          } 
....................       } 
0316E:  INCF   xCB,F
03170:  BRA    3128
....................    } 
.................... } 
03172:  MOVLB  0
03174:  RETLW  00
....................  
....................  
.................... ///////////////////////////////////////////////////////////////////////// 
.................... // Purpose:       Draw a rectangle on a graphic LCD 
.................... // Inputs:        (x1, y1) - the start coordinate 
.................... //                (x2, y2) - the end coordinate 
.................... //                fill  - YES or NO 
.................... //                color - ON or OFF 
.................... // Dependencies:  glcd_pixel(), glcd_line() 
.................... ///////////////////////////////////////////////////////////////////////// 
.................... #ifdef LARGE_LCD 
.................... void glcd_rect(int16 x1, int16 y1, int16 x2, int16 y2, int1 fill, int1 color) 
.................... #else 
.................... void glcd_rect(int8 x1, int8 y1, int8 x2, int8 y2, int1 fill, int1 color) 
.................... #endif 
.................... { 
....................    if(fill) 
03176:  MOVLB  6
03178:  MOVF   xB5,F
0317A:  BZ    31D8
....................    { 
....................       #ifdef LARGE_LCD 
....................       int16 i, xmin, xmax, ymin, ymax; 
....................       #else 
....................       int8  i, xmin, xmax, ymin, ymax; 
....................       #endif 
....................  
....................       if(x1 < x2)                            //  Find x min and max 
0317C:  MOVF   xB3,W
0317E:  SUBWF  xB1,W
03180:  BC    318C
....................       { 
....................          xmin = x1; 
03182:  MOVFF  6B1,6B8
....................          xmax = x2; 
03186:  MOVFF  6B3,6B9
....................       } 
....................       else 
0318A:  BRA    3194
....................       { 
....................          xmin = x2; 
0318C:  MOVFF  6B3,6B8
....................          xmax = x1; 
03190:  MOVFF  6B1,6B9
....................       } 
....................  
....................       if(y1 < y2)                            // Find the y min and max 
03194:  MOVF   xB4,W
03196:  SUBWF  xB2,W
03198:  BC    31A4
....................       { 
....................          ymin = y1; 
0319A:  MOVFF  6B2,6BA
....................          ymax = y2; 
0319E:  MOVFF  6B4,6BB
....................       } 
....................       else 
031A2:  BRA    31AC
....................       { 
....................          ymin = y2; 
031A4:  MOVFF  6B4,6BA
....................          ymax = y1; 
031A8:  MOVFF  6B2,6BB
....................       } 
....................  
....................       for(; xmin <= xmax; ++xmin) 
031AC:  MOVF   xB8,W
031AE:  SUBWF  xB9,W
031B0:  BNC   31D6
....................       { 
....................          for(i=ymin; i<=ymax; ++i) 
031B2:  MOVFF  6BA,6B7
031B6:  MOVF   xB7,W
031B8:  SUBWF  xBB,W
031BA:  BNC   31D2
....................          { 
....................             glcd_pixel(xmin, i, color); 
031BC:  MOVFF  6B8,6CC
031C0:  MOVFF  6B7,6CD
031C4:  MOVFF  6B6,6CE
031C8:  MOVLB  0
031CA:  RCALL  2DB8
....................          } 
031CC:  MOVLB  6
031CE:  INCF   xB7,F
031D0:  BRA    31B6
....................       } 
031D2:  INCF   xB8,F
031D4:  BRA    31AC
....................    } 
....................    else 
031D6:  BRA    3234
....................    { 
....................       glcd_line(x1, y1, x2, y1, color);      // Draw the 4 sides 
031D8:  MOVFF  6B1,6BC
031DC:  MOVFF  6B2,6BD
031E0:  MOVFF  6B3,6BE
031E4:  MOVFF  6B2,6BF
031E8:  MOVFF  6B6,6C0
031EC:  MOVLB  0
031EE:  RCALL  3038
....................       glcd_line(x1, y2, x2, y2, color); 
031F0:  MOVFF  6B1,6BC
031F4:  MOVFF  6B4,6BD
031F8:  MOVFF  6B3,6BE
031FC:  MOVFF  6B4,6BF
03200:  MOVFF  6B6,6C0
03204:  RCALL  3038
....................       glcd_line(x1, y1, x1, y2, color); 
03206:  MOVFF  6B1,6BC
0320A:  MOVFF  6B2,6BD
0320E:  MOVFF  6B1,6BE
03212:  MOVFF  6B4,6BF
03216:  MOVFF  6B6,6C0
0321A:  RCALL  3038
....................       glcd_line(x2, y1, x2, y2, color); 
0321C:  MOVFF  6B3,6BC
03220:  MOVFF  6B2,6BD
03224:  MOVFF  6B3,6BE
03228:  MOVFF  6B4,6BF
0322C:  MOVFF  6B6,6C0
03230:  RCALL  3038
03232:  MOVLB  6
....................    } 
.................... } 
03234:  MOVLB  0
03236:  RETLW  00
....................  
.................... ///////////////////////////////////////////////////////////////////////// 
.................... // Purpose:       Draw a bar (wide line) on a graphic LCD 
.................... // Inputs:        (x1, y1) - the start coordinate 
.................... //                (x2, y2) - the end coordinate 
.................... //                width  - The number of pixels wide 
.................... //                color - ON or OFF 
.................... ///////////////////////////////////////////////////////////////////////// 
.................... #ifdef LARGE_LCD 
.................... void glcd_bar(int16 x1, int16 y1, int16 x2, int16 y2, int8 width, int1 color) 
.................... #else 
.................... void glcd_bar(int8 x1, int8 y1, int8 x2, int8 y2, int8 width, int1 color) 
.................... #endif 
.................... { 
....................    int8         half_width; 
....................    signed int16 dy, dx; 
....................    signed int8  addx=1, addy=1, j; 
....................    signed int16 P, diff, c1, c2; 
....................  
....................    #ifdef LARGE_LCD 
....................    int16 i=0; 
....................    dx = abs((signed int16)(x2 - x1)); 
....................    dy = abs((signed int16)(y2 - y1)); 
....................    #else 
....................    int8 i=0; 
....................    dx = abs((signed int8)(x2 - x1)); 
....................    dy = abs((signed int8)(y2 - y1)); 
....................    #endif 
....................  
....................    half_width = width/2; 
....................    c1 = -(dx*x1 + dy*y1); 
....................    c2 = -(dx*x2 + dy*y2); 
....................  
....................    if(x1 > x2) 
....................    { 
....................       signed int16 temp; 
....................       temp = c1; 
....................       c1 = c2; 
....................       c2 = temp; 
....................       addx = -1; 
....................    } 
....................    if(y1 > y2) 
....................    { 
....................       signed int16 temp; 
....................       temp = c1; 
....................       c1 = c2; 
....................       c2 = temp; 
....................       addy = -1; 
....................    } 
....................  
....................    if(dx >= dy) 
....................    { 
....................       P = 2*dy - dx; 
....................       diff = P - dx; 
....................  
....................       for(i=0; i<=dx; ++i) 
....................       { 
....................          for(j=-half_width; j<half_width+width%2; ++j) 
....................          { 
....................             #ifdef LARGE_LCD 
....................             int16 temp; 
....................             #else 
....................             int8 temp; 
....................             #endif 
....................  
....................             temp = dx*x1+dy*(y1+j);    // Use more RAM to increase speed 
....................             if(temp+c1 >= 0 && temp+c2 <=0) 
....................                glcd_pixel(x1, y1+j, color); 
....................          } 
....................          if(P < 0) 
....................          { 
....................             P  += 2*dy; 
....................             x1 += addx; 
....................          } 
....................          else 
....................          { 
....................             P  += diff; 
....................             x1 += addx; 
....................             y1 += addy; 
....................          } 
....................       } 
....................    } 
....................    else 
....................    { 
....................       P = 2*dx - dy; 
....................       diff = P - dy; 
....................  
....................       for(i=0; i<=dy; ++i) 
....................       { 
....................          if(P < 0) 
....................          { 
....................             P  += 2*dx; 
....................             y1 += addy; 
....................          } 
....................          else 
....................          { 
....................             P  += diff; 
....................             x1 += addx; 
....................             y1 += addy; 
....................          } 
....................          for(j=-half_width; j<half_width+width%2; ++j) 
....................          { 
....................             #ifdef LARGE_LCD 
....................             int16 temp; 
....................             #else 
....................             int8 temp; 
....................             #endif 
....................  
....................             temp = dx*x1+dy*(y1+j);    // Use more RAM to increase speed 
....................             if(temp+c1 >= 0 && temp+c2 <=0) 
....................                glcd_pixel(x1+j, y1, color); 
....................          } 
....................       } 
....................    } 
.................... } 
....................  
....................  
.................... ///////////////////////////////////////////////////////////////////////// 
.................... // Purpose:       Draw a circle on a graphic LCD 
.................... // Inputs:        (x,y) - the center of the circle 
.................... //                radius - the radius of the circle 
.................... //                fill - YES or NO 
.................... //                color - ON or OFF 
.................... ///////////////////////////////////////////////////////////////////////// 
.................... #ifdef LARGE_LCD 
.................... void glcd_circle(int16 x, int16 y, int16 radius, int1 fill, int1 color) 
.................... #else 
.................... void glcd_circle(int8 x, int8 y, int8 radius, int1 fill, int1 color) 
.................... #endif 
.................... { 
....................    #ifdef LARGE_LCD 
....................    signed int16 a, b, P; 
....................    #else 
....................    signed int8  a, b, P; 
....................    #endif 
....................  
....................    a = 0; 
*
04846:  MOVLB  6
04848:  CLRF   xB2
....................    b = radius; 
0484A:  MOVFF  6AF,6B3
....................    P = 1 - radius; 
0484E:  MOVLW  01
04850:  BSF    FD8.0
04852:  SUBFWB xAF,W
04854:  MOVWF  xB4
....................  
....................    do 
....................    { 
....................       if(fill) 
04856:  MOVF   xB0,F
04858:  BZ    4924
....................       { 
....................          glcd_line(x-a, y+b, x+a, y+b, color); 
0485A:  MOVF   xB2,W
0485C:  SUBWF  xAD,W
0485E:  MOVWF  xB5
04860:  MOVF   xB3,W
04862:  ADDWF  xAE,W
04864:  MOVWF  xB6
04866:  MOVF   xB2,W
04868:  ADDWF  xAD,W
0486A:  MOVWF  xB7
0486C:  MOVF   xB3,W
0486E:  ADDWF  xAE,W
04870:  MOVWF  xB8
04872:  MOVFF  6B5,6BC
04876:  MOVFF  6B6,6BD
0487A:  MOVFF  6B7,6BE
0487E:  MOVWF  xBF
04880:  MOVFF  6B1,6C0
04884:  MOVLB  0
04886:  CALL   3038
....................          glcd_line(x-a, y-b, x+a, y-b, color); 
0488A:  MOVLB  6
0488C:  MOVF   xB2,W
0488E:  SUBWF  xAD,W
04890:  MOVWF  xB5
04892:  MOVF   xB3,W
04894:  SUBWF  xAE,W
04896:  MOVWF  xB6
04898:  MOVF   xB2,W
0489A:  ADDWF  xAD,W
0489C:  MOVWF  xB7
0489E:  MOVF   xB3,W
048A0:  SUBWF  xAE,W
048A2:  MOVWF  xB8
048A4:  MOVFF  6B5,6BC
048A8:  MOVFF  6B6,6BD
048AC:  MOVFF  6B7,6BE
048B0:  MOVWF  xBF
048B2:  MOVFF  6B1,6C0
048B6:  MOVLB  0
048B8:  CALL   3038
....................          glcd_line(x-b, y+a, x+b, y+a, color); 
048BC:  MOVLB  6
048BE:  MOVF   xB3,W
048C0:  SUBWF  xAD,W
048C2:  MOVWF  xB5
048C4:  MOVF   xB2,W
048C6:  ADDWF  xAE,W
048C8:  MOVWF  xB6
048CA:  MOVF   xB3,W
048CC:  ADDWF  xAD,W
048CE:  MOVWF  xB7
048D0:  MOVF   xB2,W
048D2:  ADDWF  xAE,W
048D4:  MOVWF  xB8
048D6:  MOVFF  6B5,6BC
048DA:  MOVFF  6B6,6BD
048DE:  MOVFF  6B7,6BE
048E2:  MOVWF  xBF
048E4:  MOVFF  6B1,6C0
048E8:  MOVLB  0
048EA:  CALL   3038
....................          glcd_line(x-b, y-a, x+b, y-a, color); 
048EE:  MOVLB  6
048F0:  MOVF   xB3,W
048F2:  SUBWF  xAD,W
048F4:  MOVWF  xB5
048F6:  MOVF   xB2,W
048F8:  SUBWF  xAE,W
048FA:  MOVWF  xB6
048FC:  MOVF   xB3,W
048FE:  ADDWF  xAD,W
04900:  MOVWF  xB7
04902:  MOVF   xB2,W
04904:  SUBWF  xAE,W
04906:  MOVWF  xB8
04908:  MOVFF  6B5,6BC
0490C:  MOVFF  6B6,6BD
04910:  MOVFF  6B7,6BE
04914:  MOVWF  xBF
04916:  MOVFF  6B1,6C0
0491A:  MOVLB  0
0491C:  CALL   3038
....................       } 
....................       else 
04920:  BRA    4A12
04922:  MOVLB  6
....................       { 
....................          glcd_pixel(a+x, b+y, color); 
04924:  MOVF   xAD,W
04926:  ADDWF  xB2,W
04928:  MOVWF  xB5
0492A:  MOVF   xAE,W
0492C:  ADDWF  xB3,W
0492E:  MOVWF  xB6
04930:  MOVFF  6B5,6CC
04934:  MOVWF  xCD
04936:  MOVFF  6B1,6CE
0493A:  MOVLB  0
0493C:  CALL   2DB8
....................          glcd_pixel(b+x, a+y, color); 
04940:  MOVLB  6
04942:  MOVF   xAD,W
04944:  ADDWF  xB3,W
04946:  MOVWF  xB5
04948:  MOVF   xAE,W
0494A:  ADDWF  xB2,W
0494C:  MOVWF  xB6
0494E:  MOVFF  6B5,6CC
04952:  MOVWF  xCD
04954:  MOVFF  6B1,6CE
04958:  MOVLB  0
0495A:  CALL   2DB8
....................          glcd_pixel(x-a, b+y, color); 
0495E:  MOVLB  6
04960:  MOVF   xB2,W
04962:  SUBWF  xAD,W
04964:  MOVWF  xB5
04966:  MOVF   xAE,W
04968:  ADDWF  xB3,W
0496A:  MOVWF  xB6
0496C:  MOVFF  6B5,6CC
04970:  MOVWF  xCD
04972:  MOVFF  6B1,6CE
04976:  MOVLB  0
04978:  CALL   2DB8
....................          glcd_pixel(x-b, a+y, color); 
0497C:  MOVLB  6
0497E:  MOVF   xB3,W
04980:  SUBWF  xAD,W
04982:  MOVWF  xB5
04984:  MOVF   xAE,W
04986:  ADDWF  xB2,W
04988:  MOVWF  xB6
0498A:  MOVFF  6B5,6CC
0498E:  MOVWF  xCD
04990:  MOVFF  6B1,6CE
04994:  MOVLB  0
04996:  CALL   2DB8
....................          glcd_pixel(b+x, y-a, color); 
0499A:  MOVLB  6
0499C:  MOVF   xAD,W
0499E:  ADDWF  xB3,W
049A0:  MOVWF  xB5
049A2:  MOVF   xB2,W
049A4:  SUBWF  xAE,W
049A6:  MOVWF  xB6
049A8:  MOVFF  6B5,6CC
049AC:  MOVWF  xCD
049AE:  MOVFF  6B1,6CE
049B2:  MOVLB  0
049B4:  CALL   2DB8
....................          glcd_pixel(a+x, y-b, color); 
049B8:  MOVLB  6
049BA:  MOVF   xAD,W
049BC:  ADDWF  xB2,W
049BE:  MOVWF  xB5
049C0:  MOVF   xB3,W
049C2:  SUBWF  xAE,W
049C4:  MOVWF  xB6
049C6:  MOVFF  6B5,6CC
049CA:  MOVWF  xCD
049CC:  MOVFF  6B1,6CE
049D0:  MOVLB  0
049D2:  CALL   2DB8
....................          glcd_pixel(x-a, y-b, color); 
049D6:  MOVLB  6
049D8:  MOVF   xB2,W
049DA:  SUBWF  xAD,W
049DC:  MOVWF  xB5
049DE:  MOVF   xB3,W
049E0:  SUBWF  xAE,W
049E2:  MOVWF  xB6
049E4:  MOVFF  6B5,6CC
049E8:  MOVWF  xCD
049EA:  MOVFF  6B1,6CE
049EE:  MOVLB  0
049F0:  CALL   2DB8
....................          glcd_pixel(x-b, y-a, color); 
049F4:  MOVLB  6
049F6:  MOVF   xB3,W
049F8:  SUBWF  xAD,W
049FA:  MOVWF  xB5
049FC:  MOVF   xB2,W
049FE:  SUBWF  xAE,W
04A00:  MOVWF  xB6
04A02:  MOVFF  6B5,6CC
04A06:  MOVWF  xCD
04A08:  MOVFF  6B1,6CE
04A0C:  MOVLB  0
04A0E:  CALL   2DB8
....................       } 
....................  
....................       if(P < 0) 
04A12:  MOVLB  6
04A14:  BTFSC  xB4.7
04A16:  BRA    4A1A
04A18:  BRA    4A36
....................          P += 3 + 2 * a++; 
04A1A:  MOVF   xB2,W
04A1C:  INCF   xB2,F
04A1E:  MOVWF  xB5
04A20:  MOVLW  02
04A22:  MOVWF  xB6
04A24:  MOVFF  6B5,6B7
04A28:  MOVLB  0
04A2A:  RCALL  47F8
04A2C:  MOVF   01,W
04A2E:  ADDLW  03
04A30:  MOVLB  6
04A32:  ADDWF  xB4,F
....................       else 
04A34:  BRA    4A58
....................          P += 5 + 2 * (a++ - b--); 
04A36:  MOVF   xB2,W
04A38:  INCF   xB2,F
04A3A:  MOVWF  xB5
04A3C:  MOVF   xB3,W
04A3E:  DECF   xB3,F
04A40:  SUBWF  xB5,W
04A42:  MOVWF  xB5
04A44:  MOVLW  02
04A46:  MOVWF  xB6
04A48:  MOVFF  6B5,6B7
04A4C:  MOVLB  0
04A4E:  RCALL  47F8
04A50:  MOVF   01,W
04A52:  ADDLW  05
04A54:  MOVLB  6
04A56:  ADDWF  xB4,F
....................     } while(a <= b); 
04A58:  MOVF   xB2,W
04A5A:  XORLW  80
04A5C:  MOVWF  00
04A5E:  MOVF   xB3,W
04A60:  XORLW  80
04A62:  SUBWF  00,W
04A64:  BTFSC  FD8.2
04A66:  BRA    4856
04A68:  BTFSS  FD8.0
04A6A:  BRA    4856
.................... } 
04A6C:  MOVLB  0
04A6E:  RETLW  00
....................  
....................  
.................... ///////////////////////////////////////////////////////////////////////// 
.................... // Purpose:       Write text on a graphic LCD 
.................... // Inputs:        (x,y) - The upper left coordinate of the first letter 
.................... //                textptr - A pointer to an array of text to display 
.................... //                size - The size of the text: 1 = 5x7, 2 = 10x14, ... 
.................... //                color - ON or OFF 
.................... ///////////////////////////////////////////////////////////////////////// 
.................... #ifdef LARGE_LCD 
.................... void glcd_text57(int16 x, int16 y, char* textptr, int8 size, int1 color) 
.................... #else 
.................... void glcd_text57(int8 x, int8 y, char* textptr, int8 size, int1 color) 
.................... #endif 
.................... { 
....................    int8 j, k, l, m;                       // Loop counters 
....................    int8 pixelData[5];                     // Stores character data 
....................  
....................    for(; *textptr != '\0'; ++textptr, ++x)// Loop through the passed string 
*
02E74:  MOVFF  6B4,03
02E78:  MOVLB  6
02E7A:  MOVFF  6B3,FE9
02E7E:  MOVFF  6B4,FEA
02E82:  MOVF   FEF,F
02E84:  BTFSC  FD8.2
02E86:  BRA    3034
....................    { 
....................       if(*textptr < 'S') // Checks if the letter is in the first font array 
02E88:  MOVFF  6B4,03
02E8C:  MOVFF  6B3,FE9
02E90:  MOVFF  6B4,FEA
02E94:  MOVF   FEF,W
02E96:  SUBLW  52
02E98:  BNC   2EEE
....................          memcpy(pixelData, FONT[*textptr - ' '], 5); 
02E9A:  MOVFF  6B4,03
02E9E:  MOVFF  6B3,FE9
02EA2:  MOVFF  6B4,FEA
02EA6:  MOVLW  20
02EA8:  SUBWF  FEF,W
02EAA:  MULLW  05
02EAC:  MOVF   FF3,W
02EAE:  CLRF   03
02EB0:  MOVWF  xC0
02EB2:  MOVLW  06
02EB4:  MOVWF  FEA
02EB6:  MOVLW  BB
02EB8:  MOVWF  FE9
02EBA:  CLRF   xC4
02EBC:  MOVFF  6C0,6C3
02EC0:  MOVFF  FF2,6C1
02EC4:  BCF    FF2.6
02EC6:  BCF    FF2.7
02EC8:  MOVLW  05
02ECA:  MOVWF  01
02ECC:  CLRF   FF7
02ECE:  MOVF   xC0,W
02ED0:  MOVLB  0
02ED2:  CALL   0150
02ED6:  TBLRD*-
02ED8:  TBLRD*+
02EDA:  MOVFF  FF5,FEE
02EDE:  DECFSZ 01,F
02EE0:  BRA    2ED8
02EE2:  MOVLB  6
02EE4:  BTFSC  xC1.6
02EE6:  BSF    FF2.6
02EE8:  BTFSC  xC1.7
02EEA:  BSF    FF2.7
....................       else if(*textptr <= '~') // Check if the letter is in the second font array 
02EEC:  BRA    2F5E
02EEE:  MOVFF  6B4,03
02EF2:  MOVFF  6B3,FE9
02EF6:  MOVFF  6B4,FEA
02EFA:  MOVF   FEF,W
02EFC:  SUBLW  7E
02EFE:  BNC   2F54
....................          memcpy(pixelData, FONT2[*textptr - 'S'], 5); 
02F00:  MOVFF  6B4,03
02F04:  MOVFF  6B3,FE9
02F08:  MOVFF  6B4,FEA
02F0C:  MOVLW  53
02F0E:  SUBWF  FEF,W
02F10:  MULLW  05
02F12:  MOVF   FF3,W
02F14:  CLRF   03
02F16:  MOVWF  xC0
02F18:  MOVLW  06
02F1A:  MOVWF  FEA
02F1C:  MOVLW  BB
02F1E:  MOVWF  FE9
02F20:  CLRF   xC4
02F22:  MOVFF  6C0,6C3
02F26:  MOVFF  FF2,6C1
02F2A:  BCF    FF2.6
02F2C:  BCF    FF2.7
02F2E:  MOVLW  05
02F30:  MOVWF  01
02F32:  CLRF   FF7
02F34:  MOVF   xC0,W
02F36:  MOVLB  0
02F38:  CALL   0274
02F3C:  TBLRD*-
02F3E:  TBLRD*+
02F40:  MOVFF  FF5,FEE
02F44:  DECFSZ 01,F
02F46:  BRA    2F3E
02F48:  MOVLB  6
02F4A:  BTFSC  xC1.6
02F4C:  BSF    FF2.6
02F4E:  BTFSC  xC1.7
02F50:  BSF    FF2.7
....................       else 
02F52:  BRA    2F5E
....................          memcpy(pixelData, FONT[0], 5);   // Default to space 
02F54:  CLRF   xBB
02F56:  CLRF   xBC
02F58:  CLRF   xBD
02F5A:  CLRF   xBE
02F5C:  CLRF   xBF
....................  
....................       // Handles newline and carriage returns 
....................       switch(*textptr) 
....................       { 
02F5E:  MOVFF  6B4,03
02F62:  MOVF   xB3,W
02F64:  MOVWF  FE9
02F66:  MOVFF  03,FEA
02F6A:  MOVF   FEF,W
02F6C:  XORLW  0A
02F6E:  MOVLB  0
02F70:  BZ    2F78
02F72:  XORLW  07
02F74:  BZ    2F88
02F76:  BRA    2F8E
....................          case '\n': 
....................             y += 7*size + 1; 
02F78:  MOVLB  6
02F7A:  MOVF   xB5,W
02F7C:  MULLW  07
02F7E:  MOVF   FF3,W
02F80:  ADDLW  01
02F82:  ADDWF  xB2,F
....................             continue; 
02F84:  BRA    3026
02F86:  MOVLB  0
....................          case '\r': 
....................             x = 0; 
02F88:  MOVLB  6
02F8A:  CLRF   xB1
....................             continue; 
02F8C:  BRA    3026
....................       } 
....................  
....................       if(x+5*size >= GLCD_WIDTH)          // Performs character wrapping 
02F8E:  MOVLB  6
02F90:  MOVF   xB5,W
02F92:  MULLW  05
02F94:  MOVF   FF3,W
02F96:  ADDWF  xB1,W
02F98:  SUBLW  7F
02F9A:  BC    2FA8
....................       { 
....................          x = 0;                           // Set x at far left position 
02F9C:  CLRF   xB1
....................          y += 7*size + 1;                 // Set y at next position down 
02F9E:  MOVF   xB5,W
02FA0:  MULLW  07
02FA2:  MOVF   FF3,W
02FA4:  ADDLW  01
02FA6:  ADDWF  xB2,F
....................       } 
....................       for(j=0; j<5; ++j, x+=size)         // Loop through character byte data 
02FA8:  CLRF   xB7
02FAA:  MOVF   xB7,W
02FAC:  SUBLW  04
02FAE:  BNC   3026
....................       { 
....................          for(k=0; k < 7; ++k)             // Loop through the vertical pixels 
02FB0:  CLRF   xB8
02FB2:  MOVF   xB8,W
02FB4:  SUBLW  06
02FB6:  BNC   301E
....................          { 
....................             if(bit_test(pixelData[j], k)) // Check if the pixel should be set 
02FB8:  CLRF   03
02FBA:  MOVF   xB7,W
02FBC:  ADDLW  BB
02FBE:  MOVWF  FE9
02FC0:  MOVLW  06
02FC2:  ADDWFC 03,W
02FC4:  MOVWF  FEA
02FC6:  MOVFF  FEF,6C0
02FCA:  MOVFF  6C0,00
02FCE:  MOVF   xB8,W
02FD0:  MOVWF  01
02FD2:  BZ    2FDC
02FD4:  BCF    FD8.0
02FD6:  RRCF   00,F
02FD8:  DECFSZ 01,F
02FDA:  BRA    2FD4
02FDC:  BTFSS  00.0
02FDE:  BRA    301A
....................             { 
....................                for(l=0; l < size; ++l)    // These two loops change the 
02FE0:  CLRF   xB9
02FE2:  MOVF   xB5,W
02FE4:  SUBWF  xB9,W
02FE6:  BC    301A
....................                {                          // character's size 
....................                   for(m=0; m < size; ++m) 
02FE8:  CLRF   xBA
02FEA:  MOVF   xB5,W
02FEC:  SUBWF  xBA,W
02FEE:  BC    3016
....................                   { 
....................                      glcd_pixel(x+m, y+k*size+l, color); // Draws the pixel 
02FF0:  MOVF   xBA,W
02FF2:  ADDWF  xB1,W
02FF4:  MOVWF  xC0
02FF6:  MOVF   xB8,W
02FF8:  MULWF  xB5
02FFA:  MOVF   FF3,W
02FFC:  ADDWF  xB2,W
02FFE:  ADDWF  xB9,W
03000:  MOVWF  xC1
03002:  MOVFF  6C0,6CC
03006:  MOVWF  xCD
03008:  MOVFF  6B6,6CE
0300C:  MOVLB  0
0300E:  RCALL  2DB8
....................                   } 
03010:  MOVLB  6
03012:  INCF   xBA,F
03014:  BRA    2FEA
....................                } 
03016:  INCF   xB9,F
03018:  BRA    2FE2
....................             } 
....................          } 
0301A:  INCF   xB8,F
0301C:  BRA    2FB2
....................       } 
0301E:  INCF   xB7,F
03020:  MOVF   xB5,W
03022:  ADDWF  xB1,F
03024:  BRA    2FAA
....................    } 
03026:  INCF   xB3,F
03028:  BTFSC  FD8.2
0302A:  INCF   xB4,F
0302C:  INCF   xB1,F
0302E:  MOVLB  0
03030:  BRA    2E74
03032:  MOVLB  6
.................... } 
03034:  MOVLB  0
03036:  RETLW  00
....................  
.................... #endif 
....................  
.................... #include "imagen.h" 
.................... const int8 Horno [64][16] = { 
.................... 0x00, 0x00, 0x00, 0x00, 0x00, 0x00, 0x00, 0x00, 0x00, 0x00, 0x00, 0x1F, 0xFF, 0xFF, 0xFF, 0xFE, 
.................... 0x00, 0x00, 0x00, 0x00, 0x00, 0x00, 0x00, 0x00, 0x00, 0x00, 0x00, 0x1F, 0xFF, 0xFF, 0xFF, 0xFE, 
.................... 0x01, 0xC0, 0x00, 0x00, 0x00, 0x00, 0x00, 0x00, 0x00, 0x00, 0x00, 0x1C, 0x00, 0x00, 0x00, 0x0E, 
.................... 0x07, 0xF0, 0x00, 0x00, 0x00, 0x00, 0x00, 0x00, 0x00, 0x00, 0x00, 0x1C, 0x00, 0x00, 0x00, 0x0E, 
.................... 0x1C, 0x9C, 0x00, 0x00, 0x00, 0x00, 0x00, 0x00, 0x00, 0x00, 0x00, 0x1C, 0x7F, 0x00, 0x00, 0x0E, 
.................... 0x18, 0x0C, 0x00, 0x00, 0x00, 0x00, 0x00, 0x00, 0x00, 0x00, 0x00, 0x1C, 0x41, 0x00, 0x00, 0x0E, 
.................... 0x30, 0x86, 0x00, 0x00, 0x00, 0x00, 0x00, 0x00, 0x00, 0x00, 0x00, 0x1C, 0x41, 0x00, 0x00, 0x0E, 
.................... 0x20, 0x82, 0x00, 0x00, 0x00, 0x00, 0x00, 0x00, 0x00, 0x00, 0x00, 0x1C, 0x41, 0x02, 0x00, 0x0E, 
.................... 0x60, 0x83, 0x00, 0x00, 0x00, 0x00, 0x00, 0x00, 0x00, 0x00, 0x00, 0x1C, 0x7F, 0x05, 0x00, 0x0E, 
.................... 0x70, 0x87, 0x00, 0x00, 0x00, 0x00, 0x00, 0x00, 0x00, 0x00, 0x00, 0x1C, 0x00, 0x02, 0x00, 0x0E, 
.................... 0x60, 0xC3, 0x00, 0x00, 0x00, 0x00, 0x00, 0x00, 0x00, 0x00, 0x00, 0x1C, 0x00, 0x00, 0x00, 0x0E, 
.................... 0x20, 0x62, 0x00, 0x00, 0x00, 0x00, 0x00, 0x00, 0x00, 0x00, 0x00, 0x1C, 0x00, 0x00, 0x00, 0x0E, 
.................... 0x30, 0x26, 0x00, 0x00, 0x00, 0x00, 0x00, 0x00, 0x00, 0x00, 0x00, 0x1F, 0xFF, 0xFF, 0xFF, 0xFE, 
.................... 0x18, 0x0C, 0x00, 0x00, 0x00, 0x00, 0x00, 0x00, 0x00, 0x00, 0x00, 0x1C, 0x00, 0x00, 0x00, 0x0E, 
.................... 0x1C, 0x9C, 0x00, 0x00, 0x00, 0x00, 0x00, 0x00, 0x00, 0x00, 0x00, 0x1C, 0x00, 0x00, 0x00, 0x0E, 
.................... 0x07, 0xF0, 0x00, 0x00, 0x00, 0x00, 0x00, 0x00, 0x00, 0x00, 0x00, 0x1C, 0x00, 0x00, 0x00, 0x0E, 
.................... 0x01, 0xC0, 0x00, 0x00, 0x00, 0x00, 0x00, 0x00, 0x00, 0x00, 0x00, 0x1C, 0x00, 0x00, 0x00, 0x0E, 
.................... 0x00, 0x00, 0x00, 0x00, 0x00, 0x00, 0x00, 0x00, 0x00, 0x00, 0x00, 0x1C, 0x00, 0x00, 0x00, 0x0E, 
.................... 0x00, 0x00, 0x00, 0x00, 0x00, 0x00, 0x00, 0x00, 0x00, 0x00, 0x00, 0x1C, 0x00, 0x00, 0x00, 0x0E, 
.................... 0x00, 0x00, 0x00, 0x00, 0x00, 0x00, 0x00, 0x00, 0x00, 0x00, 0x00, 0x1C, 0x00, 0x00, 0x00, 0x0E, 
.................... 0x00, 0x00, 0x00, 0x00, 0x00, 0x00, 0x00, 0x00, 0x00, 0x00, 0x00, 0x1C, 0x00, 0x00, 0x00, 0x0E, 
.................... 0x00, 0x00, 0x00, 0x00, 0x00, 0x00, 0x00, 0x00, 0x00, 0x00, 0x00, 0x1C, 0x00, 0x1E, 0x00, 0x0E, 
.................... 0x00, 0x00, 0x00, 0x00, 0x00, 0x00, 0x00, 0x00, 0x00, 0x00, 0x00, 0x1C, 0x00, 0xE1, 0xC0, 0x0E, 
.................... 0x00, 0x00, 0x00, 0x00, 0x00, 0x00, 0x00, 0x00, 0x00, 0x00, 0x00, 0x1C, 0x01, 0x80, 0x60, 0x0E, 
.................... 0x00, 0x00, 0x00, 0x00, 0x00, 0x00, 0x00, 0x00, 0x00, 0x00, 0x00, 0x1C, 0x02, 0x78, 0x10, 0x0E, 
.................... 0x00, 0x00, 0x00, 0x00, 0x00, 0x00, 0x00, 0x00, 0x00, 0x00, 0x00, 0x1C, 0x06, 0x7C, 0x18, 0x0E, 
.................... 0x00, 0x00, 0x00, 0x00, 0x00, 0x00, 0x00, 0x00, 0x00, 0x00, 0x00, 0x1C, 0x04, 0x7C, 0x08, 0x0E, 
.................... 0x00, 0x00, 0x00, 0x00, 0x00, 0x00, 0x00, 0x00, 0x00, 0x00, 0x00, 0x1C, 0x08, 0x3C, 0x04, 0x0E, 
.................... 0x00, 0x00, 0x00, 0x00, 0x00, 0x00, 0x00, 0x00, 0x00, 0x00, 0x00, 0x1C, 0x08, 0x10, 0x04, 0x0E, 
.................... 0x01, 0x80, 0x00, 0x00, 0x00, 0x00, 0x00, 0x00, 0x00, 0x00, 0x00, 0x1C, 0x08, 0x0C, 0xE4, 0x0E, 
.................... 0x02, 0x40, 0x00, 0x00, 0x00, 0x00, 0x00, 0x00, 0x00, 0x00, 0x00, 0x1C, 0x08, 0x2D, 0xF4, 0x0E, 
.................... 0x02, 0x70, 0x00, 0x00, 0x00, 0x00, 0x00, 0x00, 0x00, 0x00, 0x00, 0x1C, 0x08, 0x63, 0xF4, 0x0E, 
.................... 0x02, 0x40, 0x00, 0x00, 0x00, 0x00, 0x00, 0x00, 0x00, 0x00, 0x00, 0x1C, 0x08, 0xF1, 0xE4, 0x0E, 
.................... 0x03, 0xC0, 0x00, 0x00, 0x00, 0x00, 0x00, 0x00, 0x00, 0x00, 0x00, 0x1C, 0x04, 0xF0, 0x08, 0x0E, 
.................... 0x03, 0xF0, 0x00, 0x00, 0x00, 0x00, 0x00, 0x00, 0x00, 0x00, 0x00, 0x1C, 0x04, 0xF0, 0x08, 0x0E, 
.................... 0x03, 0xC0, 0x00, 0x00, 0x00, 0x00, 0x00, 0x00, 0x00, 0x00, 0x00, 0x1C, 0x02, 0x70, 0x10, 0x0E, 
.................... 0x03, 0xC0, 0x00, 0x00, 0x00, 0x00, 0x00, 0x00, 0x00, 0x00, 0x00, 0x1C, 0x03, 0x00, 0x30, 0x0E, 
.................... 0x07, 0xE0, 0x00, 0x00, 0x00, 0x00, 0x00, 0x00, 0x00, 0x00, 0x00, 0x1C, 0x00, 0xC0, 0xC0, 0x0E, 
.................... 0x0F, 0xF0, 0x00, 0x00, 0x00, 0x00, 0x00, 0x00, 0x00, 0x00, 0x00, 0x1C, 0x00, 0x7F, 0x80, 0x0E, 
.................... 0x0B, 0xF0, 0x00, 0x00, 0x00, 0x00, 0x00, 0x00, 0x00, 0x00, 0x00, 0x1C, 0x00, 0x00, 0x00, 0x0E, 
.................... 0x0B, 0xF0, 0x00, 0x00, 0x00, 0x00, 0x00, 0x00, 0x00, 0x00, 0x00, 0x1C, 0x00, 0x00, 0x00, 0x0E, 
.................... 0x0F, 0xF0, 0x00, 0x00, 0x00, 0x00, 0x00, 0x00, 0x00, 0x00, 0x00, 0x1C, 0x00, 0x00, 0x00, 0x0E, 
.................... 0x0F, 0xF0, 0x00, 0x00, 0x00, 0x00, 0x00, 0x00, 0x00, 0x00, 0x00, 0x1C, 0x00, 0x00, 0x00, 0x0E, 
.................... 0x07, 0xE0, 0x00, 0x00, 0x00, 0x00, 0x00, 0x00, 0x00, 0x00, 0x00, 0x1C, 0x00, 0x00, 0x00, 0x0E, 
.................... 0x03, 0xC0, 0x00, 0x00, 0x00, 0x00, 0x00, 0x00, 0x00, 0x00, 0x00, 0x1C, 0x00, 0x00, 0x00, 0x0E, 
.................... 0x00, 0x00, 0x00, 0x00, 0x00, 0x00, 0x00, 0x00, 0x00, 0x00, 0x00, 0x1C, 0x00, 0x00, 0x00, 0x0E, 
.................... 0x00, 0x00, 0x00, 0x00, 0x00, 0x00, 0x00, 0x00, 0x00, 0x00, 0x00, 0x1C, 0x00, 0x00, 0x00, 0x0E, 
.................... 0x00, 0x00, 0x00, 0x00, 0x00, 0x00, 0x00, 0x00, 0x00, 0x00, 0x00, 0x1C, 0x00, 0x00, 0x00, 0x0E, 
.................... 0x00, 0x00, 0x00, 0x00, 0x00, 0x00, 0x00, 0x00, 0x00, 0x00, 0x00, 0x1C, 0x00, 0x00, 0x00, 0x0E, 
.................... 0x00, 0x00, 0x00, 0x00, 0x00, 0x00, 0x00, 0x00, 0x00, 0x00, 0x00, 0x1C, 0x00, 0x00, 0x00, 0x0E, 
.................... 0x00, 0x00, 0x00, 0x00, 0x00, 0x00, 0x00, 0x00, 0x00, 0x00, 0x00, 0x1C, 0x00, 0x00, 0x00, 0x0E, 
.................... 0x00, 0x00, 0x00, 0x00, 0x00, 0x00, 0x00, 0x00, 0x00, 0x00, 0x00, 0x1C, 0x00, 0x00, 0x00, 0x0E, 
.................... 0x00, 0x00, 0x00, 0x00, 0x00, 0x00, 0x00, 0x00, 0x00, 0x00, 0x00, 0x1F, 0xFF, 0xFF, 0xFF, 0xFE, 
.................... 0x00, 0x00, 0x00, 0x00, 0x00, 0x00, 0x00, 0x00, 0x00, 0x00, 0x00, 0x1F, 0xFF, 0xFF, 0xFF, 0xFE, 
.................... 0x00, 0x00, 0x00, 0x00, 0x00, 0x00, 0x00, 0x00, 0x00, 0x00, 0x00, 0x1F, 0xFF, 0xFF, 0xFF, 0xFE, 
.................... 0x00, 0x00, 0x00, 0x00, 0x00, 0x00, 0x00, 0x00, 0x00, 0x00, 0x00, 0x00, 0x00, 0x00, 0x00, 0x00, 
.................... 0x00, 0x00, 0x00, 0x00, 0x00, 0x00, 0x00, 0x00, 0x00, 0x00, 0x00, 0x00, 0x00, 0x00, 0x00, 0x00, 
.................... 0x00, 0x00, 0x00, 0x00, 0x00, 0x00, 0x00, 0x00, 0x00, 0x00, 0x00, 0x00, 0x00, 0x00, 0x00, 0x00, 
.................... 0x00, 0x00, 0x00, 0x00, 0x00, 0x00, 0x00, 0x00, 0x00, 0x00, 0x00, 0x00, 0x00, 0x00, 0x00, 0x00, 
.................... 0x00, 0x00, 0x00, 0x00, 0x00, 0x00, 0x00, 0x00, 0x00, 0x00, 0x00, 0x00, 0x00, 0x00, 0x00, 0x00, 
.................... 0x00, 0x00, 0x00, 0x00, 0x00, 0x00, 0x00, 0x00, 0x00, 0x00, 0x00, 0x00, 0x00, 0x00, 0x00, 0x00, 
.................... 0x00, 0x00, 0x00, 0x00, 0x00, 0x00, 0x00, 0x00, 0x00, 0x00, 0x00, 0x00, 0x00, 0x00, 0x00, 0x00, 
.................... 0x00, 0x00, 0x00, 0x00, 0x00, 0x00, 0x00, 0x00, 0x00, 0x00, 0x00, 0x00, 0x00, 0x00, 0x00, 0x00, 
.................... 0x00, 0x00, 0x00, 0x00, 0x00, 0x00, 0x00, 0x00, 0x00, 0x00, 0x00, 0x00, 0x00, 0x00, 0x00, 0x00 
.................... }; 
....................  
....................  
.................... #include <stdio.h> 
.................... /////////////////////////////////////////////////////////////////////////// 
.................... ////        (C) Copyright 1996,2003 Custom Computer Services           //// 
.................... //// This source code may only be used by licensed users of the CCS C  //// 
.................... //// compiler.  This source code may only be distributed to other      //// 
.................... //// licensed users of the CCS C compiler.  No other use, reproduction //// 
.................... //// or distribution is permitted without written permission.          //// 
.................... //// Derivative programs created using this software in object code    //// 
.................... //// form are not restricted in any way.                               //// 
.................... /////////////////////////////////////////////////////////////////////////// 
....................  
.................... #ifndef _STDIO 
.................... #define _STDIO 
.................... #include <string.h> 
.................... //////////////////////////////////////////////////////////////////////////// 
.................... ////        (C) Copyright 1996,2008 Custom Computer Services            //// 
.................... //// This source code may only be used by licensed users of the CCS C   //// 
.................... //// compiler.  This source code may only be distributed to other       //// 
.................... //// licensed users of the CCS C compiler.  No other use, reproduction  //// 
.................... //// or distribution is permitted without written permission.           //// 
.................... //// Derivative programs created using this software in object code     //// 
.................... //// form are not restricted in any way.                                //// 
.................... //////////////////////////////////////////////////////////////////////////// 
....................  
.................... #ifndef _STRING 
.................... #define _STRING 
.................... #include <stddef.h> 
.................... /////////////////////////////////////////////////////////////////////////// 
.................... ////        (C) Copyright 1996,2003 Custom Computer Services           //// 
.................... //// This source code may only be used by licensed users of the CCS C  //// 
.................... //// compiler.  This source code may only be distributed to other      //// 
.................... //// licensed users of the CCS C compiler.  No other use, reproduction //// 
.................... //// or distribution is permitted without written permission.          //// 
.................... //// Derivative programs created using this software in object code    //// 
.................... //// form are not restricted in any way.                               //// 
.................... /////////////////////////////////////////////////////////////////////////// 
....................  
.................... #ifndef _STDDEF 
....................  
.................... #define _STDDEF 
....................  
.................... #if sizeof(unsigned int8 *)==1 
.................... #define ptrdiff_t unsigned int8 
.................... #else 
.................... #define ptrdiff_t unsigned int16 
.................... #endif 
....................  
.................... #define size_t unsigned int8 
.................... #define wchar_t char 
.................... #define NULL 0 
....................  
.................... #define offsetof(s,f) (offsetofbit(s,f)/8) 
....................  
.................... #endif 
....................  
.................... #include <ctype.h> 
.................... //////////////////////////////////////////////////////////////////////////// 
.................... ////        (C) Copyright 1996,2003 Custom Computer Services            //// 
.................... //// This source code may only be used by licensed users of the CCS C   //// 
.................... //// compiler.  This source code may only be distributed to other       //// 
.................... //// licensed users of the CCS C compiler.  No other use, reproduction  //// 
.................... //// or distribution is permitted without written permission.           //// 
.................... //// Derivative programs created using this software in object code     //// 
.................... //// form are not restricted in any way.                                //// 
.................... //////////////////////////////////////////////////////////////////////////// 
....................  
.................... #ifndef _CTYPE 
.................... #define _CTYPE 
....................  
.................... #define islower(x)  isamong(x,"abcdefghijklmnopqrstuvwxyz") 
.................... #define isupper(x)  isamong(x,"ABCDEFGHIJKLMNOPQRSTUVWXYZ") 
.................... #define isalnum(x)  isamong(x,"0123456789ABCDEFGHIJKLMNOPQRSTUVWXYZabcdefghijklmnopqrstuvwxyz") 
.................... #define isalpha(x)  isamong(x,"ABCDEFGHIJKLMNOPQRSTUVWXYZabcdefghijklmnopqrstuvwxyz") 
.................... #define isdigit(x)  isamong(x,"0123456789") 
.................... #define isspace(x)  ((x)==' ') 
.................... #define isxdigit(x) isamong(x,"0123456789ABCDEFabcdef") 
.................... #define iscntrl(x)  ((x)<' ') 
.................... #define isprint(x)  ((x)>=' ') 
.................... #define isgraph(x)  ((x)>' ') 
.................... #define ispunct(x)  (((x)>' ')&&!isalnum(x)) 
....................  
.................... #endif 
....................  
....................  
....................  
....................  
....................  
.................... ////////////////////////////////////////////// 
.................... //// Uncomment the following define to    //// 
.................... //// allow some functions to use a        //// 
.................... //// quicker algorithm, but use more ROM  //// 
.................... ////                                      //// 
.................... //// #define FASTER_BUT_MORE_ROM          //// 
.................... ////////////////////////////////////////////// 
....................  
....................  
....................  
.................... /*Copying functions*/ 
.................... /* standard template: 
....................    void *memmove(void *s1, void *s2, size_t n). 
....................    Copies max of n characters safely (not following ending '\0') 
....................    from s2 in s1; if s2 has less than n characters, appends 0 */ 
....................  
.................... char *memmove(void *s1,char *s2,size_t n) 
.................... { 
....................    char *sc1; 
....................    char *sc2; 
....................    sc1=s1; 
....................    sc2=s2; 
....................    if(sc2<sc1 && sc1 <sc2 +n) 
....................       for(sc1+=n,sc2+=n;0<n;--n) 
....................          *--sc1=*--sc2; 
....................    else 
....................       for(;0<n;--n) 
....................          *sc1++=*sc2++; 
....................   return s1; 
....................   } 
....................  
.................... /* Standard template: char *strcpy(char *s1, const char *s2) 
....................    copies the string s2 including the null character to s1. 
....................    This is a compiler built in to handle the different address 
....................    spaces */ 
....................  
.................... #define strcopy strcpy 
....................  
.................... /* standard template: 
....................    char *strncpy(char *s1, const char *s2, size_t n). 
....................    Copies max of n characters (not following ending '\0') 
....................    from s2 in s1; if s2 has less than n characters, appends 0 */ 
....................  
.................... char *strncpy(char *s1, char *s2, size_t n) 
.................... { 
....................   char *s; 
....................  
....................   for (s = s1; n > 0 && *s2 != '\0'; n--) 
....................      *s++ = *s2++; 
....................   for (; n > 0; n--) 
....................      *s++ = '\0'; 
....................  
....................   return(s1); 
.................... } 
.................... /***********************************************************/ 
....................  
.................... /*concatenation functions*/ 
.................... /* standard template: char *strcat(char *s1, const char *s2) 
.................... appends s2 to s1*/ 
....................  
.................... char *strcat(char *s1, char *s2) 
.................... { 
....................    char *s; 
....................  
....................    for (s = s1; *s != '\0'; ++s); 
....................    while(*s2 != '\0') 
....................    { 
....................       *s = *s2; 
....................       ++s; 
....................       ++s2; 
....................    } 
....................  
....................    *s = '\0'; 
....................    return(s1); 
.................... } 
.................... /* standard template: char *strncat(char *s1, char *s2,size_t n) 
.................... appends not more than n characters from s2 to s1*/ 
....................  
.................... char *strncat(char *s1, char *s2, size_t n) 
.................... { 
....................    char *s; 
....................  
....................    for (s = s1; *s != '\0'; ++s); 
....................    while(*s2 != '\0' && 0<n) 
....................    { 
....................       *s = *s2; 
....................       ++s; 
....................       ++s2; 
....................       --n; 
....................    } 
....................  
....................    *s = '\0'; 
....................    return(s1); 
.................... } 
....................  
.................... /***********************************************************/ 
....................  
....................  
.................... /*comparison functions*/ 
.................... /* standard template: signed int memcmp(void *s1, void *s2). 
....................    Compares s1 & s2; returns -1 if s1<s2, 0 if s1=s2, 1 if s1>s2 */ 
....................  
.................... signed int8 memcmp(void * s1,char *s2,size_t n) 
.................... { 
.................... char *su1, *su2; 
.................... for(su1=s1, su2=s2; 0<n; ++su1, ++su2, --n) 
.................... { 
....................    if(*su1!=*su2) 
....................       return ((*su1<*su2)?-1:+1); 
.................... } 
.................... return 0; 
.................... } 
....................  
.................... /* standard template: int strcmp(const char *s1, const char *s2). 
....................    Compares s1 & s2; returns -1 if s1<s2, 0 if s1=s2, 1 if s1>s2 */ 
....................  
.................... signed int8 strcmp(char *s1, char *s2) 
.................... { 
....................    for (; *s1 == *s2; s1++, s2++) 
....................       if (*s1 == '\0') 
....................          return(0); 
....................    return((*s1 < *s2) ? -1: 1); 
.................... } 
.................... /* standard template: int strcoll(const char *s1, const char *s2). 
....................    Compares s1 & s2; returns -1 if s1<s2, 0 if s1=s2, 1 if s1>s2 */ 
....................  
.................... signed int8 strcoll(char *s1, char *s2) 
.................... { 
....................    for (; *s1 == *s2; s1++, s2++) 
....................       if (*s1 == '\0') 
....................          return(0); 
....................    return((*s1 < *s2) ? -1: 1); 
.................... } 
....................  
.................... /* standard template: 
....................    int strncmp(const char *s1, const char *s2, size_t n). 
....................    Compares max of n characters (not following 0) from s1 to s2; 
....................    returns same as strcmp */ 
....................  
.................... signed int8 strncmp(char *s1, char *s2, size_t n) 
.................... { 
....................    for (; n > 0; s1++, s2++, n--) 
....................       if (*s1 != *s2) 
....................          return((*s1 <*s2) ? -1: 1); 
....................       else if (*s1 == '\0') 
....................          return(0); 
....................    return(0); 
.................... } 
.................... /* standard template: 
....................    int strxfrm(const char *s1, const char *s2, size_t n). 
....................    transforms maximum of n characters from s2 and places them into s1*/ 
.................... size_t strxfrm(char *s1, char *s2, size_t n) 
.................... { 
....................   char *s; 
....................   unsigned int8 n1; 
....................   n1=n; 
....................   for (s = s1; n > 0 && *s2 != '\0'; n--) 
....................      *s++ = *s2++; 
....................   for (; n > 0; n--) 
....................      *s++ = '\0'; 
....................  
....................   return(n1); 
.................... } 
....................  
....................  
....................  
....................  
....................  
.................... /***********************************************************/ 
.................... /*Search functions*/ 
.................... /* standard template: void *memchr(const char *s, int c). 
....................    Finds first occurrence of c in n characters of s */ 
....................  
.................... char *memchr(void *s,unsigned int8 c,size_t n) 
.................... { 
....................    char uc; 
....................    char *su; 
....................    uc=c; 
....................    for(su=s;0<n;++su,--n) 
....................       if(*su==uc) 
....................       return su; 
....................    return NULL; 
.................... } 
....................  
.................... /* standard template: char *strchr(const char *s, int c). 
....................    Finds first occurrence of c in s */ 
....................  
.................... char *strchr(char *s, unsigned int8 c) 
.................... { 
....................    for (; *s != c; s++) 
....................       if (*s == '\0') 
....................          return(0); 
....................    return(s); 
.................... } 
.................... /* standard template: 
....................    size_t strcspn(const char *s1, const char *s2). 
....................    Computes length of max initial segment of s1 that 
....................    consists entirely of characters NOT from s2*/ 
....................  
.................... unsigned int8  strcspn(char *s1, char *s2) 
.................... { 
....................    char *sc1, *sc2; 
....................  
....................    for (sc1 = s1; *sc1 != 0; sc1++) 
....................       for (sc2 = s2; *sc2 != 0; sc2++) 
....................          if (*sc1 == *sc2) 
....................             return(sc1 - s1); 
....................    return(sc1 - s1); 
.................... } 
.................... /* standard template: 
....................    char *strpbrk(const char *s1, const char *s2). 
....................    Locates first occurence of any character from s2 in s1; 
....................    returns s1 if s2 is empty string */ 
....................  
.................... char *strpbrk(char *s1, char *s2) 
.................... { 
....................    char *sc1, *sc2; 
....................  
....................    for (sc1 = s1; *sc1 != 0; sc1++) 
....................       for (sc2 = s2; *sc2 != 0; sc2++) 
....................          if (*sc1 == *sc2) 
....................             return(sc1); 
....................    return(0); 
.................... } 
....................  
....................  
.................... /* standard template: char *strrchr(const char *s, int c). 
....................    Finds last occurrence of c in s */ 
....................  
.................... char *strrchr(char *s, unsigned int8 c) 
.................... { 
....................    char *p; 
....................  
....................    for (p = 0; ; s++) 
....................    { 
....................       if (*s == c) 
....................          p = s; 
....................       if (*s == '\0') 
....................          return(p); 
....................    } 
.................... } 
.................... /* computes length of max initial segment of s1 consisting 
....................    entirely of characters from s2 */ 
....................  
.................... unsigned int8  strspn(char *s1, char *s2) 
.................... { 
....................    char *sc1, *sc2; 
....................  
....................    for (sc1 = s1; *sc1 != 0; sc1++) 
....................       for (sc2 = s2; ; sc2++) 
....................     if (*sc2 == '\0') 
....................        return(sc1 - s1); 
....................          else if (*sc1 == *sc2) 
....................             break; 
....................    return(sc1 - s1); 
.................... } 
.................... /* standard template: 
....................    char *strstr(const char *s1, const char *s2); 
....................    Locates first occurence of character sequence s2 in s1; 
....................    returns 0 if s2 is empty string 
....................  
....................    Uncomment #define FASTER_BUT_MORE_ROM at the top of the 
....................    file to use the faster algorithm */ 
.................... char *strstr(char *s1, char *s2) 
.................... { 
....................    char *s, *t; 
....................  
....................    #ifdef FASTER_BUT_MORE_ROM 
....................    if (*s2 == '\0') 
....................          return(s1); 
....................    #endif 
....................  
....................    while (*s1) 
....................    { 
....................       for(s = s1, t = s2; *t && (*s == *t); ++s, ++t); 
....................  
....................       if (*t == '\0') 
....................          return s1; 
....................       ++s1; 
....................       #ifdef FASTER_BUT_MORE_ROM 
....................          while(*s1 != '\0' && *s1 != *s2) 
....................             ++s1; 
....................       #endif 
....................    } 
....................    return 0; 
.................... } 
....................  
.................... /* standard template: char *strtok(char *s1, const char *s2). 
....................  
....................    Finds next token in s1 delimited by a character from separator 
....................    string s2 (which can be different from call to call).  First call 
....................    starts at beginning of s1 searching for first character NOT 
....................    contained in s2; returns 0 if none is found. 
....................    If one is found, it is the start of first token (return value). 
....................    Function then searches from there for a character contained in s2. 
....................    If none is found, current token extends to end of s1, and subsequent 
....................    searches for a token will return 0.  If one is found, it is 
....................    overwritten by '\0', which terminates current token.  Function saves 
....................    pointer to following character from which next search will start. 
....................    Each subsequent call, with 0 as first argument, starts searching 
....................    from saved pointer */ 
....................  
.................... char *strtok(char *s1, char *s2) 
.................... { 
....................    char *beg, *end; 
....................    static char *save; 
....................  
....................    beg = (s1)? s1: save; 
....................    beg += strspn(beg, s2); 
....................    if (*beg == '\0') 
....................    { 
....................       *save = ' '; 
....................       return(0); 
....................    } 
....................    end = strpbrk(beg, s2); 
....................    if (*end != '\0') 
....................    { 
....................       *end = '\0'; 
....................       end++; 
....................    } 
....................    save = end; 
....................    return(beg); 
.................... } 
....................  
.................... /*****************************************************************/ 
.................... /*Miscellaneous functions*/ 
.................... /* standard template 
.................... maps error number in errnum to an error message string 
.................... Returns: Pointer to string 
.................... */ 
.................... #ifdef _ERRNO 
.................... char * strerror(unsigned int8 errnum) 
.................... { 
.................... char s[15]; 
.................... switch( errnum) 
.................... { 
.................... case 0: 
....................    strcpy(s,"no errors"); 
....................    return s; 
.................... case EDOM : 
....................    strcpy(s,"domain error"); 
....................    return s; 
.................... case ERANGE: 
....................    strcpy(s,"range error"); 
....................    return s; 
.................... } 
.................... } 
.................... #ENDIF 
.................... /* standard template: size_t strlen(const char *s). 
....................    Computes length of s1 (preceding terminating 0) */ 
....................  
.................... unsigned int8 strlen(char *s) 
.................... { 
....................    char *sc; 
....................  
....................    for (sc = s; *sc != 0; sc++); 
....................    return(sc - s); 
.................... } 
....................  
.................... /* standard template: size_t stricmp(const char *s1, const char *s2). 
....................    Compares s1 to s2 ignoring case (upper vs. lower) */ 
....................  
.................... signed int8 stricmp(char *s1, char *s2) 
.................... { 
....................  for(; *s1==*s2||(isalpha(*s1)&&isalpha(*s2)&&(*s1==*s2+32||*s2==*s1+32)); 
....................     s1++, s2++) 
....................     if (*s1 == '\0') 
....................        return(0); 
....................  return((*s1 < *s2) ? -1: 1); 
.................... } 
....................  
....................  
.................... /* standard template: char *strlwr(char *s). 
....................    Replaces uppercase letters by lowercase; 
....................    returns pointer to new string s */ 
....................  
.................... char *strlwr(char *s) 
.................... { 
....................    char *p; 
....................  
....................    for (p = s; *p != '\0'; p++) 
....................       if (*p >= 'A' && *p <='Z') 
....................          *p += 'a' - 'A'; 
....................    return(s); 
.................... } 
....................  
....................  
.................... /************************************************************/ 
....................  
....................  
.................... #endif 
....................  
.................... #ifndef getc 
.................... #define getc getch 
.................... #define getchar getch 
.................... #define puts(s) {printf(s); putchar(13); putchar(10);} 
.................... #define putc putchar 
.................... #endif 
.................... /* maps error number to an error message. Writes a sequence of characters to 
.................... stderr stream thus: if s is not null then string pointed to by s follwed by 
.................... a colon (:) and a space and the appropriate error message returned by strerror 
.................... function with argument errno 
....................  
.................... Returns: no value 
.................... */ 
....................  
.................... #ifdef _ERRNO 
.................... void perror(char *s) 
.................... { 
....................   if(s) 
....................   fprintf(STDERR,"%s: ",s); 
....................   fprintf(STDERR,"%s\r\n",strerror(errno)); 
.................... } 
.................... #endif 
.................... #endif 
....................  
.................... #include <string.h> 
.................... //////////////////////////////////////////////////////////////////////////// 
.................... ////        (C) Copyright 1996,2008 Custom Computer Services            //// 
.................... //// This source code may only be used by licensed users of the CCS C   //// 
.................... //// compiler.  This source code may only be distributed to other       //// 
.................... //// licensed users of the CCS C compiler.  No other use, reproduction  //// 
.................... //// or distribution is permitted without written permission.           //// 
.................... //// Derivative programs created using this software in object code     //// 
.................... //// form are not restricted in any way.                                //// 
.................... //////////////////////////////////////////////////////////////////////////// 
....................  
.................... #ifndef _STRING 
.................... #define _STRING 
.................... #include <stddef.h> 
.................... #include <ctype.h> 
....................  
....................  
....................  
.................... ////////////////////////////////////////////// 
.................... //// Uncomment the following define to    //// 
.................... //// allow some functions to use a        //// 
.................... //// quicker algorithm, but use more ROM  //// 
.................... ////                                      //// 
.................... //// #define FASTER_BUT_MORE_ROM          //// 
.................... ////////////////////////////////////////////// 
....................  
....................  
....................  
.................... /*Copying functions*/ 
.................... /* standard template: 
....................    void *memmove(void *s1, void *s2, size_t n). 
....................    Copies max of n characters safely (not following ending '\0') 
....................    from s2 in s1; if s2 has less than n characters, appends 0 */ 
....................  
.................... char *memmove(void *s1,char *s2,size_t n) 
.................... { 
....................    char *sc1; 
....................    char *sc2; 
....................    sc1=s1; 
....................    sc2=s2; 
....................    if(sc2<sc1 && sc1 <sc2 +n) 
....................       for(sc1+=n,sc2+=n;0<n;--n) 
....................          *--sc1=*--sc2; 
....................    else 
....................       for(;0<n;--n) 
....................          *sc1++=*sc2++; 
....................   return s1; 
....................   } 
....................  
.................... /* Standard template: char *strcpy(char *s1, const char *s2) 
....................    copies the string s2 including the null character to s1. 
....................    This is a compiler built in to handle the different address 
....................    spaces */ 
....................  
.................... #define strcopy strcpy 
....................  
.................... /* standard template: 
....................    char *strncpy(char *s1, const char *s2, size_t n). 
....................    Copies max of n characters (not following ending '\0') 
....................    from s2 in s1; if s2 has less than n characters, appends 0 */ 
....................  
.................... char *strncpy(char *s1, char *s2, size_t n) 
.................... { 
....................   char *s; 
....................  
....................   for (s = s1; n > 0 && *s2 != '\0'; n--) 
....................      *s++ = *s2++; 
....................   for (; n > 0; n--) 
....................      *s++ = '\0'; 
....................  
....................   return(s1); 
.................... } 
.................... /***********************************************************/ 
....................  
.................... /*concatenation functions*/ 
.................... /* standard template: char *strcat(char *s1, const char *s2) 
.................... appends s2 to s1*/ 
....................  
.................... char *strcat(char *s1, char *s2) 
.................... { 
....................    char *s; 
....................  
....................    for (s = s1; *s != '\0'; ++s); 
....................    while(*s2 != '\0') 
....................    { 
....................       *s = *s2; 
....................       ++s; 
....................       ++s2; 
....................    } 
....................  
....................    *s = '\0'; 
....................    return(s1); 
.................... } 
.................... /* standard template: char *strncat(char *s1, char *s2,size_t n) 
.................... appends not more than n characters from s2 to s1*/ 
....................  
.................... char *strncat(char *s1, char *s2, size_t n) 
.................... { 
....................    char *s; 
....................  
....................    for (s = s1; *s != '\0'; ++s); 
....................    while(*s2 != '\0' && 0<n) 
....................    { 
....................       *s = *s2; 
....................       ++s; 
....................       ++s2; 
....................       --n; 
....................    } 
....................  
....................    *s = '\0'; 
....................    return(s1); 
.................... } 
....................  
.................... /***********************************************************/ 
....................  
....................  
.................... /*comparison functions*/ 
.................... /* standard template: signed int memcmp(void *s1, void *s2). 
....................    Compares s1 & s2; returns -1 if s1<s2, 0 if s1=s2, 1 if s1>s2 */ 
....................  
.................... signed int8 memcmp(void * s1,char *s2,size_t n) 
.................... { 
.................... char *su1, *su2; 
.................... for(su1=s1, su2=s2; 0<n; ++su1, ++su2, --n) 
.................... { 
....................    if(*su1!=*su2) 
....................       return ((*su1<*su2)?-1:+1); 
.................... } 
.................... return 0; 
.................... } 
....................  
.................... /* standard template: int strcmp(const char *s1, const char *s2). 
....................    Compares s1 & s2; returns -1 if s1<s2, 0 if s1=s2, 1 if s1>s2 */ 
....................  
.................... signed int8 strcmp(char *s1, char *s2) 
.................... { 
....................    for (; *s1 == *s2; s1++, s2++) 
....................       if (*s1 == '\0') 
....................          return(0); 
....................    return((*s1 < *s2) ? -1: 1); 
.................... } 
.................... /* standard template: int strcoll(const char *s1, const char *s2). 
....................    Compares s1 & s2; returns -1 if s1<s2, 0 if s1=s2, 1 if s1>s2 */ 
....................  
.................... signed int8 strcoll(char *s1, char *s2) 
.................... { 
....................    for (; *s1 == *s2; s1++, s2++) 
....................       if (*s1 == '\0') 
....................          return(0); 
....................    return((*s1 < *s2) ? -1: 1); 
.................... } 
....................  
.................... /* standard template: 
....................    int strncmp(const char *s1, const char *s2, size_t n). 
....................    Compares max of n characters (not following 0) from s1 to s2; 
....................    returns same as strcmp */ 
....................  
.................... signed int8 strncmp(char *s1, char *s2, size_t n) 
.................... { 
....................    for (; n > 0; s1++, s2++, n--) 
....................       if (*s1 != *s2) 
....................          return((*s1 <*s2) ? -1: 1); 
....................       else if (*s1 == '\0') 
....................          return(0); 
....................    return(0); 
.................... } 
.................... /* standard template: 
....................    int strxfrm(const char *s1, const char *s2, size_t n). 
....................    transforms maximum of n characters from s2 and places them into s1*/ 
.................... size_t strxfrm(char *s1, char *s2, size_t n) 
.................... { 
....................   char *s; 
....................   unsigned int8 n1; 
....................   n1=n; 
....................   for (s = s1; n > 0 && *s2 != '\0'; n--) 
....................      *s++ = *s2++; 
....................   for (; n > 0; n--) 
....................      *s++ = '\0'; 
....................  
....................   return(n1); 
.................... } 
....................  
....................  
....................  
....................  
....................  
.................... /***********************************************************/ 
.................... /*Search functions*/ 
.................... /* standard template: void *memchr(const char *s, int c). 
....................    Finds first occurrence of c in n characters of s */ 
....................  
.................... char *memchr(void *s,unsigned int8 c,size_t n) 
.................... { 
....................    char uc; 
....................    char *su; 
....................    uc=c; 
....................    for(su=s;0<n;++su,--n) 
....................       if(*su==uc) 
....................       return su; 
....................    return NULL; 
.................... } 
....................  
.................... /* standard template: char *strchr(const char *s, int c). 
....................    Finds first occurrence of c in s */ 
....................  
.................... char *strchr(char *s, unsigned int8 c) 
.................... { 
....................    for (; *s != c; s++) 
....................       if (*s == '\0') 
....................          return(0); 
....................    return(s); 
.................... } 
.................... /* standard template: 
....................    size_t strcspn(const char *s1, const char *s2). 
....................    Computes length of max initial segment of s1 that 
....................    consists entirely of characters NOT from s2*/ 
....................  
.................... unsigned int8  strcspn(char *s1, char *s2) 
.................... { 
....................    char *sc1, *sc2; 
....................  
....................    for (sc1 = s1; *sc1 != 0; sc1++) 
....................       for (sc2 = s2; *sc2 != 0; sc2++) 
....................          if (*sc1 == *sc2) 
....................             return(sc1 - s1); 
....................    return(sc1 - s1); 
.................... } 
.................... /* standard template: 
....................    char *strpbrk(const char *s1, const char *s2). 
....................    Locates first occurence of any character from s2 in s1; 
....................    returns s1 if s2 is empty string */ 
....................  
.................... char *strpbrk(char *s1, char *s2) 
.................... { 
....................    char *sc1, *sc2; 
....................  
....................    for (sc1 = s1; *sc1 != 0; sc1++) 
....................       for (sc2 = s2; *sc2 != 0; sc2++) 
....................          if (*sc1 == *sc2) 
....................             return(sc1); 
....................    return(0); 
.................... } 
....................  
....................  
.................... /* standard template: char *strrchr(const char *s, int c). 
....................    Finds last occurrence of c in s */ 
....................  
.................... char *strrchr(char *s, unsigned int8 c) 
.................... { 
....................    char *p; 
....................  
....................    for (p = 0; ; s++) 
....................    { 
....................       if (*s == c) 
....................          p = s; 
....................       if (*s == '\0') 
....................          return(p); 
....................    } 
.................... } 
.................... /* computes length of max initial segment of s1 consisting 
....................    entirely of characters from s2 */ 
....................  
.................... unsigned int8  strspn(char *s1, char *s2) 
.................... { 
....................    char *sc1, *sc2; 
....................  
....................    for (sc1 = s1; *sc1 != 0; sc1++) 
....................       for (sc2 = s2; ; sc2++) 
....................     if (*sc2 == '\0') 
....................        return(sc1 - s1); 
....................          else if (*sc1 == *sc2) 
....................             break; 
....................    return(sc1 - s1); 
.................... } 
.................... /* standard template: 
....................    char *strstr(const char *s1, const char *s2); 
....................    Locates first occurence of character sequence s2 in s1; 
....................    returns 0 if s2 is empty string 
....................  
....................    Uncomment #define FASTER_BUT_MORE_ROM at the top of the 
....................    file to use the faster algorithm */ 
.................... char *strstr(char *s1, char *s2) 
.................... { 
....................    char *s, *t; 
....................  
....................    #ifdef FASTER_BUT_MORE_ROM 
....................    if (*s2 == '\0') 
....................          return(s1); 
....................    #endif 
....................  
....................    while (*s1) 
....................    { 
....................       for(s = s1, t = s2; *t && (*s == *t); ++s, ++t); 
....................  
....................       if (*t == '\0') 
....................          return s1; 
....................       ++s1; 
....................       #ifdef FASTER_BUT_MORE_ROM 
....................          while(*s1 != '\0' && *s1 != *s2) 
....................             ++s1; 
....................       #endif 
....................    } 
....................    return 0; 
.................... } 
....................  
.................... /* standard template: char *strtok(char *s1, const char *s2). 
....................  
....................    Finds next token in s1 delimited by a character from separator 
....................    string s2 (which can be different from call to call).  First call 
....................    starts at beginning of s1 searching for first character NOT 
....................    contained in s2; returns 0 if none is found. 
....................    If one is found, it is the start of first token (return value). 
....................    Function then searches from there for a character contained in s2. 
....................    If none is found, current token extends to end of s1, and subsequent 
....................    searches for a token will return 0.  If one is found, it is 
....................    overwritten by '\0', which terminates current token.  Function saves 
....................    pointer to following character from which next search will start. 
....................    Each subsequent call, with 0 as first argument, starts searching 
....................    from saved pointer */ 
....................  
.................... char *strtok(char *s1, char *s2) 
.................... { 
....................    char *beg, *end; 
....................    static char *save; 
....................  
....................    beg = (s1)? s1: save; 
....................    beg += strspn(beg, s2); 
....................    if (*beg == '\0') 
....................    { 
....................       *save = ' '; 
....................       return(0); 
....................    } 
....................    end = strpbrk(beg, s2); 
....................    if (*end != '\0') 
....................    { 
....................       *end = '\0'; 
....................       end++; 
....................    } 
....................    save = end; 
....................    return(beg); 
.................... } 
....................  
.................... /*****************************************************************/ 
.................... /*Miscellaneous functions*/ 
.................... /* standard template 
.................... maps error number in errnum to an error message string 
.................... Returns: Pointer to string 
.................... */ 
.................... #ifdef _ERRNO 
.................... char * strerror(unsigned int8 errnum) 
.................... { 
.................... char s[15]; 
.................... switch( errnum) 
.................... { 
.................... case 0: 
....................    strcpy(s,"no errors"); 
....................    return s; 
.................... case EDOM : 
....................    strcpy(s,"domain error"); 
....................    return s; 
.................... case ERANGE: 
....................    strcpy(s,"range error"); 
....................    return s; 
.................... } 
.................... } 
.................... #ENDIF 
.................... /* standard template: size_t strlen(const char *s). 
....................    Computes length of s1 (preceding terminating 0) */ 
....................  
.................... unsigned int8 strlen(char *s) 
.................... { 
....................    char *sc; 
....................  
....................    for (sc = s; *sc != 0; sc++); 
....................    return(sc - s); 
.................... } 
....................  
.................... /* standard template: size_t stricmp(const char *s1, const char *s2). 
....................    Compares s1 to s2 ignoring case (upper vs. lower) */ 
....................  
.................... signed int8 stricmp(char *s1, char *s2) 
.................... { 
....................  for(; *s1==*s2||(isalpha(*s1)&&isalpha(*s2)&&(*s1==*s2+32||*s2==*s1+32)); 
....................     s1++, s2++) 
....................     if (*s1 == '\0') 
....................        return(0); 
....................  return((*s1 < *s2) ? -1: 1); 
.................... } 
....................  
....................  
.................... /* standard template: char *strlwr(char *s). 
....................    Replaces uppercase letters by lowercase; 
....................    returns pointer to new string s */ 
....................  
.................... char *strlwr(char *s) 
.................... { 
....................    char *p; 
....................  
....................    for (p = s; *p != '\0'; p++) 
....................       if (*p >= 'A' && *p <='Z') 
....................          *p += 'a' - 'A'; 
....................    return(s); 
.................... } 
....................  
....................  
.................... /************************************************************/ 
....................  
....................  
.................... #endif 
....................  
.................... #include <stdlib.h> 
.................... /////////////////////////////////////////////////////////////////////////// 
.................... ////        (C) Copyright 1996,2007 Custom Computer Services           //// 
.................... //// This source code may only be used by licensed users of the CCS C  //// 
.................... //// compiler.  This source code may only be distributed to other      //// 
.................... //// licensed users of the CCS C compiler.  No other use, reproduction //// 
.................... //// or distribution is permitted without written permission.          //// 
.................... //// Derivative programs created using this software in object code    //// 
.................... //// form are not restricted in any way.                               //// 
.................... /////////////////////////////////////////////////////////////////////////// 
....................  
.................... #ifndef _STDLIB 
.................... #define _STDLIB 
....................  
.................... //--------------------------------------------------------------------------- 
.................... // Definitions and types 
.................... //--------------------------------------------------------------------------- 
....................  
.................... #ifndef RAND_MAX 
.................... #define RAND_MAX  32767    // The value of which is the maximum value 
....................                            // ... returned by the rand function 
.................... #endif 
....................  
....................  
.................... #IF (sizeof(int16*)>1) 
.................... #DEFINE LONG_POINTERS 1 
.................... #ELSE  
.................... #DEFINE LONG_POINTERS 0 
.................... #ENDIF 
....................  
.................... typedef struct { 
....................    signed int quot; 
....................    signed int rem; 
.................... } div_t; 
....................  
.................... typedef struct { 
....................    signed long quot; 
....................    signed long rem; 
.................... } ldiv_t; 
....................  
.................... #include <stddef.h> 
.................... /////////////////////////////////////////////////////////////////////////// 
.................... ////        (C) Copyright 1996,2003 Custom Computer Services           //// 
.................... //// This source code may only be used by licensed users of the CCS C  //// 
.................... //// compiler.  This source code may only be distributed to other      //// 
.................... //// licensed users of the CCS C compiler.  No other use, reproduction //// 
.................... //// or distribution is permitted without written permission.          //// 
.................... //// Derivative programs created using this software in object code    //// 
.................... //// form are not restricted in any way.                               //// 
.................... /////////////////////////////////////////////////////////////////////////// 
....................  
.................... #ifndef _STDDEF 
....................  
.................... #define _STDDEF 
....................  
.................... #if sizeof(unsigned int8 *)==1 
.................... #define ptrdiff_t unsigned int8 
.................... #else 
.................... #define ptrdiff_t unsigned int16 
.................... #endif 
....................  
.................... #define size_t unsigned int8 
.................... #define wchar_t char 
.................... #define NULL 0 
....................  
.................... #define offsetof(s,f) (offsetofbit(s,f)/8) 
....................  
.................... #endif 
....................  
....................  
.................... //--------------------------------------------------------------------------- 
.................... // String conversion functions 
.................... //--------------------------------------------------------------------------- 
....................  
.................... /* Standard template: signed int  atoi(char * s) 
....................  * converts the initial portion of the string s to a signed int 
....................  * returns the converted value if any, 0 otherwise 
....................  */ 
.................... signed int atoi(char *s); 
....................  
.................... /* Syntax: signed int32  atoi32(char * s) 
....................    converts the initial portion of the string s to a signed int32 
....................    returns the converted value if any, 0 otherwise*/ 
.................... #if (sizeof(long)==4) 
....................  #define atoi32(s) atol(s) 
.................... #else  
....................  signed int32 atoi32(char *s); 
.................... #endif 
....................  
.................... #if defined(__PCD__) 
.................... // The following functions only work on the 24 bit compiler 
.................... // for the 30F, 33F, 24F and 24H parts 
.................... /* Syntax: signed int48  atoi48(char * s) 
....................    converts the initial portion of the string s to a signed int48 
....................    returns the converted value if any, 0 otherwise*/ 
....................     
.................... signed int48 atoi48(char *s); 
....................  
.................... /* Syntax: signed int64  atoi64(char * s) 
....................    converts the initial portion of the string s to a signed int64 
....................    returns the converted value if any, 0 otherwise*/ 
.................... signed int64 atoi64(char *s); 
.................... #endif 
....................  
.................... /* Syntax: char *  itoa(signed int32 num, int8 base, char * s) 
....................    converts the signed int32 to a string and 
....................    returns the converted value if any, 0 otherwise*/ 
.................... char * itoa(signed int32 num, unsigned int base, char * s); 
....................  
.................... /* Standard template: signed int16  atol(char * s) 
....................  * converts the initial portion of the string s to a signed int16 
....................  * returns the converted value if any, 0 otherwise 
....................  */ 
.................... signed long atol(char *s); 
....................  
.................... /* Standard template: int16 strtoul(char * s,char *endptr,signed int base) 
....................  * converts the initial portion of the string s, represented as an 
....................  * integral value of radix base  to a signed long. 
....................  * Returns the converted value if any, 0 otherwise 
....................  * the final string is returned in the endptr, if endptr is not null 
....................  */ 
.................... signed long strtol(char *s,char *endptr, signed int base); 
....................  
.................... /* Standard template: int16 strtoul(char * s,char *endptr,signed int base) 
....................  * converts the initial portion of the string s, represented as an 
....................  * integral value of radix base to a unsigned long. 
....................  * returns the converted value if any, 0 otherwise 
....................  * the final string is returned in the endptr, if endptr is not null 
....................  */ 
.................... unsigned long strtoul(char *s,char *endptr, signed int base); 
....................  
.................... /* Standart template: float strtof(char * s,char *endptr) 
....................                       float48 strtof48(char *s,char *endptr); 
....................                       float64 strtod(char *s,char *endptr); 
....................  * converts the initial portion of the string s to a float32, float48 or float64, 
....................  * returns the converted value if any, 0 otherwise 
....................  * the final string is returned in the endptr, if endptr is not null                    
.................... */ 
.................... float strtof(char *s,char *endptr); 
.................... #if defined(__PCD__) 
.................... float48 strtof48(char *s,char *endptr); 
.................... float64 strtod(char *s,char *endptr); 
.................... #else 
.................... //provided for compatibility 
.................... #define strtof48(s, e) strtof(s, e) 
.................... #define strtod(s, e) strtof(s, e) 
.................... #endif 
....................  
.................... /* Standard template: float32 atof(char * s) 
....................  * converts the initial portion of the string s to a float. 
....................  * returns the converted value if any, 0 otherwise 
....................  */ 
.................... #define atof(s)   strtof(s, 0) 
....................  
.................... #if defined(__PCD__) 
.................... // The following functions only work on the 24 bit compiler 
.................... // for the 30F, 33F, 24F and 24H parts 
....................  
.................... /* Standard template: float48 atof48(char * s) 
....................  * converts the initial portion of the string s to a float. 
....................  * returns the converted value if any, 0 otherwise 
....................  */ 
.................... #define atof48(s) strtof48(s, 0) 
....................  
.................... /* Standard template: float64 atof64(char * s) 
....................  * converts the initial portion of the string s to a float. 
....................  * returns the converted value if any, 0 otherwise 
....................  */ 
.................... #define atof64(s) strtod(s, 0) 
.................... #endif 
....................  
.................... /* Standard template: float32 atoe(char * s) 
....................  * converts the initial portion of the string s to a float. 
....................  * returns the converted value if any, 0 otherwise 
....................  * also handles E format numbers 
....................  */ 
.................... #if !defined(__PCD__) 
.................... float atoe(char * s); 
.................... #endif 
....................  
.................... #if defined(__PCD__) 
.................... float32 atoe(char * s); 
.................... #endif 
....................  
.................... //--------------------------------------------------------------------------- 
.................... // Pseudo-random sequence generation functions 
.................... //--------------------------------------------------------------------------- 
....................  
.................... /* The rand function computes a sequence of pseudo-random integers in 
....................  * the range 0 to RAND_MAX 
....................  * 
....................  * Parameters: 
....................  *       (none) 
....................  * 
....................  * Returns: 
....................  *       The pseudo-random integer 
....................  */ 
.................... unsigned int16 rand(void); 
....................  
.................... /* The srand function uses the argument as a seed for a new sequence of 
....................  * pseudo-random numbers to be returned by subsequent calls to rand. 
....................  * 
....................  * Parameters: 
....................  *       [in] seed: The seed value to start from. You might need to pass 
....................  * 
....................  * Returns: 
....................  *       (none) 
....................  * 
....................  * Remarks 
....................  *          The srand function sets the starting point for generating 
....................  *       a series of pseudorandom integers. To reinitialize the 
....................  *       generator, use 1 as the seed argument. Any other value for 
....................  *       seed sets the generator to a random starting point. rand 
....................  *       retrieves the pseudorandom numbers that are generated. 
....................  *       Calling rand before any call to srand generates the same 
....................  *       sequence as calling srand with seed passed as 1. 
....................  *          Usually, you need to pass a time here from outer source 
....................  *       so that the numbers will be different every time you run. 
....................  */ 
.................... void srand(unsigned int32 seed); 
....................  
.................... //--------------------------------------------------------------------------- 
.................... // Memory management functions 
.................... //--------------------------------------------------------------------------- 
....................  
.................... // Comming soon 
....................  
.................... //--------------------------------------------------------------------------- 
.................... // Communication with the environment 
.................... //--------------------------------------------------------------------------- 
....................  
.................... /* The function returns 0 always 
....................  */ 
.................... signed int8 system(char *string); 
....................  
.................... //--------------------------------------------------------------------------- 
.................... // Searching and sorting utilities 
.................... //--------------------------------------------------------------------------- 
....................  
.................... /* Performs a binary search of a sorted array.. 
....................  * 
....................  * Parameters: 
....................  *       [in] key: Object to search for 
....................  *       [in] base: Pointer to base of search data 
....................  *       [in] num: Number of elements 
....................  *       [in] width: Width of elements 
....................  *       [in] compare: Function that compares two elements 
....................  * 
....................  * Returns: 
....................  *       bsearch returns a pointer to an occurrence of key in the array pointed 
....................  *       to by base. If key is not found, the function returns NULL. If the 
....................  *       array is not in order or contains duplicate records with identical keys, 
....................  *       the result is unpredictable. 
....................  */ 
.................... //void *bsearch(const void *key, const void *base, size_t num, size_t width, 
.................... //              int (*compare)(const void *, const void *)); 
....................  
.................... /* Performs the shell-metzner sort (not the quick sort algorithm). The contents 
....................  * of the array are sorted into ascending order according to a comparison 
....................  * function pointed to by compar. 
....................  * 
....................  * Parameters: 
....................  *       [in] base: Pointer to base of search data 
....................  *       [in] num: Number of elements 
....................  *       [in] width: Width of elements 
....................  *       [in] compare: Function that compares two elements 
....................  * 
....................  * Returns: 
....................  *       (none) 
....................  */ 
.................... //void *qsort(const void *base, size_t num, size_t width, 
.................... //              int (*compare)(const void *, const void *)); 
....................  
.................... //--------------------------------------------------------------------------- 
.................... // Integer arithmetic functions 
.................... //--------------------------------------------------------------------------- 
....................  
.................... #define labs abs 
....................  
.................... div_t div(signed int numer, signed int denom); 
.................... ldiv_t ldiv(signed long numer, signed long denom); 
....................  
.................... //--------------------------------------------------------------------------- 
.................... // Multibyte character functions 
.................... //--------------------------------------------------------------------------- 
....................  
.................... // Not supported 
....................  
.................... //--------------------------------------------------------------------------- 
.................... // Multibyte string functions 
.................... //--------------------------------------------------------------------------- 
....................  
.................... // Not supported 
....................  
....................  
.................... //--------------------------------------------------------------------------- 
.................... // Internal implementation 
.................... //--------------------------------------------------------------------------- 
....................  
.................... #include <stddef.h> 
.................... /////////////////////////////////////////////////////////////////////////// 
.................... ////        (C) Copyright 1996,2003 Custom Computer Services           //// 
.................... //// This source code may only be used by licensed users of the CCS C  //// 
.................... //// compiler.  This source code may only be distributed to other      //// 
.................... //// licensed users of the CCS C compiler.  No other use, reproduction //// 
.................... //// or distribution is permitted without written permission.          //// 
.................... //// Derivative programs created using this software in object code    //// 
.................... //// form are not restricted in any way.                               //// 
.................... /////////////////////////////////////////////////////////////////////////// 
....................  
.................... #ifndef _STDDEF 
....................  
.................... #define _STDDEF 
....................  
.................... #if sizeof(unsigned int8 *)==1 
.................... #define ptrdiff_t unsigned int8 
.................... #else 
.................... #define ptrdiff_t unsigned int16 
.................... #endif 
....................  
.................... #define size_t unsigned int8 
.................... #define wchar_t char 
.................... #define NULL 0 
....................  
.................... #define offsetof(s,f) (offsetofbit(s,f)/8) 
....................  
.................... #endif 
....................  
.................... #include <string.h> 
.................... //////////////////////////////////////////////////////////////////////////// 
.................... ////        (C) Copyright 1996,2008 Custom Computer Services            //// 
.................... //// This source code may only be used by licensed users of the CCS C   //// 
.................... //// compiler.  This source code may only be distributed to other       //// 
.................... //// licensed users of the CCS C compiler.  No other use, reproduction  //// 
.................... //// or distribution is permitted without written permission.           //// 
.................... //// Derivative programs created using this software in object code     //// 
.................... //// form are not restricted in any way.                                //// 
.................... //////////////////////////////////////////////////////////////////////////// 
....................  
.................... #ifndef _STRING 
.................... #define _STRING 
.................... #include <stddef.h> 
.................... #include <ctype.h> 
....................  
....................  
....................  
.................... ////////////////////////////////////////////// 
.................... //// Uncomment the following define to    //// 
.................... //// allow some functions to use a        //// 
.................... //// quicker algorithm, but use more ROM  //// 
.................... ////                                      //// 
.................... //// #define FASTER_BUT_MORE_ROM          //// 
.................... ////////////////////////////////////////////// 
....................  
....................  
....................  
.................... /*Copying functions*/ 
.................... /* standard template: 
....................    void *memmove(void *s1, void *s2, size_t n). 
....................    Copies max of n characters safely (not following ending '\0') 
....................    from s2 in s1; if s2 has less than n characters, appends 0 */ 
....................  
.................... char *memmove(void *s1,char *s2,size_t n) 
.................... { 
....................    char *sc1; 
....................    char *sc2; 
....................    sc1=s1; 
....................    sc2=s2; 
....................    if(sc2<sc1 && sc1 <sc2 +n) 
....................       for(sc1+=n,sc2+=n;0<n;--n) 
....................          *--sc1=*--sc2; 
....................    else 
....................       for(;0<n;--n) 
....................          *sc1++=*sc2++; 
....................   return s1; 
....................   } 
....................  
.................... /* Standard template: char *strcpy(char *s1, const char *s2) 
....................    copies the string s2 including the null character to s1. 
....................    This is a compiler built in to handle the different address 
....................    spaces */ 
....................  
.................... #define strcopy strcpy 
....................  
.................... /* standard template: 
....................    char *strncpy(char *s1, const char *s2, size_t n). 
....................    Copies max of n characters (not following ending '\0') 
....................    from s2 in s1; if s2 has less than n characters, appends 0 */ 
....................  
.................... char *strncpy(char *s1, char *s2, size_t n) 
.................... { 
....................   char *s; 
....................  
....................   for (s = s1; n > 0 && *s2 != '\0'; n--) 
....................      *s++ = *s2++; 
....................   for (; n > 0; n--) 
....................      *s++ = '\0'; 
....................  
....................   return(s1); 
.................... } 
.................... /***********************************************************/ 
....................  
.................... /*concatenation functions*/ 
.................... /* standard template: char *strcat(char *s1, const char *s2) 
.................... appends s2 to s1*/ 
....................  
.................... char *strcat(char *s1, char *s2) 
.................... { 
....................    char *s; 
....................  
....................    for (s = s1; *s != '\0'; ++s); 
....................    while(*s2 != '\0') 
....................    { 
....................       *s = *s2; 
....................       ++s; 
....................       ++s2; 
....................    } 
....................  
....................    *s = '\0'; 
....................    return(s1); 
.................... } 
.................... /* standard template: char *strncat(char *s1, char *s2,size_t n) 
.................... appends not more than n characters from s2 to s1*/ 
....................  
.................... char *strncat(char *s1, char *s2, size_t n) 
.................... { 
....................    char *s; 
....................  
....................    for (s = s1; *s != '\0'; ++s); 
....................    while(*s2 != '\0' && 0<n) 
....................    { 
....................       *s = *s2; 
....................       ++s; 
....................       ++s2; 
....................       --n; 
....................    } 
....................  
....................    *s = '\0'; 
....................    return(s1); 
.................... } 
....................  
.................... /***********************************************************/ 
....................  
....................  
.................... /*comparison functions*/ 
.................... /* standard template: signed int memcmp(void *s1, void *s2). 
....................    Compares s1 & s2; returns -1 if s1<s2, 0 if s1=s2, 1 if s1>s2 */ 
....................  
.................... signed int8 memcmp(void * s1,char *s2,size_t n) 
.................... { 
.................... char *su1, *su2; 
.................... for(su1=s1, su2=s2; 0<n; ++su1, ++su2, --n) 
.................... { 
....................    if(*su1!=*su2) 
....................       return ((*su1<*su2)?-1:+1); 
.................... } 
.................... return 0; 
.................... } 
....................  
.................... /* standard template: int strcmp(const char *s1, const char *s2). 
....................    Compares s1 & s2; returns -1 if s1<s2, 0 if s1=s2, 1 if s1>s2 */ 
....................  
.................... signed int8 strcmp(char *s1, char *s2) 
.................... { 
....................    for (; *s1 == *s2; s1++, s2++) 
....................       if (*s1 == '\0') 
....................          return(0); 
....................    return((*s1 < *s2) ? -1: 1); 
.................... } 
.................... /* standard template: int strcoll(const char *s1, const char *s2). 
....................    Compares s1 & s2; returns -1 if s1<s2, 0 if s1=s2, 1 if s1>s2 */ 
....................  
.................... signed int8 strcoll(char *s1, char *s2) 
.................... { 
....................    for (; *s1 == *s2; s1++, s2++) 
....................       if (*s1 == '\0') 
....................          return(0); 
....................    return((*s1 < *s2) ? -1: 1); 
.................... } 
....................  
.................... /* standard template: 
....................    int strncmp(const char *s1, const char *s2, size_t n). 
....................    Compares max of n characters (not following 0) from s1 to s2; 
....................    returns same as strcmp */ 
....................  
.................... signed int8 strncmp(char *s1, char *s2, size_t n) 
.................... { 
....................    for (; n > 0; s1++, s2++, n--) 
....................       if (*s1 != *s2) 
....................          return((*s1 <*s2) ? -1: 1); 
....................       else if (*s1 == '\0') 
....................          return(0); 
....................    return(0); 
.................... } 
.................... /* standard template: 
....................    int strxfrm(const char *s1, const char *s2, size_t n). 
....................    transforms maximum of n characters from s2 and places them into s1*/ 
.................... size_t strxfrm(char *s1, char *s2, size_t n) 
.................... { 
....................   char *s; 
....................   unsigned int8 n1; 
....................   n1=n; 
....................   for (s = s1; n > 0 && *s2 != '\0'; n--) 
....................      *s++ = *s2++; 
....................   for (; n > 0; n--) 
....................      *s++ = '\0'; 
....................  
....................   return(n1); 
.................... } 
....................  
....................  
....................  
....................  
....................  
.................... /***********************************************************/ 
.................... /*Search functions*/ 
.................... /* standard template: void *memchr(const char *s, int c). 
....................    Finds first occurrence of c in n characters of s */ 
....................  
.................... char *memchr(void *s,unsigned int8 c,size_t n) 
.................... { 
....................    char uc; 
....................    char *su; 
....................    uc=c; 
....................    for(su=s;0<n;++su,--n) 
....................       if(*su==uc) 
....................       return su; 
....................    return NULL; 
.................... } 
....................  
.................... /* standard template: char *strchr(const char *s, int c). 
....................    Finds first occurrence of c in s */ 
....................  
.................... char *strchr(char *s, unsigned int8 c) 
.................... { 
....................    for (; *s != c; s++) 
....................       if (*s == '\0') 
....................          return(0); 
....................    return(s); 
.................... } 
.................... /* standard template: 
....................    size_t strcspn(const char *s1, const char *s2). 
....................    Computes length of max initial segment of s1 that 
....................    consists entirely of characters NOT from s2*/ 
....................  
.................... unsigned int8  strcspn(char *s1, char *s2) 
.................... { 
....................    char *sc1, *sc2; 
....................  
....................    for (sc1 = s1; *sc1 != 0; sc1++) 
....................       for (sc2 = s2; *sc2 != 0; sc2++) 
....................          if (*sc1 == *sc2) 
....................             return(sc1 - s1); 
....................    return(sc1 - s1); 
.................... } 
.................... /* standard template: 
....................    char *strpbrk(const char *s1, const char *s2). 
....................    Locates first occurence of any character from s2 in s1; 
....................    returns s1 if s2 is empty string */ 
....................  
.................... char *strpbrk(char *s1, char *s2) 
.................... { 
....................    char *sc1, *sc2; 
....................  
....................    for (sc1 = s1; *sc1 != 0; sc1++) 
....................       for (sc2 = s2; *sc2 != 0; sc2++) 
....................          if (*sc1 == *sc2) 
....................             return(sc1); 
....................    return(0); 
.................... } 
....................  
....................  
.................... /* standard template: char *strrchr(const char *s, int c). 
....................    Finds last occurrence of c in s */ 
....................  
.................... char *strrchr(char *s, unsigned int8 c) 
.................... { 
....................    char *p; 
....................  
....................    for (p = 0; ; s++) 
....................    { 
....................       if (*s == c) 
....................          p = s; 
....................       if (*s == '\0') 
....................          return(p); 
....................    } 
.................... } 
.................... /* computes length of max initial segment of s1 consisting 
....................    entirely of characters from s2 */ 
....................  
.................... unsigned int8  strspn(char *s1, char *s2) 
.................... { 
....................    char *sc1, *sc2; 
....................  
....................    for (sc1 = s1; *sc1 != 0; sc1++) 
....................       for (sc2 = s2; ; sc2++) 
....................     if (*sc2 == '\0') 
....................        return(sc1 - s1); 
....................          else if (*sc1 == *sc2) 
....................             break; 
....................    return(sc1 - s1); 
.................... } 
.................... /* standard template: 
....................    char *strstr(const char *s1, const char *s2); 
....................    Locates first occurence of character sequence s2 in s1; 
....................    returns 0 if s2 is empty string 
....................  
....................    Uncomment #define FASTER_BUT_MORE_ROM at the top of the 
....................    file to use the faster algorithm */ 
.................... char *strstr(char *s1, char *s2) 
.................... { 
....................    char *s, *t; 
....................  
....................    #ifdef FASTER_BUT_MORE_ROM 
....................    if (*s2 == '\0') 
....................          return(s1); 
....................    #endif 
....................  
....................    while (*s1) 
....................    { 
....................       for(s = s1, t = s2; *t && (*s == *t); ++s, ++t); 
....................  
....................       if (*t == '\0') 
....................          return s1; 
....................       ++s1; 
....................       #ifdef FASTER_BUT_MORE_ROM 
....................          while(*s1 != '\0' && *s1 != *s2) 
....................             ++s1; 
....................       #endif 
....................    } 
....................    return 0; 
.................... } 
....................  
.................... /* standard template: char *strtok(char *s1, const char *s2). 
....................  
....................    Finds next token in s1 delimited by a character from separator 
....................    string s2 (which can be different from call to call).  First call 
....................    starts at beginning of s1 searching for first character NOT 
....................    contained in s2; returns 0 if none is found. 
....................    If one is found, it is the start of first token (return value). 
....................    Function then searches from there for a character contained in s2. 
....................    If none is found, current token extends to end of s1, and subsequent 
....................    searches for a token will return 0.  If one is found, it is 
....................    overwritten by '\0', which terminates current token.  Function saves 
....................    pointer to following character from which next search will start. 
....................    Each subsequent call, with 0 as first argument, starts searching 
....................    from saved pointer */ 
....................  
.................... char *strtok(char *s1, char *s2) 
.................... { 
....................    char *beg, *end; 
....................    static char *save; 
....................  
....................    beg = (s1)? s1: save; 
....................    beg += strspn(beg, s2); 
....................    if (*beg == '\0') 
....................    { 
....................       *save = ' '; 
....................       return(0); 
....................    } 
....................    end = strpbrk(beg, s2); 
....................    if (*end != '\0') 
....................    { 
....................       *end = '\0'; 
....................       end++; 
....................    } 
....................    save = end; 
....................    return(beg); 
.................... } 
....................  
.................... /*****************************************************************/ 
.................... /*Miscellaneous functions*/ 
.................... /* standard template 
.................... maps error number in errnum to an error message string 
.................... Returns: Pointer to string 
.................... */ 
.................... #ifdef _ERRNO 
.................... char * strerror(unsigned int8 errnum) 
.................... { 
.................... char s[15]; 
.................... switch( errnum) 
.................... { 
.................... case 0: 
....................    strcpy(s,"no errors"); 
....................    return s; 
.................... case EDOM : 
....................    strcpy(s,"domain error"); 
....................    return s; 
.................... case ERANGE: 
....................    strcpy(s,"range error"); 
....................    return s; 
.................... } 
.................... } 
.................... #ENDIF 
.................... /* standard template: size_t strlen(const char *s). 
....................    Computes length of s1 (preceding terminating 0) */ 
....................  
.................... unsigned int8 strlen(char *s) 
.................... { 
....................    char *sc; 
....................  
....................    for (sc = s; *sc != 0; sc++); 
....................    return(sc - s); 
.................... } 
....................  
.................... /* standard template: size_t stricmp(const char *s1, const char *s2). 
....................    Compares s1 to s2 ignoring case (upper vs. lower) */ 
....................  
.................... signed int8 stricmp(char *s1, char *s2) 
.................... { 
....................  for(; *s1==*s2||(isalpha(*s1)&&isalpha(*s2)&&(*s1==*s2+32||*s2==*s1+32)); 
....................     s1++, s2++) 
....................     if (*s1 == '\0') 
....................        return(0); 
....................  return((*s1 < *s2) ? -1: 1); 
.................... } 
....................  
....................  
.................... /* standard template: char *strlwr(char *s). 
....................    Replaces uppercase letters by lowercase; 
....................    returns pointer to new string s */ 
....................  
.................... char *strlwr(char *s) 
.................... { 
....................    char *p; 
....................  
....................    for (p = s; *p != '\0'; p++) 
....................       if (*p >= 'A' && *p <='Z') 
....................          *p += 'a' - 'A'; 
....................    return(s); 
.................... } 
....................  
....................  
.................... /************************************************************/ 
....................  
....................  
.................... #endif 
....................  
....................  
.................... div_t div(signed int numer, signed int denom) 
.................... { 
....................    div_t val; 
....................    val.quot = numer / denom; 
....................    val.rem = numer - (denom * val.quot); 
....................    return (val); 
.................... } 
....................  
.................... ldiv_t ldiv(signed long numer, signed long denom) 
.................... { 
....................    ldiv_t val; 
....................  
....................    val.quot = numer / denom; 
....................    val.rem = numer - (denom * val.quot); 
....................    return (val); 
.................... } 
....................  
.................... #if defined(__PCD__) 
.................... float32 atoe(char * s) 
.................... { 
....................    float32 pow10 = 1.0; 
....................    float32 result = 0.0; 
....................    unsigned int8 sign = 0; 
....................    unsigned int8 expsign = 0; 
....................    char c; 
....................    unsigned int8 ptr = 0; 
....................    unsigned int8 i; 
....................    float32 exp = 1.0; 
....................    unsigned int8 expcnt = 0; 
....................  
....................    c = s[ptr++]; 
....................  
....................    if ((c>='0' && c<='9') || c=='+' || c=='-' || c=='.' || c=='E' || c=='e') { 
....................       if(c == '-') { 
....................          sign = 1; 
....................          c = s[ptr++]; 
....................       } 
....................       if(c == '+') 
....................          c = s[ptr++]; 
....................  
....................       while((c >= '0' && c <= '9')) { 
....................          result = 10*result + c - '0'; 
....................          c = s[ptr++]; 
....................       } 
....................  
....................       if (c == '.') { 
....................          c = s[ptr++]; 
....................          while((c >= '0' && c <= '9')) { 
....................              pow10 = pow10*10; 
....................              result += (c - '0')/pow10; 
....................              c = s[ptr++]; 
....................          } 
....................       } 
....................  
....................       // Handling the exponent 
....................       if (c=='e' || c=='E') { 
....................          c = s[ptr++]; 
....................  
....................          if(c == '-') { 
....................             expsign = 1; 
....................             c = s[ptr++]; 
....................          } 
....................          if(c == '+') 
....................             c = s[ptr++]; 
....................  
....................          while((c >= '0' && c <= '9')) { 
....................             expcnt = 10*expcnt + c - '0'; 
....................             c = s[ptr++]; 
....................          } 
....................  
....................          for(i=0;i<expcnt;i++) 
....................             exp*=10; 
....................  
....................          if(expsign==1) 
....................             result/=exp; 
....................          else 
....................             result*=exp; 
....................       } 
....................    } 
....................  
....................    if (sign == 1) 
....................       result = -1*result; 
....................    return(result); 
.................... } 
.................... #endif 
....................  
.................... #if !defined(__PCD__) 
.................... float atoe(char * s) 
.................... { 
....................    float pow10 = 1.0; 
....................    float result = 0.0; 
....................    unsigned int8 sign = 0; 
....................    unsigned int8 expsign = 0; 
....................    char c; 
....................    unsigned int8 ptr = 0; 
....................    unsigned int8 i; 
....................    float exp = 1.0; 
....................    unsigned int8 expcnt = 0; 
....................  
....................    c = s[ptr++]; 
....................  
....................    if ((c>='0' && c<='9') || c=='+' || c=='-' || c=='.' || c=='E' || c=='e') { 
....................       if(c == '-') { 
....................          sign = 1; 
....................          c = s[ptr++]; 
....................       } 
....................       if(c == '+') 
....................          c = s[ptr++]; 
....................  
....................       while((c >= '0' && c <= '9')) { 
....................          result = 10*result + c - '0'; 
....................          c = s[ptr++]; 
....................       } 
....................  
....................       if (c == '.') { 
....................          c = s[ptr++]; 
....................          while((c >= '0' && c <= '9')) { 
....................              pow10 = pow10*10; 
....................              result += (c - '0')/pow10; 
....................              c = s[ptr++]; 
....................          } 
....................       } 
....................  
....................       // Handling the exponent 
....................       if (c=='e' || c=='E') { 
....................          c = s[ptr++]; 
....................  
....................          if(c == '-') { 
....................             expsign = 1; 
....................             c = s[ptr++]; 
....................          } 
....................          if(c == '+') 
....................             c = s[ptr++]; 
....................  
....................          while((c >= '0' && c <= '9')) { 
....................             expcnt = 10*expcnt + c - '0'; 
....................             c = s[ptr++]; 
....................          } 
....................  
....................          for(i=0;i<expcnt;i++) 
....................             exp*=10; 
....................  
....................          if(expsign==1) 
....................             result/=exp; 
....................          else 
....................             result*=exp; 
....................       } 
....................    } 
....................  
....................    if (sign == 1) 
....................       result = -1*result; 
....................    return(result); 
.................... } 
.................... #endif 
....................  
.................... signed int atoi(char *s) 
.................... { 
....................    signed int result; 
....................    unsigned int sign, base, index; 
....................    char c; 
....................  
....................    index = 0; 
....................    sign = 0; 
....................    base = 10; 
....................    result = 0; 
....................  
....................    if (!s) 
....................       return 0; 
....................    // Omit all preceeding alpha characters 
....................    c = s[index++]; 
....................  
....................    // increase index if either positive or negative sign is detected 
....................    if (c == '-') 
....................    { 
....................       sign = 1;         // Set the sign to negative 
....................       c = s[index++]; 
....................    } 
....................    else if (c == '+') 
....................    { 
....................       c = s[index++]; 
....................    } 
....................  
....................    if (c >= '0' && c <= '9') 
....................    { 
....................  
....................       // Check for hexa number 
....................       if (c == '0' && (s[index] == 'x' || s[index] == 'X')) 
....................       { 
....................          base = 16; 
....................          index++; 
....................          c = s[index++]; 
....................       } 
....................  
....................       // The number is a decimal number 
....................       if (base == 10) 
....................       { 
....................          while (c >= '0' && c <= '9') 
....................          { 
....................             result = 10*result + (c - '0'); 
....................             c = s[index++]; 
....................          } 
....................       } 
....................       else if (base == 16)    // The number is a hexa number 
....................       { 
....................          c = toupper(c); 
....................          while ( (c >= '0' && c <= '9') || (c >= 'A' && c<='F')) 
....................          { 
....................             if (c >= '0' && c <= '9') 
....................                result = (result << 4) + (c - '0'); 
....................             else 
....................                result = (result << 4) + (c - 'A' + 10); 
....................  
....................             c = s[index++]; 
....................             c = toupper(c); 
....................          } 
....................       } 
....................    } 
....................  
....................    if (sign == 1 && base == 10) 
....................        result = -result; 
....................  
....................    return(result); 
.................... } 
....................  
.................... signed long atol(char *s) 
.................... { 
....................    signed long result; 
....................    unsigned int sign, base, index; 
....................    char c; 
....................  
....................    index = 0; 
....................    sign = 0; 
....................    base = 10; 
....................    result = 0; 
....................  
....................    if (!s) 
....................       return 0; 
....................    c = s[index++]; 
....................  
....................    // increase index if either positive or negative sign is detected 
....................    if (c == '-') 
....................    { 
....................       sign = 1;         // Set the sign to negative 
....................       c = s[index++]; 
....................    } 
....................    else if (c == '+') 
....................    { 
....................       c = s[index++]; 
....................    } 
....................  
....................    if (c >= '0' && c <= '9') 
....................    { 
....................       if (c == '0' && (s[index] == 'x' || s[index] == 'X')) 
....................       { 
....................          base = 16; 
....................          index++; 
....................          c = s[index++]; 
....................       } 
....................  
....................       // The number is a decimal number 
....................       if (base == 10) 
....................       { 
....................          while (c >= '0' && c <= '9') 
....................          { 
....................             result = 10*result + (c - '0'); 
....................             c = s[index++]; 
....................          } 
....................       } 
....................       else if (base == 16)    // The number is a hexa number 
....................       { 
....................          c = toupper(c); 
....................          while ( (c >= '0' && c <= '9') || (c >= 'A' && c <='F')) 
....................          { 
....................             if (c >= '0' && c <= '9') 
....................                result = (result << 4) + (c - '0'); 
....................             else 
....................                result = (result << 4) + (c - 'A' + 10); 
....................  
....................             c = s[index++];c = toupper(c); 
....................          } 
....................       } 
....................    } 
....................  
....................    if (base == 10 && sign == 1) 
....................       result = -result; 
....................  
....................    return(result); 
.................... } 
....................  
.................... /* A fast routine to multiply by 10 
....................  */ 
.................... signed int32 mult_with10(int32 num) 
.................... { 
....................    return ( (num << 1) + (num << 3) ); 
.................... } 
....................  
.................... #if sizeof(long)==2 
.................... signed int32 atoi32(char *s) 
.................... { 
....................    signed int32 result; 
....................    int8 sign, base, index; 
....................    char c; 
....................  
....................    index = 0; 
....................    sign = 0; 
....................    base = 10; 
....................    result = 0; 
....................  
....................    if (!s) 
....................       return 0; 
....................    c = s[index++]; 
....................  
....................    // increase index if either positive or negative sign is detected 
....................    if (c == '-') 
....................    { 
....................       sign = 1;         // Set the sign to negative 
....................       c = s[index++]; 
....................    } 
....................    else if (c == '+') 
....................    { 
....................       c = s[index++]; 
....................    } 
....................  
....................    if (c >= '0' && c <= '9') 
....................    { 
....................       if (c == '0' && (s[index] == 'x' || s[index] == 'X')) 
....................       { 
....................          base = 16; 
....................          index++; 
....................          c = s[index++]; 
....................       } 
....................  
....................       // The number is a decimal number 
....................       if (base == 10) 
....................       { 
....................          while (c >= '0' && c <= '9') { 
....................             result = (result << 1) + (result << 3);  // result *= 10; 
....................             result += (c - '0'); 
....................             c = s[index++]; 
....................          } 
....................       } 
....................       else if (base == 16)    // The number is a hexa number 
....................       { 
....................          c = toupper(c); 
....................          while ((c >= '0' && c <= '9') || (c >= 'A' && c <='F')) 
....................          { 
....................             if (c >= '0' && c <= '9') 
....................                result = (result << 4) + (c - '0'); 
....................             else 
....................                result = (result << 4) + (c - 'A' + 10); 
....................  
....................             c = s[index++];c = toupper(c); 
....................          } 
....................       } 
....................    } 
....................  
....................    if (base == 10 && sign == 1) 
....................       result = -result; 
....................  
....................    return(result); 
.................... } 
.................... #endif 
....................  
.................... #if defined(__PCD__) 
....................  
.................... signed int48 atoi48(char *s) 
.................... { 
....................    signed int48 result; 
....................    int8 sign, base, index; 
....................    char c; 
....................  
....................    index = 0; 
....................    sign = 0; 
....................    base = 10; 
....................    result = 0; 
....................  
....................    if (!s) 
....................       return 0; 
....................    c = s[index++]; 
....................  
....................    // increase index if either positive or negative sign is detected 
....................    if (c == '-') 
....................    { 
....................       sign = 1;         // Set the sign to negative 
....................       c = s[index++]; 
....................    } 
....................    else if (c == '+') 
....................    { 
....................       c = s[index++]; 
....................    } 
....................  
....................    if (c >= '0' && c <= '9') 
....................    { 
....................       if (c == '0' && (s[index] == 'x' || s[index] == 'X')) 
....................       { 
....................          base = 16; 
....................          index++; 
....................          c = s[index++]; 
....................       } 
....................  
....................       // The number is a decimal number 
....................       if (base == 10) 
....................       { 
....................          while (c >= '0' && c <= '9') { 
....................             result = (result << 1) + (result << 3);  // result *= 10; 
....................             result += (c - '0'); 
....................             c = s[index++]; 
....................          } 
....................       } 
....................       else if (base == 16)    // The number is a hexa number 
....................       { 
....................          c = toupper(c); 
....................          while ((c >= '0' && c <= '9') || (c >= 'A' && c <='F')) 
....................          { 
....................             if (c >= '0' && c <= '9') 
....................                result = (result << 4) + (c - '0'); 
....................             else 
....................                result = (result << 4) + (c - 'A' + 10); 
....................  
....................             c = s[index++];c = toupper(c); 
....................          } 
....................       } 
....................    } 
....................  
....................    if (base == 10 && sign == 1) 
....................       result = -result; 
....................  
....................    return(result); 
.................... } 
....................  
.................... signed int64 atoi64(char *s) 
.................... { 
....................    signed int64 result; 
....................    int8 sign, base, index; 
....................    char c; 
....................  
....................    index = 0; 
....................    sign = 0; 
....................    base = 10; 
....................    result = 0; 
....................  
....................    if (!s) 
....................       return 0; 
....................    c = s[index++]; 
....................  
....................    // increase index if either positive or negative sign is detected 
....................    if (c == '-') 
....................    { 
....................       sign = 1;         // Set the sign to negative 
....................       c = s[index++]; 
....................    } 
....................    else if (c == '+') 
....................    { 
....................       c = s[index++]; 
....................    } 
....................  
....................    if (c >= '0' && c <= '9') 
....................    { 
....................       if (c == '0' && (s[index] == 'x' || s[index] == 'X')) 
....................       { 
....................          base = 16; 
....................          index++; 
....................          c = s[index++]; 
....................       } 
....................  
....................       // The number is a decimal number 
....................       if (base == 10) 
....................       { 
....................          while (c >= '0' && c <= '9') { 
....................             result = (result << 1) + (result << 3);  // result *= 10; 
....................             result += (c - '0'); 
....................             c = s[index++]; 
....................          } 
....................       } 
....................       else if (base == 16)    // The number is a hexa number 
....................       { 
....................          c = toupper(c); 
....................          while ((c >= '0' && c <= '9') || (c >= 'A' && c <='F')) 
....................          { 
....................             if (c >= '0' && c <= '9') 
....................                result = (result << 4) + (c - '0'); 
....................             else 
....................                result = (result << 4) + (c - 'A' + 10); 
....................  
....................             c = s[index++];c = toupper(c); 
....................          } 
....................       } 
....................    } 
....................  
....................    if (base == 10 && sign == 1) 
....................       result = -result; 
....................  
....................    return(result); 
.................... } 
.................... #endif 
....................  
.................... char * itoa(signed int32 num, unsigned int base, char * s) 
.................... { 
....................      unsigned int32 temp=1; 
....................      unsigned int8 i,sign=0,cnt=0; 
....................      char c; 
....................  
....................      if(num<0) { 
....................          sign=1;        // Check for negative number 
....................          num*=-1; 
....................      } 
....................  
....................      while(temp>0) { 
....................          temp=(num/base); 
....................          s[cnt]=(num%base)+'0';    // Conversion 
....................  
....................          if(s[cnt]>0x39) 
....................             s[cnt]+=0x7; 
....................  
....................          cnt++; 
....................          num=temp; 
....................      } 
....................  
....................      if(sign==1) { 
....................          s[cnt]=0x2D;      // Negative sign 
....................          cnt++; 
....................      } 
....................  
....................      for(i = 0;i<(int8)(cnt/2);i++) { 
....................  
....................          c=s[i]; 
....................          s[i]=s[cnt-i-1];        // Reverse the number 
....................          s[cnt-i-1]=c; 
....................      } 
....................      s[cnt]='\0';     // End the string 
....................      return s; 
.................... } 
....................  
.................... float strtof(char *s, char *endptr) 
.................... { 
....................    float pow10 = 1.0; 
....................    float result = 0.0; 
....................    int1 skip = 1, sign = 0, point = 0; 
....................    char c; 
....................    unsigned int8 ptr = 0; 
....................  
....................    if (!s) 
....................       return 0; 
....................  
....................    for(c=s[ptr++]; c!=0; c=s[ptr++]) 
....................    { 
....................       if (skip && !isspace(c)) 
....................       { 
....................          skip = 0; 
....................          if (c == '+') 
....................          { 
....................             sign = 0; 
....................             continue; 
....................          }             
....................          else if (c == '-') 
....................          { 
....................             sign = 1; 
....................             continue; 
....................          } 
....................       } 
....................       if (!skip && (c == '.') && !point) 
....................          point = 1; 
....................       else if (!skip && isdigit(c)) 
....................       { 
....................          c -= '0'; 
....................          if (point) 
....................          { 
....................             pow10 = pow10 * 10.0; 
....................             result += (float)c / pow10;    
....................          } 
....................          else 
....................          { 
....................             result = 10.0 * result + (float)c; 
....................          } 
....................       } 
....................       else if (!skip) 
....................          break; 
....................    } 
....................  
....................    if (sign) 
....................       result = -1*result; 
....................        
....................    if(endptr) 
....................    { 
....................       if (ptr) { 
....................          ptr--; 
....................        #IF LONG_POINTERS  
....................          *((long *)endptr)= s+ptr;  
....................        #ELSE 
....................          *((char *)endptr)=s+ptr; 
....................        #ENDIF 
....................       } 
....................       else 
....................       { 
....................       #IF LONG_POINTERS 
....................       *((long *)endptr)= s;  
....................       #ELSE 
....................       *((char *)endptr)=s; 
....................       #ENDIF 
....................       } 
....................    } 
....................  
....................    return(result); 
.................... } 
....................  
.................... #if defined(__PCD__) 
.................... float48 strtof48(char *s, char *endptr) 
.................... { 
....................    float48 pow10 = 1.0; 
....................    float48 result = 0.0; 
....................    int1 skip = 1, sign = 0, point = 0; 
....................    char c; 
....................    unsigned int8 ptr = 0; 
....................  
....................    if (!s) 
....................       return 0; 
....................  
....................    for(c=s[ptr++]; c!=0; c=s[ptr++]) 
....................    { 
....................       if (skip && !isspace(c)) 
....................       { 
....................          skip = 0; 
....................          if (c == '+') 
....................          { 
....................             sign = 0; 
....................             continue; 
....................          }             
....................          else if (c == '-') 
....................          { 
....................             sign = 1; 
....................             continue; 
....................          } 
....................       } 
....................       if (!skip && (c == '.') && !point) 
....................          point = 1; 
....................       else if (!skip && isdigit(c)) 
....................       { 
....................          c -= '0'; 
....................          if (point) 
....................          { 
....................             pow10 = pow10 * 10.0; 
....................             result += (float48)c / pow10;    
....................          } 
....................          else 
....................          { 
....................             result = 10.0 * result + (float48)c; 
....................          } 
....................       } 
....................       else if (!skip) 
....................          break; 
....................    } 
....................  
....................    if (sign) 
....................       result = -1*result; 
....................        
....................    if(endptr) 
....................    { 
....................       if (ptr) { 
....................          ptr--; 
....................        #IF LONG_POINTERS  
....................          *((long *)endptr)= s+ptr;  
....................        #ELSE 
....................          *((char *)endptr)=s+ptr; 
....................        #ENDIF 
....................       } 
....................       else 
....................       { 
....................       #IF LONG_POINTERS 
....................       *((long *)endptr)= s;  
....................       #ELSE 
....................       *((char *)endptr)=s; 
....................       #ENDIF 
....................       } 
....................    } 
....................  
....................    return(result); 
.................... } 
....................  
.................... float64 strtod(char *s, char *endptr) 
.................... { 
....................    float64 pow10 = 1.0; 
....................    float64 result = 0.0; 
....................    int1 skip = 1, sign = 0, point = 0; 
....................    char c; 
....................    unsigned int8 ptr = 0; 
....................  
....................    if (!s) 
....................       return 0; 
....................  
....................    for(c=s[ptr++]; c!=0; c=s[ptr++]) 
....................    { 
....................       if (skip && !isspace(c)) 
....................       { 
....................          skip = 0; 
....................          if (c == '+') 
....................          { 
....................             sign = 0; 
....................             continue; 
....................          }             
....................          else if (c == '-') 
....................          { 
....................             sign = 1; 
....................             continue; 
....................          } 
....................       } 
....................       if (!skip && (c == '.') && !point) 
....................          point = 1; 
....................       else if (!skip && isdigit(c)) 
....................       { 
....................          c -= '0'; 
....................          if (point) 
....................          { 
....................             pow10 = pow10 * 10.0; 
....................             result += (float64)c / pow10;    
....................          } 
....................          else 
....................          { 
....................             result = 10.0 * result + (float64)c; 
....................          } 
....................       } 
....................       else if (!skip) 
....................          break; 
....................    } 
....................  
....................    if (sign) 
....................       result = -1*result; 
....................        
....................    if(endptr) 
....................    { 
....................       if (ptr) { 
....................          ptr--; 
....................        #IF LONG_POINTERS  
....................          *((long *)endptr)= s+ptr;  
....................        #ELSE 
....................          *((char *)endptr)=s+ptr; 
....................        #ENDIF 
....................       } 
....................       else 
....................       { 
....................       #IF LONG_POINTERS 
....................       *((long *)endptr)= s;  
....................       #ELSE 
....................       *((char *)endptr)=s; 
....................       #ENDIF 
....................       } 
....................    } 
....................  
....................    return(result); 
.................... } 
.................... #endif 
....................  
.................... unsigned long strtoul(char *s, char *endptr, signed int base) 
.................... { 
....................    char *sc,*s1,*sd; 
....................    unsigned long x=0; 
....................    char sign; 
....................    char digits[]="0123456789abcdefghijklmnopqstuvwxyz"; 
....................    for(sc=s;isspace(*sc);++sc); 
....................    sign=*sc=='-'||*sc=='+'?*sc++:'+'; 
....................    if(sign=='-' || base <0 || base ==1|| base >36) // invalid base 
....................    goto StrtoulGO; 
....................  
....................    else if (base) 
....................    { 
....................       if(base==16 && *sc =='0'&&(sc[1]=='x' || sc[1]=='X')) 
....................          sc+=2; 
....................       if(base==8 && *sc =='0') 
....................          sc+=1; 
....................       if(base==2 && *sc =='0'&&sc[1]=='b') 
....................          sc+=2; 
....................  
....................    } 
....................    else if(*sc!='0') // base is 0, find base 
....................       base=10; 
....................    else if (sc[1]=='x' || sc[1]=='X') 
....................       base =16,sc+=2; 
....................    else if(sc[1]=='b') 
....................       base=2,sc+=2; 
....................    else 
....................       base=8; 
....................    for (s1=sc;*sc=='0';++sc);// skip leading zeroes 
....................    sd=memchr(digits,tolower(*sc),base); 
....................    for(; sd!=0; ) 
....................    { 
....................       x=x*base+(int16)(sd-digits); 
....................       ++sc; 
....................       sd=memchr(digits,tolower(*sc),base); 
....................    } 
....................    if(s1==sc) 
....................    { 
....................    StrtoulGO: 
....................       if (endptr) 
....................       { 
....................          #IF LONG_POINTERS 
....................          *((long *)endptr)= s;  
....................          #ELSE 
....................          *((char *)endptr)=s; 
....................          #ENDIF 
....................          } 
....................    return 0; 
....................    } 
....................    if (endptr) 
....................    { 
....................          #IF LONG_POINTERS 
....................          *((long *)endptr)= sc;  
....................          #ELSE 
....................          *((char *)endptr)=sc;  
....................          #ENDIF 
....................    } 
....................    return x; 
.................... } 
....................  
....................  
.................... signed long strtol(char *s,char *endptr, signed int base) 
.................... { 
....................    char *sc,*s1,*sd; 
....................    signed long x=0; 
....................    char sign; 
....................    char digits[]="0123456789abcdefghijklmnopqstuvwxyz"; 
....................    for(sc=s;isspace(*sc);++sc); 
....................    sign=*sc=='-'||*sc=='+'?*sc++:'+'; 
....................    if (base <0 || base ==1|| base >36) // invalid base 
....................    goto StrtolGO; 
....................    else if (base) 
....................    { 
....................       if(base==16 && *sc =='0'&&(sc[1]=='x' || sc[1]=='X')) 
....................          sc+=2; 
....................       if(base==8 && *sc =='0') 
....................          sc+=1; 
....................       if(base==2 && *sc =='0'&&sc[1]=='b') 
....................          sc+=2; 
....................  
....................    } 
....................    else if(*sc!='0') // base is 0, find base 
....................       base=10; 
....................    else if (sc[1]=='x' || sc[1]=='X') 
....................       base =16,sc+=2; 
....................    else if(sc[1]=='b') 
....................       base=2,sc+=2; 
....................    else 
....................       base=8; 
....................    for (s1=sc;*sc=='0';++sc);// skip leading zeroes 
....................  
....................    sd=memchr(digits,tolower(*sc),base); 
....................    for(;sd!=0;) 
....................    { 
....................       x=x*base+(int16)(sd-digits); 
....................       ++sc; 
....................       sd=memchr(digits,tolower(*sc),base); 
....................    } 
....................    if(s1==sc) 
....................    { 
....................    StrtolGO: 
....................       if (endptr) 
....................       { 
....................          #IF LONG_POINTERS 
....................          *((long *)endptr)= s;  
....................          #ELSE 
....................          *((char *)endptr)=s; 
....................          #ENDIF 
....................       } 
....................    return 0; 
....................    } 
....................    if(sign=='-') 
....................       x  =-x; 
....................    if (endptr) 
....................    { 
....................         #IF LONG_POINTERS 
....................          *((long *)endptr)= sc;  
....................         #ELSE 
....................         *((char *)endptr)=sc; 
....................         #ENDIF 
....................    } 
....................    return x; 
.................... } 
....................  
.................... signed int8 system(char *string) 
.................... { 
....................    return 0; 
.................... } 
....................  
.................... int8 mblen(char *s,size_t n) 
.................... { 
....................    return strlen(s); 
.................... } 
....................  
.................... int8 mbtowc(wchar_t *pwc,char *s,size_t n) 
.................... { 
....................    *pwc=*s; 
....................    return 1; 
.................... } 
....................  
.................... int8 wctomb(char *s,wchar_t wchar) 
.................... { 
....................    *s=wchar; 
....................    return 1; 
.................... } 
....................  
.................... size_t mbstowcs(wchar_t *pwcs,char *s,size_t n) 
.................... { 
....................    strncpy(pwcs,s,n); 
....................    return strlen(pwcs); 
.................... } 
....................  
.................... size_t wcstombs(char *s,wchar_t *pwcs,size_t n) 
.................... { 
....................    strncpy(s,pwcs,n); 
....................    return strlen(s); 
.................... } 
....................  
.................... //--------------------------------------------------------------------------- 
.................... // The random number implementation 
.................... //--------------------------------------------------------------------------- 
....................  
.................... unsigned int32 _Randseed; 
....................  
.................... unsigned int16 rand(void) 
.................... { 
....................    _Randseed = _Randseed * 1103515245 + 12345; 
....................    return ((unsigned int16)(_Randseed >> 16) % RAND_MAX); 
.................... } 
....................  
.................... void srand(unsigned int32 seed) 
.................... { 
....................    _Randseed = seed; 
.................... } 
....................  
.................... //--------------------------------------------------------------------------- 
.................... // Searching and sorting utilities implementation 
.................... //--------------------------------------------------------------------------- 
....................  
.................... #if !defined(__PCD__) 
.................... typedef signed int8 (*_Cmpfun)(char * p1,char * p2);  
.................... #else  
.................... typedef signed int16 (*_Cmpfun)(char * p1,char * p2);  
.................... #endif 
....................  
....................  
....................  
.................... void qsort(char * qdata, unsigned int qitems, unsigned int qsize, _Cmpfun cmp) { 
....................    unsigned int m,j,i,l; 
....................    int1 done; 
....................    unsigned int8 t[16]; 
....................  
....................    m = qitems/2; 
....................    while( m > 0 ) { 
....................      for(j=0; j<(qitems-m); ++j) { 
....................         i = j; 
....................         do 
....................         { 
....................            done=1; 
....................            l = i+m; 
....................            if( (*cmp)(qdata+i*qsize, qdata+l*qsize) > 0 ) { 
....................               memcpy(t, qdata+i*qsize, qsize); 
....................               memcpy(qdata+i*qsize, qdata+l*qsize, qsize); 
....................               memcpy(qdata+l*qsize, t, qsize); 
....................               if(m <= i) 
....................                 i -= m; 
....................                 done = 0; 
....................            } 
....................         } while(!done); 
....................      } 
....................      m = m/2; 
....................    } 
.................... } 
....................  
....................  
.................... char *bsearch(char *key, char *base, size_t num, size_t width,_Cmpfun cmp) 
.................... { 
....................    char *p, *q; 
....................    size_t n; 
....................    size_t pivot; 
....................    signed int val; 
....................  
....................    p = base; 
....................    n = num; 
....................  
....................    while (n > 0) 
....................    { 
....................       pivot = n >> 1; 
....................       q = p + width * pivot; 
....................  
....................       val = (*cmp)(key, q); 
....................  
....................       if (val < 0) 
....................          n = pivot; 
....................       else if (val == 0) 
....................          return ((char *)q); 
....................       else { 
....................          p = q + width; 
....................          n -= pivot + 1; 
....................       } 
....................    } 
....................  
....................    return NULL;      // There's no match 
.................... } 
....................  
....................  
.................... #endif 
....................  
....................  
.................... // Definicin de teclado - NO 
.................... #define   UP            !input(PIN_A5) 
.................... #define   DOWN          !input(PIN_E0) 
.................... #define   RIGHT         !input(PIN_E1) 
.................... #define   LEFT          !input(PIN_E2) 
....................  
.................... #define   DOOR          input(PIN_A4) 
.................... #define   TERM          input(PIN_A3) 
....................  
....................  
.................... // Definicin de Salidas 
.................... #define   Servo_on          output_bit(PIN_A2,1) 
.................... #define   Servo_off         output_bit(PIN_A2,0) 
.................... #define   SSR_on            output_bit(PIN_C2,1) 
.................... #define   SSR_off           output_bit(PIN_C2,0) 
.................... #define   SSR2_on            output_bit(PIN_C1,1) 
.................... #define   SSR2_off           output_bit(PIN_C1,0) 
.................... #define   Motor1_on         output_bit(PIN_C0,1) 
.................... #define   Motor1_off        output_bit(PIN_C0,0) 
.................... #define   Buzzer_on         output_bit(PIN_C5,1) 
.................... #define   Buzzer_off        output_bit(PIN_C5,0) 
....................  
.................... float promedio[90]={0.0,0.0,0.0,0.0,0.0,0.0,0.0,0.0,0.0,0.0,0.0,0.0,0.0,0.0,0.0,0.0,0.0,0.0,0.0,0.0,0.0,0.0,0.0,0.0,0.0,0.0,0.0,0.0,0.0,0.0,0.0,0.0,0.0,0.0,0.0,0.0,0.0,0.0,0.0,0.0,0.0,0.0,0.0,0.0,0.0,0.0,0.0,0.0,0.0,0.0,0.0,0.0,0.0,0.0,0.0,0.0,0.0,0.0,0.0,0.0,0.0,0.0,0.0,0.0,0.0,0.0,0.0,0.0,0.0,0.0,0.0,0.0,0.0,0.0}; 
.................... float X[2]={0.0,0.0}; 
.................... short Desconectado=0,Alarma=0,flagup=0,flagdn=0,flag_controlando=0,Cruce=OFF,flagMotor=OFF; 
.................... int8 h=0,l=0,Ajuste=0,Ajusten=0,MediaMovil=10,tiemporecta=0,flag_ganancia=0,Lectura2=0,Controlando=0,Ajusto=10,n=0,Programa=0; 
.................... short Flanco=0,Flanco1=0,Flanco2=0,visual=1,Lectura=0,flag_ajuste=0,flag_ajuste2=0,flag_clear=0,Infinito=0,abrio=0,flagGuardaEstado=OFF; 
.................... short flag_clear2=0,flag_clear3=0,flag_tiempocalentamiento=0,flag_display=0,flag_setpoint=0,Finalizo=0,sobrepaso=0,flagControlT=OFF; 
.................... int8 y=0,tiemporeset=0,Source=1,VelMotor=0,Vel1=10,controlT=0; 
.................... int8 Menu=0, unidad=1,i=0,Pausa=0,tiempoup=0,tiempodn=0,pulsos=0; 
.................... int8 Opcion=1,tiempo_esterilizacion=0,tiempo_secado=0,decimal=0,entero=0,angulo=0; 
.................... int16 tiempos=0,tiempos3=0,tiempoctrl=0,tinicio=0,tiempocalentamiento=0,tiemposetpoint=0,Tp=0,Tc=0,TiempoControl=0,tiempoApertura=0,tSobrepaso=0,tiempoServo=0,tleft=0; 
.................... float Potencia=0.0,Tpulsomin=0.0,Gananciamax=0.0,Gain=0.0,RPT100=0.0,Integral=0,Derivativo=0,derivativo_ant=0; 
.................... signed int  Testerilizacion[4]={0,0,0,0};   // Tiempo transcurrido 
.................... signed int  Testerilizacionp[4]={0,0,0,0};   // Tiempo transcurrido 
.................... signed int  Contrasena[4]={0,0,0,0};      // Contrasena de 4 digitos 
.................... signed int  Password[4]={0,0,0,0};        // Contrasena Almacenada de 4 digitos 
.................... float V0=0.0,R1=10000.0,Pt,Tciclo=10.0,Tpulso=0.0,error=0.0,Prom=0.0,Temperature=0.0,tmp=0.0,Ganancia=2.0,desvio=0.5,Coeficiente=44.5,gananciaAnt=0.0; 
.................... float Aumento=0.0,Temperatura=0.0,TpulsoMax=0.0,Setpoint=0,Temperatura1=0,Temperatura2=0,Temperatura3=0,Temporal=0.0,Ajustef=0.0,Ajustenf=0.0; 
.................... float a=0.0011,b=2.3302,c=-244.0723; 
....................  
.................... //Comunicacion//------------------------ 
.................... byte dato=0;            //Contendr la informacin a enviar o recibir 
.................... byte direccion=0;       //Contendr la direccin del esclavo en el bus I2C 
.................... byte posicion=0;        //Contendr la posicin en el buffer de memoria del esclavo donde se almacenar o de donde se recuperar el dato 
....................  
....................  
.................... typedef struct{ 
....................    char Letra[30]; 
.................... }MENUU; 
....................  
.................... MENUU Menus; 
....................  
.................... #include "Funciones.h" 
.................... void ActualizaRecta(){ 
....................    X[y]=Temperatura; 
*
054F6:  MOVLB  5
054F8:  MOVF   xB0,W
054FA:  MULLW  04
054FC:  MOVF   FF3,W
054FE:  CLRF   03
05500:  ADDLW  98
05502:  MOVWF  FE9
05504:  MOVLW  05
05506:  ADDWFC 03,W
05508:  MOVWF  FEA
0550A:  MOVFF  645,FEF
0550E:  MOVFF  646,FEC
05512:  MOVFF  647,FEC
05516:  MOVFF  648,FEC
....................    y++; 
0551A:  INCF   xB0,F
....................    if(y>=2){ 
0551C:  MOVF   xB0,W
0551E:  SUBLW  01
05520:  BC    555E
....................       y=0; 
05522:  CLRF   xB0
....................       Aumento=X[1]-X[0]; 
05524:  BSF    FD8.1
05526:  MOVFF  59F,6A7
0552A:  MOVFF  59E,6A6
0552E:  MOVFF  59D,6A5
05532:  MOVFF  59C,6A4
05536:  MOVFF  59B,6AB
0553A:  MOVFF  59A,6AA
0553E:  MOVFF  599,6A9
05542:  MOVFF  598,6A8
05546:  MOVLB  0
05548:  CALL   1530
0554C:  MOVFF  03,644
05550:  MOVFF  02,643
05554:  MOVFF  01,642
05558:  MOVFF  00,641
0555C:  MOVLB  5
....................    } 
.................... } 
0555E:  MOVLB  0
05560:  RETLW  00
....................  
.................... // Funcion para conversor analogo-digital 
.................... float sensores(int8 x){ 
.................... float y;set_adc_channel(x);delay_ms(1);y=read_adc();return (y); 
*
03332:  MOVLB  6
03334:  RLCF   x99,W
03336:  MOVWF  00
03338:  RLCF   00,F
0333A:  MOVLW  FC
0333C:  ANDWF  00,F
0333E:  MOVFF  00,01
03342:  MOVF   FC2,W
03344:  ANDLW  C3
03346:  IORWF  00,W
03348:  MOVWF  FC2
0334A:  MOVLW  01
0334C:  MOVWF  xA1
0334E:  MOVLB  0
03350:  CALL   132E
03354:  BSF    FC2.1
03356:  BTFSC  FC2.1
03358:  BRA    3356
0335A:  MOVFF  FC4,6A5
0335E:  MOVFF  FC3,6A4
03362:  MOVLB  0
03364:  CALL   139C
03368:  MOVFF  03,69D
0336C:  MOVFF  02,69C
03370:  MOVFF  01,69B
03374:  MOVFF  00,69A
03378:  MOVFF  69A,00
0337C:  MOVFF  69B,01
03380:  MOVFF  69C,02
03384:  MOVFF  69D,03
.................... } 
03388:  GOTO   34B4 (RETURN)
....................  
.................... float Leer_Sensor(int8 media){ 
....................    Prom=0.0; 
*
034A4:  MOVLB  6
034A6:  CLRF   x28
034A8:  CLRF   x27
034AA:  CLRF   x26
034AC:  CLRF   x25
....................    V0 = sensores(0);   //Lectura de Divisor de Voltaje de PT100 con resistencia de 6.18k (+-2%) 
034AE:  CLRF   x99
034B0:  MOVLB  0
034B2:  BRA    3332
034B4:  MOVFF  03,610
034B8:  MOVFF  02,60F
034BC:  MOVFF  01,60E
034C0:  MOVFF  00,60D
....................    V0 = V0/Gain; // Se elimina la ganancia 
034C4:  MOVFF  610,69C
034C8:  MOVFF  60F,69B
034CC:  MOVFF  60E,69A
034D0:  MOVFF  60D,699
034D4:  MOVFF  5EC,6A0
034D8:  MOVFF  5EB,69F
034DC:  MOVFF  5EA,69E
034E0:  MOVFF  5E9,69D
034E4:  CALL   13D2
034E8:  MOVFF  03,610
034EC:  MOVFF  02,60F
034F0:  MOVFF  01,60E
034F4:  MOVFF  00,60D
....................    V0 += 14.85; 
034F8:  BCF    FD8.1
034FA:  MOVFF  610,6A7
034FE:  MOVFF  60F,6A6
03502:  MOVFF  60E,6A5
03506:  MOVFF  60D,6A4
0350A:  MOVLW  9A
0350C:  MOVLB  6
0350E:  MOVWF  xAB
03510:  MOVLW  99
03512:  MOVWF  xAA
03514:  MOVLW  6D
03516:  MOVWF  xA9
03518:  MOVLW  82
0351A:  MOVWF  xA8
0351C:  MOVLB  0
0351E:  CALL   1530
03522:  MOVFF  03,610
03526:  MOVFF  02,60F
0352A:  MOVFF  01,60E
0352E:  MOVFF  00,60D
....................    Pt=6790/((1023/V0)-1); 
03532:  MOVLB  6
03534:  CLRF   x9C
03536:  MOVLW  C0
03538:  MOVWF  x9B
0353A:  MOVLW  7F
0353C:  MOVWF  x9A
0353E:  MOVLW  88
03540:  MOVWF  x99
03542:  MOVFF  610,6A0
03546:  MOVFF  60F,69F
0354A:  MOVFF  60E,69E
0354E:  MOVFF  60D,69D
03552:  MOVLB  0
03554:  CALL   13D2
03558:  MOVFF  00,699
0355C:  MOVFF  01,69A
03560:  MOVFF  02,69B
03564:  MOVFF  03,69C
03568:  BSF    FD8.1
0356A:  MOVFF  03,6A7
0356E:  MOVFF  02,6A6
03572:  MOVFF  01,6A5
03576:  MOVFF  00,6A4
0357A:  MOVLB  6
0357C:  CLRF   xAB
0357E:  CLRF   xAA
03580:  CLRF   xA9
03582:  MOVLW  7F
03584:  MOVWF  xA8
03586:  MOVLB  0
03588:  CALL   1530
0358C:  MOVLB  6
0358E:  CLRF   x9C
03590:  MOVLW  30
03592:  MOVWF  x9B
03594:  MOVLW  54
03596:  MOVWF  x9A
03598:  MOVLW  8B
0359A:  MOVWF  x99
0359C:  MOVFF  03,6A0
035A0:  MOVFF  02,69F
035A4:  MOVFF  01,69E
035A8:  MOVFF  00,69D
035AC:  MOVLB  0
035AE:  CALL   13D2
035B2:  MOVFF  03,618
035B6:  MOVFF  02,617
035BA:  MOVFF  01,616
035BE:  MOVFF  00,615
....................              
....................    if(l>(media-1)) 
035C2:  MOVLW  01
035C4:  MOVLB  6
035C6:  SUBWF  x98,W
035C8:  MOVLB  5
035CA:  SUBWF  xA2,W
035CC:  BZ    35D2
035CE:  BNC   35D2
....................    {l=0;} 
035D0:  CLRF   xA2
....................    //promedio[l]=Temperature;l++; 
....................    promedio[l]=Pt;l++; 
035D2:  MOVLB  6
035D4:  CLRF   x9D
035D6:  MOVFF  5A2,69C
035DA:  CLRF   x9F
035DC:  MOVLW  04
035DE:  MOVWF  x9E
035E0:  MOVLB  0
035E2:  RCALL  338C
035E4:  MOVF   01,W
035E6:  ADDLW  30
035E8:  MOVWF  FE9
035EA:  MOVLW  04
035EC:  ADDWFC 02,W
035EE:  MOVWF  FEA
035F0:  MOVFF  615,FEF
035F4:  MOVFF  616,FEC
035F8:  MOVFF  617,FEC
035FC:  MOVFF  618,FEC
03600:  MOVLB  5
03602:  INCF   xA2,F
....................           
....................    for(h=0;h<media;h++) 
03604:  CLRF   xA1
03606:  MOVLB  6
03608:  MOVF   x98,W
0360A:  MOVLB  5
0360C:  SUBWF  xA1,W
0360E:  BC    368E
....................    { 
....................       Prom+=promedio[h]; 
03610:  MOVLB  6
03612:  CLRF   x9D
03614:  MOVFF  5A1,69C
03618:  CLRF   x9F
0361A:  MOVLW  04
0361C:  MOVWF  x9E
0361E:  MOVLB  0
03620:  RCALL  338C
03622:  MOVFF  02,03
03626:  MOVF   01,W
03628:  ADDLW  30
0362A:  MOVWF  FE9
0362C:  MOVLW  04
0362E:  ADDWFC 02,W
03630:  MOVWF  FEA
03632:  MOVFF  FEF,00
03636:  MOVFF  FEC,01
0363A:  MOVFF  FEC,02
0363E:  MOVFF  FEC,03
03642:  MOVFF  FEA,69A
03646:  MOVFF  FE9,699
0364A:  BCF    FD8.1
0364C:  MOVFF  628,6A7
03650:  MOVFF  627,6A6
03654:  MOVFF  626,6A5
03658:  MOVFF  625,6A4
0365C:  MOVFF  03,6AB
03660:  MOVFF  02,6AA
03664:  MOVFF  01,6A9
03668:  MOVFF  00,6A8
0366C:  CALL   1530
03670:  MOVFF  69A,FEA
03674:  MOVFF  699,FE9
03678:  MOVFF  03,628
0367C:  MOVFF  02,627
03680:  MOVFF  01,626
03684:  MOVFF  00,625
....................    }  
03688:  MOVLB  5
0368A:  INCF   xA1,F
0368C:  BRA    3606
....................    Prom=Prom/media;    
0368E:  MOVLB  6
03690:  CLRF   xA5
03692:  MOVFF  698,6A4
03696:  MOVLB  0
03698:  CALL   139C
0369C:  MOVFF  628,69C
036A0:  MOVFF  627,69B
036A4:  MOVFF  626,69A
036A8:  MOVFF  625,699
036AC:  MOVFF  03,6A0
036B0:  MOVFF  02,69F
036B4:  MOVFF  01,69E
036B8:  MOVFF  00,69D
036BC:  CALL   13D2
036C0:  MOVFF  03,628
036C4:  MOVFF  02,627
036C8:  MOVFF  01,626
036CC:  MOVFF  00,625
....................    //Temperature=(Prom-100.0)/(0.385);  // Ecuacin determinada por linealizacin en Matlab. Revisar este polinomio.   
....................    Temperature=((Prom*Prom)*a)+(Prom*b)+c;  // Ecuacin determinada por linealizacin en Matlab. Revisar este polinomio. 
036D0:  MOVFF  628,6BB
036D4:  MOVFF  627,6BA
036D8:  MOVFF  626,6B9
036DC:  MOVFF  625,6B8
036E0:  MOVFF  628,6BF
036E4:  MOVFF  627,6BE
036E8:  MOVFF  626,6BD
036EC:  MOVFF  625,6BC
036F0:  RCALL  33AE
036F2:  MOVFF  00,699
036F6:  MOVFF  01,69A
036FA:  MOVFF  02,69B
036FE:  MOVFF  03,69C
03702:  MOVFF  03,6BB
03706:  MOVFF  02,6BA
0370A:  MOVFF  01,6B9
0370E:  MOVFF  00,6B8
03712:  MOVFF  66C,6BF
03716:  MOVFF  66B,6BE
0371A:  MOVFF  66A,6BD
0371E:  MOVFF  669,6BC
03722:  RCALL  33AE
03724:  MOVFF  00,699
03728:  MOVFF  01,69A
0372C:  MOVFF  02,69B
03730:  MOVFF  03,69C
03734:  MOVFF  628,6BB
03738:  MOVFF  627,6BA
0373C:  MOVFF  626,6B9
03740:  MOVFF  625,6B8
03744:  MOVFF  670,6BF
03748:  MOVFF  66F,6BE
0374C:  MOVFF  66E,6BD
03750:  MOVFF  66D,6BC
03754:  RCALL  33AE
03756:  BCF    FD8.1
03758:  MOVFF  69C,6A7
0375C:  MOVFF  69B,6A6
03760:  MOVFF  69A,6A5
03764:  MOVFF  699,6A4
03768:  MOVFF  03,6AB
0376C:  MOVFF  02,6AA
03770:  MOVFF  01,6A9
03774:  MOVFF  00,6A8
03778:  CALL   1530
0377C:  MOVFF  00,699
03780:  MOVFF  01,69A
03784:  MOVFF  02,69B
03788:  MOVFF  03,69C
0378C:  BCF    FD8.1
0378E:  MOVFF  03,6A7
03792:  MOVFF  02,6A6
03796:  MOVFF  01,6A5
0379A:  MOVFF  00,6A4
0379E:  MOVFF  674,6AB
037A2:  MOVFF  673,6AA
037A6:  MOVFF  672,6A9
037AA:  MOVFF  671,6A8
037AE:  CALL   1530
037B2:  MOVFF  03,62C
037B6:  MOVFF  02,62B
037BA:  MOVFF  01,62A
037BE:  MOVFF  00,629
....................    Ajustef=Ajuste; 
037C2:  MOVLB  6
037C4:  CLRF   xA5
037C6:  MOVFF  5A3,6A4
037CA:  MOVLB  0
037CC:  CALL   139C
037D0:  MOVFF  03,664
037D4:  MOVFF  02,663
037D8:  MOVFF  01,662
037DC:  MOVFF  00,661
....................    Ajustenf=Ajusten; 
037E0:  MOVLB  6
037E2:  CLRF   xA5
037E4:  MOVFF  5A4,6A4
037E8:  MOVLB  0
037EA:  CALL   139C
037EE:  MOVFF  03,668
037F2:  MOVFF  02,667
037F6:  MOVFF  01,666
037FA:  MOVFF  00,665
....................    Ajustef=Ajustef/10; 
037FE:  MOVFF  664,69C
03802:  MOVFF  663,69B
03806:  MOVFF  662,69A
0380A:  MOVFF  661,699
0380E:  MOVLB  6
03810:  CLRF   xA0
03812:  CLRF   x9F
03814:  MOVLW  20
03816:  MOVWF  x9E
03818:  MOVLW  82
0381A:  MOVWF  x9D
0381C:  MOVLB  0
0381E:  CALL   13D2
03822:  MOVFF  03,664
03826:  MOVFF  02,663
0382A:  MOVFF  01,662
0382E:  MOVFF  00,661
....................    Ajustenf=Ajustenf/10; 
03832:  MOVFF  668,69C
03836:  MOVFF  667,69B
0383A:  MOVFF  666,69A
0383E:  MOVFF  665,699
03842:  MOVLB  6
03844:  CLRF   xA0
03846:  CLRF   x9F
03848:  MOVLW  20
0384A:  MOVWF  x9E
0384C:  MOVLW  82
0384E:  MOVWF  x9D
03850:  MOVLB  0
03852:  CALL   13D2
03856:  MOVFF  03,668
0385A:  MOVFF  02,667
0385E:  MOVFF  01,666
03862:  MOVFF  00,665
....................    Temperature+=(Ajustef-Ajustenf); 
03866:  BSF    FD8.1
03868:  MOVFF  664,6A7
0386C:  MOVFF  663,6A6
03870:  MOVFF  662,6A5
03874:  MOVFF  661,6A4
03878:  MOVFF  668,6AB
0387C:  MOVFF  667,6AA
03880:  MOVFF  666,6A9
03884:  MOVFF  665,6A8
03888:  CALL   1530
0388C:  BCF    FD8.1
0388E:  MOVFF  62C,6A7
03892:  MOVFF  62B,6A6
03896:  MOVFF  62A,6A5
0389A:  MOVFF  629,6A4
0389E:  MOVFF  03,6AB
038A2:  MOVFF  02,6AA
038A6:  MOVFF  01,6A9
038AA:  MOVFF  00,6A8
038AE:  CALL   1530
038B2:  MOVFF  03,62C
038B6:  MOVFF  02,62B
038BA:  MOVFF  01,62A
038BE:  MOVFF  00,629
....................    //Temperature-=39.0; 
....................     
....................    //return Prom; 
....................    return Temperature; 
038C2:  MOVFF  629,00
038C6:  MOVFF  62A,01
038CA:  MOVFF  62B,02
038CE:  MOVFF  62C,03
.................... } 
038D2:  RETLW  00
....................  
.................... void ControlaNatural(){ 
....................    //if(tiempoApertura>600){ 
....................    //   abrio=0; 
....................    //   tiempoApertura=0; 
....................    //   flag_setpoint=0; 
....................    //} 
....................        
.................... //-------------------------------Control de Calentamiento------------------------------------------------------------//          
....................       if(tiemporecta>=derivativo_ant){ 
*
05FCE:  MOVLB  6
05FD0:  CLRF   xA5
05FD2:  MOVFF  5A6,6A4
05FD6:  MOVLB  0
05FD8:  CALL   139C
05FDC:  MOVFF  5FC,69B
05FE0:  MOVFF  5FB,69A
05FE4:  MOVFF  5FA,699
05FE8:  MOVFF  5F9,698
05FEC:  MOVFF  03,69F
05FF0:  MOVFF  02,69E
05FF4:  MOVFF  01,69D
05FF8:  MOVFF  00,69C
05FFC:  CALL   2046
06000:  BC    6004
06002:  BNZ   600C
....................          ActualizaRecta(); 
06004:  CALL   54F6
....................          tiemporecta=0; 
06008:  MOVLB  5
0600A:  CLRF   xA6
....................       }     
....................       desvio=1.0; 
0600C:  MOVLB  6
0600E:  CLRF   x38
06010:  CLRF   x37
06012:  CLRF   x36
06014:  MOVLW  7F
06016:  MOVWF  x35
....................       error=desvio+Setpoint-Temperatura;      // Clculo del error ****** 
06018:  BCF    FD8.1
0601A:  MOVFF  638,6A7
0601E:  MOVFF  637,6A6
06022:  MOVFF  636,6A5
06026:  MOVFF  635,6A4
0602A:  MOVFF  650,6AB
0602E:  MOVFF  64F,6AA
06032:  MOVFF  64E,6A9
06036:  MOVFF  64D,6A8
0603A:  MOVLB  0
0603C:  CALL   1530
06040:  MOVFF  00,698
06044:  MOVFF  01,699
06048:  MOVFF  02,69A
0604C:  MOVFF  03,69B
06050:  BSF    FD8.1
06052:  MOVFF  03,6A7
06056:  MOVFF  02,6A6
0605A:  MOVFF  01,6A5
0605E:  MOVFF  00,6A4
06062:  MOVFF  648,6AB
06066:  MOVFF  647,6AA
0606A:  MOVFF  646,6A9
0606E:  MOVFF  645,6A8
06072:  CALL   1530
06076:  MOVFF  03,624
0607A:  MOVFF  02,623
0607E:  MOVFF  01,622
06082:  MOVFF  00,621
....................    
....................       if(error>=15.0 && error<60 && Aumento<=0.5){ 
06086:  MOVLB  6
06088:  CLRF   x9B
0608A:  CLRF   x9A
0608C:  MOVLW  70
0608E:  MOVWF  x99
06090:  MOVLW  82
06092:  MOVWF  x98
06094:  MOVFF  624,69F
06098:  MOVFF  623,69E
0609C:  MOVFF  622,69D
060A0:  MOVFF  621,69C
060A4:  MOVLB  0
060A6:  CALL   2046
060AA:  BC    60B0
060AC:  BTFSS  FD8.2
060AE:  BRA    62E6
060B0:  MOVFF  624,69B
060B4:  MOVFF  623,69A
060B8:  MOVFF  622,699
060BC:  MOVFF  621,698
060C0:  MOVLB  6
060C2:  CLRF   x9F
060C4:  CLRF   x9E
060C6:  MOVLW  70
060C8:  MOVWF  x9D
060CA:  MOVLW  84
060CC:  MOVWF  x9C
060CE:  MOVLB  0
060D0:  CALL   2046
060D4:  BTFSS  FD8.0
060D6:  BRA    62E6
060D8:  MOVFF  644,69B
060DC:  MOVFF  643,69A
060E0:  MOVFF  642,699
060E4:  MOVFF  641,698
060E8:  MOVLB  6
060EA:  CLRF   x9F
060EC:  CLRF   x9E
060EE:  CLRF   x9D
060F0:  MOVLW  7E
060F2:  MOVWF  x9C
060F4:  MOVLB  0
060F6:  CALL   2046
060FA:  BC    6100
060FC:  BTFSS  FD8.2
060FE:  BRA    62E6
....................          Derivativo=derivativo_ant*4; 
06100:  MOVFF  5FC,6BB
06104:  MOVFF  5FB,6BA
06108:  MOVFF  5FA,6B9
0610C:  MOVFF  5F9,6B8
06110:  MOVLB  6
06112:  CLRF   xBF
06114:  CLRF   xBE
06116:  CLRF   xBD
06118:  MOVLW  81
0611A:  MOVWF  xBC
0611C:  MOVLB  0
0611E:  CALL   33AE
06122:  MOVFF  03,5F8
06126:  MOVFF  02,5F7
0612A:  MOVFF  01,5F6
0612E:  MOVFF  00,5F5
....................          flag_ajuste=0; 
06132:  MOVLB  5
06134:  BCF    xAD.4
....................          flag_ajuste2=0; 
06136:  BCF    xAD.5
....................          Ajusto=10; 
06138:  MOVLW  0A
0613A:  MOVWF  xAA
....................          if(Potencia<60.0){ 
0613C:  MOVFF  5E0,69B
06140:  MOVFF  5DF,69A
06144:  MOVFF  5DE,699
06148:  MOVFF  5DD,698
0614C:  MOVLB  6
0614E:  CLRF   x9F
06150:  CLRF   x9E
06152:  MOVLW  70
06154:  MOVWF  x9D
06156:  MOVLW  84
06158:  MOVWF  x9C
0615A:  MOVLB  0
0615C:  CALL   2046
06160:  BTFSS  FD8.0
06162:  BRA    62E4
....................             if(TiempoControl>=Derivativo)//80 
06164:  MOVFF  5D4,6A5
06168:  MOVFF  5D3,6A4
0616C:  CALL   139C
06170:  MOVFF  5F8,69B
06174:  MOVFF  5F7,69A
06178:  MOVFF  5F6,699
0617C:  MOVFF  5F5,698
06180:  MOVFF  03,69F
06184:  MOVFF  02,69E
06188:  MOVFF  01,69D
0618C:  MOVFF  00,69C
06190:  CALL   2046
06194:  BC    619A
06196:  BTFSS  FD8.2
06198:  BRA    62E4
....................             { 
....................                TiempoControl=0; 
0619A:  MOVLB  5
0619C:  CLRF   xD4
0619E:  CLRF   xD3
....................                if(Aumento<-0.5) 
061A0:  MOVFF  644,69B
061A4:  MOVFF  643,69A
061A8:  MOVFF  642,699
061AC:  MOVFF  641,698
061B0:  MOVLB  6
061B2:  CLRF   x9F
061B4:  CLRF   x9E
061B6:  MOVLW  80
061B8:  MOVWF  x9D
061BA:  MOVLW  7E
061BC:  MOVWF  x9C
061BE:  MOVLB  0
061C0:  CALL   2046
061C4:  BNC   61FE
....................                { 
....................                   Ganancia+=Integral;//2 
061C6:  BCF    FD8.1
061C8:  MOVFF  634,6A7
061CC:  MOVFF  633,6A6
061D0:  MOVFF  632,6A5
061D4:  MOVFF  631,6A4
061D8:  MOVFF  5F4,6AB
061DC:  MOVFF  5F3,6AA
061E0:  MOVFF  5F2,6A9
061E4:  MOVFF  5F1,6A8
061E8:  CALL   1530
061EC:  MOVFF  03,634
061F0:  MOVFF  02,633
061F4:  MOVFF  01,632
061F8:  MOVFF  00,631
....................                } 
....................                else 
061FC:  BRA    62E4
....................                { 
....................                   if(Aumento<-0.1) 
061FE:  MOVFF  644,69B
06202:  MOVFF  643,69A
06206:  MOVFF  642,699
0620A:  MOVFF  641,698
0620E:  MOVLW  CD
06210:  MOVLB  6
06212:  MOVWF  x9F
06214:  MOVLW  CC
06216:  MOVWF  x9E
06218:  MOVWF  x9D
0621A:  MOVLW  7B
0621C:  MOVWF  x9C
0621E:  MOVLB  0
06220:  CALL   2046
06224:  BNC   6286
....................                   { 
....................                      Ganancia+=Integral*0.3;//1 
06226:  MOVFF  5F4,6BB
0622A:  MOVFF  5F3,6BA
0622E:  MOVFF  5F2,6B9
06232:  MOVFF  5F1,6B8
06236:  MOVLW  9A
06238:  MOVLB  6
0623A:  MOVWF  xBF
0623C:  MOVLW  99
0623E:  MOVWF  xBE
06240:  MOVLW  19
06242:  MOVWF  xBD
06244:  MOVLW  7D
06246:  MOVWF  xBC
06248:  MOVLB  0
0624A:  CALL   33AE
0624E:  BCF    FD8.1
06250:  MOVFF  634,6A7
06254:  MOVFF  633,6A6
06258:  MOVFF  632,6A5
0625C:  MOVFF  631,6A4
06260:  MOVFF  03,6AB
06264:  MOVFF  02,6AA
06268:  MOVFF  01,6A9
0626C:  MOVFF  00,6A8
06270:  CALL   1530
06274:  MOVFF  03,634
06278:  MOVFF  02,633
0627C:  MOVFF  01,632
06280:  MOVFF  00,631
....................                   }    
....................                   else 
06284:  BRA    62E4
....................                   { 
....................                      Ganancia+=Integral*0.1;//0.5 
06286:  MOVFF  5F4,6BB
0628A:  MOVFF  5F3,6BA
0628E:  MOVFF  5F2,6B9
06292:  MOVFF  5F1,6B8
06296:  MOVLW  CD
06298:  MOVLB  6
0629A:  MOVWF  xBF
0629C:  MOVLW  CC
0629E:  MOVWF  xBE
062A0:  MOVLW  4C
062A2:  MOVWF  xBD
062A4:  MOVLW  7B
062A6:  MOVWF  xBC
062A8:  MOVLB  0
062AA:  CALL   33AE
062AE:  BCF    FD8.1
062B0:  MOVFF  634,6A7
062B4:  MOVFF  633,6A6
062B8:  MOVFF  632,6A5
062BC:  MOVFF  631,6A4
062C0:  MOVFF  03,6AB
062C4:  MOVFF  02,6AA
062C8:  MOVFF  01,6A9
062CC:  MOVFF  00,6A8
062D0:  CALL   1530
062D4:  MOVFF  03,634
062D8:  MOVFF  02,633
062DC:  MOVFF  01,632
062E0:  MOVFF  00,631
....................                   } 
....................                } 
....................             } 
....................          } 
....................       }else if(error>=6.0 && error<15 && Aumento<=0.3){ 
062E4:  BRA    67D8
062E6:  MOVLB  6
062E8:  CLRF   x9B
062EA:  CLRF   x9A
062EC:  MOVLW  40
062EE:  MOVWF  x99
062F0:  MOVLW  81
062F2:  MOVWF  x98
062F4:  MOVFF  624,69F
062F8:  MOVFF  623,69E
062FC:  MOVFF  622,69D
06300:  MOVFF  621,69C
06304:  MOVLB  0
06306:  CALL   2046
0630A:  BC    6310
0630C:  BTFSS  FD8.2
0630E:  BRA    654E
06310:  MOVFF  624,69B
06314:  MOVFF  623,69A
06318:  MOVFF  622,699
0631C:  MOVFF  621,698
06320:  MOVLB  6
06322:  CLRF   x9F
06324:  CLRF   x9E
06326:  MOVLW  70
06328:  MOVWF  x9D
0632A:  MOVLW  82
0632C:  MOVWF  x9C
0632E:  MOVLB  0
06330:  CALL   2046
06334:  BTFSS  FD8.0
06336:  BRA    654E
06338:  MOVFF  644,69B
0633C:  MOVFF  643,69A
06340:  MOVFF  642,699
06344:  MOVFF  641,698
06348:  MOVLW  9A
0634A:  MOVLB  6
0634C:  MOVWF  x9F
0634E:  MOVLW  99
06350:  MOVWF  x9E
06352:  MOVLW  19
06354:  MOVWF  x9D
06356:  MOVLW  7D
06358:  MOVWF  x9C
0635A:  MOVLB  0
0635C:  CALL   2046
06360:  BC    6366
06362:  BTFSS  FD8.2
06364:  BRA    654E
....................          Derivativo=derivativo_ant*3; 
06366:  MOVFF  5FC,6BB
0636A:  MOVFF  5FB,6BA
0636E:  MOVFF  5FA,6B9
06372:  MOVFF  5F9,6B8
06376:  MOVLB  6
06378:  CLRF   xBF
0637A:  CLRF   xBE
0637C:  MOVLW  40
0637E:  MOVWF  xBD
06380:  MOVLW  80
06382:  MOVWF  xBC
06384:  MOVLB  0
06386:  CALL   33AE
0638A:  MOVFF  03,5F8
0638E:  MOVFF  02,5F7
06392:  MOVFF  01,5F6
06396:  MOVFF  00,5F5
....................          flag_ajuste=0; 
0639A:  MOVLB  5
0639C:  BCF    xAD.4
....................          flag_ajuste2=0; 
0639E:  BCF    xAD.5
....................          Ajusto=10; 
063A0:  MOVLW  0A
063A2:  MOVWF  xAA
....................          if(Potencia<40.0){ 
063A4:  MOVFF  5E0,69B
063A8:  MOVFF  5DF,69A
063AC:  MOVFF  5DE,699
063B0:  MOVFF  5DD,698
063B4:  MOVLB  6
063B6:  CLRF   x9F
063B8:  CLRF   x9E
063BA:  MOVLW  20
063BC:  MOVWF  x9D
063BE:  MOVLW  84
063C0:  MOVWF  x9C
063C2:  MOVLB  0
063C4:  CALL   2046
063C8:  BTFSS  FD8.0
063CA:  BRA    654C
....................             if(TiempoControl>=Derivativo)//80 
063CC:  MOVFF  5D4,6A5
063D0:  MOVFF  5D3,6A4
063D4:  CALL   139C
063D8:  MOVFF  5F8,69B
063DC:  MOVFF  5F7,69A
063E0:  MOVFF  5F6,699
063E4:  MOVFF  5F5,698
063E8:  MOVFF  03,69F
063EC:  MOVFF  02,69E
063F0:  MOVFF  01,69D
063F4:  MOVFF  00,69C
063F8:  CALL   2046
063FC:  BC    6402
063FE:  BTFSS  FD8.2
06400:  BRA    654C
....................             { 
....................                TiempoControl=0; 
06402:  MOVLB  5
06404:  CLRF   xD4
06406:  CLRF   xD3
....................                if(Aumento<-0.5) 
06408:  MOVFF  644,69B
0640C:  MOVFF  643,69A
06410:  MOVFF  642,699
06414:  MOVFF  641,698
06418:  MOVLB  6
0641A:  CLRF   x9F
0641C:  CLRF   x9E
0641E:  MOVLW  80
06420:  MOVWF  x9D
06422:  MOVLW  7E
06424:  MOVWF  x9C
06426:  MOVLB  0
06428:  CALL   2046
0642C:  BNC   6466
....................                { 
....................                   Ganancia+=Integral;//2 
0642E:  BCF    FD8.1
06430:  MOVFF  634,6A7
06434:  MOVFF  633,6A6
06438:  MOVFF  632,6A5
0643C:  MOVFF  631,6A4
06440:  MOVFF  5F4,6AB
06444:  MOVFF  5F3,6AA
06448:  MOVFF  5F2,6A9
0644C:  MOVFF  5F1,6A8
06450:  CALL   1530
06454:  MOVFF  03,634
06458:  MOVFF  02,633
0645C:  MOVFF  01,632
06460:  MOVFF  00,631
....................                } 
....................                else 
06464:  BRA    654C
....................                { 
....................                   if(Aumento<-0.1) 
06466:  MOVFF  644,69B
0646A:  MOVFF  643,69A
0646E:  MOVFF  642,699
06472:  MOVFF  641,698
06476:  MOVLW  CD
06478:  MOVLB  6
0647A:  MOVWF  x9F
0647C:  MOVLW  CC
0647E:  MOVWF  x9E
06480:  MOVWF  x9D
06482:  MOVLW  7B
06484:  MOVWF  x9C
06486:  MOVLB  0
06488:  CALL   2046
0648C:  BNC   64EE
....................                   { 
....................                      Ganancia+=Integral*0.3;//1 
0648E:  MOVFF  5F4,6BB
06492:  MOVFF  5F3,6BA
06496:  MOVFF  5F2,6B9
0649A:  MOVFF  5F1,6B8
0649E:  MOVLW  9A
064A0:  MOVLB  6
064A2:  MOVWF  xBF
064A4:  MOVLW  99
064A6:  MOVWF  xBE
064A8:  MOVLW  19
064AA:  MOVWF  xBD
064AC:  MOVLW  7D
064AE:  MOVWF  xBC
064B0:  MOVLB  0
064B2:  CALL   33AE
064B6:  BCF    FD8.1
064B8:  MOVFF  634,6A7
064BC:  MOVFF  633,6A6
064C0:  MOVFF  632,6A5
064C4:  MOVFF  631,6A4
064C8:  MOVFF  03,6AB
064CC:  MOVFF  02,6AA
064D0:  MOVFF  01,6A9
064D4:  MOVFF  00,6A8
064D8:  CALL   1530
064DC:  MOVFF  03,634
064E0:  MOVFF  02,633
064E4:  MOVFF  01,632
064E8:  MOVFF  00,631
....................                   }    
....................                   else 
064EC:  BRA    654C
....................                   { 
....................                      Ganancia+=Integral*0.1;//0.5 
064EE:  MOVFF  5F4,6BB
064F2:  MOVFF  5F3,6BA
064F6:  MOVFF  5F2,6B9
064FA:  MOVFF  5F1,6B8
064FE:  MOVLW  CD
06500:  MOVLB  6
06502:  MOVWF  xBF
06504:  MOVLW  CC
06506:  MOVWF  xBE
06508:  MOVLW  4C
0650A:  MOVWF  xBD
0650C:  MOVLW  7B
0650E:  MOVWF  xBC
06510:  MOVLB  0
06512:  CALL   33AE
06516:  BCF    FD8.1
06518:  MOVFF  634,6A7
0651C:  MOVFF  633,6A6
06520:  MOVFF  632,6A5
06524:  MOVFF  631,6A4
06528:  MOVFF  03,6AB
0652C:  MOVFF  02,6AA
06530:  MOVFF  01,6A9
06534:  MOVFF  00,6A8
06538:  CALL   1530
0653C:  MOVFF  03,634
06540:  MOVFF  02,633
06544:  MOVFF  01,632
06548:  MOVFF  00,631
....................                   } 
....................                } 
....................             } 
....................          } 
....................       }else if(error>=desvio+0.5 && error<10 && Aumento<=0.3){ 
0654C:  BRA    67D8
0654E:  BCF    FD8.1
06550:  MOVFF  638,6A7
06554:  MOVFF  637,6A6
06558:  MOVFF  636,6A5
0655C:  MOVFF  635,6A4
06560:  MOVLB  6
06562:  CLRF   xAB
06564:  CLRF   xAA
06566:  CLRF   xA9
06568:  MOVLW  7E
0656A:  MOVWF  xA8
0656C:  MOVLB  0
0656E:  CALL   1530
06572:  MOVFF  03,69B
06576:  MOVFF  02,69A
0657A:  MOVFF  01,699
0657E:  MOVFF  00,698
06582:  MOVFF  624,69F
06586:  MOVFF  623,69E
0658A:  MOVFF  622,69D
0658E:  MOVFF  621,69C
06592:  CALL   2046
06596:  BC    659C
06598:  BTFSS  FD8.2
0659A:  BRA    67D8
0659C:  MOVFF  624,69B
065A0:  MOVFF  623,69A
065A4:  MOVFF  622,699
065A8:  MOVFF  621,698
065AC:  MOVLB  6
065AE:  CLRF   x9F
065B0:  CLRF   x9E
065B2:  MOVLW  20
065B4:  MOVWF  x9D
065B6:  MOVLW  82
065B8:  MOVWF  x9C
065BA:  MOVLB  0
065BC:  CALL   2046
065C0:  BTFSS  FD8.0
065C2:  BRA    67D8
065C4:  MOVFF  644,69B
065C8:  MOVFF  643,69A
065CC:  MOVFF  642,699
065D0:  MOVFF  641,698
065D4:  MOVLW  9A
065D6:  MOVLB  6
065D8:  MOVWF  x9F
065DA:  MOVLW  99
065DC:  MOVWF  x9E
065DE:  MOVLW  19
065E0:  MOVWF  x9D
065E2:  MOVLW  7D
065E4:  MOVWF  x9C
065E6:  MOVLB  0
065E8:  CALL   2046
065EC:  BC    65F2
065EE:  BTFSS  FD8.2
065F0:  BRA    67D8
....................          Derivativo=derivativo_ant*3; 
065F2:  MOVFF  5FC,6BB
065F6:  MOVFF  5FB,6BA
065FA:  MOVFF  5FA,6B9
065FE:  MOVFF  5F9,6B8
06602:  MOVLB  6
06604:  CLRF   xBF
06606:  CLRF   xBE
06608:  MOVLW  40
0660A:  MOVWF  xBD
0660C:  MOVLW  80
0660E:  MOVWF  xBC
06610:  MOVLB  0
06612:  CALL   33AE
06616:  MOVFF  03,5F8
0661A:  MOVFF  02,5F7
0661E:  MOVFF  01,5F6
06622:  MOVFF  00,5F5
....................          flag_ajuste=0; 
06626:  MOVLB  5
06628:  BCF    xAD.4
....................          flag_ajuste2=0; 
0662A:  BCF    xAD.5
....................          Ajusto=10; 
0662C:  MOVLW  0A
0662E:  MOVWF  xAA
....................          if(Potencia<30.0){ 
06630:  MOVFF  5E0,69B
06634:  MOVFF  5DF,69A
06638:  MOVFF  5DE,699
0663C:  MOVFF  5DD,698
06640:  MOVLB  6
06642:  CLRF   x9F
06644:  CLRF   x9E
06646:  MOVLW  70
06648:  MOVWF  x9D
0664A:  MOVLW  83
0664C:  MOVWF  x9C
0664E:  MOVLB  0
06650:  CALL   2046
06654:  BTFSS  FD8.0
06656:  BRA    67D8
....................             if(TiempoControl>=Derivativo)//80 
06658:  MOVFF  5D4,6A5
0665C:  MOVFF  5D3,6A4
06660:  CALL   139C
06664:  MOVFF  5F8,69B
06668:  MOVFF  5F7,69A
0666C:  MOVFF  5F6,699
06670:  MOVFF  5F5,698
06674:  MOVFF  03,69F
06678:  MOVFF  02,69E
0667C:  MOVFF  01,69D
06680:  MOVFF  00,69C
06684:  CALL   2046
06688:  BC    668E
0668A:  BTFSS  FD8.2
0668C:  BRA    67D8
....................                { 
....................                   TiempoControl=0; 
0668E:  MOVLB  5
06690:  CLRF   xD4
06692:  CLRF   xD3
....................                   if(Aumento<-0.5) 
06694:  MOVFF  644,69B
06698:  MOVFF  643,69A
0669C:  MOVFF  642,699
066A0:  MOVFF  641,698
066A4:  MOVLB  6
066A6:  CLRF   x9F
066A8:  CLRF   x9E
066AA:  MOVLW  80
066AC:  MOVWF  x9D
066AE:  MOVLW  7E
066B0:  MOVWF  x9C
066B2:  MOVLB  0
066B4:  CALL   2046
066B8:  BNC   66F2
....................                   { 
....................                      Ganancia+=Integral;//2 
066BA:  BCF    FD8.1
066BC:  MOVFF  634,6A7
066C0:  MOVFF  633,6A6
066C4:  MOVFF  632,6A5
066C8:  MOVFF  631,6A4
066CC:  MOVFF  5F4,6AB
066D0:  MOVFF  5F3,6AA
066D4:  MOVFF  5F2,6A9
066D8:  MOVFF  5F1,6A8
066DC:  CALL   1530
066E0:  MOVFF  03,634
066E4:  MOVFF  02,633
066E8:  MOVFF  01,632
066EC:  MOVFF  00,631
....................                   } 
....................                   else 
066F0:  BRA    67D8
....................                   { 
....................                      if(Aumento<-0.1) 
066F2:  MOVFF  644,69B
066F6:  MOVFF  643,69A
066FA:  MOVFF  642,699
066FE:  MOVFF  641,698
06702:  MOVLW  CD
06704:  MOVLB  6
06706:  MOVWF  x9F
06708:  MOVLW  CC
0670A:  MOVWF  x9E
0670C:  MOVWF  x9D
0670E:  MOVLW  7B
06710:  MOVWF  x9C
06712:  MOVLB  0
06714:  CALL   2046
06718:  BNC   677A
....................                      { 
....................                         Ganancia+=Integral*0.3;//1 
0671A:  MOVFF  5F4,6BB
0671E:  MOVFF  5F3,6BA
06722:  MOVFF  5F2,6B9
06726:  MOVFF  5F1,6B8
0672A:  MOVLW  9A
0672C:  MOVLB  6
0672E:  MOVWF  xBF
06730:  MOVLW  99
06732:  MOVWF  xBE
06734:  MOVLW  19
06736:  MOVWF  xBD
06738:  MOVLW  7D
0673A:  MOVWF  xBC
0673C:  MOVLB  0
0673E:  CALL   33AE
06742:  BCF    FD8.1
06744:  MOVFF  634,6A7
06748:  MOVFF  633,6A6
0674C:  MOVFF  632,6A5
06750:  MOVFF  631,6A4
06754:  MOVFF  03,6AB
06758:  MOVFF  02,6AA
0675C:  MOVFF  01,6A9
06760:  MOVFF  00,6A8
06764:  CALL   1530
06768:  MOVFF  03,634
0676C:  MOVFF  02,633
06770:  MOVFF  01,632
06774:  MOVFF  00,631
....................                      }    
....................                      else 
06778:  BRA    67D8
....................                      { 
....................                         Ganancia+=Integral*0.1;//0.5 
0677A:  MOVFF  5F4,6BB
0677E:  MOVFF  5F3,6BA
06782:  MOVFF  5F2,6B9
06786:  MOVFF  5F1,6B8
0678A:  MOVLW  CD
0678C:  MOVLB  6
0678E:  MOVWF  xBF
06790:  MOVLW  CC
06792:  MOVWF  xBE
06794:  MOVLW  4C
06796:  MOVWF  xBD
06798:  MOVLW  7B
0679A:  MOVWF  xBC
0679C:  MOVLB  0
0679E:  CALL   33AE
067A2:  BCF    FD8.1
067A4:  MOVFF  634,6A7
067A8:  MOVFF  633,6A6
067AC:  MOVFF  632,6A5
067B0:  MOVFF  631,6A4
067B4:  MOVFF  03,6AB
067B8:  MOVFF  02,6AA
067BC:  MOVFF  01,6A9
067C0:  MOVFF  00,6A8
067C4:  CALL   1530
067C8:  MOVFF  03,634
067CC:  MOVFF  02,633
067D0:  MOVFF  01,632
067D4:  MOVFF  00,631
....................                      } 
....................                   } 
....................                } 
....................          } 
....................       } 
....................        
....................       if(Ganancia<0.1) 
067D8:  MOVFF  634,69B
067DC:  MOVFF  633,69A
067E0:  MOVFF  632,699
067E4:  MOVFF  631,698
067E8:  MOVLW  CD
067EA:  MOVLB  6
067EC:  MOVWF  x9F
067EE:  MOVLW  CC
067F0:  MOVWF  x9E
067F2:  MOVLW  4C
067F4:  MOVWF  x9D
067F6:  MOVLW  7B
067F8:  MOVWF  x9C
067FA:  MOVLB  0
067FC:  CALL   2046
06800:  BNC   6816
....................          Ganancia=0.1; 
06802:  MOVLW  CD
06804:  MOVLB  6
06806:  MOVWF  x34
06808:  MOVLW  CC
0680A:  MOVWF  x33
0680C:  MOVLW  4C
0680E:  MOVWF  x32
06810:  MOVLW  7B
06812:  MOVWF  x31
06814:  MOVLB  0
....................        
....................       if(Ganancia>Gananciamax) 
06816:  MOVFF  5E8,69B
0681A:  MOVFF  5E7,69A
0681E:  MOVFF  5E6,699
06822:  MOVFF  5E5,698
06826:  MOVFF  634,69F
0682A:  MOVFF  633,69E
0682E:  MOVFF  632,69D
06832:  MOVFF  631,69C
06836:  CALL   2046
0683A:  BNC   684C
....................          Ganancia=Gananciamax; 
0683C:  MOVFF  5E8,634
06840:  MOVFF  5E7,633
06844:  MOVFF  5E6,632
06848:  MOVFF  5E5,631
....................     
....................       if(error<0.0)     // Anti Wind_DOWN     
0684C:  MOVFF  624,69B
06850:  MOVFF  623,69A
06854:  MOVFF  622,699
06858:  MOVFF  621,698
0685C:  MOVLB  6
0685E:  CLRF   x9F
06860:  CLRF   x9E
06862:  CLRF   x9D
06864:  CLRF   x9C
06866:  MOVLB  0
06868:  CALL   2046
0686C:  BNC   687C
....................          tmp=0; 
0686E:  MOVLB  6
06870:  CLRF   x30
06872:  CLRF   x2F
06874:  CLRF   x2E
06876:  CLRF   x2D
....................       else 
06878:  BRA    68B0
0687A:  MOVLB  0
....................          tmp=error*Ganancia;  // Control Proporcional. 
0687C:  MOVFF  624,6BB
06880:  MOVFF  623,6BA
06884:  MOVFF  622,6B9
06888:  MOVFF  621,6B8
0688C:  MOVFF  634,6BF
06890:  MOVFF  633,6BE
06894:  MOVFF  632,6BD
06898:  MOVFF  631,6BC
0689C:  CALL   33AE
068A0:  MOVFF  03,630
068A4:  MOVFF  02,62F
068A8:  MOVFF  01,62E
068AC:  MOVFF  00,62D
....................        
....................       //tmp=(Setpoint-Prom)*Ganancia;  // Control Proporcional. 
....................              
....................       if(tmp>Setpoint)   // Anti Wind-UP       
068B0:  MOVFF  650,69B
068B4:  MOVFF  64F,69A
068B8:  MOVFF  64E,699
068BC:  MOVFF  64D,698
068C0:  MOVFF  630,69F
068C4:  MOVFF  62F,69E
068C8:  MOVFF  62E,69D
068CC:  MOVFF  62D,69C
068D0:  MOVLB  0
068D2:  CALL   2046
068D6:  BNC   68E8
....................          tmp=Setpoint; 
068D8:  MOVFF  650,630
068DC:  MOVFF  64F,62F
068E0:  MOVFF  64E,62E
068E4:  MOVFF  64D,62D
....................                    
....................       if(tmp<0.0)     // Anti Wind_DOWN     
068E8:  MOVFF  630,69B
068EC:  MOVFF  62F,69A
068F0:  MOVFF  62E,699
068F4:  MOVFF  62D,698
068F8:  MOVLB  6
068FA:  CLRF   x9F
068FC:  CLRF   x9E
068FE:  CLRF   x9D
06900:  CLRF   x9C
06902:  MOVLB  0
06904:  CALL   2046
06908:  BNC   6916
....................          tmp=0.0; 
0690A:  MOVLB  6
0690C:  CLRF   x30
0690E:  CLRF   x2F
06910:  CLRF   x2E
06912:  CLRF   x2D
06914:  MOVLB  0
....................     
....................       Tpulso=(tmp/Setpoint)*Tciclo; 
06916:  MOVFF  630,69C
0691A:  MOVFF  62F,69B
0691E:  MOVFF  62E,69A
06922:  MOVFF  62D,699
06926:  MOVFF  650,6A0
0692A:  MOVFF  64F,69F
0692E:  MOVFF  64E,69E
06932:  MOVFF  64D,69D
06936:  CALL   13D2
0693A:  MOVFF  00,698
0693E:  MOVFF  01,699
06942:  MOVFF  02,69A
06946:  MOVFF  03,69B
0694A:  MOVFF  03,6BB
0694E:  MOVFF  02,6BA
06952:  MOVFF  01,6B9
06956:  MOVFF  00,6B8
0695A:  MOVFF  61C,6BF
0695E:  MOVFF  61B,6BE
06962:  MOVFF  61A,6BD
06966:  MOVFF  619,6BC
0696A:  CALL   33AE
0696E:  MOVFF  03,620
06972:  MOVFF  02,61F
06976:  MOVFF  01,61E
0697A:  MOVFF  00,61D
....................        
....................       //if(Tpulso<Tpulsomin && flag_setpoint){ 
....................       //   Tpulso=Tpulsomin; 
....................       //} 
....................        
....................       if(error<desvio+0.5 && error>0){ 
0697E:  BCF    FD8.1
06980:  MOVFF  638,6A7
06984:  MOVFF  637,6A6
06988:  MOVFF  636,6A5
0698C:  MOVFF  635,6A4
06990:  MOVLB  6
06992:  CLRF   xAB
06994:  CLRF   xAA
06996:  CLRF   xA9
06998:  MOVLW  7E
0699A:  MOVWF  xA8
0699C:  MOVLB  0
0699E:  CALL   1530
069A2:  MOVFF  624,69B
069A6:  MOVFF  623,69A
069AA:  MOVFF  622,699
069AE:  MOVFF  621,698
069B2:  MOVFF  03,69F
069B6:  MOVFF  02,69E
069BA:  MOVFF  01,69D
069BE:  MOVFF  00,69C
069C2:  CALL   2046
069C6:  BTFSS  FD8.0
069C8:  BRA    6B86
069CA:  MOVLB  6
069CC:  CLRF   x9B
069CE:  CLRF   x9A
069D0:  CLRF   x99
069D2:  CLRF   x98
069D4:  MOVFF  624,69F
069D8:  MOVFF  623,69E
069DC:  MOVFF  622,69D
069E0:  MOVFF  621,69C
069E4:  MOVLB  0
069E6:  CALL   2046
069EA:  BTFSS  FD8.0
069EC:  BRA    6B86
....................          if(error<=desvio+0.5 && error>0){    
069EE:  BCF    FD8.1
069F0:  MOVFF  638,6A7
069F4:  MOVFF  637,6A6
069F8:  MOVFF  636,6A5
069FC:  MOVFF  635,6A4
06A00:  MOVLB  6
06A02:  CLRF   xAB
06A04:  CLRF   xAA
06A06:  CLRF   xA9
06A08:  MOVLW  7E
06A0A:  MOVWF  xA8
06A0C:  MOVLB  0
06A0E:  CALL   1530
06A12:  MOVFF  624,69B
06A16:  MOVFF  623,69A
06A1A:  MOVFF  622,699
06A1E:  MOVFF  621,698
06A22:  MOVFF  03,69F
06A26:  MOVFF  02,69E
06A2A:  MOVFF  01,69D
06A2E:  MOVFF  00,69C
06A32:  CALL   2046
06A36:  BC    6A3A
06A38:  BNZ   6A7A
06A3A:  MOVLB  6
06A3C:  CLRF   x9B
06A3E:  CLRF   x9A
06A40:  CLRF   x99
06A42:  CLRF   x98
06A44:  MOVFF  624,69F
06A48:  MOVFF  623,69E
06A4C:  MOVFF  622,69D
06A50:  MOVFF  621,69C
06A54:  MOVLB  0
06A56:  CALL   2046
06A5A:  BNC   6A7A
....................             if(flag_ajuste==0){ 
06A5C:  MOVLB  5
06A5E:  BTFSC  xAD.4
06A60:  BRA    6A78
....................                TpulsoMax=Tpulso; 
06A62:  MOVFF  620,64C
06A66:  MOVFF  61F,64B
06A6A:  MOVFF  61E,64A
06A6E:  MOVFF  61D,649
....................                flag_ajuste=1;   
06A72:  BSF    xAD.4
....................                Ajusto=5; 
06A74:  MOVLW  05
06A76:  MOVWF  xAA
06A78:  MOVLB  0
....................             } 
....................          } 
....................           
....................          if(error<=desvio-0.3 && error>0){    
06A7A:  BSF    FD8.1
06A7C:  MOVFF  638,6A7
06A80:  MOVFF  637,6A6
06A84:  MOVFF  636,6A5
06A88:  MOVFF  635,6A4
06A8C:  MOVLW  9A
06A8E:  MOVLB  6
06A90:  MOVWF  xAB
06A92:  MOVLW  99
06A94:  MOVWF  xAA
06A96:  MOVLW  19
06A98:  MOVWF  xA9
06A9A:  MOVLW  7D
06A9C:  MOVWF  xA8
06A9E:  MOVLB  0
06AA0:  CALL   1530
06AA4:  MOVFF  624,69B
06AA8:  MOVFF  623,69A
06AAC:  MOVFF  622,699
06AB0:  MOVFF  621,698
06AB4:  MOVFF  03,69F
06AB8:  MOVFF  02,69E
06ABC:  MOVFF  01,69D
06AC0:  MOVFF  00,69C
06AC4:  CALL   2046
06AC8:  BC    6ACC
06ACA:  BNZ   6B0A
06ACC:  MOVLB  6
06ACE:  CLRF   x9B
06AD0:  CLRF   x9A
06AD2:  CLRF   x99
06AD4:  CLRF   x98
06AD6:  MOVFF  624,69F
06ADA:  MOVFF  623,69E
06ADE:  MOVFF  622,69D
06AE2:  MOVFF  621,69C
06AE6:  MOVLB  0
06AE8:  CALL   2046
06AEC:  BNC   6B0A
....................             if(flag_ajuste2==0){ 
06AEE:  MOVLB  5
06AF0:  BTFSC  xAD.5
06AF2:  BRA    6B0A
....................                Tpulsomin=Tpulso; 
06AF4:  MOVFF  620,5E4
06AF8:  MOVFF  61F,5E3
06AFC:  MOVFF  61E,5E2
06B00:  MOVFF  61D,5E1
....................                flag_ajuste2=1;            
06B04:  BSF    xAD.5
....................                Ajusto=5; 
06B06:  MOVLW  05
06B08:  MOVWF  xAA
....................             } 
....................          } 
....................           
....................          if(flag_ajuste2==1){ 
06B0A:  MOVLB  5
06B0C:  BTFSS  xAD.5
06B0E:  BRA    6B4A
....................             if(Tpulso<Tpulsomin){ 
06B10:  MOVFF  620,69B
06B14:  MOVFF  61F,69A
06B18:  MOVFF  61E,699
06B1C:  MOVFF  61D,698
06B20:  MOVFF  5E4,69F
06B24:  MOVFF  5E3,69E
06B28:  MOVFF  5E2,69D
06B2C:  MOVFF  5E1,69C
06B30:  MOVLB  0
06B32:  CALL   2046
06B36:  BNC   6B48
....................                Tpulso=Tpulsomin; 
06B38:  MOVFF  5E4,620
06B3C:  MOVFF  5E3,61F
06B40:  MOVFF  5E2,61E
06B44:  MOVFF  5E1,61D
06B48:  MOVLB  5
....................             } 
....................          } 
....................          if(flag_ajuste==1){    
06B4A:  BTFSS  xAD.4
06B4C:  BRA    6B88
....................             if(Tpulso>TpulsoMax){ 
06B4E:  MOVFF  64C,69B
06B52:  MOVFF  64B,69A
06B56:  MOVFF  64A,699
06B5A:  MOVFF  649,698
06B5E:  MOVFF  620,69F
06B62:  MOVFF  61F,69E
06B66:  MOVFF  61E,69D
06B6A:  MOVFF  61D,69C
06B6E:  MOVLB  0
06B70:  CALL   2046
06B74:  BNC   6B86
....................                Tpulso=TpulsoMax; 
06B76:  MOVFF  64C,620
06B7A:  MOVFF  64B,61F
06B7E:  MOVFF  64A,61E
06B82:  MOVFF  649,61D
06B86:  MOVLB  5
....................             }  
....................          } 
....................       } 
....................        
....................       if(error<desvio-0.4 && error>0){ 
06B88:  BSF    FD8.1
06B8A:  MOVFF  638,6A7
06B8E:  MOVFF  637,6A6
06B92:  MOVFF  636,6A5
06B96:  MOVFF  635,6A4
06B9A:  MOVLW  CD
06B9C:  MOVLB  6
06B9E:  MOVWF  xAB
06BA0:  MOVLW  CC
06BA2:  MOVWF  xAA
06BA4:  MOVLW  4C
06BA6:  MOVWF  xA9
06BA8:  MOVLW  7D
06BAA:  MOVWF  xA8
06BAC:  MOVLB  0
06BAE:  CALL   1530
06BB2:  MOVFF  624,69B
06BB6:  MOVFF  623,69A
06BBA:  MOVFF  622,699
06BBE:  MOVFF  621,698
06BC2:  MOVFF  03,69F
06BC6:  MOVFF  02,69E
06BCA:  MOVFF  01,69D
06BCE:  MOVFF  00,69C
06BD2:  CALL   2046
06BD6:  BNC   6C86
06BD8:  MOVLB  6
06BDA:  CLRF   x9B
06BDC:  CLRF   x9A
06BDE:  CLRF   x99
06BE0:  CLRF   x98
06BE2:  MOVFF  624,69F
06BE6:  MOVFF  623,69E
06BEA:  MOVFF  622,69D
06BEE:  MOVFF  621,69C
06BF2:  MOVLB  0
06BF4:  CALL   2046
06BF8:  BNC   6C86
....................          sobrepaso=1; 
06BFA:  MOVLB  5
06BFC:  BSF    xAF.0
....................          Tpulso=Tpulsomin/2; 
06BFE:  MOVFF  5E4,69C
06C02:  MOVFF  5E3,69B
06C06:  MOVFF  5E2,69A
06C0A:  MOVFF  5E1,699
06C0E:  MOVLB  6
06C10:  CLRF   xA0
06C12:  CLRF   x9F
06C14:  CLRF   x9E
06C16:  MOVLW  80
06C18:  MOVWF  x9D
06C1A:  MOVLB  0
06C1C:  CALL   13D2
06C20:  MOVFF  03,620
06C24:  MOVFF  02,61F
06C28:  MOVFF  01,61E
06C2C:  MOVFF  00,61D
....................          if(tSobrepaso>300){ 
06C30:  MOVLB  5
06C32:  MOVF   xD8,W
06C34:  SUBLW  00
06C36:  BC    6C82
06C38:  XORLW  FF
06C3A:  BNZ   6C42
06C3C:  MOVF   xD7,W
06C3E:  SUBLW  2C
06C40:  BC    6C82
....................             Tpulsomin-=0.1; 
06C42:  BSF    FD8.1
06C44:  MOVFF  5E4,6A7
06C48:  MOVFF  5E3,6A6
06C4C:  MOVFF  5E2,6A5
06C50:  MOVFF  5E1,6A4
06C54:  MOVLW  CD
06C56:  MOVLB  6
06C58:  MOVWF  xAB
06C5A:  MOVLW  CC
06C5C:  MOVWF  xAA
06C5E:  MOVLW  4C
06C60:  MOVWF  xA9
06C62:  MOVLW  7B
06C64:  MOVWF  xA8
06C66:  MOVLB  0
06C68:  CALL   1530
06C6C:  MOVFF  03,5E4
06C70:  MOVFF  02,5E3
06C74:  MOVFF  01,5E2
06C78:  MOVFF  00,5E1
....................             tSobrepaso=0; 
06C7C:  MOVLB  5
06C7E:  CLRF   xD8
06C80:  CLRF   xD7
....................          } 
....................       }else{ 
06C82:  BRA    6C8E
06C84:  MOVLB  0
....................          sobrepaso=0; 
06C86:  MOVLB  5
06C88:  BCF    xAF.0
....................          tSobrepaso=0; 
06C8A:  CLRF   xD8
06C8C:  CLRF   xD7
....................       } 
....................        
....................       if(Tpulso<0)Tpulso=0; 
06C8E:  MOVFF  620,69B
06C92:  MOVFF  61F,69A
06C96:  MOVFF  61E,699
06C9A:  MOVFF  61D,698
06C9E:  MOVLB  6
06CA0:  CLRF   x9F
06CA2:  CLRF   x9E
06CA4:  CLRF   x9D
06CA6:  CLRF   x9C
06CA8:  MOVLB  0
06CAA:  CALL   2046
06CAE:  BNC   6CBC
06CB0:  MOVLB  6
06CB2:  CLRF   x20
06CB4:  CLRF   x1F
06CB6:  CLRF   x1E
06CB8:  CLRF   x1D
06CBA:  MOVLB  0
....................       if(Tpulso>Tciclo)Tpulso=0; 
06CBC:  MOVFF  61C,69B
06CC0:  MOVFF  61B,69A
06CC4:  MOVFF  61A,699
06CC8:  MOVFF  619,698
06CCC:  MOVFF  620,69F
06CD0:  MOVFF  61F,69E
06CD4:  MOVFF  61E,69D
06CD8:  MOVFF  61D,69C
06CDC:  CALL   2046
06CE0:  BNC   6CEC
06CE2:  MOVLB  6
06CE4:  CLRF   x20
06CE6:  CLRF   x1F
06CE8:  CLRF   x1E
06CEA:  CLRF   x1D
....................        
....................       Tp=(Tpulso/0.005); 
06CEC:  MOVFF  620,69C
06CF0:  MOVFF  61F,69B
06CF4:  MOVFF  61E,69A
06CF8:  MOVFF  61D,699
06CFC:  MOVLW  0A
06CFE:  MOVLB  6
06D00:  MOVWF  xA0
06D02:  MOVLW  D7
06D04:  MOVWF  x9F
06D06:  MOVLW  23
06D08:  MOVWF  x9E
06D0A:  MOVLW  77
06D0C:  MOVWF  x9D
06D0E:  MOVLB  0
06D10:  CALL   13D2
06D14:  MOVFF  03,6A7
06D18:  MOVFF  02,6A6
06D1C:  MOVFF  01,6A5
06D20:  MOVFF  00,6A4
06D24:  CALL   3A44
06D28:  MOVFF  02,5D0
06D2C:  MOVFF  01,5CF
....................       Tc=(Tciclo/0.005); 
06D30:  MOVFF  61C,69C
06D34:  MOVFF  61B,69B
06D38:  MOVFF  61A,69A
06D3C:  MOVFF  619,699
06D40:  MOVLW  0A
06D42:  MOVLB  6
06D44:  MOVWF  xA0
06D46:  MOVLW  D7
06D48:  MOVWF  x9F
06D4A:  MOVLW  23
06D4C:  MOVWF  x9E
06D4E:  MOVLW  77
06D50:  MOVWF  x9D
06D52:  MOVLB  0
06D54:  CALL   13D2
06D58:  MOVFF  03,6A7
06D5C:  MOVFF  02,6A6
06D60:  MOVFF  01,6A5
06D64:  MOVFF  00,6A4
06D68:  CALL   3A44
06D6C:  MOVFF  02,5D2
06D70:  MOVFF  01,5D1
....................        
....................       Controlando=1;      
06D74:  MOVLW  01
06D76:  MOVLB  5
06D78:  MOVWF  xA9
....................     
.................... //--------------------------------------------------------------------------------------------------------------------//      
.................... } 
06D7A:  MOVLB  0
06D7C:  RETLW  00
....................  
.................... void ControlaForzada(){ 
....................       Derivativo=derivativo_ant; 
*
05562:  MOVFF  5FC,5F8
05566:  MOVFF  5FB,5F7
0556A:  MOVFF  5FA,5F6
0556E:  MOVFF  5F9,5F5
....................        
.................... //-------------------------------Control de Calentamiento------------------------------------------------------------// 
....................       if(tiemporecta>=(Derivativo)){ 
05572:  MOVLB  6
05574:  CLRF   xA5
05576:  MOVFF  5A6,6A4
0557A:  MOVLB  0
0557C:  CALL   139C
05580:  MOVFF  5F8,69B
05584:  MOVFF  5F7,69A
05588:  MOVFF  5F6,699
0558C:  MOVFF  5F5,698
05590:  MOVFF  03,69F
05594:  MOVFF  02,69E
05598:  MOVFF  01,69D
0559C:  MOVFF  00,69C
055A0:  CALL   2046
055A4:  BC    55A8
055A6:  BNZ   55AE
....................          ActualizaRecta(); 
055A8:  RCALL  54F6
....................          tiemporecta=0; 
055AA:  MOVLB  5
055AC:  CLRF   xA6
....................       }     
....................  
....................       desvio=0.5; 
055AE:  MOVLB  6
055B0:  CLRF   x38
055B2:  CLRF   x37
055B4:  CLRF   x36
055B6:  MOVLW  7E
055B8:  MOVWF  x35
....................       error=desvio+Setpoint-Temperatura;      // Clculo del error ****** 
055BA:  BCF    FD8.1
055BC:  MOVFF  638,6A7
055C0:  MOVFF  637,6A6
055C4:  MOVFF  636,6A5
055C8:  MOVFF  635,6A4
055CC:  MOVFF  650,6AB
055D0:  MOVFF  64F,6AA
055D4:  MOVFF  64E,6A9
055D8:  MOVFF  64D,6A8
055DC:  MOVLB  0
055DE:  CALL   1530
055E2:  MOVFF  00,698
055E6:  MOVFF  01,699
055EA:  MOVFF  02,69A
055EE:  MOVFF  03,69B
055F2:  BSF    FD8.1
055F4:  MOVFF  03,6A7
055F8:  MOVFF  02,6A6
055FC:  MOVFF  01,6A5
05600:  MOVFF  00,6A4
05604:  MOVFF  648,6AB
05608:  MOVFF  647,6AA
0560C:  MOVFF  646,6A9
05610:  MOVFF  645,6A8
05614:  CALL   1530
05618:  MOVFF  03,624
0561C:  MOVFF  02,623
05620:  MOVFF  01,622
05624:  MOVFF  00,621
....................    
....................       if(error>=15.0 && error<60 && Aumento<=0.5){ 
05628:  MOVLB  6
0562A:  CLRF   x9B
0562C:  CLRF   x9A
0562E:  MOVLW  70
05630:  MOVWF  x99
05632:  MOVLW  82
05634:  MOVWF  x98
05636:  MOVFF  624,69F
0563A:  MOVFF  623,69E
0563E:  MOVFF  622,69D
05642:  MOVFF  621,69C
05646:  MOVLB  0
05648:  CALL   2046
0564C:  BC    5652
0564E:  BTFSS  FD8.2
05650:  BRA    5880
05652:  MOVFF  624,69B
05656:  MOVFF  623,69A
0565A:  MOVFF  622,699
0565E:  MOVFF  621,698
05662:  MOVLB  6
05664:  CLRF   x9F
05666:  CLRF   x9E
05668:  MOVLW  70
0566A:  MOVWF  x9D
0566C:  MOVLW  84
0566E:  MOVWF  x9C
05670:  MOVLB  0
05672:  CALL   2046
05676:  BTFSS  FD8.0
05678:  BRA    5880
0567A:  MOVFF  644,69B
0567E:  MOVFF  643,69A
05682:  MOVFF  642,699
05686:  MOVFF  641,698
0568A:  MOVLB  6
0568C:  CLRF   x9F
0568E:  CLRF   x9E
05690:  CLRF   x9D
05692:  MOVLW  7E
05694:  MOVWF  x9C
05696:  MOVLB  0
05698:  CALL   2046
0569C:  BC    56A2
0569E:  BTFSS  FD8.2
056A0:  BRA    5880
....................          Derivativo=derivativo_ant*2; 
056A2:  MOVFF  5FC,6BB
056A6:  MOVFF  5FB,6BA
056AA:  MOVFF  5FA,6B9
056AE:  MOVFF  5F9,6B8
056B2:  MOVLB  6
056B4:  CLRF   xBF
056B6:  CLRF   xBE
056B8:  CLRF   xBD
056BA:  MOVLW  80
056BC:  MOVWF  xBC
056BE:  MOVLB  0
056C0:  CALL   33AE
056C4:  MOVFF  03,5F8
056C8:  MOVFF  02,5F7
056CC:  MOVFF  01,5F6
056D0:  MOVFF  00,5F5
....................          flag_ajuste=0; 
056D4:  MOVLB  5
056D6:  BCF    xAD.4
....................          flag_ajuste2=0; 
056D8:  BCF    xAD.5
....................          Ajusto=10; 
056DA:  MOVLW  0A
056DC:  MOVWF  xAA
....................          if(Potencia<50.0){ 
056DE:  MOVFF  5E0,69B
056E2:  MOVFF  5DF,69A
056E6:  MOVFF  5DE,699
056EA:  MOVFF  5DD,698
056EE:  MOVLB  6
056F0:  CLRF   x9F
056F2:  CLRF   x9E
056F4:  MOVLW  48
056F6:  MOVWF  x9D
056F8:  MOVLW  84
056FA:  MOVWF  x9C
056FC:  MOVLB  0
056FE:  CALL   2046
05702:  BTFSS  FD8.0
05704:  BRA    587E
....................             if(TiempoControl>=Derivativo)//80 
05706:  MOVFF  5D4,6A5
0570A:  MOVFF  5D3,6A4
0570E:  CALL   139C
05712:  MOVFF  5F8,69B
05716:  MOVFF  5F7,69A
0571A:  MOVFF  5F6,699
0571E:  MOVFF  5F5,698
05722:  MOVFF  03,69F
05726:  MOVFF  02,69E
0572A:  MOVFF  01,69D
0572E:  MOVFF  00,69C
05732:  CALL   2046
05736:  BC    573C
05738:  BTFSS  FD8.2
0573A:  BRA    587E
....................             { 
....................                TiempoControl=0; 
0573C:  MOVLB  5
0573E:  CLRF   xD4
05740:  CLRF   xD3
....................                if(Aumento<-0.5) 
05742:  MOVFF  644,69B
05746:  MOVFF  643,69A
0574A:  MOVFF  642,699
0574E:  MOVFF  641,698
05752:  MOVLB  6
05754:  CLRF   x9F
05756:  CLRF   x9E
05758:  MOVLW  80
0575A:  MOVWF  x9D
0575C:  MOVLW  7E
0575E:  MOVWF  x9C
05760:  MOVLB  0
05762:  CALL   2046
05766:  BNC   57C4
....................                { 
....................                   Ganancia+=Integral+1;//2 
05768:  BCF    FD8.1
0576A:  MOVFF  5F4,6A7
0576E:  MOVFF  5F3,6A6
05772:  MOVFF  5F2,6A5
05776:  MOVFF  5F1,6A4
0577A:  MOVLB  6
0577C:  CLRF   xAB
0577E:  CLRF   xAA
05780:  CLRF   xA9
05782:  MOVLW  7F
05784:  MOVWF  xA8
05786:  MOVLB  0
05788:  CALL   1530
0578C:  BCF    FD8.1
0578E:  MOVFF  634,6A7
05792:  MOVFF  633,6A6
05796:  MOVFF  632,6A5
0579A:  MOVFF  631,6A4
0579E:  MOVFF  03,6AB
057A2:  MOVFF  02,6AA
057A6:  MOVFF  01,6A9
057AA:  MOVFF  00,6A8
057AE:  CALL   1530
057B2:  MOVFF  03,634
057B6:  MOVFF  02,633
057BA:  MOVFF  01,632
057BE:  MOVFF  00,631
....................                } 
....................                else 
057C2:  BRA    587E
....................                { 
....................                   if(Aumento<-0.1) 
057C4:  MOVFF  644,69B
057C8:  MOVFF  643,69A
057CC:  MOVFF  642,699
057D0:  MOVFF  641,698
057D4:  MOVLW  CD
057D6:  MOVLB  6
057D8:  MOVWF  x9F
057DA:  MOVLW  CC
057DC:  MOVWF  x9E
057DE:  MOVWF  x9D
057E0:  MOVLW  7B
057E2:  MOVWF  x9C
057E4:  MOVLB  0
057E6:  CALL   2046
057EA:  BNC   5824
....................                   { 
....................                      Ganancia+=Integral;//1 
057EC:  BCF    FD8.1
057EE:  MOVFF  634,6A7
057F2:  MOVFF  633,6A6
057F6:  MOVFF  632,6A5
057FA:  MOVFF  631,6A4
057FE:  MOVFF  5F4,6AB
05802:  MOVFF  5F3,6AA
05806:  MOVFF  5F2,6A9
0580A:  MOVFF  5F1,6A8
0580E:  CALL   1530
05812:  MOVFF  03,634
05816:  MOVFF  02,633
0581A:  MOVFF  01,632
0581E:  MOVFF  00,631
....................                   }    
....................                   else 
05822:  BRA    587E
....................                   { 
....................                      Ganancia+=Integral-0.5;//0.5 
05824:  BSF    FD8.1
05826:  MOVFF  5F4,6A7
0582A:  MOVFF  5F3,6A6
0582E:  MOVFF  5F2,6A5
05832:  MOVFF  5F1,6A4
05836:  MOVLB  6
05838:  CLRF   xAB
0583A:  CLRF   xAA
0583C:  CLRF   xA9
0583E:  MOVLW  7E
05840:  MOVWF  xA8
05842:  MOVLB  0
05844:  CALL   1530
05848:  BCF    FD8.1
0584A:  MOVFF  634,6A7
0584E:  MOVFF  633,6A6
05852:  MOVFF  632,6A5
05856:  MOVFF  631,6A4
0585A:  MOVFF  03,6AB
0585E:  MOVFF  02,6AA
05862:  MOVFF  01,6A9
05866:  MOVFF  00,6A8
0586A:  CALL   1530
0586E:  MOVFF  03,634
05872:  MOVFF  02,633
05876:  MOVFF  01,632
0587A:  MOVFF  00,631
....................                   } 
....................                } 
....................             } 
....................          } 
....................       }else if(error>=6.0 && error<15 && Aumento<=0.3){ 
0587E:  BRA    5D38
05880:  MOVLB  6
05882:  CLRF   x9B
05884:  CLRF   x9A
05886:  MOVLW  40
05888:  MOVWF  x99
0588A:  MOVLW  81
0588C:  MOVWF  x98
0588E:  MOVFF  624,69F
05892:  MOVFF  623,69E
05896:  MOVFF  622,69D
0589A:  MOVFF  621,69C
0589E:  MOVLB  0
058A0:  CALL   2046
058A4:  BC    58AA
058A6:  BTFSS  FD8.2
058A8:  BRA    5ADE
058AA:  MOVFF  624,69B
058AE:  MOVFF  623,69A
058B2:  MOVFF  622,699
058B6:  MOVFF  621,698
058BA:  MOVLB  6
058BC:  CLRF   x9F
058BE:  CLRF   x9E
058C0:  MOVLW  70
058C2:  MOVWF  x9D
058C4:  MOVLW  82
058C6:  MOVWF  x9C
058C8:  MOVLB  0
058CA:  CALL   2046
058CE:  BTFSS  FD8.0
058D0:  BRA    5ADE
058D2:  MOVFF  644,69B
058D6:  MOVFF  643,69A
058DA:  MOVFF  642,699
058DE:  MOVFF  641,698
058E2:  MOVLW  9A
058E4:  MOVLB  6
058E6:  MOVWF  x9F
058E8:  MOVLW  99
058EA:  MOVWF  x9E
058EC:  MOVLW  19
058EE:  MOVWF  x9D
058F0:  MOVLW  7D
058F2:  MOVWF  x9C
058F4:  MOVLB  0
058F6:  CALL   2046
058FA:  BC    5900
058FC:  BTFSS  FD8.2
058FE:  BRA    5ADE
....................          Derivativo=derivativo_ant*2; 
05900:  MOVFF  5FC,6BB
05904:  MOVFF  5FB,6BA
05908:  MOVFF  5FA,6B9
0590C:  MOVFF  5F9,6B8
05910:  MOVLB  6
05912:  CLRF   xBF
05914:  CLRF   xBE
05916:  CLRF   xBD
05918:  MOVLW  80
0591A:  MOVWF  xBC
0591C:  MOVLB  0
0591E:  CALL   33AE
05922:  MOVFF  03,5F8
05926:  MOVFF  02,5F7
0592A:  MOVFF  01,5F6
0592E:  MOVFF  00,5F5
....................          flag_ajuste=0; 
05932:  MOVLB  5
05934:  BCF    xAD.4
....................          flag_ajuste2=0; 
05936:  BCF    xAD.5
....................          Ajusto=10; 
05938:  MOVLW  0A
0593A:  MOVWF  xAA
....................          if(Potencia<40.0){ 
0593C:  MOVFF  5E0,69B
05940:  MOVFF  5DF,69A
05944:  MOVFF  5DE,699
05948:  MOVFF  5DD,698
0594C:  MOVLB  6
0594E:  CLRF   x9F
05950:  CLRF   x9E
05952:  MOVLW  20
05954:  MOVWF  x9D
05956:  MOVLW  84
05958:  MOVWF  x9C
0595A:  MOVLB  0
0595C:  CALL   2046
05960:  BTFSS  FD8.0
05962:  BRA    5ADC
....................             if(TiempoControl>=Derivativo)//80 
05964:  MOVFF  5D4,6A5
05968:  MOVFF  5D3,6A4
0596C:  CALL   139C
05970:  MOVFF  5F8,69B
05974:  MOVFF  5F7,69A
05978:  MOVFF  5F6,699
0597C:  MOVFF  5F5,698
05980:  MOVFF  03,69F
05984:  MOVFF  02,69E
05988:  MOVFF  01,69D
0598C:  MOVFF  00,69C
05990:  CALL   2046
05994:  BC    599A
05996:  BTFSS  FD8.2
05998:  BRA    5ADC
....................             { 
....................                TiempoControl=0; 
0599A:  MOVLB  5
0599C:  CLRF   xD4
0599E:  CLRF   xD3
....................                if(Aumento<-0.5) 
059A0:  MOVFF  644,69B
059A4:  MOVFF  643,69A
059A8:  MOVFF  642,699
059AC:  MOVFF  641,698
059B0:  MOVLB  6
059B2:  CLRF   x9F
059B4:  CLRF   x9E
059B6:  MOVLW  80
059B8:  MOVWF  x9D
059BA:  MOVLW  7E
059BC:  MOVWF  x9C
059BE:  MOVLB  0
059C0:  CALL   2046
059C4:  BNC   5A22
....................                { 
....................                   Ganancia+=Integral+1;//2 
059C6:  BCF    FD8.1
059C8:  MOVFF  5F4,6A7
059CC:  MOVFF  5F3,6A6
059D0:  MOVFF  5F2,6A5
059D4:  MOVFF  5F1,6A4
059D8:  MOVLB  6
059DA:  CLRF   xAB
059DC:  CLRF   xAA
059DE:  CLRF   xA9
059E0:  MOVLW  7F
059E2:  MOVWF  xA8
059E4:  MOVLB  0
059E6:  CALL   1530
059EA:  BCF    FD8.1
059EC:  MOVFF  634,6A7
059F0:  MOVFF  633,6A6
059F4:  MOVFF  632,6A5
059F8:  MOVFF  631,6A4
059FC:  MOVFF  03,6AB
05A00:  MOVFF  02,6AA
05A04:  MOVFF  01,6A9
05A08:  MOVFF  00,6A8
05A0C:  CALL   1530
05A10:  MOVFF  03,634
05A14:  MOVFF  02,633
05A18:  MOVFF  01,632
05A1C:  MOVFF  00,631
....................                } 
....................                else 
05A20:  BRA    5ADC
....................                { 
....................                   if(Aumento<-0.1) 
05A22:  MOVFF  644,69B
05A26:  MOVFF  643,69A
05A2A:  MOVFF  642,699
05A2E:  MOVFF  641,698
05A32:  MOVLW  CD
05A34:  MOVLB  6
05A36:  MOVWF  x9F
05A38:  MOVLW  CC
05A3A:  MOVWF  x9E
05A3C:  MOVWF  x9D
05A3E:  MOVLW  7B
05A40:  MOVWF  x9C
05A42:  MOVLB  0
05A44:  CALL   2046
05A48:  BNC   5A82
....................                   { 
....................                      Ganancia+=Integral;//1 
05A4A:  BCF    FD8.1
05A4C:  MOVFF  634,6A7
05A50:  MOVFF  633,6A6
05A54:  MOVFF  632,6A5
05A58:  MOVFF  631,6A4
05A5C:  MOVFF  5F4,6AB
05A60:  MOVFF  5F3,6AA
05A64:  MOVFF  5F2,6A9
05A68:  MOVFF  5F1,6A8
05A6C:  CALL   1530
05A70:  MOVFF  03,634
05A74:  MOVFF  02,633
05A78:  MOVFF  01,632
05A7C:  MOVFF  00,631
....................                   }    
....................                   else 
05A80:  BRA    5ADC
....................                   { 
....................                      Ganancia+=Integral-0.5;//0.5 
05A82:  BSF    FD8.1
05A84:  MOVFF  5F4,6A7
05A88:  MOVFF  5F3,6A6
05A8C:  MOVFF  5F2,6A5
05A90:  MOVFF  5F1,6A4
05A94:  MOVLB  6
05A96:  CLRF   xAB
05A98:  CLRF   xAA
05A9A:  CLRF   xA9
05A9C:  MOVLW  7E
05A9E:  MOVWF  xA8
05AA0:  MOVLB  0
05AA2:  CALL   1530
05AA6:  BCF    FD8.1
05AA8:  MOVFF  634,6A7
05AAC:  MOVFF  633,6A6
05AB0:  MOVFF  632,6A5
05AB4:  MOVFF  631,6A4
05AB8:  MOVFF  03,6AB
05ABC:  MOVFF  02,6AA
05AC0:  MOVFF  01,6A9
05AC4:  MOVFF  00,6A8
05AC8:  CALL   1530
05ACC:  MOVFF  03,634
05AD0:  MOVFF  02,633
05AD4:  MOVFF  01,632
05AD8:  MOVFF  00,631
....................                   } 
....................                } 
....................             } 
....................          } 
....................       }else if(error>=0.7 && error<6 && Aumento<=0.2){ 
05ADC:  BRA    5D38
05ADE:  MOVLW  33
05AE0:  MOVLB  6
05AE2:  MOVWF  x9B
05AE4:  MOVWF  x9A
05AE6:  MOVWF  x99
05AE8:  MOVLW  7E
05AEA:  MOVWF  x98
05AEC:  MOVFF  624,69F
05AF0:  MOVFF  623,69E
05AF4:  MOVFF  622,69D
05AF8:  MOVFF  621,69C
05AFC:  MOVLB  0
05AFE:  CALL   2046
05B02:  BC    5B08
05B04:  BTFSS  FD8.2
05B06:  BRA    5D38
05B08:  MOVFF  624,69B
05B0C:  MOVFF  623,69A
05B10:  MOVFF  622,699
05B14:  MOVFF  621,698
05B18:  MOVLB  6
05B1A:  CLRF   x9F
05B1C:  CLRF   x9E
05B1E:  MOVLW  40
05B20:  MOVWF  x9D
05B22:  MOVLW  81
05B24:  MOVWF  x9C
05B26:  MOVLB  0
05B28:  CALL   2046
05B2C:  BTFSS  FD8.0
05B2E:  BRA    5D38
05B30:  MOVFF  644,69B
05B34:  MOVFF  643,69A
05B38:  MOVFF  642,699
05B3C:  MOVFF  641,698
05B40:  MOVLW  CD
05B42:  MOVLB  6
05B44:  MOVWF  x9F
05B46:  MOVLW  CC
05B48:  MOVWF  x9E
05B4A:  MOVLW  4C
05B4C:  MOVWF  x9D
05B4E:  MOVLW  7C
05B50:  MOVWF  x9C
05B52:  MOVLB  0
05B54:  CALL   2046
05B58:  BC    5B5E
05B5A:  BTFSS  FD8.2
05B5C:  BRA    5D38
....................          Derivativo=derivativo_ant*2; 
05B5E:  MOVFF  5FC,6BB
05B62:  MOVFF  5FB,6BA
05B66:  MOVFF  5FA,6B9
05B6A:  MOVFF  5F9,6B8
05B6E:  MOVLB  6
05B70:  CLRF   xBF
05B72:  CLRF   xBE
05B74:  CLRF   xBD
05B76:  MOVLW  80
05B78:  MOVWF  xBC
05B7A:  MOVLB  0
05B7C:  CALL   33AE
05B80:  MOVFF  03,5F8
05B84:  MOVFF  02,5F7
05B88:  MOVFF  01,5F6
05B8C:  MOVFF  00,5F5
....................          flag_ajuste=0; 
05B90:  MOVLB  5
05B92:  BCF    xAD.4
....................          flag_ajuste2=0; 
05B94:  BCF    xAD.5
....................          Ajusto=10; 
05B96:  MOVLW  0A
05B98:  MOVWF  xAA
....................          if(Potencia<30.0){ 
05B9A:  MOVFF  5E0,69B
05B9E:  MOVFF  5DF,69A
05BA2:  MOVFF  5DE,699
05BA6:  MOVFF  5DD,698
05BAA:  MOVLB  6
05BAC:  CLRF   x9F
05BAE:  CLRF   x9E
05BB0:  MOVLW  70
05BB2:  MOVWF  x9D
05BB4:  MOVLW  83
05BB6:  MOVWF  x9C
05BB8:  MOVLB  0
05BBA:  CALL   2046
05BBE:  BTFSS  FD8.0
05BC0:  BRA    5D38
....................             if(TiempoControl>=Derivativo)//80 
05BC2:  MOVFF  5D4,6A5
05BC6:  MOVFF  5D3,6A4
05BCA:  CALL   139C
05BCE:  MOVFF  5F8,69B
05BD2:  MOVFF  5F7,69A
05BD6:  MOVFF  5F6,699
05BDA:  MOVFF  5F5,698
05BDE:  MOVFF  03,69F
05BE2:  MOVFF  02,69E
05BE6:  MOVFF  01,69D
05BEA:  MOVFF  00,69C
05BEE:  CALL   2046
05BF2:  BC    5BF8
05BF4:  BTFSS  FD8.2
05BF6:  BRA    5D38
....................                { 
....................                   TiempoControl=0; 
05BF8:  MOVLB  5
05BFA:  CLRF   xD4
05BFC:  CLRF   xD3
....................                   if(Aumento<-0.5) 
05BFE:  MOVFF  644,69B
05C02:  MOVFF  643,69A
05C06:  MOVFF  642,699
05C0A:  MOVFF  641,698
05C0E:  MOVLB  6
05C10:  CLRF   x9F
05C12:  CLRF   x9E
05C14:  MOVLW  80
05C16:  MOVWF  x9D
05C18:  MOVLW  7E
05C1A:  MOVWF  x9C
05C1C:  MOVLB  0
05C1E:  CALL   2046
05C22:  BNC   5C80
....................                   { 
....................                      Ganancia+=Integral+1;//2 
05C24:  BCF    FD8.1
05C26:  MOVFF  5F4,6A7
05C2A:  MOVFF  5F3,6A6
05C2E:  MOVFF  5F2,6A5
05C32:  MOVFF  5F1,6A4
05C36:  MOVLB  6
05C38:  CLRF   xAB
05C3A:  CLRF   xAA
05C3C:  CLRF   xA9
05C3E:  MOVLW  7F
05C40:  MOVWF  xA8
05C42:  MOVLB  0
05C44:  CALL   1530
05C48:  BCF    FD8.1
05C4A:  MOVFF  634,6A7
05C4E:  MOVFF  633,6A6
05C52:  MOVFF  632,6A5
05C56:  MOVFF  631,6A4
05C5A:  MOVFF  03,6AB
05C5E:  MOVFF  02,6AA
05C62:  MOVFF  01,6A9
05C66:  MOVFF  00,6A8
05C6A:  CALL   1530
05C6E:  MOVFF  03,634
05C72:  MOVFF  02,633
05C76:  MOVFF  01,632
05C7A:  MOVFF  00,631
....................                   } 
....................                   else 
05C7E:  BRA    5D38
....................                   { 
....................                      if(Aumento<-0.1) 
05C80:  MOVFF  644,69B
05C84:  MOVFF  643,69A
05C88:  MOVFF  642,699
05C8C:  MOVFF  641,698
05C90:  MOVLW  CD
05C92:  MOVLB  6
05C94:  MOVWF  x9F
05C96:  MOVLW  CC
05C98:  MOVWF  x9E
05C9A:  MOVWF  x9D
05C9C:  MOVLW  7B
05C9E:  MOVWF  x9C
05CA0:  MOVLB  0
05CA2:  CALL   2046
05CA6:  BNC   5CE0
....................                      { 
....................                         Ganancia+=Integral;//1 
05CA8:  BCF    FD8.1
05CAA:  MOVFF  634,6A7
05CAE:  MOVFF  633,6A6
05CB2:  MOVFF  632,6A5
05CB6:  MOVFF  631,6A4
05CBA:  MOVFF  5F4,6AB
05CBE:  MOVFF  5F3,6AA
05CC2:  MOVFF  5F2,6A9
05CC6:  MOVFF  5F1,6A8
05CCA:  CALL   1530
05CCE:  MOVFF  03,634
05CD2:  MOVFF  02,633
05CD6:  MOVFF  01,632
05CDA:  MOVFF  00,631
....................                      }    
....................                      else 
05CDE:  BRA    5D38
....................                      { 
....................                         Ganancia+=Integral*0.5;//0.5 
05CE0:  MOVFF  5F4,6BB
05CE4:  MOVFF  5F3,6BA
05CE8:  MOVFF  5F2,6B9
05CEC:  MOVFF  5F1,6B8
05CF0:  MOVLB  6
05CF2:  CLRF   xBF
05CF4:  CLRF   xBE
05CF6:  CLRF   xBD
05CF8:  MOVLW  7E
05CFA:  MOVWF  xBC
05CFC:  MOVLB  0
05CFE:  CALL   33AE
05D02:  BCF    FD8.1
05D04:  MOVFF  634,6A7
05D08:  MOVFF  633,6A6
05D0C:  MOVFF  632,6A5
05D10:  MOVFF  631,6A4
05D14:  MOVFF  03,6AB
05D18:  MOVFF  02,6AA
05D1C:  MOVFF  01,6A9
05D20:  MOVFF  00,6A8
05D24:  CALL   1530
05D28:  MOVFF  03,634
05D2C:  MOVFF  02,633
05D30:  MOVFF  01,632
05D34:  MOVFF  00,631
....................                      } 
....................                   } 
....................                } 
....................          } 
....................       } 
....................        
....................       if(Ganancia<0.1) 
05D38:  MOVFF  634,69B
05D3C:  MOVFF  633,69A
05D40:  MOVFF  632,699
05D44:  MOVFF  631,698
05D48:  MOVLW  CD
05D4A:  MOVLB  6
05D4C:  MOVWF  x9F
05D4E:  MOVLW  CC
05D50:  MOVWF  x9E
05D52:  MOVLW  4C
05D54:  MOVWF  x9D
05D56:  MOVLW  7B
05D58:  MOVWF  x9C
05D5A:  MOVLB  0
05D5C:  CALL   2046
05D60:  BNC   5D76
....................          Ganancia=0.1; 
05D62:  MOVLW  CD
05D64:  MOVLB  6
05D66:  MOVWF  x34
05D68:  MOVLW  CC
05D6A:  MOVWF  x33
05D6C:  MOVLW  4C
05D6E:  MOVWF  x32
05D70:  MOVLW  7B
05D72:  MOVWF  x31
05D74:  MOVLB  0
....................        
....................       if(Ganancia>Gananciamax) 
05D76:  MOVFF  5E8,69B
05D7A:  MOVFF  5E7,69A
05D7E:  MOVFF  5E6,699
05D82:  MOVFF  5E5,698
05D86:  MOVFF  634,69F
05D8A:  MOVFF  633,69E
05D8E:  MOVFF  632,69D
05D92:  MOVFF  631,69C
05D96:  CALL   2046
05D9A:  BNC   5DAC
....................          Ganancia=Gananciamax; 
05D9C:  MOVFF  5E8,634
05DA0:  MOVFF  5E7,633
05DA4:  MOVFF  5E6,632
05DA8:  MOVFF  5E5,631
....................     
....................       if(error<0.0)     // Anti Wind_DOWN     
05DAC:  MOVFF  624,69B
05DB0:  MOVFF  623,69A
05DB4:  MOVFF  622,699
05DB8:  MOVFF  621,698
05DBC:  MOVLB  6
05DBE:  CLRF   x9F
05DC0:  CLRF   x9E
05DC2:  CLRF   x9D
05DC4:  CLRF   x9C
05DC6:  MOVLB  0
05DC8:  CALL   2046
05DCC:  BNC   5DDC
....................          tmp=0; 
05DCE:  MOVLB  6
05DD0:  CLRF   x30
05DD2:  CLRF   x2F
05DD4:  CLRF   x2E
05DD6:  CLRF   x2D
....................       else 
05DD8:  BRA    5E10
05DDA:  MOVLB  0
....................          tmp=error*Ganancia;  // Control Proporcional. 
05DDC:  MOVFF  624,6BB
05DE0:  MOVFF  623,6BA
05DE4:  MOVFF  622,6B9
05DE8:  MOVFF  621,6B8
05DEC:  MOVFF  634,6BF
05DF0:  MOVFF  633,6BE
05DF4:  MOVFF  632,6BD
05DF8:  MOVFF  631,6BC
05DFC:  CALL   33AE
05E00:  MOVFF  03,630
05E04:  MOVFF  02,62F
05E08:  MOVFF  01,62E
05E0C:  MOVFF  00,62D
....................        
....................       //tmp=(Setpoint-Prom)*Ganancia;  // Control Proporcional. 
....................              
....................       if(tmp>Setpoint)   // Anti Wind-UP       
05E10:  MOVFF  650,69B
05E14:  MOVFF  64F,69A
05E18:  MOVFF  64E,699
05E1C:  MOVFF  64D,698
05E20:  MOVFF  630,69F
05E24:  MOVFF  62F,69E
05E28:  MOVFF  62E,69D
05E2C:  MOVFF  62D,69C
05E30:  MOVLB  0
05E32:  CALL   2046
05E36:  BNC   5E48
....................          tmp=Setpoint; 
05E38:  MOVFF  650,630
05E3C:  MOVFF  64F,62F
05E40:  MOVFF  64E,62E
05E44:  MOVFF  64D,62D
....................                    
....................       if(tmp<0.0)     // Anti Wind_DOWN     
05E48:  MOVFF  630,69B
05E4C:  MOVFF  62F,69A
05E50:  MOVFF  62E,699
05E54:  MOVFF  62D,698
05E58:  MOVLB  6
05E5A:  CLRF   x9F
05E5C:  CLRF   x9E
05E5E:  CLRF   x9D
05E60:  CLRF   x9C
05E62:  MOVLB  0
05E64:  CALL   2046
05E68:  BNC   5E76
....................          tmp=0.0; 
05E6A:  MOVLB  6
05E6C:  CLRF   x30
05E6E:  CLRF   x2F
05E70:  CLRF   x2E
05E72:  CLRF   x2D
05E74:  MOVLB  0
....................     
....................       Tpulso=(tmp/Setpoint)*Tciclo; 
05E76:  MOVFF  630,69C
05E7A:  MOVFF  62F,69B
05E7E:  MOVFF  62E,69A
05E82:  MOVFF  62D,699
05E86:  MOVFF  650,6A0
05E8A:  MOVFF  64F,69F
05E8E:  MOVFF  64E,69E
05E92:  MOVFF  64D,69D
05E96:  CALL   13D2
05E9A:  MOVFF  00,698
05E9E:  MOVFF  01,699
05EA2:  MOVFF  02,69A
05EA6:  MOVFF  03,69B
05EAA:  MOVFF  03,6BB
05EAE:  MOVFF  02,6BA
05EB2:  MOVFF  01,6B9
05EB6:  MOVFF  00,6B8
05EBA:  MOVFF  61C,6BF
05EBE:  MOVFF  61B,6BE
05EC2:  MOVFF  61A,6BD
05EC6:  MOVFF  619,6BC
05ECA:  CALL   33AE
05ECE:  MOVFF  03,620
05ED2:  MOVFF  02,61F
05ED6:  MOVFF  01,61E
05EDA:  MOVFF  00,61D
....................        
....................       //if(Tpulso<Tpulsomin && flag_setpoint){ 
....................       //   Tpulso=Tpulsomin; 
....................       //} 
....................        
....................       /* 
....................       if(error<1.5){ 
....................          if(error<=2.3){    
....................             if(flag_ajuste==0){ 
....................                TpulsoMax=Tpulso; 
....................                flag_ajuste=1;   
....................                Ajusto=5; 
....................             } 
....................          } 
....................           
....................          if(error<=0.8){    
....................             if(flag_ajuste2==0){ 
....................                Tpulsomin=Tpulso; 
....................                flag_ajuste2=1;            
....................                Ajusto=5; 
....................             } 
....................          } 
....................           
....................          if(flag_ajuste2==1){ 
....................             if(Tpulso<Tpulsomin){ 
....................                Tpulso=Tpulsomin; 
....................             } 
....................          } 
....................          //if(flag_ajuste==1){    
....................          //   if(Tpulso>TpulsoMax){ 
....................          //      Tpulso=TpulsoMax; 
....................          //   }  
....................          //} 
....................       } 
....................        
....................       if(error<0.5){ 
....................          sobrepaso=1; 
....................          Tpulso=Tpulsomin/2; 
....................          if(tSobrepaso>300){ 
....................             Tpulsomin-=0.1; 
....................             tSobrepaso=0; 
....................             if(Tpulsomin<0)Tpulsomin=0; 
....................          } 
....................       }else{ 
....................          sobrepaso=0; 
....................          tSobrepaso=0; 
....................       } 
....................       */ 
....................       if(Tpulso<0)Tpulso=0; 
05EDE:  MOVFF  620,69B
05EE2:  MOVFF  61F,69A
05EE6:  MOVFF  61E,699
05EEA:  MOVFF  61D,698
05EEE:  MOVLB  6
05EF0:  CLRF   x9F
05EF2:  CLRF   x9E
05EF4:  CLRF   x9D
05EF6:  CLRF   x9C
05EF8:  MOVLB  0
05EFA:  CALL   2046
05EFE:  BNC   5F0C
05F00:  MOVLB  6
05F02:  CLRF   x20
05F04:  CLRF   x1F
05F06:  CLRF   x1E
05F08:  CLRF   x1D
05F0A:  MOVLB  0
....................       if(Tpulso>Tciclo)Tpulso=0; 
05F0C:  MOVFF  61C,69B
05F10:  MOVFF  61B,69A
05F14:  MOVFF  61A,699
05F18:  MOVFF  619,698
05F1C:  MOVFF  620,69F
05F20:  MOVFF  61F,69E
05F24:  MOVFF  61E,69D
05F28:  MOVFF  61D,69C
05F2C:  CALL   2046
05F30:  BNC   5F3C
05F32:  MOVLB  6
05F34:  CLRF   x20
05F36:  CLRF   x1F
05F38:  CLRF   x1E
05F3A:  CLRF   x1D
....................        
....................       Tp=(Tpulso/0.005); 
05F3C:  MOVFF  620,69C
05F40:  MOVFF  61F,69B
05F44:  MOVFF  61E,69A
05F48:  MOVFF  61D,699
05F4C:  MOVLW  0A
05F4E:  MOVLB  6
05F50:  MOVWF  xA0
05F52:  MOVLW  D7
05F54:  MOVWF  x9F
05F56:  MOVLW  23
05F58:  MOVWF  x9E
05F5A:  MOVLW  77
05F5C:  MOVWF  x9D
05F5E:  MOVLB  0
05F60:  CALL   13D2
05F64:  MOVFF  03,6A7
05F68:  MOVFF  02,6A6
05F6C:  MOVFF  01,6A5
05F70:  MOVFF  00,6A4
05F74:  CALL   3A44
05F78:  MOVFF  02,5D0
05F7C:  MOVFF  01,5CF
....................       Tc=(Tciclo/0.005); 
05F80:  MOVFF  61C,69C
05F84:  MOVFF  61B,69B
05F88:  MOVFF  61A,69A
05F8C:  MOVFF  619,699
05F90:  MOVLW  0A
05F92:  MOVLB  6
05F94:  MOVWF  xA0
05F96:  MOVLW  D7
05F98:  MOVWF  x9F
05F9A:  MOVLW  23
05F9C:  MOVWF  x9E
05F9E:  MOVLW  77
05FA0:  MOVWF  x9D
05FA2:  MOVLB  0
05FA4:  CALL   13D2
05FA8:  MOVFF  03,6A7
05FAC:  MOVFF  02,6A6
05FB0:  MOVFF  01,6A5
05FB4:  MOVFF  00,6A4
05FB8:  CALL   3A44
05FBC:  MOVFF  02,5D2
05FC0:  MOVFF  01,5D1
....................        
....................       Controlando=1;      
05FC4:  MOVLW  01
05FC6:  MOVLB  5
05FC8:  MOVWF  xA9
....................     
.................... //--------------------------------------------------------------------------------------------------------------------//    
....................      
.................... } 
05FCA:  MOVLB  0
05FCC:  RETLW  00
....................  
.................... void displayMenu(char palabra[30], int x, int y, int sombreado, int tamano) 
.................... { 
....................    strcpy(Menus.Letra,palabra); 
*
03238:  MOVLB  6
0323A:  MOVFF  6A0,01
0323E:  MOVFF  6A1,03
03242:  MOVFF  6A0,6A6
03246:  MOVFF  6A1,6A7
0324A:  MOVLW  06
0324C:  MOVWF  FEA
0324E:  MOVLW  78
03250:  MOVWF  FE9
03252:  MOVFF  6A1,FE2
03256:  MOVFF  6A0,FE1
0325A:  MOVF   FE7,F
0325C:  MOVFF  FE6,FEE
03260:  BNZ   325A
....................    if(sombreado==2) 
03262:  MOVF   xA4,W
03264:  SUBLW  02
03266:  BNZ   3290
....................       {glcd_text57(x+1, y+1, Menus.Letra, tamano, ON);} 
03268:  MOVLW  01
0326A:  ADDWF  xA2,W
0326C:  MOVWF  xA6
0326E:  MOVLW  01
03270:  ADDWF  xA3,W
03272:  MOVWF  xA7
03274:  MOVFF  6A6,6B1
03278:  MOVWF  xB2
0327A:  MOVLW  06
0327C:  MOVWF  xB4
0327E:  MOVLW  78
03280:  MOVWF  xB3
03282:  MOVFF  6A5,6B5
03286:  MOVLW  01
03288:  MOVWF  xB6
0328A:  MOVLB  0
0328C:  RCALL  2E74
0328E:  MOVLB  6
....................    if(sombreado==1) 
03290:  DECFSZ xA4,W
03292:  BRA    32DE
....................       {glcd_rect(0, y, 127, y+(tamano*8), YES, ON);glcd_text57(x+1, y+1, Menus.Letra, tamano, OFF);} 
03294:  MOVF   xA5,W
03296:  MULLW  08
03298:  MOVF   FF3,W
0329A:  ADDWF  xA3,W
0329C:  MOVWF  xA6
0329E:  CLRF   xB1
032A0:  MOVFF  6A3,6B2
032A4:  MOVLW  7F
032A6:  MOVWF  xB3
032A8:  MOVFF  6A6,6B4
032AC:  MOVLW  01
032AE:  MOVWF  xB5
032B0:  MOVWF  xB6
032B2:  MOVLB  0
032B4:  RCALL  3176
032B6:  MOVLW  01
032B8:  MOVLB  6
032BA:  ADDWF  xA2,W
032BC:  MOVWF  xA6
032BE:  MOVLW  01
032C0:  ADDWF  xA3,W
032C2:  MOVWF  xA7
032C4:  MOVFF  6A6,6B1
032C8:  MOVWF  xB2
032CA:  MOVLW  06
032CC:  MOVWF  xB4
032CE:  MOVLW  78
032D0:  MOVWF  xB3
032D2:  MOVFF  6A5,6B5
032D6:  CLRF   xB6
032D8:  MOVLB  0
032DA:  RCALL  2E74
032DC:  MOVLB  6
....................    if(sombreado==0) 
032DE:  MOVF   xA4,F
032E0:  BNZ   332C
....................       {glcd_rect(0, y, 127, y+(tamano*8), YES, OFF);glcd_text57(x+1, y+1, Menus.Letra, tamano, ON);} 
032E2:  MOVF   xA5,W
032E4:  MULLW  08
032E6:  MOVF   FF3,W
032E8:  ADDWF  xA3,W
032EA:  MOVWF  xA6
032EC:  CLRF   xB1
032EE:  MOVFF  6A3,6B2
032F2:  MOVLW  7F
032F4:  MOVWF  xB3
032F6:  MOVFF  6A6,6B4
032FA:  MOVLW  01
032FC:  MOVWF  xB5
032FE:  CLRF   xB6
03300:  MOVLB  0
03302:  RCALL  3176
03304:  MOVLW  01
03306:  MOVLB  6
03308:  ADDWF  xA2,W
0330A:  MOVWF  xA6
0330C:  MOVLW  01
0330E:  ADDWF  xA3,W
03310:  MOVWF  xA7
03312:  MOVFF  6A6,6B1
03316:  MOVWF  xB2
03318:  MOVLW  06
0331A:  MOVWF  xB4
0331C:  MOVLW  78
0331E:  MOVWF  xB3
03320:  MOVFF  6A5,6B5
03324:  MOVLW  01
03326:  MOVWF  xB6
03328:  MOVLB  0
0332A:  RCALL  2E74
....................    glcd_update(); 
0332C:  MOVLB  0
0332E:  RCALL  2C58
.................... } 
03330:  RETLW  00
....................  
.................... void displayTemps(char palabra[30], float digito, int x, int y, int sombreado, int tamano) 
.................... { 
....................    char voltage[9]; 
....................     
....................    if(sombreado==1) 
*
04F5E:  MOVLB  6
04F60:  DECFSZ xA0,W
04F62:  BRA    50A2
....................    { 
....................       sprintf(voltage, "%03.1f", digito); 
04F64:  MOVLW  06
04F66:  MOVWF  x97
04F68:  MOVLW  A2
04F6A:  MOVWF  x96
04F6C:  MOVLW  42
04F6E:  MOVWF  FE9
04F70:  MOVFF  69D,6AE
04F74:  MOVFF  69C,6AD
04F78:  MOVFF  69B,6AC
04F7C:  MOVFF  69A,6AB
04F80:  MOVLW  01
04F82:  MOVWF  xAF
04F84:  MOVLB  0
04F86:  RCALL  4DAA
....................       glcd_rect(0, y-2, 127, y+(tamano*8), YES, ON); 
04F88:  MOVLW  02
04F8A:  MOVLB  6
04F8C:  SUBWF  x9F,W
04F8E:  MOVWF  xAB
04F90:  MOVF   xA1,W
04F92:  MULLW  08
04F94:  MOVF   FF3,W
04F96:  ADDWF  x9F,W
04F98:  MOVWF  xAC
04F9A:  CLRF   xB1
04F9C:  MOVFF  6AB,6B2
04FA0:  MOVLW  7F
04FA2:  MOVWF  xB3
04FA4:  MOVFF  6AC,6B4
04FA8:  MOVLW  01
04FAA:  MOVWF  xB5
04FAC:  MOVWF  xB6
04FAE:  MOVLB  0
04FB0:  CALL   3176
....................       strcpy(Menus.Letra,palabra); 
04FB4:  MOVLB  6
04FB6:  MOVFF  698,01
04FBA:  MOVFF  699,03
04FBE:  MOVFF  698,6AB
04FC2:  MOVFF  699,6AC
04FC6:  MOVLW  06
04FC8:  MOVWF  FEA
04FCA:  MOVLW  78
04FCC:  MOVWF  FE9
04FCE:  MOVFF  699,FE2
04FD2:  MOVFF  698,FE1
04FD6:  MOVF   FE7,F
04FD8:  MOVFF  FE6,FEE
04FDC:  BNZ   4FD6
....................       glcd_text57(x+84, y+1, voltage, tamano, OFF); 
04FDE:  MOVLW  54
04FE0:  ADDWF  x9E,W
04FE2:  MOVWF  xAB
04FE4:  MOVLW  01
04FE6:  ADDWF  x9F,W
04FE8:  MOVWF  xAC
04FEA:  MOVFF  6AB,6B1
04FEE:  MOVWF  xB2
04FF0:  MOVLW  06
04FF2:  MOVWF  xB4
04FF4:  MOVLW  A2
04FF6:  MOVWF  xB3
04FF8:  MOVFF  6A1,6B5
04FFC:  CLRF   xB6
04FFE:  MOVLB  0
05000:  CALL   2E74
....................       glcd_text57(x+1, y+1, Menus.Letra, tamano, OFF); 
05004:  MOVLW  01
05006:  MOVLB  6
05008:  ADDWF  x9E,W
0500A:  MOVWF  xAB
0500C:  MOVLW  01
0500E:  ADDWF  x9F,W
05010:  MOVWF  xAC
05012:  MOVFF  6AB,6B1
05016:  MOVWF  xB2
05018:  MOVLW  06
0501A:  MOVWF  xB4
0501C:  MOVLW  78
0501E:  MOVWF  xB3
05020:  MOVFF  6A1,6B5
05024:  CLRF   xB6
05026:  MOVLB  0
05028:  CALL   2E74
....................       strcpy(Menus.Letra,"C"); 
0502C:  MOVLW  06
0502E:  MOVWF  FEA
05030:  MOVLW  78
05032:  MOVWF  FE9
05034:  MOVFF  FF2,6AB
05038:  BCF    FF2.6
0503A:  BCF    FF2.7
0503C:  MOVLW  00
0503E:  CALL   0796
05042:  TBLRD*-
05044:  TBLRD*+
05046:  MOVF   FF5,W
05048:  MOVWF  FEE
0504A:  IORLW  00
0504C:  BNZ   5044
0504E:  MOVLB  6
05050:  BTFSC  xAB.6
05052:  BSF    FF2.6
05054:  BTFSC  xAB.7
05056:  BSF    FF2.7
....................       glcd_text57(x+120, y+1, Menus.Letra, tamano, OFF); 
05058:  MOVLW  78
0505A:  ADDWF  x9E,W
0505C:  MOVWF  xAB
0505E:  MOVLW  01
05060:  ADDWF  x9F,W
05062:  MOVWF  xAC
05064:  MOVFF  6AB,6B1
05068:  MOVWF  xB2
0506A:  MOVLW  06
0506C:  MOVWF  xB4
0506E:  MOVLW  78
05070:  MOVWF  xB3
05072:  MOVFF  6A1,6B5
05076:  CLRF   xB6
05078:  MOVLB  0
0507A:  CALL   2E74
....................       glcd_circle(x+115,y-1,1,NO,OFF); 
0507E:  MOVLW  73
05080:  MOVLB  6
05082:  ADDWF  x9E,W
05084:  MOVWF  xAB
05086:  MOVLW  01
05088:  SUBWF  x9F,W
0508A:  MOVWF  xAC
0508C:  MOVFF  6AB,6AD
05090:  MOVWF  xAE
05092:  MOVLW  01
05094:  MOVWF  xAF
05096:  CLRF   xB0
05098:  CLRF   xB1
0509A:  MOVLB  0
0509C:  CALL   4846
050A0:  MOVLB  6
....................    } 
....................    if(sombreado==0) 
050A2:  MOVF   xA0,F
050A4:  BTFSS  FD8.2
050A6:  BRA    51EA
....................    { 
....................       sprintf(voltage, "%03.1f", digito); 
050A8:  MOVLW  06
050AA:  MOVWF  x97
050AC:  MOVLW  A2
050AE:  MOVWF  x96
050B0:  MOVLW  42
050B2:  MOVWF  FE9
050B4:  MOVFF  69D,6AE
050B8:  MOVFF  69C,6AD
050BC:  MOVFF  69B,6AC
050C0:  MOVFF  69A,6AB
050C4:  MOVLW  01
050C6:  MOVWF  xAF
050C8:  MOVLB  0
050CA:  RCALL  4DAA
....................       glcd_rect(0, y-2, 127, y+(tamano*8), YES, OFF); 
050CC:  MOVLW  02
050CE:  MOVLB  6
050D0:  SUBWF  x9F,W
050D2:  MOVWF  xAB
050D4:  MOVF   xA1,W
050D6:  MULLW  08
050D8:  MOVF   FF3,W
050DA:  ADDWF  x9F,W
050DC:  MOVWF  xAC
050DE:  CLRF   xB1
050E0:  MOVFF  6AB,6B2
050E4:  MOVLW  7F
050E6:  MOVWF  xB3
050E8:  MOVFF  6AC,6B4
050EC:  MOVLW  01
050EE:  MOVWF  xB5
050F0:  CLRF   xB6
050F2:  MOVLB  0
050F4:  CALL   3176
....................       strcpy(Menus.Letra,palabra); 
050F8:  MOVLB  6
050FA:  MOVFF  698,01
050FE:  MOVFF  699,03
05102:  MOVFF  698,6AB
05106:  MOVFF  699,6AC
0510A:  MOVLW  06
0510C:  MOVWF  FEA
0510E:  MOVLW  78
05110:  MOVWF  FE9
05112:  MOVFF  699,FE2
05116:  MOVFF  698,FE1
0511A:  MOVF   FE7,F
0511C:  MOVFF  FE6,FEE
05120:  BNZ   511A
....................       glcd_text57(x+84, y+1, voltage, tamano, ON); 
05122:  MOVLW  54
05124:  ADDWF  x9E,W
05126:  MOVWF  xAB
05128:  MOVLW  01
0512A:  ADDWF  x9F,W
0512C:  MOVWF  xAC
0512E:  MOVFF  6AB,6B1
05132:  MOVWF  xB2
05134:  MOVLW  06
05136:  MOVWF  xB4
05138:  MOVLW  A2
0513A:  MOVWF  xB3
0513C:  MOVFF  6A1,6B5
05140:  MOVLW  01
05142:  MOVWF  xB6
05144:  MOVLB  0
05146:  CALL   2E74
....................       glcd_text57(x+1, y+1, Menus.Letra, tamano, ON); 
0514A:  MOVLW  01
0514C:  MOVLB  6
0514E:  ADDWF  x9E,W
05150:  MOVWF  xAB
05152:  MOVLW  01
05154:  ADDWF  x9F,W
05156:  MOVWF  xAC
05158:  MOVFF  6AB,6B1
0515C:  MOVWF  xB2
0515E:  MOVLW  06
05160:  MOVWF  xB4
05162:  MOVLW  78
05164:  MOVWF  xB3
05166:  MOVFF  6A1,6B5
0516A:  MOVLW  01
0516C:  MOVWF  xB6
0516E:  MOVLB  0
05170:  CALL   2E74
....................       strcpy(Menus.Letra,"C"); 
05174:  MOVLW  06
05176:  MOVWF  FEA
05178:  MOVLW  78
0517A:  MOVWF  FE9
0517C:  MOVFF  FF2,6AB
05180:  BCF    FF2.6
05182:  BCF    FF2.7
05184:  MOVLW  00
05186:  CALL   0796
0518A:  TBLRD*-
0518C:  TBLRD*+
0518E:  MOVF   FF5,W
05190:  MOVWF  FEE
05192:  IORLW  00
05194:  BNZ   518C
05196:  MOVLB  6
05198:  BTFSC  xAB.6
0519A:  BSF    FF2.6
0519C:  BTFSC  xAB.7
0519E:  BSF    FF2.7
....................       glcd_text57(x+120, y+1, Menus.Letra, tamano, ON); 
051A0:  MOVLW  78
051A2:  ADDWF  x9E,W
051A4:  MOVWF  xAB
051A6:  MOVLW  01
051A8:  ADDWF  x9F,W
051AA:  MOVWF  xAC
051AC:  MOVFF  6AB,6B1
051B0:  MOVWF  xB2
051B2:  MOVLW  06
051B4:  MOVWF  xB4
051B6:  MOVLW  78
051B8:  MOVWF  xB3
051BA:  MOVFF  6A1,6B5
051BE:  MOVLW  01
051C0:  MOVWF  xB6
051C2:  MOVLB  0
051C4:  CALL   2E74
....................       glcd_circle(x+115,y-1,1,NO,ON); 
051C8:  MOVLW  73
051CA:  MOVLB  6
051CC:  ADDWF  x9E,W
051CE:  MOVWF  xAB
051D0:  MOVLW  01
051D2:  SUBWF  x9F,W
051D4:  MOVWF  xAC
051D6:  MOVFF  6AB,6AD
051DA:  MOVWF  xAE
051DC:  MOVLW  01
051DE:  MOVWF  xAF
051E0:  CLRF   xB0
051E2:  MOVWF  xB1
051E4:  MOVLB  0
051E6:  CALL   4846
....................    } 
....................    glcd_update(); 
051EA:  MOVLB  0
051EC:  CALL   2C58
.................... } 
051F0:  RETLW  00
....................  
.................... void displayTiempo(int digito, int x, int y, int sombreado, int tamano) 
.................... { 
....................    char voltage[9]; 
....................     
....................    if(sombreado==2) 
*
05278:  MOVLB  6
0527A:  MOVF   x9C,W
0527C:  SUBLW  02
0527E:  BNZ   52F0
....................    { 
....................       sprintf(voltage, "%03u", digito); 
05280:  MOVLW  06
05282:  MOVWF  x97
05284:  MOVLW  9E
05286:  MOVWF  x96
05288:  MOVFF  699,6A7
0528C:  MOVLW  03
0528E:  MOVWF  xA8
05290:  MOVLB  0
05292:  RCALL  51F2
....................       glcd_rect(x, y, x+(tamano*18), y+(tamano*8), YES, ON); 
05294:  MOVLB  6
05296:  MOVF   x9D,W
05298:  MULLW  12
0529A:  MOVF   FF3,W
0529C:  ADDWF  x9A,W
0529E:  MOVWF  xA7
052A0:  MOVF   x9D,W
052A2:  MULLW  08
052A4:  MOVF   FF3,W
052A6:  ADDWF  x9B,W
052A8:  MOVWF  xA8
052AA:  MOVFF  69A,6B1
052AE:  MOVFF  69B,6B2
052B2:  MOVFF  6A7,6B3
052B6:  MOVWF  xB4
052B8:  MOVLW  01
052BA:  MOVWF  xB5
052BC:  MOVWF  xB6
052BE:  MOVLB  0
052C0:  CALL   3176
....................       glcd_text57(x+1, y+1, voltage, tamano, OFF); 
052C4:  MOVLW  01
052C6:  MOVLB  6
052C8:  ADDWF  x9A,W
052CA:  MOVWF  xA7
052CC:  MOVLW  01
052CE:  ADDWF  x9B,W
052D0:  MOVWF  xA8
052D2:  MOVFF  6A7,6B1
052D6:  MOVWF  xB2
052D8:  MOVLW  06
052DA:  MOVWF  xB4
052DC:  MOVLW  9E
052DE:  MOVWF  xB3
052E0:  MOVFF  69D,6B5
052E4:  CLRF   xB6
052E6:  MOVLB  0
052E8:  CALL   2E74
....................    } 
....................    else 
052EC:  BRA    5434
052EE:  MOVLB  6
....................    { 
....................       if(sombreado==3) 
052F0:  MOVF   x9C,W
052F2:  SUBLW  03
052F4:  BNZ   5366
....................       { 
....................          sprintf(voltage, "%03u", digito); 
052F6:  MOVLW  06
052F8:  MOVWF  x97
052FA:  MOVLW  9E
052FC:  MOVWF  x96
052FE:  MOVFF  699,6A7
05302:  MOVLW  03
05304:  MOVWF  xA8
05306:  MOVLB  0
05308:  RCALL  51F2
....................          glcd_rect(x, y, x+(tamano*18), y+(tamano*8), YES, OFF); 
0530A:  MOVLB  6
0530C:  MOVF   x9D,W
0530E:  MULLW  12
05310:  MOVF   FF3,W
05312:  ADDWF  x9A,W
05314:  MOVWF  xA7
05316:  MOVF   x9D,W
05318:  MULLW  08
0531A:  MOVF   FF3,W
0531C:  ADDWF  x9B,W
0531E:  MOVWF  xA8
05320:  MOVFF  69A,6B1
05324:  MOVFF  69B,6B2
05328:  MOVFF  6A7,6B3
0532C:  MOVWF  xB4
0532E:  MOVLW  01
05330:  MOVWF  xB5
05332:  CLRF   xB6
05334:  MOVLB  0
05336:  CALL   3176
....................          glcd_text57(x+1, y+1, voltage, tamano, ON); 
0533A:  MOVLW  01
0533C:  MOVLB  6
0533E:  ADDWF  x9A,W
05340:  MOVWF  xA7
05342:  MOVLW  01
05344:  ADDWF  x9B,W
05346:  MOVWF  xA8
05348:  MOVFF  6A7,6B1
0534C:  MOVWF  xB2
0534E:  MOVLW  06
05350:  MOVWF  xB4
05352:  MOVLW  9E
05354:  MOVWF  xB3
05356:  MOVFF  69D,6B5
0535A:  MOVLW  01
0535C:  MOVWF  xB6
0535E:  MOVLB  0
05360:  CALL   2E74
05364:  MOVLB  6
....................       } 
....................       sprintf(voltage, "%u", digito); 
05366:  MOVLW  06
05368:  MOVWF  x97
0536A:  MOVLW  9E
0536C:  MOVWF  x96
0536E:  MOVFF  699,6A7
05372:  MOVLW  1B
05374:  MOVWF  xA8
05376:  MOVLB  0
05378:  RCALL  51F2
....................       if(sombreado==1) 
0537A:  MOVLB  6
0537C:  DECFSZ x9C,W
0537E:  BRA    53D8
....................          {glcd_rect(x, y, x+(tamano*5), y+(tamano*8), YES, ON);glcd_text57(x+1, y+1, voltage, tamano, OFF);} 
05380:  MOVF   x9D,W
05382:  MULLW  05
05384:  MOVF   FF3,W
05386:  ADDWF  x9A,W
05388:  MOVWF  xA7
0538A:  MOVF   x9D,W
0538C:  MULLW  08
0538E:  MOVF   FF3,W
05390:  ADDWF  x9B,W
05392:  MOVWF  xA8
05394:  MOVFF  69A,6B1
05398:  MOVFF  69B,6B2
0539C:  MOVFF  6A7,6B3
053A0:  MOVWF  xB4
053A2:  MOVLW  01
053A4:  MOVWF  xB5
053A6:  MOVWF  xB6
053A8:  MOVLB  0
053AA:  CALL   3176
053AE:  MOVLW  01
053B0:  MOVLB  6
053B2:  ADDWF  x9A,W
053B4:  MOVWF  xA7
053B6:  MOVLW  01
053B8:  ADDWF  x9B,W
053BA:  MOVWF  xA8
053BC:  MOVFF  6A7,6B1
053C0:  MOVWF  xB2
053C2:  MOVLW  06
053C4:  MOVWF  xB4
053C6:  MOVLW  9E
053C8:  MOVWF  xB3
053CA:  MOVFF  69D,6B5
053CE:  CLRF   xB6
053D0:  MOVLB  0
053D2:  CALL   2E74
053D6:  MOVLB  6
....................       if(sombreado==0) 
053D8:  MOVF   x9C,F
053DA:  BNZ   5436
....................          {glcd_rect(x, y, x+(tamano*5), y+(tamano*8), YES, OFF);glcd_text57(x+1, y+1, voltage, tamano, ON);} 
053DC:  MOVF   x9D,W
053DE:  MULLW  05
053E0:  MOVF   FF3,W
053E2:  ADDWF  x9A,W
053E4:  MOVWF  xA7
053E6:  MOVF   x9D,W
053E8:  MULLW  08
053EA:  MOVF   FF3,W
053EC:  ADDWF  x9B,W
053EE:  MOVWF  xA8
053F0:  MOVFF  69A,6B1
053F4:  MOVFF  69B,6B2
053F8:  MOVFF  6A7,6B3
053FC:  MOVWF  xB4
053FE:  MOVLW  01
05400:  MOVWF  xB5
05402:  CLRF   xB6
05404:  MOVLB  0
05406:  CALL   3176
0540A:  MOVLW  01
0540C:  MOVLB  6
0540E:  ADDWF  x9A,W
05410:  MOVWF  xA7
05412:  MOVLW  01
05414:  ADDWF  x9B,W
05416:  MOVWF  xA8
05418:  MOVFF  6A7,6B1
0541C:  MOVWF  xB2
0541E:  MOVLW  06
05420:  MOVWF  xB4
05422:  MOVLW  9E
05424:  MOVWF  xB3
05426:  MOVFF  69D,6B5
0542A:  MOVLW  01
0542C:  MOVWF  xB6
0542E:  MOVLB  0
05430:  CALL   2E74
05434:  MOVLB  6
....................    } 
....................    glcd_update(); 
05436:  MOVLB  0
05438:  CALL   2C58
.................... } 
0543C:  RETLW  00
....................  
.................... void displayTT(float adc,int x,int y,int w) { 
....................    char voltage[9];     
....................    sprintf(voltage, "%03.1f",adc); // Converts adc to text 
*
06E4C:  MOVLW  06
06E4E:  MOVLB  6
06E50:  MOVWF  x97
06E52:  MOVLW  9F
06E54:  MOVWF  x96
06E56:  MOVLW  42
06E58:  MOVWF  FE9
06E5A:  MOVFF  69B,6AE
06E5E:  MOVFF  69A,6AD
06E62:  MOVFF  699,6AC
06E66:  MOVFF  698,6AB
06E6A:  MOVLW  01
06E6C:  MOVWF  xAF
06E6E:  MOVLB  0
06E70:  CALL   4DAA
....................    glcd_rect(x, y, x+(w*27), y+(w*8), YES, OFF); 
06E74:  MOVLB  6
06E76:  MOVF   x9E,W
06E78:  MULLW  1B
06E7A:  MOVF   FF3,W
06E7C:  ADDWF  x9C,W
06E7E:  MOVWF  xA8
06E80:  MOVF   x9E,W
06E82:  MULLW  08
06E84:  MOVF   FF3,W
06E86:  ADDWF  x9D,W
06E88:  MOVWF  xA9
06E8A:  MOVFF  69C,6B1
06E8E:  MOVFF  69D,6B2
06E92:  MOVFF  6A8,6B3
06E96:  MOVWF  xB4
06E98:  MOVLW  01
06E9A:  MOVWF  xB5
06E9C:  CLRF   xB6
06E9E:  MOVLB  0
06EA0:  CALL   3176
....................    /*glcd_rect(x, y, x+53, y+15, YES, ON);*/glcd_text57(x, y, voltage, w, ON); 
06EA4:  MOVFF  69C,6B1
06EA8:  MOVFF  69D,6B2
06EAC:  MOVLW  06
06EAE:  MOVLB  6
06EB0:  MOVWF  xB4
06EB2:  MOVLW  9F
06EB4:  MOVWF  xB3
06EB6:  MOVFF  69E,6B5
06EBA:  MOVLW  01
06EBC:  MOVWF  xB6
06EBE:  MOVLB  0
06EC0:  CALL   2E74
.................... } 
06EC4:  GOTO   B29E (RETURN)
....................  
.................... void displayTemperatura(int16 digito, int x, int y, int sombreado, int tamano) 
.................... { 
....................    char voltage[9]; 
....................     
....................    if(sombreado==2) 
*
04B2E:  MOVLB  6
04B30:  MOVF   x9E,W
04B32:  SUBLW  02
04B34:  BNZ   4BAA
....................    { 
....................       sprintf(voltage, "%03Lu", digito); 
04B36:  MOVLW  06
04B38:  MOVWF  x97
04B3A:  MOVLW  A0
04B3C:  MOVWF  x96
04B3E:  MOVLW  0A
04B40:  MOVWF  FE9
04B42:  MOVFF  69B,6AA
04B46:  MOVFF  69A,6A9
04B4A:  MOVLB  0
04B4C:  RCALL  4A70
....................       glcd_rect(x, y, x+(tamano*18), y+(tamano*8), YES, ON); 
04B4E:  MOVLB  6
04B50:  MOVF   x9F,W
04B52:  MULLW  12
04B54:  MOVF   FF3,W
04B56:  ADDWF  x9C,W
04B58:  MOVWF  xA9
04B5A:  MOVF   x9F,W
04B5C:  MULLW  08
04B5E:  MOVF   FF3,W
04B60:  ADDWF  x9D,W
04B62:  MOVWF  xAA
04B64:  MOVFF  69C,6B1
04B68:  MOVFF  69D,6B2
04B6C:  MOVFF  6A9,6B3
04B70:  MOVWF  xB4
04B72:  MOVLW  01
04B74:  MOVWF  xB5
04B76:  MOVWF  xB6
04B78:  MOVLB  0
04B7A:  CALL   3176
....................       glcd_text57(x+1, y+1, voltage, tamano, OFF); 
04B7E:  MOVLW  01
04B80:  MOVLB  6
04B82:  ADDWF  x9C,W
04B84:  MOVWF  xA9
04B86:  MOVLW  01
04B88:  ADDWF  x9D,W
04B8A:  MOVWF  xAA
04B8C:  MOVFF  6A9,6B1
04B90:  MOVWF  xB2
04B92:  MOVLW  06
04B94:  MOVWF  xB4
04B96:  MOVLW  A0
04B98:  MOVWF  xB3
04B9A:  MOVFF  69F,6B5
04B9E:  CLRF   xB6
04BA0:  MOVLB  0
04BA2:  CALL   2E74
....................    } 
....................    else 
04BA6:  BRA    4CDC
04BA8:  MOVLB  6
....................    { 
....................       sprintf(voltage, "%03Lu", digito); 
04BAA:  MOVLW  06
04BAC:  MOVWF  x97
04BAE:  MOVLW  A0
04BB0:  MOVWF  x96
04BB2:  MOVLW  0A
04BB4:  MOVWF  FE9
04BB6:  MOVFF  69B,6AA
04BBA:  MOVFF  69A,6A9
04BBE:  MOVLB  0
04BC0:  RCALL  4A70
....................     
....................       if(sombreado==4) 
04BC2:  MOVLB  6
04BC4:  MOVF   x9E,W
04BC6:  SUBLW  04
04BC8:  BNZ   4C24
....................       { 
....................          glcd_rect(x, y, x+(tamano*16), y+(tamano*8), YES, OFF); 
04BCA:  MOVF   x9F,W
04BCC:  MULLW  10
04BCE:  MOVF   FF3,W
04BD0:  ADDWF  x9C,W
04BD2:  MOVWF  xA9
04BD4:  MOVF   x9F,W
04BD6:  MULLW  08
04BD8:  MOVF   FF3,W
04BDA:  ADDWF  x9D,W
04BDC:  MOVWF  xAA
04BDE:  MOVFF  69C,6B1
04BE2:  MOVFF  69D,6B2
04BE6:  MOVFF  6A9,6B3
04BEA:  MOVWF  xB4
04BEC:  MOVLW  01
04BEE:  MOVWF  xB5
04BF0:  CLRF   xB6
04BF2:  MOVLB  0
04BF4:  CALL   3176
....................          glcd_text57(x+1, y+1, voltage, tamano, ON); 
04BF8:  MOVLW  01
04BFA:  MOVLB  6
04BFC:  ADDWF  x9C,W
04BFE:  MOVWF  xA9
04C00:  MOVLW  01
04C02:  ADDWF  x9D,W
04C04:  MOVWF  xAA
04C06:  MOVFF  6A9,6B1
04C0A:  MOVWF  xB2
04C0C:  MOVLW  06
04C0E:  MOVWF  xB4
04C10:  MOVLW  A0
04C12:  MOVWF  xB3
04C14:  MOVFF  69F,6B5
04C18:  MOVLW  01
04C1A:  MOVWF  xB6
04C1C:  MOVLB  0
04C1E:  CALL   2E74
04C22:  MOVLB  6
....................       } 
....................       if(sombreado==1) 
04C24:  DECFSZ x9E,W
04C26:  BRA    4C80
....................          {glcd_rect(x, y, x+(tamano*5), y+(tamano*8), YES, ON);glcd_text57(x+1, y+1, voltage, tamano, OFF);} 
04C28:  MOVF   x9F,W
04C2A:  MULLW  05
04C2C:  MOVF   FF3,W
04C2E:  ADDWF  x9C,W
04C30:  MOVWF  xA9
04C32:  MOVF   x9F,W
04C34:  MULLW  08
04C36:  MOVF   FF3,W
04C38:  ADDWF  x9D,W
04C3A:  MOVWF  xAA
04C3C:  MOVFF  69C,6B1
04C40:  MOVFF  69D,6B2
04C44:  MOVFF  6A9,6B3
04C48:  MOVWF  xB4
04C4A:  MOVLW  01
04C4C:  MOVWF  xB5
04C4E:  MOVWF  xB6
04C50:  MOVLB  0
04C52:  CALL   3176
04C56:  MOVLW  01
04C58:  MOVLB  6
04C5A:  ADDWF  x9C,W
04C5C:  MOVWF  xA9
04C5E:  MOVLW  01
04C60:  ADDWF  x9D,W
04C62:  MOVWF  xAA
04C64:  MOVFF  6A9,6B1
04C68:  MOVWF  xB2
04C6A:  MOVLW  06
04C6C:  MOVWF  xB4
04C6E:  MOVLW  A0
04C70:  MOVWF  xB3
04C72:  MOVFF  69F,6B5
04C76:  CLRF   xB6
04C78:  MOVLB  0
04C7A:  CALL   2E74
04C7E:  MOVLB  6
....................       if(sombreado==0) 
04C80:  MOVF   x9E,F
04C82:  BNZ   4CDE
....................          {glcd_rect(x, y, x+(tamano*5), y+(tamano*8), YES, OFF);glcd_text57(x+1, y+1, voltage, tamano, ON);} 
04C84:  MOVF   x9F,W
04C86:  MULLW  05
04C88:  MOVF   FF3,W
04C8A:  ADDWF  x9C,W
04C8C:  MOVWF  xA9
04C8E:  MOVF   x9F,W
04C90:  MULLW  08
04C92:  MOVF   FF3,W
04C94:  ADDWF  x9D,W
04C96:  MOVWF  xAA
04C98:  MOVFF  69C,6B1
04C9C:  MOVFF  69D,6B2
04CA0:  MOVFF  6A9,6B3
04CA4:  MOVWF  xB4
04CA6:  MOVLW  01
04CA8:  MOVWF  xB5
04CAA:  CLRF   xB6
04CAC:  MOVLB  0
04CAE:  CALL   3176
04CB2:  MOVLW  01
04CB4:  MOVLB  6
04CB6:  ADDWF  x9C,W
04CB8:  MOVWF  xA9
04CBA:  MOVLW  01
04CBC:  ADDWF  x9D,W
04CBE:  MOVWF  xAA
04CC0:  MOVFF  6A9,6B1
04CC4:  MOVWF  xB2
04CC6:  MOVLW  06
04CC8:  MOVWF  xB4
04CCA:  MOVLW  A0
04CCC:  MOVWF  xB3
04CCE:  MOVFF  69F,6B5
04CD2:  MOVLW  01
04CD4:  MOVWF  xB6
04CD6:  MOVLB  0
04CD8:  CALL   2E74
04CDC:  MOVLB  6
....................    } 
....................    glcd_update(); 
04CDE:  MOVLB  0
04CE0:  CALL   2C58
.................... } 
04CE4:  RETLW  00
....................  
.................... void glcd_imagen(int8 x) 
.................... { 
....................    char i,j; 
....................    signed char k;  
....................     
....................    if(x==5){ 
*
0543E:  MOVLB  6
05440:  MOVF   x98,W
05442:  SUBLW  05
05444:  BNZ   54F0
....................    for( i = 0 ; i < 64 ; i ++ ) 
05446:  CLRF   x99
05448:  MOVF   x99,W
0544A:  SUBLW  3F
0544C:  BNC   54F0
....................    {   
....................       for( j = 0 ; j < 16 ; j ++) 
0544E:  CLRF   x9A
05450:  MOVF   x9A,W
05452:  SUBLW  0F
05454:  BNC   54EC
....................       {     
....................          for(k=7;k>-1;k--) 
05456:  MOVLW  07
05458:  MOVWF  x9B
0545A:  MOVF   x9B,W
0545C:  XORLW  80
0545E:  SUBLW  7F
05460:  BC    54E8
....................          {       
....................             if( bit_test(Horno[i][j] ,7-k ))  
05462:  CLRF   x9D
05464:  MOVFF  699,69C
05468:  CLRF   x9F
0546A:  MOVLW  10
0546C:  MOVWF  x9E
0546E:  MOVLB  0
05470:  CALL   338C
05474:  MOVFF  02,69D
05478:  MOVFF  01,69C
0547C:  MOVLB  6
0547E:  MOVF   x9A,W
05480:  ADDWF  01,W
05482:  MOVWF  01
05484:  MOVLW  00
05486:  ADDWFC 02,W
05488:  MOVWF  03
0548A:  MOVF   01,W
0548C:  MOVFF  FF2,69C
05490:  BCF    FF2.6
05492:  BCF    FF2.7
05494:  MOVFF  03,FF7
05498:  MOVLB  0
0549A:  CALL   0374
0549E:  MOVLB  6
054A0:  BTFSC  x9C.6
054A2:  BSF    FF2.6
054A4:  BTFSC  x9C.7
054A6:  BSF    FF2.7
054A8:  MOVWF  x9C
054AA:  MOVLW  07
054AC:  BSF    FD8.0
054AE:  SUBFWB x9B,W
054B0:  MOVWF  x9D
054B2:  MOVFF  69C,00
054B6:  MOVF   x9D,W
054B8:  MOVWF  01
054BA:  BZ    54C4
054BC:  BCF    FD8.0
054BE:  RRCF   00,F
054C0:  DECFSZ 01,F
054C2:  BRA    54BC
054C4:  BTFSS  00.0
054C6:  BRA    54E4
....................                glcd_pixel( j*8+k,i, ON ); 
054C8:  MOVF   x9A,W
054CA:  MULLW  08
054CC:  MOVF   FF3,W
054CE:  ADDWF  x9B,W
054D0:  MOVWF  x9C
054D2:  MOVWF  xCC
054D4:  MOVFF  699,6CD
054D8:  MOVLW  01
054DA:  MOVWF  xCE
054DC:  MOVLB  0
054DE:  CALL   2DB8
054E2:  MOVLB  6
....................          }   
054E4:  DECF   x9B,F
054E6:  BRA    545A
....................       } 
054E8:  INCF   x9A,F
054EA:  BRA    5450
....................    } 
054EC:  INCF   x99,F
054EE:  BRA    5448
....................    } 
....................     
.................... } 
054F0:  MOVLB  0
054F2:  GOTO   9164 (RETURN)
....................  
....................     
.................... void Limpia(int x1,int x2,int y){ 
....................    glcd_rect(x1, y, x2, y+7, YES, OFF); 
.................... } 
....................  
.................... void displayT(float adc,int x,int y,int w) { 
....................    char voltage[9];     
....................    sprintf(voltage, "%03.1f",adc); // Converts adc to text 
*
06D7E:  MOVLW  06
06D80:  MOVLB  6
06D82:  MOVWF  x97
06D84:  MOVLW  9F
06D86:  MOVWF  x96
06D88:  MOVLW  42
06D8A:  MOVWF  FE9
06D8C:  MOVFF  69B,6AE
06D90:  MOVFF  69A,6AD
06D94:  MOVFF  699,6AC
06D98:  MOVFF  698,6AB
06D9C:  MOVLW  01
06D9E:  MOVWF  xAF
06DA0:  MOVLB  0
06DA2:  CALL   4DAA
....................    glcd_rect(x, y, x+(w*27), y+(w*7), YES, OFF); 
06DA6:  MOVLB  6
06DA8:  MOVF   x9E,W
06DAA:  MULLW  1B
06DAC:  MOVF   FF3,W
06DAE:  ADDWF  x9C,W
06DB0:  MOVWF  xA8
06DB2:  MOVF   x9E,W
06DB4:  MULLW  07
06DB6:  MOVF   FF3,W
06DB8:  ADDWF  x9D,W
06DBA:  MOVWF  xA9
06DBC:  MOVFF  69C,6B1
06DC0:  MOVFF  69D,6B2
06DC4:  MOVFF  6A8,6B3
06DC8:  MOVWF  xB4
06DCA:  MOVLW  01
06DCC:  MOVWF  xB5
06DCE:  CLRF   xB6
06DD0:  MOVLB  0
06DD2:  CALL   3176
....................    glcd_text57(x, y, voltage, w, ON); 
06DD6:  MOVFF  69C,6B1
06DDA:  MOVFF  69D,6B2
06DDE:  MOVLW  06
06DE0:  MOVLB  6
06DE2:  MOVWF  xB4
06DE4:  MOVLW  9F
06DE6:  MOVWF  xB3
06DE8:  MOVFF  69E,6B5
06DEC:  MOVLW  01
06DEE:  MOVWF  xB6
06DF0:  MOVLB  0
06DF2:  CALL   2E74
.................... } 
06DF6:  RETLW  00
....................  
.................... void displayContrasena(int digito, int x, int y, int sombreado) 
.................... { 
....................    char voltage[9]; 
....................    sprintf(voltage, "%i", digito); 
*
03DC8:  MOVLW  06
03DCA:  MOVLB  6
03DCC:  MOVWF  x97
03DCE:  MOVLW  A6
03DD0:  MOVWF  x96
03DD2:  MOVFF  6A2,6AF
03DD6:  MOVLW  1F
03DD8:  MOVWF  xB0
03DDA:  MOVLB  0
03DDC:  BRA    3CE8
....................     
....................    if(sombreado==1) 
03DDE:  MOVLB  6
03DE0:  DECFSZ xA5,W
03DE2:  BRA    3E36
....................       {glcd_rect(x, y, x+18, y+24, YES, ON);glcd_text57(x+2, y+1, voltage, 2, OFF);} 
03DE4:  MOVLW  12
03DE6:  ADDWF  xA3,W
03DE8:  MOVWF  xAF
03DEA:  MOVLW  18
03DEC:  ADDWF  xA4,W
03DEE:  MOVWF  xB0
03DF0:  MOVFF  6A3,6B1
03DF4:  MOVFF  6A4,6B2
03DF8:  MOVFF  6AF,6B3
03DFC:  MOVWF  xB4
03DFE:  MOVLW  01
03E00:  MOVWF  xB5
03E02:  MOVWF  xB6
03E04:  MOVLB  0
03E06:  CALL   3176
03E0A:  MOVLW  02
03E0C:  MOVLB  6
03E0E:  ADDWF  xA3,W
03E10:  MOVWF  xAF
03E12:  MOVLW  01
03E14:  ADDWF  xA4,W
03E16:  MOVWF  xB0
03E18:  MOVFF  6AF,6B1
03E1C:  MOVWF  xB2
03E1E:  MOVLW  06
03E20:  MOVWF  xB4
03E22:  MOVLW  A6
03E24:  MOVWF  xB3
03E26:  MOVLW  02
03E28:  MOVWF  xB5
03E2A:  CLRF   xB6
03E2C:  MOVLB  0
03E2E:  CALL   2E74
....................    else    
03E32:  BRA    3E84
03E34:  MOVLB  6
....................       {glcd_rect(x, y, x+18, y+24, NO, OFF);glcd_text57(x+2, y+1, voltage, 2, ON);} 
03E36:  MOVLW  12
03E38:  ADDWF  xA3,W
03E3A:  MOVWF  xAF
03E3C:  MOVLW  18
03E3E:  ADDWF  xA4,W
03E40:  MOVWF  xB0
03E42:  MOVFF  6A3,6B1
03E46:  MOVFF  6A4,6B2
03E4A:  MOVFF  6AF,6B3
03E4E:  MOVWF  xB4
03E50:  CLRF   xB5
03E52:  CLRF   xB6
03E54:  MOVLB  0
03E56:  CALL   3176
03E5A:  MOVLW  02
03E5C:  MOVLB  6
03E5E:  ADDWF  xA3,W
03E60:  MOVWF  xAF
03E62:  MOVLW  01
03E64:  ADDWF  xA4,W
03E66:  MOVWF  xB0
03E68:  MOVFF  6AF,6B1
03E6C:  MOVWF  xB2
03E6E:  MOVLW  06
03E70:  MOVWF  xB4
03E72:  MOVLW  A6
03E74:  MOVWF  xB3
03E76:  MOVLW  02
03E78:  MOVWF  xB5
03E7A:  MOVLW  01
03E7C:  MOVWF  xB6
03E7E:  MOVLB  0
03E80:  CALL   2E74
....................  
.................... } 
03E84:  RETLW  00
....................  
.................... void MensajeAlmacenado(){ 
....................    glcd_fillScreen(OFF); 
*
03E94:  MOVLB  6
03E96:  CLRF   xA0
03E98:  MOVLB  0
03E9A:  CALL   2BFE
....................    strcpy(Menus.Letra,"Valor"); 
03E9E:  MOVLW  06
03EA0:  MOVWF  FEA
03EA2:  MOVLW  78
03EA4:  MOVWF  FE9
03EA6:  MOVFF  FF2,6A0
03EAA:  BCF    FF2.6
03EAC:  BCF    FF2.7
03EAE:  MOVLW  00
03EB0:  CALL   07BC
03EB4:  TBLRD*-
03EB6:  TBLRD*+
03EB8:  MOVF   FF5,W
03EBA:  MOVWF  FEE
03EBC:  IORLW  00
03EBE:  BNZ   3EB6
03EC0:  MOVLB  6
03EC2:  BTFSC  xA0.6
03EC4:  BSF    FF2.6
03EC6:  BTFSC  xA0.7
03EC8:  BSF    FF2.7
....................    displayMenu(Menus.Letra,30,0,0,2); 
03ECA:  MOVLW  06
03ECC:  MOVWF  xA1
03ECE:  MOVLW  78
03ED0:  MOVWF  xA0
03ED2:  MOVLW  1E
03ED4:  MOVWF  xA2
03ED6:  CLRF   xA3
03ED8:  CLRF   xA4
03EDA:  MOVLW  02
03EDC:  MOVWF  xA5
03EDE:  MOVLB  0
03EE0:  CALL   3238
....................    strcpy(Menus.Letra," Almacenado"); 
03EE4:  MOVLW  06
03EE6:  MOVWF  FEA
03EE8:  MOVLW  78
03EEA:  MOVWF  FE9
03EEC:  MOVFF  FF2,6A0
03EF0:  BCF    FF2.6
03EF2:  BCF    FF2.7
03EF4:  MOVLW  00
03EF6:  CALL   07E6
03EFA:  TBLRD*-
03EFC:  TBLRD*+
03EFE:  MOVF   FF5,W
03F00:  MOVWF  FEE
03F02:  IORLW  00
03F04:  BNZ   3EFC
03F06:  MOVLB  6
03F08:  BTFSC  xA0.6
03F0A:  BSF    FF2.6
03F0C:  BTFSC  xA0.7
03F0E:  BSF    FF2.7
....................    displayMenu(Menus.Letra,0,30,0,2); 
03F10:  MOVLW  06
03F12:  MOVWF  xA1
03F14:  MOVLW  78
03F16:  MOVWF  xA0
03F18:  CLRF   xA2
03F1A:  MOVLW  1E
03F1C:  MOVWF  xA3
03F1E:  CLRF   xA4
03F20:  MOVLW  02
03F22:  MOVWF  xA5
03F24:  MOVLB  0
03F26:  CALL   3238
....................    glcd_update(); 
03F2A:  CALL   2C58
....................    delay_ms(2000); 
03F2E:  MOVLW  08
03F30:  MOVLB  6
03F32:  MOVWF  xA0
03F34:  MOVLW  FA
03F36:  MOVWF  xA1
03F38:  MOVLB  0
03F3A:  CALL   132E
03F3E:  MOVLB  6
03F40:  DECFSZ xA0,F
03F42:  BRA    3F34
....................    glcd_fillScreen(OFF); 
03F44:  CLRF   xA0
03F46:  MOVLB  0
03F48:  CALL   2BFE
.................... } 
03F4C:  RETLW  00
....................  
.................... void ConfiguraInterrupciones(){ 
....................    delay_ms(1000);      
*
01356:  MOVLW  04
01358:  MOVLB  6
0135A:  MOVWF  x98
0135C:  MOVLW  FA
0135E:  MOVWF  xA1
01360:  MOVLB  0
01362:  RCALL  132E
01364:  MOVLB  6
01366:  DECFSZ x98,F
01368:  BRA    135C
....................    enable_interrupts(INT_EXT_L2H); 
0136A:  BSF    FF2.4
0136C:  BSF    FF1.6
....................    setup_timer_0(RTCC_8_BIT|RTCC_DIV_256); 
0136E:  MOVLW  C7
01370:  MOVWF  FD5
....................    enable_interrupts(INT_TIMER0); 
01372:  BSF    FF2.5
....................    setup_timer_1(T1_INTERNAL|T1_DIV_BY_1); 
01374:  MOVLW  85
01376:  MOVWF  FCD
....................    enable_interrupts(INT_TIMER1); 
01378:  BSF    F9D.0
....................    setup_adc_ports(AN0); 
0137A:  MOVF   FC1,W
0137C:  ANDLW  C0
0137E:  IORLW  0E
01380:  MOVWF  FC1
....................    setup_adc(ADC_CLOCK_DIV_64 ); 
01382:  MOVF   FC0,W
01384:  ANDLW  C0
01386:  IORLW  06
01388:  MOVWF  FC0
0138A:  BSF    FC0.7
0138C:  BSF    FC2.0
....................    set_timer0(0); 
0138E:  CLRF   FD7
01390:  CLRF   FD6
....................    enable_interrupts(global); 
01392:  MOVLW  C0
01394:  IORWF  FF2,F
.................... } 
01396:  MOVLB  0
01398:  GOTO   73EE (RETURN)
....................  
.................... void MensajeBienvenida(){ 
....................    glcd_init(ON);             //Inicializa la glcd 
*
038D4:  MOVLW  01
038D6:  MOVLB  6
038D8:  MOVWF  x98
038DA:  MOVLB  0
038DC:  CALL   2D10
....................    glcd_fillScreen(OFF);      //Limpia la pantalla 
038E0:  MOVLB  6
038E2:  CLRF   xA0
038E4:  MOVLB  0
038E6:  CALL   2BFE
....................    strcpy(Menus.Letra,"JP Inglobal"); 
038EA:  MOVLW  06
038EC:  MOVWF  FEA
038EE:  MOVLW  78
038F0:  MOVWF  FE9
038F2:  MOVFF  FF2,698
038F6:  BCF    FF2.6
038F8:  BCF    FF2.7
038FA:  MOVLW  00
038FC:  CALL   0816
03900:  TBLRD*-
03902:  TBLRD*+
03904:  MOVF   FF5,W
03906:  MOVWF  FEE
03908:  IORLW  00
0390A:  BNZ   3902
0390C:  MOVLB  6
0390E:  BTFSC  x98.6
03910:  BSF    FF2.6
03912:  BTFSC  x98.7
03914:  BSF    FF2.7
....................    displayMenu(Menus.Letra,0,0,0,2);      
03916:  MOVLW  06
03918:  MOVWF  xA1
0391A:  MOVLW  78
0391C:  MOVWF  xA0
0391E:  CLRF   xA2
03920:  CLRF   xA3
03922:  CLRF   xA4
03924:  MOVLW  02
03926:  MOVWF  xA5
03928:  MOVLB  0
0392A:  RCALL  3238
....................    strcpy(Menus.Letra,"   Incubadora"); 
0392C:  MOVLW  06
0392E:  MOVWF  FEA
03930:  MOVLW  78
03932:  MOVWF  FE9
03934:  MOVFF  FF2,698
03938:  BCF    FF2.6
0393A:  BCF    FF2.7
0393C:  MOVLW  00
0393E:  CALL   0846
03942:  TBLRD*-
03944:  TBLRD*+
03946:  MOVF   FF5,W
03948:  MOVWF  FEE
0394A:  IORLW  00
0394C:  BNZ   3944
0394E:  MOVLB  6
03950:  BTFSC  x98.6
03952:  BSF    FF2.6
03954:  BTFSC  x98.7
03956:  BSF    FF2.7
....................    displayMenu(Menus.Letra,0,20,0,1);        
03958:  MOVLW  06
0395A:  MOVWF  xA1
0395C:  MOVLW  78
0395E:  MOVWF  xA0
03960:  CLRF   xA2
03962:  MOVLW  14
03964:  MOVWF  xA3
03966:  CLRF   xA4
03968:  MOVLW  01
0396A:  MOVWF  xA5
0396C:  MOVLB  0
0396E:  RCALL  3238
....................    strcpy(Menus.Letra,"     Digital  "); 
03970:  MOVLW  06
03972:  MOVWF  FEA
03974:  MOVLW  78
03976:  MOVWF  FE9
03978:  MOVFF  FF2,698
0397C:  BCF    FF2.6
0397E:  BCF    FF2.7
03980:  MOVLW  00
03982:  CALL   0878
03986:  TBLRD*-
03988:  TBLRD*+
0398A:  MOVF   FF5,W
0398C:  MOVWF  FEE
0398E:  IORLW  00
03990:  BNZ   3988
03992:  MOVLB  6
03994:  BTFSC  x98.6
03996:  BSF    FF2.6
03998:  BTFSC  x98.7
0399A:  BSF    FF2.7
....................    displayMenu(Menus.Letra,0,30,0,1); 
0399C:  MOVLW  06
0399E:  MOVWF  xA1
039A0:  MOVLW  78
039A2:  MOVWF  xA0
039A4:  CLRF   xA2
039A6:  MOVLW  1E
039A8:  MOVWF  xA3
039AA:  CLRF   xA4
039AC:  MOVLW  01
039AE:  MOVWF  xA5
039B0:  MOVLB  0
039B2:  RCALL  3238
....................    strcpy(Menus.Letra,"   105 Lts"); 
039B4:  MOVLW  06
039B6:  MOVWF  FEA
039B8:  MOVLW  78
039BA:  MOVWF  FE9
039BC:  MOVFF  FF2,698
039C0:  BCF    FF2.6
039C2:  BCF    FF2.7
039C4:  MOVLW  00
039C6:  CALL   08AC
039CA:  TBLRD*-
039CC:  TBLRD*+
039CE:  MOVF   FF5,W
039D0:  MOVWF  FEE
039D2:  IORLW  00
039D4:  BNZ   39CC
039D6:  MOVLB  6
039D8:  BTFSC  x98.6
039DA:  BSF    FF2.6
039DC:  BTFSC  x98.7
039DE:  BSF    FF2.7
....................    displayMenu(Menus.Letra,0,45,0,2); 
039E0:  MOVLW  06
039E2:  MOVWF  xA1
039E4:  MOVLW  78
039E6:  MOVWF  xA0
039E8:  CLRF   xA2
039EA:  MOVLW  2D
039EC:  MOVWF  xA3
039EE:  CLRF   xA4
039F0:  MOVLW  02
039F2:  MOVWF  xA5
039F4:  MOVLB  0
039F6:  RCALL  3238
....................    delay_ms(1000); 
039F8:  MOVLW  04
039FA:  MOVLB  6
039FC:  MOVWF  x98
039FE:  MOVLW  FA
03A00:  MOVWF  xA1
03A02:  MOVLB  0
03A04:  CALL   132E
03A08:  MOVLB  6
03A0A:  DECFSZ x98,F
03A0C:  BRA    39FE
....................    glcd_fillScreen(OFF);      //Limpia la pantalla 
03A0E:  CLRF   xA0
03A10:  MOVLB  0
03A12:  CALL   2BFE
....................     
....................    for(i=0;i<80;i++){ 
03A16:  MOVLB  5
03A18:  CLRF   xB8
03A1A:  MOVF   xB8,W
03A1C:  SUBLW  4F
03A1E:  BNC   3A3E
....................       Temperatura=Leer_Sensor(MediaMovil); 
03A20:  MOVFF  5A5,698
03A24:  MOVLB  0
03A26:  RCALL  34A4
03A28:  MOVFF  03,648
03A2C:  MOVFF  02,647
03A30:  MOVFF  01,646
03A34:  MOVFF  00,645
....................    } 
03A38:  MOVLB  5
03A3A:  INCF   xB8,F
03A3C:  BRA    3A1A
.................... } 
03A3E:  MOVLB  0
03A40:  GOTO   73FA (RETURN)
....................  
.................... void LeeEEPROM(){ 
....................    Testerilizacionp[0]=read_eeprom(0); 
*
017A8:  MOVFF  FF2,698
017AC:  BCF    FF2.6
017AE:  BCF    FF2.7
017B0:  CLRF   FAA
017B2:  CLRF   FA9
017B4:  BCF    FA6.6
017B6:  BCF    FA6.7
017B8:  BSF    FA6.0
017BA:  MOVF   FA8,W
017BC:  MOVLB  6
017BE:  BTFSC  x98.6
017C0:  BSF    FF2.6
017C2:  BTFSC  x98.7
017C4:  BSF    FF2.7
017C6:  MOVWF  x01
....................    delay_ms(20);    
017C8:  MOVLW  14
017CA:  MOVWF  xA1
017CC:  MOVLB  0
017CE:  RCALL  132E
....................    Testerilizacionp[1]=read_eeprom(1); 
017D0:  MOVFF  FF2,698
017D4:  BCF    FF2.6
017D6:  BCF    FF2.7
017D8:  CLRF   FAA
017DA:  MOVLW  01
017DC:  MOVWF  FA9
017DE:  BCF    FA6.6
017E0:  BCF    FA6.7
017E2:  BSF    FA6.0
017E4:  MOVF   FA8,W
017E6:  MOVLB  6
017E8:  BTFSC  x98.6
017EA:  BSF    FF2.6
017EC:  BTFSC  x98.7
017EE:  BSF    FF2.7
017F0:  MOVWF  x02
....................    delay_ms(20);    
017F2:  MOVLW  14
017F4:  MOVWF  xA1
017F6:  MOVLB  0
017F8:  RCALL  132E
....................    Testerilizacionp[2]=read_eeprom(2); 
017FA:  MOVFF  FF2,698
017FE:  BCF    FF2.6
01800:  BCF    FF2.7
01802:  CLRF   FAA
01804:  MOVLW  02
01806:  MOVWF  FA9
01808:  BCF    FA6.6
0180A:  BCF    FA6.7
0180C:  BSF    FA6.0
0180E:  MOVF   FA8,W
01810:  MOVLB  6
01812:  BTFSC  x98.6
01814:  BSF    FF2.6
01816:  BTFSC  x98.7
01818:  BSF    FF2.7
0181A:  MOVWF  x03
....................    delay_ms(20); 
0181C:  MOVLW  14
0181E:  MOVWF  xA1
01820:  MOVLB  0
01822:  RCALL  132E
....................    Testerilizacionp[3]=read_eeprom(3); 
01824:  MOVFF  FF2,698
01828:  BCF    FF2.6
0182A:  BCF    FF2.7
0182C:  CLRF   FAA
0182E:  MOVLW  03
01830:  MOVWF  FA9
01832:  BCF    FA6.6
01834:  BCF    FA6.7
01836:  BSF    FA6.0
01838:  MOVF   FA8,W
0183A:  MOVLB  6
0183C:  BTFSC  x98.6
0183E:  BSF    FF2.6
01840:  BTFSC  x98.7
01842:  BSF    FF2.7
01844:  MOVWF  x04
....................    delay_ms(20);    
01846:  MOVLW  14
01848:  MOVWF  xA1
0184A:  MOVLB  0
0184C:  RCALL  132E
....................    Password[0]=read_eeprom(4); 
0184E:  MOVFF  FF2,698
01852:  BCF    FF2.6
01854:  BCF    FF2.7
01856:  CLRF   FAA
01858:  MOVLW  04
0185A:  MOVWF  FA9
0185C:  BCF    FA6.6
0185E:  BCF    FA6.7
01860:  BSF    FA6.0
01862:  MOVF   FA8,W
01864:  MOVLB  6
01866:  BTFSC  x98.6
01868:  BSF    FF2.6
0186A:  BTFSC  x98.7
0186C:  BSF    FF2.7
0186E:  MOVWF  x09
....................    delay_ms(20);    
01870:  MOVLW  14
01872:  MOVWF  xA1
01874:  MOVLB  0
01876:  RCALL  132E
....................    Password[1]=read_eeprom(5); 
01878:  MOVFF  FF2,698
0187C:  BCF    FF2.6
0187E:  BCF    FF2.7
01880:  CLRF   FAA
01882:  MOVLW  05
01884:  MOVWF  FA9
01886:  BCF    FA6.6
01888:  BCF    FA6.7
0188A:  BSF    FA6.0
0188C:  MOVF   FA8,W
0188E:  MOVLB  6
01890:  BTFSC  x98.6
01892:  BSF    FF2.6
01894:  BTFSC  x98.7
01896:  BSF    FF2.7
01898:  MOVWF  x0A
....................    delay_ms(20);    
0189A:  MOVLW  14
0189C:  MOVWF  xA1
0189E:  MOVLB  0
018A0:  RCALL  132E
....................    Password[2]=read_eeprom(6); 
018A2:  MOVFF  FF2,698
018A6:  BCF    FF2.6
018A8:  BCF    FF2.7
018AA:  CLRF   FAA
018AC:  MOVLW  06
018AE:  MOVWF  FA9
018B0:  BCF    FA6.6
018B2:  BCF    FA6.7
018B4:  BSF    FA6.0
018B6:  MOVF   FA8,W
018B8:  MOVLB  6
018BA:  BTFSC  x98.6
018BC:  BSF    FF2.6
018BE:  BTFSC  x98.7
018C0:  BSF    FF2.7
018C2:  MOVWF  x0B
....................    delay_ms(20);    
018C4:  MOVLW  14
018C6:  MOVWF  xA1
018C8:  MOVLB  0
018CA:  RCALL  132E
....................    Password[3]=read_eeprom(7); 
018CC:  MOVFF  FF2,698
018D0:  BCF    FF2.6
018D2:  BCF    FF2.7
018D4:  CLRF   FAA
018D6:  MOVLW  07
018D8:  MOVWF  FA9
018DA:  BCF    FA6.6
018DC:  BCF    FA6.7
018DE:  BSF    FA6.0
018E0:  MOVF   FA8,W
018E2:  MOVLB  6
018E4:  BTFSC  x98.6
018E6:  BSF    FF2.6
018E8:  BTFSC  x98.7
018EA:  BSF    FF2.7
018EC:  MOVWF  x0C
....................    delay_ms(20);    
018EE:  MOVLW  14
018F0:  MOVWF  xA1
018F2:  MOVLB  0
018F4:  RCALL  132E
....................  
....................    entero=read_eeprom(8); 
018F6:  MOVFF  FF2,698
018FA:  BCF    FF2.6
018FC:  BCF    FF2.7
018FE:  CLRF   FAA
01900:  MOVLW  08
01902:  MOVWF  FA9
01904:  BCF    FA6.6
01906:  BCF    FA6.7
01908:  BSF    FA6.0
0190A:  MOVF   FA8,W
0190C:  MOVLB  6
0190E:  BTFSC  x98.6
01910:  BSF    FF2.6
01912:  BTFSC  x98.7
01914:  BSF    FF2.7
01916:  MOVLB  5
01918:  MOVWF  xC1
....................    delay_ms(20);    
0191A:  MOVLW  14
0191C:  MOVLB  6
0191E:  MOVWF  xA1
01920:  MOVLB  0
01922:  RCALL  132E
....................    Temporal=read_eeprom(9); 
01924:  MOVFF  FF2,698
01928:  BCF    FF2.6
0192A:  BCF    FF2.7
0192C:  CLRF   FAA
0192E:  MOVLW  09
01930:  MOVWF  FA9
01932:  BCF    FA6.6
01934:  BCF    FA6.7
01936:  BSF    FA6.0
01938:  MOVF   FA8,W
0193A:  MOVLB  6
0193C:  BTFSC  x98.6
0193E:  BSF    FF2.6
01940:  BTFSC  x98.7
01942:  BSF    FF2.7
01944:  CLRF   xA5
01946:  MOVWF  xA4
01948:  MOVLB  0
0194A:  RCALL  139C
0194C:  MOVFF  03,660
01950:  MOVFF  02,65F
01954:  MOVFF  01,65E
01958:  MOVFF  00,65D
....................    Temporal=Temporal/10.0; 
0195C:  MOVFF  660,69C
01960:  MOVFF  65F,69B
01964:  MOVFF  65E,69A
01968:  MOVFF  65D,699
0196C:  MOVLB  6
0196E:  CLRF   xA0
01970:  CLRF   x9F
01972:  MOVLW  20
01974:  MOVWF  x9E
01976:  MOVLW  82
01978:  MOVWF  x9D
0197A:  MOVLB  0
0197C:  RCALL  13D2
0197E:  MOVFF  03,660
01982:  MOVFF  02,65F
01986:  MOVFF  01,65E
0198A:  MOVFF  00,65D
....................    Temperatura1=entero+Temporal; 
0198E:  MOVLB  6
01990:  CLRF   xA5
01992:  MOVFF  5C1,6A4
01996:  MOVLB  0
01998:  RCALL  139C
0199A:  BCF    FD8.1
0199C:  MOVFF  03,6A7
019A0:  MOVFF  02,6A6
019A4:  MOVFF  01,6A5
019A8:  MOVFF  00,6A4
019AC:  MOVFF  660,6AB
019B0:  MOVFF  65F,6AA
019B4:  MOVFF  65E,6A9
019B8:  MOVFF  65D,6A8
019BC:  RCALL  1530
019BE:  MOVFF  03,654
019C2:  MOVFF  02,653
019C6:  MOVFF  01,652
019CA:  MOVFF  00,651
....................    delay_ms(20);    
019CE:  MOVLW  14
019D0:  MOVLB  6
019D2:  MOVWF  xA1
019D4:  MOVLB  0
019D6:  RCALL  132E
....................     
....................    entero=read_eeprom(10); 
019D8:  MOVFF  FF2,698
019DC:  BCF    FF2.6
019DE:  BCF    FF2.7
019E0:  CLRF   FAA
019E2:  MOVLW  0A
019E4:  MOVWF  FA9
019E6:  BCF    FA6.6
019E8:  BCF    FA6.7
019EA:  BSF    FA6.0
019EC:  MOVF   FA8,W
019EE:  MOVLB  6
019F0:  BTFSC  x98.6
019F2:  BSF    FF2.6
019F4:  BTFSC  x98.7
019F6:  BSF    FF2.7
019F8:  MOVLB  5
019FA:  MOVWF  xC1
....................    delay_ms(20);    
019FC:  MOVLW  14
019FE:  MOVLB  6
01A00:  MOVWF  xA1
01A02:  MOVLB  0
01A04:  RCALL  132E
....................    Temporal=read_eeprom(11); 
01A06:  MOVFF  FF2,698
01A0A:  BCF    FF2.6
01A0C:  BCF    FF2.7
01A0E:  CLRF   FAA
01A10:  MOVLW  0B
01A12:  MOVWF  FA9
01A14:  BCF    FA6.6
01A16:  BCF    FA6.7
01A18:  BSF    FA6.0
01A1A:  MOVF   FA8,W
01A1C:  MOVLB  6
01A1E:  BTFSC  x98.6
01A20:  BSF    FF2.6
01A22:  BTFSC  x98.7
01A24:  BSF    FF2.7
01A26:  CLRF   xA5
01A28:  MOVWF  xA4
01A2A:  MOVLB  0
01A2C:  RCALL  139C
01A2E:  MOVFF  03,660
01A32:  MOVFF  02,65F
01A36:  MOVFF  01,65E
01A3A:  MOVFF  00,65D
....................    Temporal=Temporal/10.0; 
01A3E:  MOVFF  660,69C
01A42:  MOVFF  65F,69B
01A46:  MOVFF  65E,69A
01A4A:  MOVFF  65D,699
01A4E:  MOVLB  6
01A50:  CLRF   xA0
01A52:  CLRF   x9F
01A54:  MOVLW  20
01A56:  MOVWF  x9E
01A58:  MOVLW  82
01A5A:  MOVWF  x9D
01A5C:  MOVLB  0
01A5E:  RCALL  13D2
01A60:  MOVFF  03,660
01A64:  MOVFF  02,65F
01A68:  MOVFF  01,65E
01A6C:  MOVFF  00,65D
....................    Temperatura2=entero+Temporal; 
01A70:  MOVLB  6
01A72:  CLRF   xA5
01A74:  MOVFF  5C1,6A4
01A78:  MOVLB  0
01A7A:  RCALL  139C
01A7C:  BCF    FD8.1
01A7E:  MOVFF  03,6A7
01A82:  MOVFF  02,6A6
01A86:  MOVFF  01,6A5
01A8A:  MOVFF  00,6A4
01A8E:  MOVFF  660,6AB
01A92:  MOVFF  65F,6AA
01A96:  MOVFF  65E,6A9
01A9A:  MOVFF  65D,6A8
01A9E:  RCALL  1530
01AA0:  MOVFF  03,658
01AA4:  MOVFF  02,657
01AA8:  MOVFF  01,656
01AAC:  MOVFF  00,655
....................    delay_ms(20);    
01AB0:  MOVLW  14
01AB2:  MOVLB  6
01AB4:  MOVWF  xA1
01AB6:  MOVLB  0
01AB8:  RCALL  132E
....................     
....................    entero=read_eeprom(12); 
01ABA:  MOVFF  FF2,698
01ABE:  BCF    FF2.6
01AC0:  BCF    FF2.7
01AC2:  CLRF   FAA
01AC4:  MOVLW  0C
01AC6:  MOVWF  FA9
01AC8:  BCF    FA6.6
01ACA:  BCF    FA6.7
01ACC:  BSF    FA6.0
01ACE:  MOVF   FA8,W
01AD0:  MOVLB  6
01AD2:  BTFSC  x98.6
01AD4:  BSF    FF2.6
01AD6:  BTFSC  x98.7
01AD8:  BSF    FF2.7
01ADA:  MOVLB  5
01ADC:  MOVWF  xC1
....................    delay_ms(20);    
01ADE:  MOVLW  14
01AE0:  MOVLB  6
01AE2:  MOVWF  xA1
01AE4:  MOVLB  0
01AE6:  RCALL  132E
....................    Temporal=read_eeprom(13); 
01AE8:  MOVFF  FF2,698
01AEC:  BCF    FF2.6
01AEE:  BCF    FF2.7
01AF0:  CLRF   FAA
01AF2:  MOVLW  0D
01AF4:  MOVWF  FA9
01AF6:  BCF    FA6.6
01AF8:  BCF    FA6.7
01AFA:  BSF    FA6.0
01AFC:  MOVF   FA8,W
01AFE:  MOVLB  6
01B00:  BTFSC  x98.6
01B02:  BSF    FF2.6
01B04:  BTFSC  x98.7
01B06:  BSF    FF2.7
01B08:  CLRF   xA5
01B0A:  MOVWF  xA4
01B0C:  MOVLB  0
01B0E:  RCALL  139C
01B10:  MOVFF  03,660
01B14:  MOVFF  02,65F
01B18:  MOVFF  01,65E
01B1C:  MOVFF  00,65D
....................    Temporal=Temporal/10.0; 
01B20:  MOVFF  660,69C
01B24:  MOVFF  65F,69B
01B28:  MOVFF  65E,69A
01B2C:  MOVFF  65D,699
01B30:  MOVLB  6
01B32:  CLRF   xA0
01B34:  CLRF   x9F
01B36:  MOVLW  20
01B38:  MOVWF  x9E
01B3A:  MOVLW  82
01B3C:  MOVWF  x9D
01B3E:  MOVLB  0
01B40:  RCALL  13D2
01B42:  MOVFF  03,660
01B46:  MOVFF  02,65F
01B4A:  MOVFF  01,65E
01B4E:  MOVFF  00,65D
....................    Temperatura3=entero+Temporal; 
01B52:  MOVLB  6
01B54:  CLRF   xA5
01B56:  MOVFF  5C1,6A4
01B5A:  MOVLB  0
01B5C:  RCALL  139C
01B5E:  BCF    FD8.1
01B60:  MOVFF  03,6A7
01B64:  MOVFF  02,6A6
01B68:  MOVFF  01,6A5
01B6C:  MOVFF  00,6A4
01B70:  MOVFF  660,6AB
01B74:  MOVFF  65F,6AA
01B78:  MOVFF  65E,6A9
01B7C:  MOVFF  65D,6A8
01B80:  RCALL  1530
01B82:  MOVFF  03,65C
01B86:  MOVFF  02,65B
01B8A:  MOVFF  01,65A
01B8E:  MOVFF  00,659
....................    delay_ms(20);    
01B92:  MOVLW  14
01B94:  MOVLB  6
01B96:  MOVWF  xA1
01B98:  MOVLB  0
01B9A:  CALL   132E
....................     
....................     
....................    Ganancia=read_eeprom(14); 
01B9E:  MOVFF  FF2,698
01BA2:  BCF    FF2.6
01BA4:  BCF    FF2.7
01BA6:  CLRF   FAA
01BA8:  MOVLW  0E
01BAA:  MOVWF  FA9
01BAC:  BCF    FA6.6
01BAE:  BCF    FA6.7
01BB0:  BSF    FA6.0
01BB2:  MOVF   FA8,W
01BB4:  MOVLB  6
01BB6:  BTFSC  x98.6
01BB8:  BSF    FF2.6
01BBA:  BTFSC  x98.7
01BBC:  BSF    FF2.7
01BBE:  CLRF   xA5
01BC0:  MOVWF  xA4
01BC2:  MOVLB  0
01BC4:  CALL   139C
01BC8:  MOVFF  03,634
01BCC:  MOVFF  02,633
01BD0:  MOVFF  01,632
01BD4:  MOVFF  00,631
....................    delay_ms(10); 
01BD8:  MOVLW  0A
01BDA:  MOVLB  6
01BDC:  MOVWF  xA1
01BDE:  MOVLB  0
01BE0:  CALL   132E
....................    Integral=read_eeprom(15); 
01BE4:  MOVFF  FF2,698
01BE8:  BCF    FF2.6
01BEA:  BCF    FF2.7
01BEC:  CLRF   FAA
01BEE:  MOVLW  0F
01BF0:  MOVWF  FA9
01BF2:  BCF    FA6.6
01BF4:  BCF    FA6.7
01BF6:  BSF    FA6.0
01BF8:  MOVF   FA8,W
01BFA:  MOVLB  6
01BFC:  BTFSC  x98.6
01BFE:  BSF    FF2.6
01C00:  BTFSC  x98.7
01C02:  BSF    FF2.7
01C04:  CLRF   xA5
01C06:  MOVWF  xA4
01C08:  MOVLB  0
01C0A:  CALL   139C
01C0E:  MOVFF  03,5F4
01C12:  MOVFF  02,5F3
01C16:  MOVFF  01,5F2
01C1A:  MOVFF  00,5F1
....................    delay_ms(10); 
01C1E:  MOVLW  0A
01C20:  MOVLB  6
01C22:  MOVWF  xA1
01C24:  MOVLB  0
01C26:  CALL   132E
....................    Derivativo=read_eeprom(16); 
01C2A:  MOVFF  FF2,698
01C2E:  BCF    FF2.6
01C30:  BCF    FF2.7
01C32:  CLRF   FAA
01C34:  MOVLW  10
01C36:  MOVWF  FA9
01C38:  BCF    FA6.6
01C3A:  BCF    FA6.7
01C3C:  BSF    FA6.0
01C3E:  MOVF   FA8,W
01C40:  MOVLB  6
01C42:  BTFSC  x98.6
01C44:  BSF    FF2.6
01C46:  BTFSC  x98.7
01C48:  BSF    FF2.7
01C4A:  CLRF   xA5
01C4C:  MOVWF  xA4
01C4E:  MOVLB  0
01C50:  CALL   139C
01C54:  MOVFF  03,5F8
01C58:  MOVFF  02,5F7
01C5C:  MOVFF  01,5F6
01C60:  MOVFF  00,5F5
....................    delay_ms(10); 
01C64:  MOVLW  0A
01C66:  MOVLB  6
01C68:  MOVWF  xA1
01C6A:  MOVLB  0
01C6C:  CALL   132E
....................    Tciclo=read_eeprom(17); 
01C70:  MOVFF  FF2,698
01C74:  BCF    FF2.6
01C76:  BCF    FF2.7
01C78:  CLRF   FAA
01C7A:  MOVLW  11
01C7C:  MOVWF  FA9
01C7E:  BCF    FA6.6
01C80:  BCF    FA6.7
01C82:  BSF    FA6.0
01C84:  MOVF   FA8,W
01C86:  MOVLB  6
01C88:  BTFSC  x98.6
01C8A:  BSF    FF2.6
01C8C:  BTFSC  x98.7
01C8E:  BSF    FF2.7
01C90:  CLRF   xA5
01C92:  MOVWF  xA4
01C94:  MOVLB  0
01C96:  CALL   139C
01C9A:  MOVFF  03,61C
01C9E:  MOVFF  02,61B
01CA2:  MOVFF  01,61A
01CA6:  MOVFF  00,619
....................    delay_ms(10); 
01CAA:  MOVLW  0A
01CAC:  MOVLB  6
01CAE:  MOVWF  xA1
01CB0:  MOVLB  0
01CB2:  CALL   132E
....................    Ajuste=read_eeprom(18); 
01CB6:  MOVFF  FF2,698
01CBA:  BCF    FF2.6
01CBC:  BCF    FF2.7
01CBE:  CLRF   FAA
01CC0:  MOVLW  12
01CC2:  MOVWF  FA9
01CC4:  BCF    FA6.6
01CC6:  BCF    FA6.7
01CC8:  BSF    FA6.0
01CCA:  MOVF   FA8,W
01CCC:  MOVLB  6
01CCE:  BTFSC  x98.6
01CD0:  BSF    FF2.6
01CD2:  BTFSC  x98.7
01CD4:  BSF    FF2.7
01CD6:  MOVLB  5
01CD8:  MOVWF  xA3
....................    delay_ms(10); 
01CDA:  MOVLW  0A
01CDC:  MOVLB  6
01CDE:  MOVWF  xA1
01CE0:  MOVLB  0
01CE2:  CALL   132E
....................    Ajusten=read_eeprom(19); 
01CE6:  MOVFF  FF2,698
01CEA:  BCF    FF2.6
01CEC:  BCF    FF2.7
01CEE:  CLRF   FAA
01CF0:  MOVLW  13
01CF2:  MOVWF  FA9
01CF4:  BCF    FA6.6
01CF6:  BCF    FA6.7
01CF8:  BSF    FA6.0
01CFA:  MOVF   FA8,W
01CFC:  MOVLB  6
01CFE:  BTFSC  x98.6
01D00:  BSF    FF2.6
01D02:  BTFSC  x98.7
01D04:  BSF    FF2.7
01D06:  MOVLB  5
01D08:  MOVWF  xA4
....................    delay_ms(10); 
01D0A:  MOVLW  0A
01D0C:  MOVLB  6
01D0E:  MOVWF  xA1
01D10:  MOVLB  0
01D12:  CALL   132E
....................    //Desvio=read_eeprom(23); 
....................    MediaMovil=read_eeprom(20); 
01D16:  MOVFF  FF2,698
01D1A:  BCF    FF2.6
01D1C:  BCF    FF2.7
01D1E:  CLRF   FAA
01D20:  MOVLW  14
01D22:  MOVWF  FA9
01D24:  BCF    FA6.6
01D26:  BCF    FA6.7
01D28:  BSF    FA6.0
01D2A:  MOVF   FA8,W
01D2C:  MOVLB  6
01D2E:  BTFSC  x98.6
01D30:  BSF    FF2.6
01D32:  BTFSC  x98.7
01D34:  BSF    FF2.7
01D36:  MOVLB  5
01D38:  MOVWF  xA5
....................    delay_ms(10);  
01D3A:  MOVLW  0A
01D3C:  MOVLB  6
01D3E:  MOVWF  xA1
01D40:  MOVLB  0
01D42:  CALL   132E
....................     
....................    Temporal=read_eeprom(22); 
01D46:  MOVFF  FF2,698
01D4A:  BCF    FF2.6
01D4C:  BCF    FF2.7
01D4E:  CLRF   FAA
01D50:  MOVLW  16
01D52:  MOVWF  FA9
01D54:  BCF    FA6.6
01D56:  BCF    FA6.7
01D58:  BSF    FA6.0
01D5A:  MOVF   FA8,W
01D5C:  MOVLB  6
01D5E:  BTFSC  x98.6
01D60:  BSF    FF2.6
01D62:  BTFSC  x98.7
01D64:  BSF    FF2.7
01D66:  CLRF   xA5
01D68:  MOVWF  xA4
01D6A:  MOVLB  0
01D6C:  CALL   139C
01D70:  MOVFF  03,660
01D74:  MOVFF  02,65F
01D78:  MOVFF  01,65E
01D7C:  MOVFF  00,65D
....................    Temporal=Temporal/10.0; 
01D80:  MOVFF  660,69C
01D84:  MOVFF  65F,69B
01D88:  MOVFF  65E,69A
01D8C:  MOVFF  65D,699
01D90:  MOVLB  6
01D92:  CLRF   xA0
01D94:  CLRF   x9F
01D96:  MOVLW  20
01D98:  MOVWF  x9E
01D9A:  MOVLW  82
01D9C:  MOVWF  x9D
01D9E:  MOVLB  0
01DA0:  CALL   13D2
01DA4:  MOVFF  03,660
01DA8:  MOVFF  02,65F
01DAC:  MOVFF  01,65E
01DB0:  MOVFF  00,65D
....................    delay_ms(10); 
01DB4:  MOVLW  0A
01DB6:  MOVLB  6
01DB8:  MOVWF  xA1
01DBA:  MOVLB  0
01DBC:  CALL   132E
....................    Gain=read_eeprom(21)+Temporal; 
01DC0:  MOVFF  FF2,698
01DC4:  BCF    FF2.6
01DC6:  BCF    FF2.7
01DC8:  CLRF   FAA
01DCA:  MOVLW  15
01DCC:  MOVWF  FA9
01DCE:  BCF    FA6.6
01DD0:  BCF    FA6.7
01DD2:  BSF    FA6.0
01DD4:  MOVF   FA8,W
01DD6:  MOVLB  6
01DD8:  BTFSC  x98.6
01DDA:  BSF    FF2.6
01DDC:  BTFSC  x98.7
01DDE:  BSF    FF2.7
01DE0:  CLRF   xA5
01DE2:  MOVWF  xA4
01DE4:  MOVLB  0
01DE6:  CALL   139C
01DEA:  BCF    FD8.1
01DEC:  MOVFF  03,6A7
01DF0:  MOVFF  02,6A6
01DF4:  MOVFF  01,6A5
01DF8:  MOVFF  00,6A4
01DFC:  MOVFF  660,6AB
01E00:  MOVFF  65F,6AA
01E04:  MOVFF  65E,6A9
01E08:  MOVFF  65D,6A8
01E0C:  CALL   1530
01E10:  MOVFF  03,5EC
01E14:  MOVFF  02,5EB
01E18:  MOVFF  01,5EA
01E1C:  MOVFF  00,5E9
....................    delay_ms(10); 
01E20:  MOVLW  0A
01E22:  MOVLB  6
01E24:  MOVWF  xA1
01E26:  MOVLB  0
01E28:  CALL   132E
....................    R1=make16(read_eeprom(24),read_eeprom(23)); 
01E2C:  MOVFF  FF2,698
01E30:  BCF    FF2.6
01E32:  BCF    FF2.7
01E34:  CLRF   FAA
01E36:  MOVLW  18
01E38:  MOVWF  FA9
01E3A:  BCF    FA6.6
01E3C:  BCF    FA6.7
01E3E:  BSF    FA6.0
01E40:  MOVF   FA8,W
01E42:  MOVLB  6
01E44:  BTFSC  x98.6
01E46:  BSF    FF2.6
01E48:  BTFSC  x98.7
01E4A:  BSF    FF2.7
01E4C:  MOVWF  x99
01E4E:  MOVFF  FF2,69A
01E52:  BCF    FF2.6
01E54:  BCF    FF2.7
01E56:  CLRF   FAA
01E58:  MOVLW  17
01E5A:  MOVWF  FA9
01E5C:  BCF    FA6.6
01E5E:  BCF    FA6.7
01E60:  BSF    FA6.0
01E62:  MOVF   FA8,W
01E64:  BTFSC  x9A.6
01E66:  BSF    FF2.6
01E68:  BTFSC  x9A.7
01E6A:  BSF    FF2.7
01E6C:  MOVWF  x9B
01E6E:  MOVFF  699,03
01E72:  MOVF   x9B,W
01E74:  MOVWF  xA4
01E76:  MOVFF  03,6A5
01E7A:  MOVLB  0
01E7C:  CALL   139C
01E80:  MOVFF  03,614
01E84:  MOVFF  02,613
01E88:  MOVFF  01,612
01E8C:  MOVFF  00,611
....................    delay_ms(10); 
01E90:  MOVLW  0A
01E92:  MOVLB  6
01E94:  MOVWF  xA1
01E96:  MOVLB  0
01E98:  CALL   132E
....................    Temporal=read_eeprom(26); 
01E9C:  MOVFF  FF2,698
01EA0:  BCF    FF2.6
01EA2:  BCF    FF2.7
01EA4:  CLRF   FAA
01EA6:  MOVLW  1A
01EA8:  MOVWF  FA9
01EAA:  BCF    FA6.6
01EAC:  BCF    FA6.7
01EAE:  BSF    FA6.0
01EB0:  MOVF   FA8,W
01EB2:  MOVLB  6
01EB4:  BTFSC  x98.6
01EB6:  BSF    FF2.6
01EB8:  BTFSC  x98.7
01EBA:  BSF    FF2.7
01EBC:  CLRF   xA5
01EBE:  MOVWF  xA4
01EC0:  MOVLB  0
01EC2:  CALL   139C
01EC6:  MOVFF  03,660
01ECA:  MOVFF  02,65F
01ECE:  MOVFF  01,65E
01ED2:  MOVFF  00,65D
....................    Temporal=Temporal/10.0; 
01ED6:  MOVFF  660,69C
01EDA:  MOVFF  65F,69B
01EDE:  MOVFF  65E,69A
01EE2:  MOVFF  65D,699
01EE6:  MOVLB  6
01EE8:  CLRF   xA0
01EEA:  CLRF   x9F
01EEC:  MOVLW  20
01EEE:  MOVWF  x9E
01EF0:  MOVLW  82
01EF2:  MOVWF  x9D
01EF4:  MOVLB  0
01EF6:  CALL   13D2
01EFA:  MOVFF  03,660
01EFE:  MOVFF  02,65F
01F02:  MOVFF  01,65E
01F06:  MOVFF  00,65D
....................    delay_ms(10); 
01F0A:  MOVLW  0A
01F0C:  MOVLB  6
01F0E:  MOVWF  xA1
01F10:  MOVLB  0
01F12:  CALL   132E
....................    RPT100=read_eeprom(25)+Temporal; 
01F16:  MOVFF  FF2,698
01F1A:  BCF    FF2.6
01F1C:  BCF    FF2.7
01F1E:  CLRF   FAA
01F20:  MOVLW  19
01F22:  MOVWF  FA9
01F24:  BCF    FA6.6
01F26:  BCF    FA6.7
01F28:  BSF    FA6.0
01F2A:  MOVF   FA8,W
01F2C:  MOVLB  6
01F2E:  BTFSC  x98.6
01F30:  BSF    FF2.6
01F32:  BTFSC  x98.7
01F34:  BSF    FF2.7
01F36:  CLRF   xA5
01F38:  MOVWF  xA4
01F3A:  MOVLB  0
01F3C:  CALL   139C
01F40:  BCF    FD8.1
01F42:  MOVFF  03,6A7
01F46:  MOVFF  02,6A6
01F4A:  MOVFF  01,6A5
01F4E:  MOVFF  00,6A4
01F52:  MOVFF  660,6AB
01F56:  MOVFF  65F,6AA
01F5A:  MOVFF  65E,6A9
01F5E:  MOVFF  65D,6A8
01F62:  CALL   1530
01F66:  MOVFF  03,5F0
01F6A:  MOVFF  02,5EF
01F6E:  MOVFF  01,5EE
01F72:  MOVFF  00,5ED
....................    delay_ms(10); 
01F76:  MOVLW  0A
01F78:  MOVLB  6
01F7A:  MOVWF  xA1
01F7C:  MOVLB  0
01F7E:  CALL   132E
....................    Source=read_eeprom(27); 
01F82:  MOVFF  FF2,698
01F86:  BCF    FF2.6
01F88:  BCF    FF2.7
01F8A:  CLRF   FAA
01F8C:  MOVLW  1B
01F8E:  MOVWF  FA9
01F90:  BCF    FA6.6
01F92:  BCF    FA6.7
01F94:  BSF    FA6.0
01F96:  MOVF   FA8,W
01F98:  MOVLB  6
01F9A:  BTFSC  x98.6
01F9C:  BSF    FF2.6
01F9E:  BTFSC  x98.7
01FA0:  BSF    FF2.7
01FA2:  MOVLB  5
01FA4:  MOVWF  xB2
....................    delay_ms(10); 
01FA6:  MOVLW  0A
01FA8:  MOVLB  6
01FAA:  MOVWF  xA1
01FAC:  MOVLB  0
01FAE:  CALL   132E
....................    Vel1=read_eeprom(28); 
01FB2:  MOVFF  FF2,698
01FB6:  BCF    FF2.6
01FB8:  BCF    FF2.7
01FBA:  CLRF   FAA
01FBC:  MOVLW  1C
01FBE:  MOVWF  FA9
01FC0:  BCF    FA6.6
01FC2:  BCF    FA6.7
01FC4:  BSF    FA6.0
01FC6:  MOVF   FA8,W
01FC8:  MOVLB  6
01FCA:  BTFSC  x98.6
01FCC:  BSF    FF2.6
01FCE:  BTFSC  x98.7
01FD0:  BSF    FF2.7
01FD2:  MOVLB  5
01FD4:  MOVWF  xB4
....................    delay_ms(10); 
01FD6:  MOVLW  0A
01FD8:  MOVLB  6
01FDA:  MOVWF  xA1
01FDC:  MOVLB  0
01FDE:  CALL   132E
....................    controlT=read_eeprom(29); 
01FE2:  MOVFF  FF2,698
01FE6:  BCF    FF2.6
01FE8:  BCF    FF2.7
01FEA:  CLRF   FAA
01FEC:  MOVLW  1D
01FEE:  MOVWF  FA9
01FF0:  BCF    FA6.6
01FF2:  BCF    FA6.7
01FF4:  BSF    FA6.0
01FF6:  MOVF   FA8,W
01FF8:  MOVLB  6
01FFA:  BTFSC  x98.6
01FFC:  BSF    FF2.6
01FFE:  BTFSC  x98.7
02000:  BSF    FF2.7
02002:  MOVLB  5
02004:  MOVWF  xB5
....................    delay_ms(10); 
02006:  MOVLW  0A
02008:  MOVLB  6
0200A:  MOVWF  xA1
0200C:  MOVLB  0
0200E:  CALL   132E
....................    Programa=read_eeprom(30); 
02012:  MOVFF  FF2,698
02016:  BCF    FF2.6
02018:  BCF    FF2.7
0201A:  CLRF   FAA
0201C:  MOVLW  1E
0201E:  MOVWF  FA9
02020:  BCF    FA6.6
02022:  BCF    FA6.7
02024:  BSF    FA6.0
02026:  MOVF   FA8,W
02028:  MOVLB  6
0202A:  BTFSC  x98.6
0202C:  BSF    FF2.6
0202E:  BTFSC  x98.7
02030:  BSF    FF2.7
02032:  MOVLB  5
02034:  MOVWF  xAC
....................    delay_ms(10); 
02036:  MOVLW  0A
02038:  MOVLB  6
0203A:  MOVWF  xA1
0203C:  MOVLB  0
0203E:  CALL   132E
.................... } 
02042:  GOTO   73F2 (RETURN)
....................  
.................... void LimitaValores(){ 
....................    if(Testerilizacionp[0]>9 || Testerilizacionp[0]<0){ 
*
020C0:  MOVLB  6
020C2:  BTFSC  x01.7
020C4:  BRA    20CC
020C6:  MOVF   x01,W
020C8:  SUBLW  09
020CA:  BNC   20D2
020CC:  BTFSC  x01.7
020CE:  BRA    20D2
020D0:  BRA    210C
....................       Testerilizacionp[0]=0;write_eeprom(0,0);delay_ms(20); 
020D2:  CLRF   x01
020D4:  CLRF   FAA
020D6:  CLRF   FA9
020D8:  CLRF   FA8
020DA:  BCF    FA6.6
020DC:  BCF    FA6.7
020DE:  BSF    FA6.2
020E0:  MOVF   FF2,W
020E2:  MOVWF  00
020E4:  BCF    FF2.6
020E6:  BCF    FF2.7
020E8:  MOVLB  F
020EA:  MOVLW  55
020EC:  MOVWF  FA7
020EE:  MOVLW  AA
020F0:  MOVWF  FA7
020F2:  BSF    FA6.1
020F4:  BTFSC  FA6.1
020F6:  BRA    20F4
020F8:  BCF    FA6.2
020FA:  MOVF   00,W
020FC:  IORWF  FF2,F
020FE:  MOVLW  14
02100:  MOVLB  6
02102:  MOVWF  xA1
02104:  MOVLB  0
02106:  CALL   132E
0210A:  MOVLB  6
....................    } 
....................    if(Testerilizacionp[1]>9 || Testerilizacionp[1]<0){ 
0210C:  BTFSC  x02.7
0210E:  BRA    2116
02110:  MOVF   x02,W
02112:  SUBLW  09
02114:  BNC   211C
02116:  BTFSC  x02.7
02118:  BRA    211C
0211A:  BRA    2158
....................       Testerilizacionp[1]=0;write_eeprom(1,0);delay_ms(20); 
0211C:  CLRF   x02
0211E:  CLRF   FAA
02120:  MOVLW  01
02122:  MOVWF  FA9
02124:  CLRF   FA8
02126:  BCF    FA6.6
02128:  BCF    FA6.7
0212A:  BSF    FA6.2
0212C:  MOVF   FF2,W
0212E:  MOVWF  00
02130:  BCF    FF2.6
02132:  BCF    FF2.7
02134:  MOVLB  F
02136:  MOVLW  55
02138:  MOVWF  FA7
0213A:  MOVLW  AA
0213C:  MOVWF  FA7
0213E:  BSF    FA6.1
02140:  BTFSC  FA6.1
02142:  BRA    2140
02144:  BCF    FA6.2
02146:  MOVF   00,W
02148:  IORWF  FF2,F
0214A:  MOVLW  14
0214C:  MOVLB  6
0214E:  MOVWF  xA1
02150:  MOVLB  0
02152:  CALL   132E
02156:  MOVLB  6
....................    } 
....................    if(Testerilizacionp[2]>9 || Testerilizacionp[2]<0){ 
02158:  BTFSC  x03.7
0215A:  BRA    2162
0215C:  MOVF   x03,W
0215E:  SUBLW  09
02160:  BNC   2168
02162:  BTFSC  x03.7
02164:  BRA    2168
02166:  BRA    21A4
....................       Testerilizacionp[2]=0;write_eeprom(2,0);delay_ms(20); 
02168:  CLRF   x03
0216A:  CLRF   FAA
0216C:  MOVLW  02
0216E:  MOVWF  FA9
02170:  CLRF   FA8
02172:  BCF    FA6.6
02174:  BCF    FA6.7
02176:  BSF    FA6.2
02178:  MOVF   FF2,W
0217A:  MOVWF  00
0217C:  BCF    FF2.6
0217E:  BCF    FF2.7
02180:  MOVLB  F
02182:  MOVLW  55
02184:  MOVWF  FA7
02186:  MOVLW  AA
02188:  MOVWF  FA7
0218A:  BSF    FA6.1
0218C:  BTFSC  FA6.1
0218E:  BRA    218C
02190:  BCF    FA6.2
02192:  MOVF   00,W
02194:  IORWF  FF2,F
02196:  MOVLW  14
02198:  MOVLB  6
0219A:  MOVWF  xA1
0219C:  MOVLB  0
0219E:  CALL   132E
021A2:  MOVLB  6
....................    } 
....................    if(Testerilizacionp[3]>9 || Testerilizacionp[3]<0){ 
021A4:  BTFSC  x04.7
021A6:  BRA    21AE
021A8:  MOVF   x04,W
021AA:  SUBLW  09
021AC:  BNC   21B4
021AE:  BTFSC  x04.7
021B0:  BRA    21B4
021B2:  BRA    21F0
....................       Testerilizacionp[3]=0;write_eeprom(3,0);delay_ms(20); 
021B4:  CLRF   x04
021B6:  CLRF   FAA
021B8:  MOVLW  03
021BA:  MOVWF  FA9
021BC:  CLRF   FA8
021BE:  BCF    FA6.6
021C0:  BCF    FA6.7
021C2:  BSF    FA6.2
021C4:  MOVF   FF2,W
021C6:  MOVWF  00
021C8:  BCF    FF2.6
021CA:  BCF    FF2.7
021CC:  MOVLB  F
021CE:  MOVLW  55
021D0:  MOVWF  FA7
021D2:  MOVLW  AA
021D4:  MOVWF  FA7
021D6:  BSF    FA6.1
021D8:  BTFSC  FA6.1
021DA:  BRA    21D8
021DC:  BCF    FA6.2
021DE:  MOVF   00,W
021E0:  IORWF  FF2,F
021E2:  MOVLW  14
021E4:  MOVLB  6
021E6:  MOVWF  xA1
021E8:  MOVLB  0
021EA:  CALL   132E
021EE:  MOVLB  6
....................    } 
....................    if(Password[0]>9 || Password[0]<0){ 
021F0:  BTFSC  x09.7
021F2:  BRA    21FA
021F4:  MOVF   x09,W
021F6:  SUBLW  09
021F8:  BNC   2200
021FA:  BTFSC  x09.7
021FC:  BRA    2200
021FE:  BRA    223C
....................       Password[0]=0;write_eeprom(4,0);delay_ms(20); 
02200:  CLRF   x09
02202:  CLRF   FAA
02204:  MOVLW  04
02206:  MOVWF  FA9
02208:  CLRF   FA8
0220A:  BCF    FA6.6
0220C:  BCF    FA6.7
0220E:  BSF    FA6.2
02210:  MOVF   FF2,W
02212:  MOVWF  00
02214:  BCF    FF2.6
02216:  BCF    FF2.7
02218:  MOVLB  F
0221A:  MOVLW  55
0221C:  MOVWF  FA7
0221E:  MOVLW  AA
02220:  MOVWF  FA7
02222:  BSF    FA6.1
02224:  BTFSC  FA6.1
02226:  BRA    2224
02228:  BCF    FA6.2
0222A:  MOVF   00,W
0222C:  IORWF  FF2,F
0222E:  MOVLW  14
02230:  MOVLB  6
02232:  MOVWF  xA1
02234:  MOVLB  0
02236:  CALL   132E
0223A:  MOVLB  6
....................    } 
....................    if(Password[1]>9 || Password[1]<0){ 
0223C:  BTFSC  x0A.7
0223E:  BRA    2246
02240:  MOVF   x0A,W
02242:  SUBLW  09
02244:  BNC   224C
02246:  BTFSC  x0A.7
02248:  BRA    224C
0224A:  BRA    2288
....................       Password[1]=0;write_eeprom(5,0);delay_ms(20); 
0224C:  CLRF   x0A
0224E:  CLRF   FAA
02250:  MOVLW  05
02252:  MOVWF  FA9
02254:  CLRF   FA8
02256:  BCF    FA6.6
02258:  BCF    FA6.7
0225A:  BSF    FA6.2
0225C:  MOVF   FF2,W
0225E:  MOVWF  00
02260:  BCF    FF2.6
02262:  BCF    FF2.7
02264:  MOVLB  F
02266:  MOVLW  55
02268:  MOVWF  FA7
0226A:  MOVLW  AA
0226C:  MOVWF  FA7
0226E:  BSF    FA6.1
02270:  BTFSC  FA6.1
02272:  BRA    2270
02274:  BCF    FA6.2
02276:  MOVF   00,W
02278:  IORWF  FF2,F
0227A:  MOVLW  14
0227C:  MOVLB  6
0227E:  MOVWF  xA1
02280:  MOVLB  0
02282:  CALL   132E
02286:  MOVLB  6
....................    } 
....................    if(Password[2]>9 || Password[2]<0){ 
02288:  BTFSC  x0B.7
0228A:  BRA    2292
0228C:  MOVF   x0B,W
0228E:  SUBLW  09
02290:  BNC   2298
02292:  BTFSC  x0B.7
02294:  BRA    2298
02296:  BRA    22D4
....................       Password[2]=0;write_eeprom(6,0);delay_ms(20); 
02298:  CLRF   x0B
0229A:  CLRF   FAA
0229C:  MOVLW  06
0229E:  MOVWF  FA9
022A0:  CLRF   FA8
022A2:  BCF    FA6.6
022A4:  BCF    FA6.7
022A6:  BSF    FA6.2
022A8:  MOVF   FF2,W
022AA:  MOVWF  00
022AC:  BCF    FF2.6
022AE:  BCF    FF2.7
022B0:  MOVLB  F
022B2:  MOVLW  55
022B4:  MOVWF  FA7
022B6:  MOVLW  AA
022B8:  MOVWF  FA7
022BA:  BSF    FA6.1
022BC:  BTFSC  FA6.1
022BE:  BRA    22BC
022C0:  BCF    FA6.2
022C2:  MOVF   00,W
022C4:  IORWF  FF2,F
022C6:  MOVLW  14
022C8:  MOVLB  6
022CA:  MOVWF  xA1
022CC:  MOVLB  0
022CE:  CALL   132E
022D2:  MOVLB  6
....................    } 
....................    if(Password[3]>9 || Password[3]<0){ 
022D4:  BTFSC  x0C.7
022D6:  BRA    22DE
022D8:  MOVF   x0C,W
022DA:  SUBLW  09
022DC:  BNC   22E4
022DE:  BTFSC  x0C.7
022E0:  BRA    22E4
022E2:  BRA    2320
....................       Password[3]=0;write_eeprom(7,0);delay_ms(20); 
022E4:  CLRF   x0C
022E6:  CLRF   FAA
022E8:  MOVLW  07
022EA:  MOVWF  FA9
022EC:  CLRF   FA8
022EE:  BCF    FA6.6
022F0:  BCF    FA6.7
022F2:  BSF    FA6.2
022F4:  MOVF   FF2,W
022F6:  MOVWF  00
022F8:  BCF    FF2.6
022FA:  BCF    FF2.7
022FC:  MOVLB  F
022FE:  MOVLW  55
02300:  MOVWF  FA7
02302:  MOVLW  AA
02304:  MOVWF  FA7
02306:  BSF    FA6.1
02308:  BTFSC  FA6.1
0230A:  BRA    2308
0230C:  BCF    FA6.2
0230E:  MOVF   00,W
02310:  IORWF  FF2,F
02312:  MOVLW  14
02314:  MOVLB  6
02316:  MOVWF  xA1
02318:  MOVLB  0
0231A:  CALL   132E
0231E:  MOVLB  6
....................    } 
....................    if(Temperatura1>105.0 || Temperatura1<20){ 
02320:  CLRF   x9B
02322:  CLRF   x9A
02324:  MOVLW  52
02326:  MOVWF  x99
02328:  MOVLW  85
0232A:  MOVWF  x98
0232C:  MOVFF  654,69F
02330:  MOVFF  653,69E
02334:  MOVFF  652,69D
02338:  MOVFF  651,69C
0233C:  MOVLB  0
0233E:  RCALL  2046
02340:  BC    2366
02342:  MOVFF  654,69B
02346:  MOVFF  653,69A
0234A:  MOVFF  652,699
0234E:  MOVFF  651,698
02352:  MOVLB  6
02354:  CLRF   x9F
02356:  CLRF   x9E
02358:  MOVLW  20
0235A:  MOVWF  x9D
0235C:  MOVLW  83
0235E:  MOVWF  x9C
02360:  MOVLB  0
02362:  RCALL  2046
02364:  BNC   23E6
....................       Temperatura1=30.0;write_eeprom(8,30);delay_ms(20);write_eeprom(9,0);delay_ms(20); 
02366:  MOVLB  6
02368:  CLRF   x54
0236A:  CLRF   x53
0236C:  MOVLW  70
0236E:  MOVWF  x52
02370:  MOVLW  83
02372:  MOVWF  x51
02374:  CLRF   FAA
02376:  MOVLW  08
02378:  MOVWF  FA9
0237A:  MOVLW  1E
0237C:  MOVWF  FA8
0237E:  BCF    FA6.6
02380:  BCF    FA6.7
02382:  BSF    FA6.2
02384:  MOVF   FF2,W
02386:  MOVWF  00
02388:  BCF    FF2.6
0238A:  BCF    FF2.7
0238C:  MOVLB  F
0238E:  MOVLW  55
02390:  MOVWF  FA7
02392:  MOVLW  AA
02394:  MOVWF  FA7
02396:  BSF    FA6.1
02398:  BTFSC  FA6.1
0239A:  BRA    2398
0239C:  BCF    FA6.2
0239E:  MOVF   00,W
023A0:  IORWF  FF2,F
023A2:  MOVLW  14
023A4:  MOVLB  6
023A6:  MOVWF  xA1
023A8:  MOVLB  0
023AA:  CALL   132E
023AE:  CLRF   FAA
023B0:  MOVLW  09
023B2:  MOVWF  FA9
023B4:  CLRF   FA8
023B6:  BCF    FA6.6
023B8:  BCF    FA6.7
023BA:  BSF    FA6.2
023BC:  MOVF   FF2,W
023BE:  MOVWF  00
023C0:  BCF    FF2.6
023C2:  BCF    FF2.7
023C4:  MOVLB  F
023C6:  MOVLW  55
023C8:  MOVWF  FA7
023CA:  MOVLW  AA
023CC:  MOVWF  FA7
023CE:  BSF    FA6.1
023D0:  BTFSC  FA6.1
023D2:  BRA    23D0
023D4:  BCF    FA6.2
023D6:  MOVF   00,W
023D8:  IORWF  FF2,F
023DA:  MOVLW  14
023DC:  MOVLB  6
023DE:  MOVWF  xA1
023E0:  MOVLB  0
023E2:  CALL   132E
....................    } 
....................    if(Temperatura2>105.0 || Temperatura2<20){ 
023E6:  MOVLB  6
023E8:  CLRF   x9B
023EA:  CLRF   x9A
023EC:  MOVLW  52
023EE:  MOVWF  x99
023F0:  MOVLW  85
023F2:  MOVWF  x98
023F4:  MOVFF  658,69F
023F8:  MOVFF  657,69E
023FC:  MOVFF  656,69D
02400:  MOVFF  655,69C
02404:  MOVLB  0
02406:  RCALL  2046
02408:  BC    242E
0240A:  MOVFF  658,69B
0240E:  MOVFF  657,69A
02412:  MOVFF  656,699
02416:  MOVFF  655,698
0241A:  MOVLB  6
0241C:  CLRF   x9F
0241E:  CLRF   x9E
02420:  MOVLW  20
02422:  MOVWF  x9D
02424:  MOVLW  83
02426:  MOVWF  x9C
02428:  MOVLB  0
0242A:  RCALL  2046
0242C:  BNC   24AE
....................       Temperatura2=30.0;write_eeprom(10,30);delay_ms(20);write_eeprom(11,0);delay_ms(20); 
0242E:  MOVLB  6
02430:  CLRF   x58
02432:  CLRF   x57
02434:  MOVLW  70
02436:  MOVWF  x56
02438:  MOVLW  83
0243A:  MOVWF  x55
0243C:  CLRF   FAA
0243E:  MOVLW  0A
02440:  MOVWF  FA9
02442:  MOVLW  1E
02444:  MOVWF  FA8
02446:  BCF    FA6.6
02448:  BCF    FA6.7
0244A:  BSF    FA6.2
0244C:  MOVF   FF2,W
0244E:  MOVWF  00
02450:  BCF    FF2.6
02452:  BCF    FF2.7
02454:  MOVLB  F
02456:  MOVLW  55
02458:  MOVWF  FA7
0245A:  MOVLW  AA
0245C:  MOVWF  FA7
0245E:  BSF    FA6.1
02460:  BTFSC  FA6.1
02462:  BRA    2460
02464:  BCF    FA6.2
02466:  MOVF   00,W
02468:  IORWF  FF2,F
0246A:  MOVLW  14
0246C:  MOVLB  6
0246E:  MOVWF  xA1
02470:  MOVLB  0
02472:  CALL   132E
02476:  CLRF   FAA
02478:  MOVLW  0B
0247A:  MOVWF  FA9
0247C:  CLRF   FA8
0247E:  BCF    FA6.6
02480:  BCF    FA6.7
02482:  BSF    FA6.2
02484:  MOVF   FF2,W
02486:  MOVWF  00
02488:  BCF    FF2.6
0248A:  BCF    FF2.7
0248C:  MOVLB  F
0248E:  MOVLW  55
02490:  MOVWF  FA7
02492:  MOVLW  AA
02494:  MOVWF  FA7
02496:  BSF    FA6.1
02498:  BTFSC  FA6.1
0249A:  BRA    2498
0249C:  BCF    FA6.2
0249E:  MOVF   00,W
024A0:  IORWF  FF2,F
024A2:  MOVLW  14
024A4:  MOVLB  6
024A6:  MOVWF  xA1
024A8:  MOVLB  0
024AA:  CALL   132E
....................    } 
....................    if(Temperatura3>105.0 || Temperatura3<20){ 
024AE:  MOVLB  6
024B0:  CLRF   x9B
024B2:  CLRF   x9A
024B4:  MOVLW  52
024B6:  MOVWF  x99
024B8:  MOVLW  85
024BA:  MOVWF  x98
024BC:  MOVFF  65C,69F
024C0:  MOVFF  65B,69E
024C4:  MOVFF  65A,69D
024C8:  MOVFF  659,69C
024CC:  MOVLB  0
024CE:  RCALL  2046
024D0:  BC    24F6
024D2:  MOVFF  65C,69B
024D6:  MOVFF  65B,69A
024DA:  MOVFF  65A,699
024DE:  MOVFF  659,698
024E2:  MOVLB  6
024E4:  CLRF   x9F
024E6:  CLRF   x9E
024E8:  MOVLW  20
024EA:  MOVWF  x9D
024EC:  MOVLW  83
024EE:  MOVWF  x9C
024F0:  MOVLB  0
024F2:  RCALL  2046
024F4:  BNC   2576
....................       Temperatura3=30.0;write_eeprom(12,30);delay_ms(20);write_eeprom(13,0);delay_ms(20); 
024F6:  MOVLB  6
024F8:  CLRF   x5C
024FA:  CLRF   x5B
024FC:  MOVLW  70
024FE:  MOVWF  x5A
02500:  MOVLW  83
02502:  MOVWF  x59
02504:  CLRF   FAA
02506:  MOVLW  0C
02508:  MOVWF  FA9
0250A:  MOVLW  1E
0250C:  MOVWF  FA8
0250E:  BCF    FA6.6
02510:  BCF    FA6.7
02512:  BSF    FA6.2
02514:  MOVF   FF2,W
02516:  MOVWF  00
02518:  BCF    FF2.6
0251A:  BCF    FF2.7
0251C:  MOVLB  F
0251E:  MOVLW  55
02520:  MOVWF  FA7
02522:  MOVLW  AA
02524:  MOVWF  FA7
02526:  BSF    FA6.1
02528:  BTFSC  FA6.1
0252A:  BRA    2528
0252C:  BCF    FA6.2
0252E:  MOVF   00,W
02530:  IORWF  FF2,F
02532:  MOVLW  14
02534:  MOVLB  6
02536:  MOVWF  xA1
02538:  MOVLB  0
0253A:  CALL   132E
0253E:  CLRF   FAA
02540:  MOVLW  0D
02542:  MOVWF  FA9
02544:  CLRF   FA8
02546:  BCF    FA6.6
02548:  BCF    FA6.7
0254A:  BSF    FA6.2
0254C:  MOVF   FF2,W
0254E:  MOVWF  00
02550:  BCF    FF2.6
02552:  BCF    FF2.7
02554:  MOVLB  F
02556:  MOVLW  55
02558:  MOVWF  FA7
0255A:  MOVLW  AA
0255C:  MOVWF  FA7
0255E:  BSF    FA6.1
02560:  BTFSC  FA6.1
02562:  BRA    2560
02564:  BCF    FA6.2
02566:  MOVF   00,W
02568:  IORWF  FF2,F
0256A:  MOVLW  14
0256C:  MOVLB  6
0256E:  MOVWF  xA1
02570:  MOVLB  0
02572:  CALL   132E
....................    } 
....................    if(Ganancia>4 || Ganancia<1){ 
02576:  MOVLB  6
02578:  CLRF   x9B
0257A:  CLRF   x9A
0257C:  CLRF   x99
0257E:  MOVLW  81
02580:  MOVWF  x98
02582:  MOVFF  634,69F
02586:  MOVFF  633,69E
0258A:  MOVFF  632,69D
0258E:  MOVFF  631,69C
02592:  MOVLB  0
02594:  RCALL  2046
02596:  BC    25BA
02598:  MOVFF  634,69B
0259C:  MOVFF  633,69A
025A0:  MOVFF  632,699
025A4:  MOVFF  631,698
025A8:  MOVLB  6
025AA:  CLRF   x9F
025AC:  CLRF   x9E
025AE:  CLRF   x9D
025B0:  MOVLW  7F
025B2:  MOVWF  x9C
025B4:  MOVLB  0
025B6:  RCALL  2046
025B8:  BNC   2600
....................       Ganancia=2;write_eeprom(14,2);delay_ms(20); 
025BA:  MOVLB  6
025BC:  CLRF   x34
025BE:  CLRF   x33
025C0:  CLRF   x32
025C2:  MOVLW  80
025C4:  MOVWF  x31
025C6:  CLRF   FAA
025C8:  MOVLW  0E
025CA:  MOVWF  FA9
025CC:  MOVLW  02
025CE:  MOVWF  FA8
025D0:  BCF    FA6.6
025D2:  BCF    FA6.7
025D4:  BSF    FA6.2
025D6:  MOVF   FF2,W
025D8:  MOVWF  00
025DA:  BCF    FF2.6
025DC:  BCF    FF2.7
025DE:  MOVLB  F
025E0:  MOVLW  55
025E2:  MOVWF  FA7
025E4:  MOVLW  AA
025E6:  MOVWF  FA7
025E8:  BSF    FA6.1
025EA:  BTFSC  FA6.1
025EC:  BRA    25EA
025EE:  BCF    FA6.2
025F0:  MOVF   00,W
025F2:  IORWF  FF2,F
025F4:  MOVLW  14
025F6:  MOVLB  6
025F8:  MOVWF  xA1
025FA:  MOVLB  0
025FC:  CALL   132E
....................    } 
....................    if(Integral>4 || Integral<1){ 
02600:  MOVLB  6
02602:  CLRF   x9B
02604:  CLRF   x9A
02606:  CLRF   x99
02608:  MOVLW  81
0260A:  MOVWF  x98
0260C:  MOVFF  5F4,69F
02610:  MOVFF  5F3,69E
02614:  MOVFF  5F2,69D
02618:  MOVFF  5F1,69C
0261C:  MOVLB  0
0261E:  RCALL  2046
02620:  BC    2644
02622:  MOVFF  5F4,69B
02626:  MOVFF  5F3,69A
0262A:  MOVFF  5F2,699
0262E:  MOVFF  5F1,698
02632:  MOVLB  6
02634:  CLRF   x9F
02636:  CLRF   x9E
02638:  CLRF   x9D
0263A:  MOVLW  7F
0263C:  MOVWF  x9C
0263E:  MOVLB  0
02640:  RCALL  2046
02642:  BNC   268A
....................       Integral=1;write_eeprom(15,1);delay_ms(20); 
02644:  MOVLB  5
02646:  CLRF   xF4
02648:  CLRF   xF3
0264A:  CLRF   xF2
0264C:  MOVLW  7F
0264E:  MOVWF  xF1
02650:  CLRF   FAA
02652:  MOVLW  0F
02654:  MOVWF  FA9
02656:  MOVLW  01
02658:  MOVWF  FA8
0265A:  BCF    FA6.6
0265C:  BCF    FA6.7
0265E:  BSF    FA6.2
02660:  MOVF   FF2,W
02662:  MOVWF  00
02664:  BCF    FF2.6
02666:  BCF    FF2.7
02668:  MOVLB  F
0266A:  MOVLW  55
0266C:  MOVWF  FA7
0266E:  MOVLW  AA
02670:  MOVWF  FA7
02672:  BSF    FA6.1
02674:  BTFSC  FA6.1
02676:  BRA    2674
02678:  BCF    FA6.2
0267A:  MOVF   00,W
0267C:  IORWF  FF2,F
0267E:  MOVLW  14
02680:  MOVLB  6
02682:  MOVWF  xA1
02684:  MOVLB  0
02686:  CALL   132E
....................    } 
....................    if(Derivativo>40 || Derivativo<5){ 
0268A:  MOVLB  6
0268C:  CLRF   x9B
0268E:  CLRF   x9A
02690:  MOVLW  20
02692:  MOVWF  x99
02694:  MOVLW  84
02696:  MOVWF  x98
02698:  MOVFF  5F8,69F
0269C:  MOVFF  5F7,69E
026A0:  MOVFF  5F6,69D
026A4:  MOVFF  5F5,69C
026A8:  MOVLB  0
026AA:  RCALL  2046
026AC:  BC    26D2
026AE:  MOVFF  5F8,69B
026B2:  MOVFF  5F7,69A
026B6:  MOVFF  5F6,699
026BA:  MOVFF  5F5,698
026BE:  MOVLB  6
026C0:  CLRF   x9F
026C2:  CLRF   x9E
026C4:  MOVLW  20
026C6:  MOVWF  x9D
026C8:  MOVLW  81
026CA:  MOVWF  x9C
026CC:  MOVLB  0
026CE:  RCALL  2046
026D0:  BNC   271A
....................       Derivativo=20;write_eeprom(16,20);delay_ms(20); 
026D2:  MOVLB  5
026D4:  CLRF   xF8
026D6:  CLRF   xF7
026D8:  MOVLW  20
026DA:  MOVWF  xF6
026DC:  MOVLW  83
026DE:  MOVWF  xF5
026E0:  CLRF   FAA
026E2:  MOVLW  10
026E4:  MOVWF  FA9
026E6:  MOVLW  14
026E8:  MOVWF  FA8
026EA:  BCF    FA6.6
026EC:  BCF    FA6.7
026EE:  BSF    FA6.2
026F0:  MOVF   FF2,W
026F2:  MOVWF  00
026F4:  BCF    FF2.6
026F6:  BCF    FF2.7
026F8:  MOVLB  F
026FA:  MOVLW  55
026FC:  MOVWF  FA7
026FE:  MOVLW  AA
02700:  MOVWF  FA7
02702:  BSF    FA6.1
02704:  BTFSC  FA6.1
02706:  BRA    2704
02708:  BCF    FA6.2
0270A:  MOVF   00,W
0270C:  IORWF  FF2,F
0270E:  MOVLW  14
02710:  MOVLB  6
02712:  MOVWF  xA1
02714:  MOVLB  0
02716:  CALL   132E
....................    } 
....................    if(Tciclo>10 || Tciclo<5){ 
0271A:  MOVLB  6
0271C:  CLRF   x9B
0271E:  CLRF   x9A
02720:  MOVLW  20
02722:  MOVWF  x99
02724:  MOVLW  82
02726:  MOVWF  x98
02728:  MOVFF  61C,69F
0272C:  MOVFF  61B,69E
02730:  MOVFF  61A,69D
02734:  MOVFF  619,69C
02738:  MOVLB  0
0273A:  RCALL  2046
0273C:  BC    2762
0273E:  MOVFF  61C,69B
02742:  MOVFF  61B,69A
02746:  MOVFF  61A,699
0274A:  MOVFF  619,698
0274E:  MOVLB  6
02750:  CLRF   x9F
02752:  CLRF   x9E
02754:  MOVLW  20
02756:  MOVWF  x9D
02758:  MOVLW  81
0275A:  MOVWF  x9C
0275C:  MOVLB  0
0275E:  RCALL  2046
02760:  BNC   27AA
....................       Tciclo=5;write_eeprom(17,5);delay_ms(20); 
02762:  MOVLB  6
02764:  CLRF   x1C
02766:  CLRF   x1B
02768:  MOVLW  20
0276A:  MOVWF  x1A
0276C:  MOVLW  81
0276E:  MOVWF  x19
02770:  CLRF   FAA
02772:  MOVLW  11
02774:  MOVWF  FA9
02776:  MOVLW  05
02778:  MOVWF  FA8
0277A:  BCF    FA6.6
0277C:  BCF    FA6.7
0277E:  BSF    FA6.2
02780:  MOVF   FF2,W
02782:  MOVWF  00
02784:  BCF    FF2.6
02786:  BCF    FF2.7
02788:  MOVLB  F
0278A:  MOVLW  55
0278C:  MOVWF  FA7
0278E:  MOVLW  AA
02790:  MOVWF  FA7
02792:  BSF    FA6.1
02794:  BTFSC  FA6.1
02796:  BRA    2794
02798:  BCF    FA6.2
0279A:  MOVF   00,W
0279C:  IORWF  FF2,F
0279E:  MOVLW  14
027A0:  MOVLB  6
027A2:  MOVWF  xA1
027A4:  MOVLB  0
027A6:  CALL   132E
....................    } 
....................    if(Ajuste>100){ 
027AA:  MOVLB  5
027AC:  MOVF   xA3,W
027AE:  SUBLW  64
027B0:  BC    27EE
....................       Ajuste=0;write_eeprom(18,0);delay_ms(20); 
027B2:  CLRF   xA3
027B4:  CLRF   FAA
027B6:  MOVLW  12
027B8:  MOVWF  FA9
027BA:  CLRF   FA8
027BC:  BCF    FA6.6
027BE:  BCF    FA6.7
027C0:  BSF    FA6.2
027C2:  MOVF   FF2,W
027C4:  MOVWF  00
027C6:  BCF    FF2.6
027C8:  BCF    FF2.7
027CA:  MOVLB  F
027CC:  MOVLW  55
027CE:  MOVWF  FA7
027D0:  MOVLW  AA
027D2:  MOVWF  FA7
027D4:  BSF    FA6.1
027D6:  BTFSC  FA6.1
027D8:  BRA    27D6
027DA:  BCF    FA6.2
027DC:  MOVF   00,W
027DE:  IORWF  FF2,F
027E0:  MOVLW  14
027E2:  MOVLB  6
027E4:  MOVWF  xA1
027E6:  MOVLB  0
027E8:  CALL   132E
027EC:  MOVLB  5
....................    } 
....................    if(Ajusten>100){ 
027EE:  MOVF   xA4,W
027F0:  SUBLW  64
027F2:  BC    2830
....................       Ajusten=0;write_eeprom(19,0);delay_ms(20); 
027F4:  CLRF   xA4
027F6:  CLRF   FAA
027F8:  MOVLW  13
027FA:  MOVWF  FA9
027FC:  CLRF   FA8
027FE:  BCF    FA6.6
02800:  BCF    FA6.7
02802:  BSF    FA6.2
02804:  MOVF   FF2,W
02806:  MOVWF  00
02808:  BCF    FF2.6
0280A:  BCF    FF2.7
0280C:  MOVLB  F
0280E:  MOVLW  55
02810:  MOVWF  FA7
02812:  MOVLW  AA
02814:  MOVWF  FA7
02816:  BSF    FA6.1
02818:  BTFSC  FA6.1
0281A:  BRA    2818
0281C:  BCF    FA6.2
0281E:  MOVF   00,W
02820:  IORWF  FF2,F
02822:  MOVLW  14
02824:  MOVLB  6
02826:  MOVWF  xA1
02828:  MOVLB  0
0282A:  CALL   132E
0282E:  MOVLB  5
....................    } 
....................    if(MediaMovil>80 || MediaMovil<10){ 
02830:  MOVF   xA5,W
02832:  SUBLW  50
02834:  BNC   283C
02836:  MOVF   xA5,W
02838:  SUBLW  09
0283A:  BNC   287A
....................       MediaMovil=80;write_eeprom(20,80);delay_ms(20); 
0283C:  MOVLW  50
0283E:  MOVWF  xA5
02840:  CLRF   FAA
02842:  MOVLW  14
02844:  MOVWF  FA9
02846:  MOVLW  50
02848:  MOVWF  FA8
0284A:  BCF    FA6.6
0284C:  BCF    FA6.7
0284E:  BSF    FA6.2
02850:  MOVF   FF2,W
02852:  MOVWF  00
02854:  BCF    FF2.6
02856:  BCF    FF2.7
02858:  MOVLB  F
0285A:  MOVLW  55
0285C:  MOVWF  FA7
0285E:  MOVLW  AA
02860:  MOVWF  FA7
02862:  BSF    FA6.1
02864:  BTFSC  FA6.1
02866:  BRA    2864
02868:  BCF    FA6.2
0286A:  MOVF   00,W
0286C:  IORWF  FF2,F
0286E:  MOVLW  14
02870:  MOVLB  6
02872:  MOVWF  xA1
02874:  MOVLB  0
02876:  CALL   132E
....................    } 
....................    if(Gain>110 || Gain<100){ 
0287A:  MOVLB  6
0287C:  CLRF   x9B
0287E:  CLRF   x9A
02880:  MOVLW  5C
02882:  MOVWF  x99
02884:  MOVLW  85
02886:  MOVWF  x98
02888:  MOVFF  5EC,69F
0288C:  MOVFF  5EB,69E
02890:  MOVFF  5EA,69D
02894:  MOVFF  5E9,69C
02898:  MOVLB  0
0289A:  CALL   2046
0289E:  BC    28C6
028A0:  MOVFF  5EC,69B
028A4:  MOVFF  5EB,69A
028A8:  MOVFF  5EA,699
028AC:  MOVFF  5E9,698
028B0:  MOVLB  6
028B2:  CLRF   x9F
028B4:  CLRF   x9E
028B6:  MOVLW  48
028B8:  MOVWF  x9D
028BA:  MOVLW  85
028BC:  MOVWF  x9C
028BE:  MOVLB  0
028C0:  CALL   2046
028C4:  BNC   294C
....................       Gain=105.9;write_eeprom(21,105);delay_ms(20);write_eeprom(22,9);delay_ms(20); 
028C6:  MOVLW  CD
028C8:  MOVLB  5
028CA:  MOVWF  xEC
028CC:  MOVLW  CC
028CE:  MOVWF  xEB
028D0:  MOVLW  53
028D2:  MOVWF  xEA
028D4:  MOVLW  85
028D6:  MOVWF  xE9
028D8:  CLRF   FAA
028DA:  MOVLW  15
028DC:  MOVWF  FA9
028DE:  MOVLW  69
028E0:  MOVWF  FA8
028E2:  BCF    FA6.6
028E4:  BCF    FA6.7
028E6:  BSF    FA6.2
028E8:  MOVF   FF2,W
028EA:  MOVWF  00
028EC:  BCF    FF2.6
028EE:  BCF    FF2.7
028F0:  MOVLB  F
028F2:  MOVLW  55
028F4:  MOVWF  FA7
028F6:  MOVLW  AA
028F8:  MOVWF  FA7
028FA:  BSF    FA6.1
028FC:  BTFSC  FA6.1
028FE:  BRA    28FC
02900:  BCF    FA6.2
02902:  MOVF   00,W
02904:  IORWF  FF2,F
02906:  MOVLW  14
02908:  MOVLB  6
0290A:  MOVWF  xA1
0290C:  MOVLB  0
0290E:  CALL   132E
02912:  CLRF   FAA
02914:  MOVLW  16
02916:  MOVWF  FA9
02918:  MOVLW  09
0291A:  MOVWF  FA8
0291C:  BCF    FA6.6
0291E:  BCF    FA6.7
02920:  BSF    FA6.2
02922:  MOVF   FF2,W
02924:  MOVWF  00
02926:  BCF    FF2.6
02928:  BCF    FF2.7
0292A:  MOVLB  F
0292C:  MOVLW  55
0292E:  MOVWF  FA7
02930:  MOVLW  AA
02932:  MOVWF  FA7
02934:  BSF    FA6.1
02936:  BTFSC  FA6.1
02938:  BRA    2936
0293A:  BCF    FA6.2
0293C:  MOVF   00,W
0293E:  IORWF  FF2,F
02940:  MOVLW  14
02942:  MOVLB  6
02944:  MOVWF  xA1
02946:  MOVLB  0
02948:  CALL   132E
....................    } 
....................    if(R1>6400){ 
0294C:  MOVLB  6
0294E:  CLRF   x9B
02950:  CLRF   x9A
02952:  MOVLW  48
02954:  MOVWF  x99
02956:  MOVLW  8B
02958:  MOVWF  x98
0295A:  MOVFF  614,69F
0295E:  MOVFF  613,69E
02962:  MOVFF  612,69D
02966:  MOVFF  611,69C
0296A:  MOVLB  0
0296C:  CALL   2046
02970:  BNC   29F6
....................       R1=6200;write_eeprom(23,0x18);delay_ms(20);write_eeprom(24,0x38);delay_ms(20); 
02972:  MOVLB  6
02974:  CLRF   x14
02976:  MOVLW  C0
02978:  MOVWF  x13
0297A:  MOVLW  41
0297C:  MOVWF  x12
0297E:  MOVLW  8B
02980:  MOVWF  x11
02982:  CLRF   FAA
02984:  MOVLW  17
02986:  MOVWF  FA9
02988:  MOVLW  18
0298A:  MOVWF  FA8
0298C:  BCF    FA6.6
0298E:  BCF    FA6.7
02990:  BSF    FA6.2
02992:  MOVF   FF2,W
02994:  MOVWF  00
02996:  BCF    FF2.6
02998:  BCF    FF2.7
0299A:  MOVLB  F
0299C:  MOVLW  55
0299E:  MOVWF  FA7
029A0:  MOVLW  AA
029A2:  MOVWF  FA7
029A4:  BSF    FA6.1
029A6:  BTFSC  FA6.1
029A8:  BRA    29A6
029AA:  BCF    FA6.2
029AC:  MOVF   00,W
029AE:  IORWF  FF2,F
029B0:  MOVLW  14
029B2:  MOVLB  6
029B4:  MOVWF  xA1
029B6:  MOVLB  0
029B8:  CALL   132E
029BC:  CLRF   FAA
029BE:  MOVLW  18
029C0:  MOVWF  FA9
029C2:  MOVLW  38
029C4:  MOVWF  FA8
029C6:  BCF    FA6.6
029C8:  BCF    FA6.7
029CA:  BSF    FA6.2
029CC:  MOVF   FF2,W
029CE:  MOVWF  00
029D0:  BCF    FF2.6
029D2:  BCF    FF2.7
029D4:  MOVLB  F
029D6:  MOVLW  55
029D8:  MOVWF  FA7
029DA:  MOVLW  AA
029DC:  MOVWF  FA7
029DE:  BSF    FA6.1
029E0:  BTFSC  FA6.1
029E2:  BRA    29E0
029E4:  BCF    FA6.2
029E6:  MOVF   00,W
029E8:  IORWF  FF2,F
029EA:  MOVLW  14
029EC:  MOVLB  6
029EE:  MOVWF  xA1
029F0:  MOVLB  0
029F2:  CALL   132E
....................    } 
....................    if(RPT100>2.0){ 
029F6:  MOVLB  6
029F8:  CLRF   x9B
029FA:  CLRF   x9A
029FC:  CLRF   x99
029FE:  MOVLW  80
02A00:  MOVWF  x98
02A02:  MOVFF  5F0,69F
02A06:  MOVFF  5EF,69E
02A0A:  MOVFF  5EE,69D
02A0E:  MOVFF  5ED,69C
02A12:  MOVLB  0
02A14:  CALL   2046
02A18:  BNC   2A98
....................       RPT100=0.5;write_eeprom(25,0);delay_ms(20);write_eeprom(26,5);delay_ms(20); 
02A1A:  MOVLB  5
02A1C:  CLRF   xF0
02A1E:  CLRF   xEF
02A20:  CLRF   xEE
02A22:  MOVLW  7E
02A24:  MOVWF  xED
02A26:  CLRF   FAA
02A28:  MOVLW  19
02A2A:  MOVWF  FA9
02A2C:  CLRF   FA8
02A2E:  BCF    FA6.6
02A30:  BCF    FA6.7
02A32:  BSF    FA6.2
02A34:  MOVF   FF2,W
02A36:  MOVWF  00
02A38:  BCF    FF2.6
02A3A:  BCF    FF2.7
02A3C:  MOVLB  F
02A3E:  MOVLW  55
02A40:  MOVWF  FA7
02A42:  MOVLW  AA
02A44:  MOVWF  FA7
02A46:  BSF    FA6.1
02A48:  BTFSC  FA6.1
02A4A:  BRA    2A48
02A4C:  BCF    FA6.2
02A4E:  MOVF   00,W
02A50:  IORWF  FF2,F
02A52:  MOVLW  14
02A54:  MOVLB  6
02A56:  MOVWF  xA1
02A58:  MOVLB  0
02A5A:  CALL   132E
02A5E:  CLRF   FAA
02A60:  MOVLW  1A
02A62:  MOVWF  FA9
02A64:  MOVLW  05
02A66:  MOVWF  FA8
02A68:  BCF    FA6.6
02A6A:  BCF    FA6.7
02A6C:  BSF    FA6.2
02A6E:  MOVF   FF2,W
02A70:  MOVWF  00
02A72:  BCF    FF2.6
02A74:  BCF    FF2.7
02A76:  MOVLB  F
02A78:  MOVLW  55
02A7A:  MOVWF  FA7
02A7C:  MOVLW  AA
02A7E:  MOVWF  FA7
02A80:  BSF    FA6.1
02A82:  BTFSC  FA6.1
02A84:  BRA    2A82
02A86:  BCF    FA6.2
02A88:  MOVF   00,W
02A8A:  IORWF  FF2,F
02A8C:  MOVLW  14
02A8E:  MOVLB  6
02A90:  MOVWF  xA1
02A92:  MOVLB  0
02A94:  CALL   132E
....................    } 
....................    if(Source>1){ 
02A98:  MOVLB  5
02A9A:  MOVF   xB2,W
02A9C:  SUBLW  01
02A9E:  BC    2AE0
....................       Source=1;write_eeprom(27,1);delay_ms(20); 
02AA0:  MOVLW  01
02AA2:  MOVWF  xB2
02AA4:  CLRF   FAA
02AA6:  MOVLW  1B
02AA8:  MOVWF  FA9
02AAA:  MOVLW  01
02AAC:  MOVWF  FA8
02AAE:  BCF    FA6.6
02AB0:  BCF    FA6.7
02AB2:  BSF    FA6.2
02AB4:  MOVF   FF2,W
02AB6:  MOVWF  00
02AB8:  BCF    FF2.6
02ABA:  BCF    FF2.7
02ABC:  MOVLB  F
02ABE:  MOVLW  55
02AC0:  MOVWF  FA7
02AC2:  MOVLW  AA
02AC4:  MOVWF  FA7
02AC6:  BSF    FA6.1
02AC8:  BTFSC  FA6.1
02ACA:  BRA    2AC8
02ACC:  BCF    FA6.2
02ACE:  MOVF   00,W
02AD0:  IORWF  FF2,F
02AD2:  MOVLW  14
02AD4:  MOVLB  6
02AD6:  MOVWF  xA1
02AD8:  MOVLB  0
02ADA:  CALL   132E
02ADE:  MOVLB  5
....................    } 
....................    if(Vel1>10){ 
02AE0:  MOVF   xB4,W
02AE2:  SUBLW  0A
02AE4:  BC    2B26
....................       Vel1=10;write_eeprom(28,10);delay_ms(20); 
02AE6:  MOVLW  0A
02AE8:  MOVWF  xB4
02AEA:  CLRF   FAA
02AEC:  MOVLW  1C
02AEE:  MOVWF  FA9
02AF0:  MOVLW  0A
02AF2:  MOVWF  FA8
02AF4:  BCF    FA6.6
02AF6:  BCF    FA6.7
02AF8:  BSF    FA6.2
02AFA:  MOVF   FF2,W
02AFC:  MOVWF  00
02AFE:  BCF    FF2.6
02B00:  BCF    FF2.7
02B02:  MOVLB  F
02B04:  MOVLW  55
02B06:  MOVWF  FA7
02B08:  MOVLW  AA
02B0A:  MOVWF  FA7
02B0C:  BSF    FA6.1
02B0E:  BTFSC  FA6.1
02B10:  BRA    2B0E
02B12:  BCF    FA6.2
02B14:  MOVF   00,W
02B16:  IORWF  FF2,F
02B18:  MOVLW  14
02B1A:  MOVLB  6
02B1C:  MOVWF  xA1
02B1E:  MOVLB  0
02B20:  CALL   132E
02B24:  MOVLB  5
....................    } 
....................    if(controlT>1){ 
02B26:  MOVF   xB5,W
02B28:  SUBLW  01
02B2A:  BC    2B68
....................       controlT=0;write_eeprom(29,0);delay_ms(20); 
02B2C:  CLRF   xB5
02B2E:  CLRF   FAA
02B30:  MOVLW  1D
02B32:  MOVWF  FA9
02B34:  CLRF   FA8
02B36:  BCF    FA6.6
02B38:  BCF    FA6.7
02B3A:  BSF    FA6.2
02B3C:  MOVF   FF2,W
02B3E:  MOVWF  00
02B40:  BCF    FF2.6
02B42:  BCF    FF2.7
02B44:  MOVLB  F
02B46:  MOVLW  55
02B48:  MOVWF  FA7
02B4A:  MOVLW  AA
02B4C:  MOVWF  FA7
02B4E:  BSF    FA6.1
02B50:  BTFSC  FA6.1
02B52:  BRA    2B50
02B54:  BCF    FA6.2
02B56:  MOVF   00,W
02B58:  IORWF  FF2,F
02B5A:  MOVLW  14
02B5C:  MOVLB  6
02B5E:  MOVWF  xA1
02B60:  MOVLB  0
02B62:  CALL   132E
02B66:  MOVLB  5
....................    } 
....................    if(Programa>3 || Programa<1){ 
02B68:  MOVF   xAC,W
02B6A:  SUBLW  03
02B6C:  BNC   2B72
02B6E:  MOVF   xAC,F
02B70:  BNZ   2BB2
....................       Programa=1;write_eeprom(30,1);delay_ms(20); 
02B72:  MOVLW  01
02B74:  MOVWF  xAC
02B76:  CLRF   FAA
02B78:  MOVLW  1E
02B7A:  MOVWF  FA9
02B7C:  MOVLW  01
02B7E:  MOVWF  FA8
02B80:  BCF    FA6.6
02B82:  BCF    FA6.7
02B84:  BSF    FA6.2
02B86:  MOVF   FF2,W
02B88:  MOVWF  00
02B8A:  BCF    FF2.6
02B8C:  BCF    FF2.7
02B8E:  MOVLB  F
02B90:  MOVLW  55
02B92:  MOVWF  FA7
02B94:  MOVLW  AA
02B96:  MOVWF  FA7
02B98:  BSF    FA6.1
02B9A:  BTFSC  FA6.1
02B9C:  BRA    2B9A
02B9E:  BCF    FA6.2
02BA0:  MOVF   00,W
02BA2:  IORWF  FF2,F
02BA4:  MOVLW  14
02BA6:  MOVLB  6
02BA8:  MOVWF  xA1
02BAA:  MOVLB  0
02BAC:  CALL   132E
02BB0:  MOVLB  5
....................    } 
....................    gananciaAnt=Ganancia; 
02BB2:  MOVFF  634,640
02BB6:  MOVFF  633,63F
02BBA:  MOVFF  632,63E
02BBE:  MOVFF  631,63D
.................... } 
02BC2:  MOVLB  0
02BC4:  GOTO   73F6 (RETURN)
....................  
.................... void DelayPuls(){ 
....................    delay_ms(2); 
*
03E86:  MOVLW  02
03E88:  MOVLB  6
03E8A:  MOVWF  xA1
03E8C:  MOVLB  0
03E8E:  CALL   132E
.................... } 
03E92:  RETLW  00
....................  
.................... short PidePassword(int8 MenuAnt, int8 MenuActual, int8 MenuPost, int8 clave0,int8 clave1, int8 clave2,int8 clave3,short cambia){ 
....................       if(n==0) 
*
03F4E:  MOVLB  5
03F50:  MOVF   xAB,F
03F52:  BTFSS  FD8.2
03F54:  BRA    404A
....................       { 
....................          displayContrasena(Contrasena[0],20,30,1);displayContrasena(Contrasena[1],40,30,0); 
03F56:  MOVFF  605,6A2
03F5A:  MOVLW  14
03F5C:  MOVLB  6
03F5E:  MOVWF  xA3
03F60:  MOVLW  1E
03F62:  MOVWF  xA4
03F64:  MOVLW  01
03F66:  MOVWF  xA5
03F68:  MOVLB  0
03F6A:  RCALL  3DC8
03F6C:  MOVFF  606,6A2
03F70:  MOVLW  28
03F72:  MOVLB  6
03F74:  MOVWF  xA3
03F76:  MOVLW  1E
03F78:  MOVWF  xA4
03F7A:  CLRF   xA5
03F7C:  MOVLB  0
03F7E:  RCALL  3DC8
....................          displayContrasena(Contrasena[2],60,30,0);displayContrasena(Contrasena[0],80,30,0); 
03F80:  MOVFF  607,6A2
03F84:  MOVLW  3C
03F86:  MOVLB  6
03F88:  MOVWF  xA3
03F8A:  MOVLW  1E
03F8C:  MOVWF  xA4
03F8E:  CLRF   xA5
03F90:  MOVLB  0
03F92:  RCALL  3DC8
03F94:  MOVFF  605,6A2
03F98:  MOVLW  50
03F9A:  MOVLB  6
03F9C:  MOVWF  xA3
03F9E:  MOVLW  1E
03FA0:  MOVWF  xA4
03FA2:  CLRF   xA5
03FA4:  MOVLB  0
03FA6:  RCALL  3DC8
....................          if(!cambia){ 
03FA8:  MOVLB  6
03FAA:  MOVF   x9F,F
03FAC:  BNZ   3FFC
....................             strcpy(Menus.Letra,"Clave"); 
03FAE:  MOVLW  06
03FB0:  MOVWF  FEA
03FB2:  MOVLW  78
03FB4:  MOVWF  FE9
03FB6:  MOVFF  FF2,6A0
03FBA:  BCF    FF2.6
03FBC:  BCF    FF2.7
03FBE:  MOVLW  00
03FC0:  MOVLB  0
03FC2:  CALL   08DC
03FC6:  TBLRD*-
03FC8:  TBLRD*+
03FCA:  MOVF   FF5,W
03FCC:  MOVWF  FEE
03FCE:  IORLW  00
03FD0:  BNZ   3FC8
03FD2:  MOVLB  6
03FD4:  BTFSC  xA0.6
03FD6:  BSF    FF2.6
03FD8:  BTFSC  xA0.7
03FDA:  BSF    FF2.7
....................             displayMenu(Menus.Letra,20,0,1,3); 
03FDC:  MOVLW  06
03FDE:  MOVWF  xA1
03FE0:  MOVLW  78
03FE2:  MOVWF  xA0
03FE4:  MOVLW  14
03FE6:  MOVWF  xA2
03FE8:  CLRF   xA3
03FEA:  MOVLW  01
03FEC:  MOVWF  xA4
03FEE:  MOVLW  03
03FF0:  MOVWF  xA5
03FF2:  MOVLB  0
03FF4:  CALL   3238
....................          }else{ 
03FF8:  BRA    4044
03FFA:  MOVLB  6
....................             strcpy(Menus.Letra,"Clave Nueva"); 
03FFC:  MOVLW  06
03FFE:  MOVWF  FEA
04000:  MOVLW  78
04002:  MOVWF  FE9
04004:  MOVFF  FF2,6A0
04008:  BCF    FF2.6
0400A:  BCF    FF2.7
0400C:  MOVLW  00
0400E:  MOVLB  0
04010:  CALL   0906
04014:  TBLRD*-
04016:  TBLRD*+
04018:  MOVF   FF5,W
0401A:  MOVWF  FEE
0401C:  IORLW  00
0401E:  BNZ   4016
04020:  MOVLB  6
04022:  BTFSC  xA0.6
04024:  BSF    FF2.6
04026:  BTFSC  xA0.7
04028:  BSF    FF2.7
....................             displayMenu(Menus.Letra,0,0,1,2);   
0402A:  MOVLW  06
0402C:  MOVWF  xA1
0402E:  MOVLW  78
04030:  MOVWF  xA0
04032:  CLRF   xA2
04034:  CLRF   xA3
04036:  MOVLW  01
04038:  MOVWF  xA4
0403A:  MOVLW  02
0403C:  MOVWF  xA5
0403E:  MOVLB  0
04040:  CALL   3238
....................          } 
....................          n=1; 
04044:  MOVLW  01
04046:  MOVLB  5
04048:  MOVWF  xAB
....................       } 
....................        
....................       if(UP){ 
0404A:  BSF    F92.5
0404C:  BTFSC  F80.5
0404E:  BRA    412C
....................          if(Flanco == 0){ 
04050:  BTFSC  xA0.7
04052:  BRA    412A
....................             Flanco = 1;DelayPuls(); 
04054:  BSF    xA0.7
04056:  MOVLB  0
04058:  RCALL  3E86
....................             Buzzer_on; 
0405A:  BSF    F8B.5
0405C:  BCF    F94.5
....................             delay_ms(50); 
0405E:  MOVLW  32
04060:  MOVLB  6
04062:  MOVWF  xA1
04064:  MOVLB  0
04066:  CALL   132E
....................             Buzzer_off; 
0406A:  BCF    F8B.5
0406C:  BCF    F94.5
....................             for(i=1;i<=4;i++){ 
0406E:  MOVLW  01
04070:  MOVLB  5
04072:  MOVWF  xB8
04074:  MOVF   xB8,W
04076:  SUBLW  04
04078:  BNC   412A
....................                if(unidad==i){ 
0407A:  MOVF   xB8,W
0407C:  SUBWF  xB7,W
0407E:  BNZ   40F4
....................                   Contrasena[i-1]++; 
04080:  MOVLW  01
04082:  SUBWF  xB8,W
04084:  CLRF   03
04086:  ADDLW  05
04088:  MOVWF  FE9
0408A:  MOVLW  06
0408C:  ADDWFC 03,W
0408E:  MOVWF  FEA
04090:  INCF   FEF,F
....................                   if(Contrasena[i-1]>9){ 
04092:  MOVLW  01
04094:  SUBWF  xB8,W
04096:  CLRF   03
04098:  ADDLW  05
0409A:  MOVWF  FE9
0409C:  MOVLW  06
0409E:  ADDWFC 03,W
040A0:  MOVWF  FEA
040A2:  BTFSC  FEF.7
040A4:  BRA    40BE
040A6:  MOVF   FEF,W
040A8:  SUBLW  09
040AA:  BC    40BE
....................                      Contrasena[i-1]=0; 
040AC:  MOVLW  01
040AE:  SUBWF  xB8,W
040B0:  CLRF   03
040B2:  ADDLW  05
040B4:  MOVWF  FE9
040B6:  MOVLW  06
040B8:  ADDWFC 03,W
040BA:  MOVWF  FEA
040BC:  CLRF   FEF
....................                   } 
....................                   displayContrasena(Contrasena[i-1],i*20,30,1); 
040BE:  MOVLW  01
040C0:  SUBWF  xB8,W
040C2:  CLRF   03
040C4:  ADDLW  05
040C6:  MOVWF  FE9
040C8:  MOVLW  06
040CA:  ADDWFC 03,W
040CC:  MOVWF  FEA
040CE:  MOVFF  FEF,6A0
040D2:  MOVF   xB8,W
040D4:  MULLW  14
040D6:  MOVFF  FF3,6A1
040DA:  MOVLB  6
040DC:  MOVFF  6A0,6A2
040E0:  MOVFF  6A1,6A3
040E4:  MOVLW  1E
040E6:  MOVWF  xA4
040E8:  MOVLW  01
040EA:  MOVWF  xA5
040EC:  MOVLB  0
040EE:  RCALL  3DC8
....................                }else{ 
040F0:  BRA    4124
040F2:  MOVLB  5
....................                   displayContrasena(Contrasena[i-1],i*20,30,0); 
040F4:  MOVLW  01
040F6:  SUBWF  xB8,W
040F8:  CLRF   03
040FA:  ADDLW  05
040FC:  MOVWF  FE9
040FE:  MOVLW  06
04100:  ADDWFC 03,W
04102:  MOVWF  FEA
04104:  MOVFF  FEF,6A0
04108:  MOVF   xB8,W
0410A:  MULLW  14
0410C:  MOVFF  FF3,6A1
04110:  MOVLB  6
04112:  MOVFF  6A0,6A2
04116:  MOVFF  6A1,6A3
0411A:  MOVLW  1E
0411C:  MOVWF  xA4
0411E:  CLRF   xA5
04120:  MOVLB  0
04122:  RCALL  3DC8
....................                } 
....................             } 
04124:  MOVLB  5
04126:  INCF   xB8,F
04128:  BRA    4074
....................          } 
....................       }else{ 
0412A:  BRA    412E
....................          Flanco = 0; 
0412C:  BCF    xA0.7
....................       } 
....................              
....................       if(DOWN){ 
0412E:  BSF    F96.0
04130:  BTFSC  F84.0
04132:  BRA    420E
....................          if(Flanco2 == 0){ 
04134:  BTFSC  xAD.1
04136:  BRA    420C
....................             Flanco2 = 1;DelayPuls(); 
04138:  BSF    xAD.1
0413A:  MOVLB  0
0413C:  RCALL  3E86
....................             Buzzer_on; 
0413E:  BSF    F8B.5
04140:  BCF    F94.5
....................             delay_ms(50); 
04142:  MOVLW  32
04144:  MOVLB  6
04146:  MOVWF  xA1
04148:  MOVLB  0
0414A:  CALL   132E
....................             Buzzer_off; 
0414E:  BCF    F8B.5
04150:  BCF    F94.5
....................             for(i=1;i<=4;i++){ 
04152:  MOVLW  01
04154:  MOVLB  5
04156:  MOVWF  xB8
04158:  MOVF   xB8,W
0415A:  SUBLW  04
0415C:  BNC   420C
....................                if(unidad==i){ 
0415E:  MOVF   xB8,W
04160:  SUBWF  xB7,W
04162:  BNZ   41D6
....................                   Contrasena[i-1]--; 
04164:  MOVLW  01
04166:  SUBWF  xB8,W
04168:  CLRF   03
0416A:  ADDLW  05
0416C:  MOVWF  FE9
0416E:  MOVLW  06
04170:  ADDWFC 03,W
04172:  MOVWF  FEA
04174:  DECF   FEF,F
....................                   if(Contrasena[i-1]<0){ 
04176:  MOVLW  01
04178:  SUBWF  xB8,W
0417A:  CLRF   03
0417C:  ADDLW  05
0417E:  MOVWF  FE9
04180:  MOVLW  06
04182:  ADDWFC 03,W
04184:  MOVWF  FEA
04186:  BTFSC  FEF.7
04188:  BRA    418C
0418A:  BRA    41A0
....................                      Contrasena[i-1]=9; 
0418C:  MOVLW  01
0418E:  SUBWF  xB8,W
04190:  CLRF   03
04192:  ADDLW  05
04194:  MOVWF  FE9
04196:  MOVLW  06
04198:  ADDWFC 03,W
0419A:  MOVWF  FEA
0419C:  MOVLW  09
0419E:  MOVWF  FEF
....................                   } 
....................                   displayContrasena(Contrasena[i-1],i*20,30,1); 
041A0:  MOVLW  01
041A2:  SUBWF  xB8,W
041A4:  CLRF   03
041A6:  ADDLW  05
041A8:  MOVWF  FE9
041AA:  MOVLW  06
041AC:  ADDWFC 03,W
041AE:  MOVWF  FEA
041B0:  MOVFF  FEF,6A0
041B4:  MOVF   xB8,W
041B6:  MULLW  14
041B8:  MOVFF  FF3,6A1
041BC:  MOVLB  6
041BE:  MOVFF  6A0,6A2
041C2:  MOVFF  6A1,6A3
041C6:  MOVLW  1E
041C8:  MOVWF  xA4
041CA:  MOVLW  01
041CC:  MOVWF  xA5
041CE:  MOVLB  0
041D0:  RCALL  3DC8
....................                }else{ 
041D2:  BRA    4206
041D4:  MOVLB  5
....................                   displayContrasena(Contrasena[i-1],i*20,30,0); 
041D6:  MOVLW  01
041D8:  SUBWF  xB8,W
041DA:  CLRF   03
041DC:  ADDLW  05
041DE:  MOVWF  FE9
041E0:  MOVLW  06
041E2:  ADDWFC 03,W
041E4:  MOVWF  FEA
041E6:  MOVFF  FEF,6A0
041EA:  MOVF   xB8,W
041EC:  MULLW  14
041EE:  MOVFF  FF3,6A1
041F2:  MOVLB  6
041F4:  MOVFF  6A0,6A2
041F8:  MOVFF  6A1,6A3
041FC:  MOVLW  1E
041FE:  MOVWF  xA4
04200:  CLRF   xA5
04202:  MOVLB  0
04204:  RCALL  3DC8
....................                } 
....................             }       
04206:  MOVLB  5
04208:  INCF   xB8,F
0420A:  BRA    4158
....................          }      
....................       }else{ 
0420C:  BRA    4210
....................          Flanco2 = 0; 
0420E:  BCF    xAD.1
....................       } 
....................              
....................       if(RIGHT){ 
04210:  BSF    F96.1
04212:  BTFSC  F84.1
04214:  BRA    42B8
....................          if(Flanco1 == 0){ 
04216:  BTFSC  xAD.0
04218:  BRA    42B6
....................             Flanco1 = 1;DelayPuls();unidad++; 
0421A:  BSF    xAD.0
0421C:  MOVLB  0
0421E:  RCALL  3E86
04220:  MOVLB  5
04222:  INCF   xB7,F
....................             Buzzer_on; 
04224:  BSF    F8B.5
04226:  BCF    F94.5
....................             delay_ms(50); 
04228:  MOVLW  32
0422A:  MOVLB  6
0422C:  MOVWF  xA1
0422E:  MOVLB  0
04230:  CALL   132E
....................             Buzzer_off; 
04234:  BCF    F8B.5
04236:  BCF    F94.5
....................             for(i=1;i<=4;i++){ 
04238:  MOVLW  01
0423A:  MOVLB  5
0423C:  MOVWF  xB8
0423E:  MOVF   xB8,W
04240:  SUBLW  04
04242:  BNC   42B6
....................                if(unidad==i){ 
04244:  MOVF   xB8,W
04246:  SUBWF  xB7,W
04248:  BNZ   4280
....................                   displayContrasena(Contrasena[i-1],i*20,30,1); 
0424A:  MOVLW  01
0424C:  SUBWF  xB8,W
0424E:  CLRF   03
04250:  ADDLW  05
04252:  MOVWF  FE9
04254:  MOVLW  06
04256:  ADDWFC 03,W
04258:  MOVWF  FEA
0425A:  MOVFF  FEF,6A0
0425E:  MOVF   xB8,W
04260:  MULLW  14
04262:  MOVFF  FF3,6A1
04266:  MOVLB  6
04268:  MOVFF  6A0,6A2
0426C:  MOVFF  6A1,6A3
04270:  MOVLW  1E
04272:  MOVWF  xA4
04274:  MOVLW  01
04276:  MOVWF  xA5
04278:  MOVLB  0
0427A:  RCALL  3DC8
....................                }else{ 
0427C:  BRA    42B0
0427E:  MOVLB  5
....................                   displayContrasena(Contrasena[i-1],i*20,30,0); 
04280:  MOVLW  01
04282:  SUBWF  xB8,W
04284:  CLRF   03
04286:  ADDLW  05
04288:  MOVWF  FE9
0428A:  MOVLW  06
0428C:  ADDWFC 03,W
0428E:  MOVWF  FEA
04290:  MOVFF  FEF,6A0
04294:  MOVF   xB8,W
04296:  MULLW  14
04298:  MOVFF  FF3,6A1
0429C:  MOVLB  6
0429E:  MOVFF  6A0,6A2
042A2:  MOVFF  6A1,6A3
042A6:  MOVLW  1E
042A8:  MOVWF  xA4
042AA:  CLRF   xA5
042AC:  MOVLB  0
042AE:  RCALL  3DC8
....................                } 
....................             } 
042B0:  MOVLB  5
042B2:  INCF   xB8,F
042B4:  BRA    423E
....................          } 
....................       }else{ 
042B6:  BRA    42BA
....................          Flanco1 = 0; 
042B8:  BCF    xAD.0
....................       } 
....................        
....................       if(LEFT){ 
042BA:  BSF    F96.2
042BC:  BTFSC  F84.2
042BE:  BRA    431C
....................          delay_ms(100); 
042C0:  MOVLW  64
042C2:  MOVLB  6
042C4:  MOVWF  xA1
042C6:  MOVLB  0
042C8:  CALL   132E
....................          if(LEFT){ 
042CC:  BSF    F96.2
042CE:  BTFSC  F84.2
042D0:  BRA    431A
....................             Buzzer_on; 
042D2:  BSF    F8B.5
042D4:  BCF    F94.5
....................             delay_ms(50); 
042D6:  MOVLW  32
042D8:  MOVLB  6
042DA:  MOVWF  xA1
042DC:  MOVLB  0
042DE:  CALL   132E
....................             Buzzer_off; 
042E2:  BCF    F8B.5
042E4:  BCF    F94.5
....................             Menu=MenuAnt;glcd_fillScreen(OFF);n=0;Opcion=1;unidad=1; 
042E6:  MOVFF  698,5B6
042EA:  MOVLB  6
042EC:  CLRF   xA0
042EE:  MOVLB  0
042F0:  CALL   2BFE
042F4:  MOVLB  5
042F6:  CLRF   xAB
042F8:  MOVLW  01
042FA:  MOVWF  xBD
042FC:  MOVWF  xB7
....................             Contrasena[0]=0;Contrasena[1]=0;Contrasena[2]=0;Contrasena[3]=0; 
042FE:  MOVLB  6
04300:  CLRF   x05
04302:  CLRF   x06
04304:  CLRF   x07
04306:  CLRF   x08
....................             glcd_fillScreen(OFF);glcd_update(); 
04308:  CLRF   xA0
0430A:  MOVLB  0
0430C:  CALL   2BFE
04310:  CALL   2C58
....................             return 1; 
04314:  MOVLW  01
04316:  MOVWF  01
04318:  BRA    47F2
0431A:  MOVLB  5
....................          } 
....................       } 
....................      
....................       if(unidad>4){ 
0431C:  MOVF   xB7,W
0431E:  SUBLW  04
04320:  BTFSC  FD8.0
04322:  BRA    47F4
....................          glcd_fillScreen(OFF);unidad=1; 
04324:  MOVLB  6
04326:  CLRF   xA0
04328:  MOVLB  0
0432A:  CALL   2BFE
0432E:  MOVLW  01
04330:  MOVLB  5
04332:  MOVWF  xB7
....................           
....................          if(!cambia){ 
04334:  MOVLB  6
04336:  MOVF   x9F,F
04338:  BTFSS  FD8.2
0433A:  BRA    46D2
....................             if(Contrasena[0]==3&&Contrasena[1]==8&&Contrasena[2]==9&&Contrasena[3]==2 && MenuActual==0){ // Si Ingresa clave para reset general del sistema. 
0433C:  MOVF   x05,W
0433E:  SUBLW  03
04340:  BTFSS  FD8.2
04342:  BRA    4442
04344:  MOVF   x06,W
04346:  SUBLW  08
04348:  BTFSS  FD8.2
0434A:  BRA    4442
0434C:  MOVF   x07,W
0434E:  SUBLW  09
04350:  BTFSS  FD8.2
04352:  BRA    4442
04354:  MOVF   x08,W
04356:  SUBLW  02
04358:  BNZ   4442
0435A:  MOVF   x99,F
0435C:  BNZ   4442
....................                write_eeprom(4,0);delay_ms(20);write_eeprom(5,0);delay_ms(20);// Reestablece a contrasea de Fabrica y reinicia Programa. 
0435E:  CLRF   FAA
04360:  MOVLW  04
04362:  MOVWF  FA9
04364:  CLRF   FA8
04366:  BCF    FA6.6
04368:  BCF    FA6.7
0436A:  BSF    FA6.2
0436C:  MOVF   FF2,W
0436E:  MOVWF  00
04370:  BCF    FF2.6
04372:  BCF    FF2.7
04374:  MOVLB  F
04376:  MOVLW  55
04378:  MOVWF  FA7
0437A:  MOVLW  AA
0437C:  MOVWF  FA7
0437E:  BSF    FA6.1
04380:  BTFSC  FA6.1
04382:  BRA    4380
04384:  BCF    FA6.2
04386:  MOVF   00,W
04388:  IORWF  FF2,F
0438A:  MOVLW  14
0438C:  MOVLB  6
0438E:  MOVWF  xA1
04390:  MOVLB  0
04392:  CALL   132E
04396:  CLRF   FAA
04398:  MOVLW  05
0439A:  MOVWF  FA9
0439C:  CLRF   FA8
0439E:  BCF    FA6.6
043A0:  BCF    FA6.7
043A2:  BSF    FA6.2
043A4:  MOVF   FF2,W
043A6:  MOVWF  00
043A8:  BCF    FF2.6
043AA:  BCF    FF2.7
043AC:  MOVLB  F
043AE:  MOVLW  55
043B0:  MOVWF  FA7
043B2:  MOVLW  AA
043B4:  MOVWF  FA7
043B6:  BSF    FA6.1
043B8:  BTFSC  FA6.1
043BA:  BRA    43B8
043BC:  BCF    FA6.2
043BE:  MOVF   00,W
043C0:  IORWF  FF2,F
043C2:  MOVLW  14
043C4:  MOVLB  6
043C6:  MOVWF  xA1
043C8:  MOVLB  0
043CA:  CALL   132E
....................                write_eeprom(6,0);delay_ms(20);write_eeprom(7,0);delay_ms(20); 
043CE:  CLRF   FAA
043D0:  MOVLW  06
043D2:  MOVWF  FA9
043D4:  CLRF   FA8
043D6:  BCF    FA6.6
043D8:  BCF    FA6.7
043DA:  BSF    FA6.2
043DC:  MOVF   FF2,W
043DE:  MOVWF  00
043E0:  BCF    FF2.6
043E2:  BCF    FF2.7
043E4:  MOVLB  F
043E6:  MOVLW  55
043E8:  MOVWF  FA7
043EA:  MOVLW  AA
043EC:  MOVWF  FA7
043EE:  BSF    FA6.1
043F0:  BTFSC  FA6.1
043F2:  BRA    43F0
043F4:  BCF    FA6.2
043F6:  MOVF   00,W
043F8:  IORWF  FF2,F
043FA:  MOVLW  14
043FC:  MOVLB  6
043FE:  MOVWF  xA1
04400:  MOVLB  0
04402:  CALL   132E
04406:  CLRF   FAA
04408:  MOVLW  07
0440A:  MOVWF  FA9
0440C:  CLRF   FA8
0440E:  BCF    FA6.6
04410:  BCF    FA6.7
04412:  BSF    FA6.2
04414:  MOVF   FF2,W
04416:  MOVWF  00
04418:  BCF    FF2.6
0441A:  BCF    FF2.7
0441C:  MOVLB  F
0441E:  MOVLW  55
04420:  MOVWF  FA7
04422:  MOVLW  AA
04424:  MOVWF  FA7
04426:  BSF    FA6.1
04428:  BTFSC  FA6.1
0442A:  BRA    4428
0442C:  BCF    FA6.2
0442E:  MOVF   00,W
04430:  IORWF  FF2,F
04432:  MOVLW  14
04434:  MOVLB  6
04436:  MOVWF  xA1
04438:  MOVLB  0
0443A:  CALL   132E
....................                reset_cpu(); 
0443E:  RESET
04440:  MOVLB  6
....................             } 
....................           
....................             if((Contrasena[0]==clave0)&&(Contrasena[1]==clave1)&&(Contrasena[2]==clave2)&&(Contrasena[3]==clave3)){ 
04442:  MOVF   x9B,W
04444:  SUBWF  x05,W
04446:  BTFSS  FD8.2
04448:  BRA    4532
0444A:  MOVF   x9C,W
0444C:  SUBWF  x06,W
0444E:  BNZ   4532
04450:  MOVF   x9D,W
04452:  SUBWF  x07,W
04454:  BNZ   4532
04456:  MOVF   x9E,W
04458:  SUBWF  x08,W
0445A:  BNZ   4532
....................                glcd_fillScreen(OFF); 
0445C:  CLRF   xA0
0445E:  MOVLB  0
04460:  CALL   2BFE
....................                strcpy(Menus.Letra,"Clave"); 
04464:  MOVLW  06
04466:  MOVWF  FEA
04468:  MOVLW  78
0446A:  MOVWF  FE9
0446C:  MOVFF  FF2,6A0
04470:  BCF    FF2.6
04472:  BCF    FF2.7
04474:  MOVLW  00
04476:  CALL   08DC
0447A:  TBLRD*-
0447C:  TBLRD*+
0447E:  MOVF   FF5,W
04480:  MOVWF  FEE
04482:  IORLW  00
04484:  BNZ   447C
04486:  MOVLB  6
04488:  BTFSC  xA0.6
0448A:  BSF    FF2.6
0448C:  BTFSC  xA0.7
0448E:  BSF    FF2.7
....................                displayMenu(Menus.Letra,30,0,0,2); 
04490:  MOVLW  06
04492:  MOVWF  xA1
04494:  MOVLW  78
04496:  MOVWF  xA0
04498:  MOVLW  1E
0449A:  MOVWF  xA2
0449C:  CLRF   xA3
0449E:  CLRF   xA4
044A0:  MOVLW  02
044A2:  MOVWF  xA5
044A4:  MOVLB  0
044A6:  CALL   3238
....................                strcpy(Menus.Letra,"Correcta"); 
044AA:  MOVLW  06
044AC:  MOVWF  FEA
044AE:  MOVLW  78
044B0:  MOVWF  FE9
044B2:  MOVFF  FF2,6A0
044B6:  BCF    FF2.6
044B8:  BCF    FF2.7
044BA:  MOVLW  00
044BC:  CALL   0936
044C0:  TBLRD*-
044C2:  TBLRD*+
044C4:  MOVF   FF5,W
044C6:  MOVWF  FEE
044C8:  IORLW  00
044CA:  BNZ   44C2
044CC:  MOVLB  6
044CE:  BTFSC  xA0.6
044D0:  BSF    FF2.6
044D2:  BTFSC  xA0.7
044D4:  BSF    FF2.7
....................                displayMenu(Menus.Letra,15,30,0,2); 
044D6:  MOVLW  06
044D8:  MOVWF  xA1
044DA:  MOVLW  78
044DC:  MOVWF  xA0
044DE:  MOVLW  0F
044E0:  MOVWF  xA2
044E2:  MOVLW  1E
044E4:  MOVWF  xA3
044E6:  CLRF   xA4
044E8:  MOVLW  02
044EA:  MOVWF  xA5
044EC:  MOVLB  0
044EE:  CALL   3238
....................                Menu=MenuPost;glcd_update();delay_ms(1000);glcd_fillScreen(OFF); 
044F2:  MOVFF  69A,5B6
044F6:  CALL   2C58
044FA:  MOVLW  04
044FC:  MOVLB  6
044FE:  MOVWF  xA0
04500:  MOVLW  FA
04502:  MOVWF  xA1
04504:  MOVLB  0
04506:  CALL   132E
0450A:  MOVLB  6
0450C:  DECFSZ xA0,F
0450E:  BRA    4500
04510:  CLRF   xA0
04512:  MOVLB  0
04514:  CALL   2BFE
....................                Contrasena[0]=0;Contrasena[1]=0;Contrasena[2]=0;Contrasena[3]=0; 
04518:  MOVLB  6
0451A:  CLRF   x05
0451C:  CLRF   x06
0451E:  CLRF   x07
04520:  CLRF   x08
....................                n=0; 
04522:  MOVLB  5
04524:  CLRF   xAB
....................                return 1; 
04526:  MOVLW  01
04528:  MOVWF  01
0452A:  MOVLB  0
0452C:  BRA    47F2
....................             }else{ 
0452E:  BRA    46CE
04530:  MOVLB  6
....................                glcd_fillScreen(OFF); 
04532:  CLRF   xA0
04534:  MOVLB  0
04536:  CALL   2BFE
....................                strcpy(Menus.Letra,"Clave"); 
0453A:  MOVLW  06
0453C:  MOVWF  FEA
0453E:  MOVLW  78
04540:  MOVWF  FE9
04542:  MOVFF  FF2,6A0
04546:  BCF    FF2.6
04548:  BCF    FF2.7
0454A:  MOVLW  00
0454C:  CALL   08DC
04550:  TBLRD*-
04552:  TBLRD*+
04554:  MOVF   FF5,W
04556:  MOVWF  FEE
04558:  IORLW  00
0455A:  BNZ   4552
0455C:  MOVLB  6
0455E:  BTFSC  xA0.6
04560:  BSF    FF2.6
04562:  BTFSC  xA0.7
04564:  BSF    FF2.7
....................                displayMenu(Menus.Letra,30,0,0,2); 
04566:  MOVLW  06
04568:  MOVWF  xA1
0456A:  MOVLW  78
0456C:  MOVWF  xA0
0456E:  MOVLW  1E
04570:  MOVWF  xA2
04572:  CLRF   xA3
04574:  CLRF   xA4
04576:  MOVLW  02
04578:  MOVWF  xA5
0457A:  MOVLB  0
0457C:  CALL   3238
....................                strcpy(Menus.Letra,"Incorrecta"); 
04580:  MOVLW  06
04582:  MOVWF  FEA
04584:  MOVLW  78
04586:  MOVWF  FE9
04588:  MOVFF  FF2,6A0
0458C:  BCF    FF2.6
0458E:  BCF    FF2.7
04590:  MOVLW  00
04592:  CALL   0964
04596:  TBLRD*-
04598:  TBLRD*+
0459A:  MOVF   FF5,W
0459C:  MOVWF  FEE
0459E:  IORLW  00
045A0:  BNZ   4598
045A2:  MOVLB  6
045A4:  BTFSC  xA0.6
045A6:  BSF    FF2.6
045A8:  BTFSC  xA0.7
045AA:  BSF    FF2.7
....................                displayMenu(Menus.Letra,0,30,0,2); 
045AC:  MOVLW  06
045AE:  MOVWF  xA1
045B0:  MOVLW  78
045B2:  MOVWF  xA0
045B4:  CLRF   xA2
045B6:  MOVLW  1E
045B8:  MOVWF  xA3
045BA:  CLRF   xA4
045BC:  MOVLW  02
045BE:  MOVWF  xA5
045C0:  MOVLB  0
045C2:  CALL   3238
....................                unidad=1;glcd_update();delay_ms(1000);Contrasena[0]=0;Contrasena[1]=0;Contrasena[2]=0;Contrasena[3]=0;glcd_fillScreen(OFF); 
045C6:  MOVLW  01
045C8:  MOVLB  5
045CA:  MOVWF  xB7
045CC:  MOVLB  0
045CE:  CALL   2C58
045D2:  MOVLW  04
045D4:  MOVLB  6
045D6:  MOVWF  xA0
045D8:  MOVLW  FA
045DA:  MOVWF  xA1
045DC:  MOVLB  0
045DE:  CALL   132E
045E2:  MOVLB  6
045E4:  DECFSZ xA0,F
045E6:  BRA    45D8
045E8:  CLRF   x05
045EA:  CLRF   x06
045EC:  CLRF   x07
045EE:  CLRF   x08
045F0:  CLRF   xA0
045F2:  MOVLB  0
045F4:  CALL   2BFE
....................                glcd_rect(0, 0, 127, 25, YES, ON);strcpy(Menus.Letra,"Clave");glcd_text57(25, 1, Menus.Letra, 3, OFF);displayContrasena(Contrasena[0],20,30,1); 
045F8:  MOVLB  6
045FA:  CLRF   xB1
045FC:  CLRF   xB2
045FE:  MOVLW  7F
04600:  MOVWF  xB3
04602:  MOVLW  19
04604:  MOVWF  xB4
04606:  MOVLW  01
04608:  MOVWF  xB5
0460A:  MOVWF  xB6
0460C:  MOVLB  0
0460E:  CALL   3176
04612:  MOVLW  06
04614:  MOVWF  FEA
04616:  MOVLW  78
04618:  MOVWF  FE9
0461A:  MOVFF  FF2,6A0
0461E:  BCF    FF2.6
04620:  BCF    FF2.7
04622:  MOVLW  00
04624:  CALL   08DC
04628:  TBLRD*-
0462A:  TBLRD*+
0462C:  MOVF   FF5,W
0462E:  MOVWF  FEE
04630:  IORLW  00
04632:  BNZ   462A
04634:  MOVLB  6
04636:  BTFSC  xA0.6
04638:  BSF    FF2.6
0463A:  BTFSC  xA0.7
0463C:  BSF    FF2.7
0463E:  MOVLW  19
04640:  MOVWF  xB1
04642:  MOVLW  01
04644:  MOVWF  xB2
04646:  MOVLW  06
04648:  MOVWF  xB4
0464A:  MOVLW  78
0464C:  MOVWF  xB3
0464E:  MOVLW  03
04650:  MOVWF  xB5
04652:  CLRF   xB6
04654:  MOVLB  0
04656:  CALL   2E74
0465A:  MOVFF  605,6A2
0465E:  MOVLW  14
04660:  MOVLB  6
04662:  MOVWF  xA3
04664:  MOVLW  1E
04666:  MOVWF  xA4
04668:  MOVLW  01
0466A:  MOVWF  xA5
0466C:  MOVLB  0
0466E:  CALL   3DC8
....................                displayContrasena(Contrasena[1],40,30,0);displayContrasena(Contrasena[2],60,30,0);displayContrasena(Contrasena[0],80,30,0); 
04672:  MOVFF  606,6A2
04676:  MOVLW  28
04678:  MOVLB  6
0467A:  MOVWF  xA3
0467C:  MOVLW  1E
0467E:  MOVWF  xA4
04680:  CLRF   xA5
04682:  MOVLB  0
04684:  CALL   3DC8
04688:  MOVFF  607,6A2
0468C:  MOVLW  3C
0468E:  MOVLB  6
04690:  MOVWF  xA3
04692:  MOVLW  1E
04694:  MOVWF  xA4
04696:  CLRF   xA5
04698:  MOVLB  0
0469A:  CALL   3DC8
0469E:  MOVFF  605,6A2
046A2:  MOVLW  50
046A4:  MOVLB  6
046A6:  MOVWF  xA3
046A8:  MOVLW  1E
046AA:  MOVWF  xA4
046AC:  CLRF   xA5
046AE:  MOVLB  0
046B0:  CALL   3DC8
....................                Menu=MenuAnt;glcd_fillScreen(OFF);n=0; 
046B4:  MOVFF  698,5B6
046B8:  MOVLB  6
046BA:  CLRF   xA0
046BC:  MOVLB  0
046BE:  CALL   2BFE
046C2:  MOVLB  5
046C4:  CLRF   xAB
....................                return 0; 
046C6:  MOVLW  00
046C8:  MOVWF  01
046CA:  MOVLB  0
046CC:  BRA    47F2
....................             } 
....................          }else{ 
046CE:  BRA    47F2
046D0:  MOVLB  6
....................             Opcion=1;unidad=1; 
046D2:  MOVLW  01
046D4:  MOVLB  5
046D6:  MOVWF  xBD
046D8:  MOVWF  xB7
....................             write_eeprom(4,Contrasena[0]); 
046DA:  CLRF   FAA
046DC:  MOVLW  04
046DE:  MOVWF  FA9
046E0:  MOVFF  605,FA8
046E4:  BCF    FA6.6
046E6:  BCF    FA6.7
046E8:  BSF    FA6.2
046EA:  MOVF   FF2,W
046EC:  MOVWF  00
046EE:  BCF    FF2.6
046F0:  BCF    FF2.7
046F2:  MOVLB  F
046F4:  MOVLW  55
046F6:  MOVWF  FA7
046F8:  MOVLW  AA
046FA:  MOVWF  FA7
046FC:  BSF    FA6.1
046FE:  BTFSC  FA6.1
04700:  BRA    46FE
04702:  BCF    FA6.2
04704:  MOVF   00,W
04706:  IORWF  FF2,F
....................             delay_ms(50);    
04708:  MOVLW  32
0470A:  MOVLB  6
0470C:  MOVWF  xA1
0470E:  MOVLB  0
04710:  CALL   132E
....................             write_eeprom(5,Contrasena[1]); 
04714:  CLRF   FAA
04716:  MOVLW  05
04718:  MOVWF  FA9
0471A:  MOVFF  606,FA8
0471E:  BCF    FA6.6
04720:  BCF    FA6.7
04722:  BSF    FA6.2
04724:  MOVF   FF2,W
04726:  MOVWF  00
04728:  BCF    FF2.6
0472A:  BCF    FF2.7
0472C:  MOVLB  F
0472E:  MOVLW  55
04730:  MOVWF  FA7
04732:  MOVLW  AA
04734:  MOVWF  FA7
04736:  BSF    FA6.1
04738:  BTFSC  FA6.1
0473A:  BRA    4738
0473C:  BCF    FA6.2
0473E:  MOVF   00,W
04740:  IORWF  FF2,F
....................             delay_ms(50);    
04742:  MOVLW  32
04744:  MOVLB  6
04746:  MOVWF  xA1
04748:  MOVLB  0
0474A:  CALL   132E
....................             write_eeprom(6,Contrasena[2]); 
0474E:  CLRF   FAA
04750:  MOVLW  06
04752:  MOVWF  FA9
04754:  MOVFF  607,FA8
04758:  BCF    FA6.6
0475A:  BCF    FA6.7
0475C:  BSF    FA6.2
0475E:  MOVF   FF2,W
04760:  MOVWF  00
04762:  BCF    FF2.6
04764:  BCF    FF2.7
04766:  MOVLB  F
04768:  MOVLW  55
0476A:  MOVWF  FA7
0476C:  MOVLW  AA
0476E:  MOVWF  FA7
04770:  BSF    FA6.1
04772:  BTFSC  FA6.1
04774:  BRA    4772
04776:  BCF    FA6.2
04778:  MOVF   00,W
0477A:  IORWF  FF2,F
....................             delay_ms(50);    
0477C:  MOVLW  32
0477E:  MOVLB  6
04780:  MOVWF  xA1
04782:  MOVLB  0
04784:  CALL   132E
....................             write_eeprom(7,Contrasena[3]); 
04788:  CLRF   FAA
0478A:  MOVLW  07
0478C:  MOVWF  FA9
0478E:  MOVFF  608,FA8
04792:  BCF    FA6.6
04794:  BCF    FA6.7
04796:  BSF    FA6.2
04798:  MOVF   FF2,W
0479A:  MOVWF  00
0479C:  BCF    FF2.6
0479E:  BCF    FF2.7
047A0:  MOVLB  F
047A2:  MOVLW  55
047A4:  MOVWF  FA7
047A6:  MOVLW  AA
047A8:  MOVWF  FA7
047AA:  BSF    FA6.1
047AC:  BTFSC  FA6.1
047AE:  BRA    47AC
047B0:  BCF    FA6.2
047B2:  MOVF   00,W
047B4:  IORWF  FF2,F
....................             delay_ms(1000);glcd_fillScreen(OFF);Menu=MenuAnt; 
047B6:  MOVLW  04
047B8:  MOVLB  6
047BA:  MOVWF  xA0
047BC:  MOVLW  FA
047BE:  MOVWF  xA1
047C0:  MOVLB  0
047C2:  CALL   132E
047C6:  MOVLB  6
047C8:  DECFSZ xA0,F
047CA:  BRA    47BC
047CC:  CLRF   xA0
047CE:  MOVLB  0
047D0:  CALL   2BFE
047D4:  MOVFF  698,5B6
....................             n=0; 
047D8:  MOVLB  5
047DA:  CLRF   xAB
....................             Contrasena[0]=0;Contrasena[1]=0;Contrasena[2]=0;Contrasena[3]=0; 
047DC:  MOVLB  6
047DE:  CLRF   x05
047E0:  CLRF   x06
047E2:  CLRF   x07
047E4:  CLRF   x08
....................             MensajeAlmacenado(); 
047E6:  MOVLB  0
047E8:  CALL   3E94
....................             return 0; 
047EC:  MOVLW  00
047EE:  MOVWF  01
047F0:  BRA    47F2
047F2:  MOVLB  5
....................          } 
....................       } 
.................... } 
047F4:  MOVLB  0
047F6:  RETLW  00
....................  
.................... void CuentaTiempo(){ 
....................       if(tinicio>=60) 
*
06DF8:  MOVLB  5
06DFA:  MOVF   xCA,F
06DFC:  BNZ   6E04
06DFE:  MOVF   xC9,W
06E00:  SUBLW  3B
06E02:  BC    6E46
....................       { 
....................          tinicio=0; 
06E04:  CLRF   xCA
06E06:  CLRF   xC9
....................          Testerilizacion[0]++; 
06E08:  INCF   xFD,F
....................          if(Testerilizacion[0]>9) 
06E0A:  BTFSC  xFD.7
06E0C:  BRA    6E18
06E0E:  MOVF   xFD,W
06E10:  SUBLW  09
06E12:  BC    6E18
....................          { 
....................             Testerilizacion[0]=0; 
06E14:  CLRF   xFD
....................             Testerilizacion[1]++; 
06E16:  INCF   xFE,F
....................          } 
....................          if(Testerilizacion[1]>5) 
06E18:  BTFSC  xFE.7
06E1A:  BRA    6E26
06E1C:  MOVF   xFE,W
06E1E:  SUBLW  05
06E20:  BC    6E26
....................          { 
....................             Testerilizacion[1]=0; 
06E22:  CLRF   xFE
....................             Testerilizacion[2]++; 
06E24:  INCF   xFF,F
....................          } 
....................          if(Testerilizacion[2]>9) 
06E26:  BTFSC  xFF.7
06E28:  BRA    6E36
06E2A:  MOVF   xFF,W
06E2C:  SUBLW  09
06E2E:  BC    6E36
....................          { 
....................             Testerilizacion[2]=0; 
06E30:  CLRF   xFF
....................             Testerilizacion[3]++; 
06E32:  MOVLB  6
06E34:  INCF   x00,F
....................          } 
....................          if(Testerilizacion[3]>9) 
06E36:  MOVLB  6
06E38:  BTFSC  x00.7
06E3A:  BRA    6E44
06E3C:  MOVF   x00,W
06E3E:  SUBLW  09
06E40:  BC    6E44
....................          { 
....................             Testerilizacion[3]=0; 
06E42:  CLRF   x00
06E44:  MOVLB  5
....................          } 
....................       } 
.................... } 
06E46:  MOVLB  0
06E48:  GOTO   9DF0 (RETURN)
....................  
....................  
.................... int8 extraeDecimal(float data){ 
*
03B4E:  MOVLB  6
03B50:  CLRF   x9F
03B52:  CLRF   x9E
03B54:  CLRF   x9D
03B56:  CLRF   x9C
03B58:  CLRF   xA3
03B5A:  CLRF   xA2
03B5C:  CLRF   xA1
03B5E:  CLRF   xA0
....................    float entero=0; 
....................    float tmp=0.0; 
....................     
....................    entero=(int8)data; 
03B60:  MOVFF  69B,6A7
03B64:  MOVFF  69A,6A6
03B68:  MOVFF  699,6A5
03B6C:  MOVFF  698,6A4
03B70:  MOVLB  0
03B72:  RCALL  3A44
03B74:  MOVLB  6
03B76:  CLRF   xA5
03B78:  MOVFF  01,6A4
03B7C:  MOVLB  0
03B7E:  CALL   139C
03B82:  MOVFF  03,69F
03B86:  MOVFF  02,69E
03B8A:  MOVFF  01,69D
03B8E:  MOVFF  00,69C
....................    tmp=(data-entero)*10; 
03B92:  BSF    FD8.1
03B94:  MOVFF  69B,6A7
03B98:  MOVFF  69A,6A6
03B9C:  MOVFF  699,6A5
03BA0:  MOVFF  698,6A4
03BA4:  MOVFF  69F,6AB
03BA8:  MOVFF  69E,6AA
03BAC:  MOVFF  69D,6A9
03BB0:  MOVFF  69C,6A8
03BB4:  CALL   1530
03BB8:  MOVFF  00,6A4
03BBC:  MOVFF  01,6A5
03BC0:  MOVFF  02,6A6
03BC4:  MOVFF  03,6A7
03BC8:  MOVFF  03,6BB
03BCC:  MOVFF  02,6BA
03BD0:  MOVFF  01,6B9
03BD4:  MOVFF  00,6B8
03BD8:  MOVLB  6
03BDA:  CLRF   xBF
03BDC:  CLRF   xBE
03BDE:  MOVLW  20
03BE0:  MOVWF  xBD
03BE2:  MOVLW  82
03BE4:  MOVWF  xBC
03BE6:  MOVLB  0
03BE8:  CALL   33AE
03BEC:  MOVFF  03,6A3
03BF0:  MOVFF  02,6A2
03BF4:  MOVFF  01,6A1
03BF8:  MOVFF  00,6A0
....................    return (int8)tmp; 
03BFC:  MOVFF  6A3,6A7
03C00:  MOVFF  6A2,6A6
03C04:  MOVFF  6A1,6A5
03C08:  MOVFF  6A0,6A4
03C0C:  RCALL  3A44
03C0E:  MOVF   01,W
.................... } 
03C10:  GOTO   3C4C (RETURN)
....................  
.................... void Envio_I2C(direccion, posicion, dato){ 
....................  
....................    i2c_start();            // Comienzo comunicacin 
*
03AF6:  BSF    F94.4
03AF8:  MOVLW  05
03AFA:  MOVWF  00
03AFC:  DECFSZ 00,F
03AFE:  BRA    3AFC
03B00:  BSF    F94.3
03B02:  MOVLW  06
03B04:  MOVWF  00
03B06:  DECFSZ 00,F
03B08:  BRA    3B06
03B0A:  BCF    F8B.4
03B0C:  BCF    F94.4
03B0E:  MOVLW  05
03B10:  MOVWF  00
03B12:  DECFSZ 00,F
03B14:  BRA    3B12
03B16:  BCF    F8B.3
03B18:  BCF    F94.3
....................    i2c_write(direccion);   // Direccin del esclavo en el bus I2C 
03B1A:  MOVFF  699,69C
03B1E:  RCALL  3A80
....................    i2c_write(posicion);    // Posicin donde se guardara el dato transmitido 
03B20:  MOVFF  69A,69C
03B24:  RCALL  3A80
....................    i2c_write(dato);        // Dato a transmitir 
03B26:  MOVFF  69B,69C
03B2A:  RCALL  3A80
....................    i2c_stop();             // Fin comunicacin 
03B2C:  BCF    F94.4
03B2E:  NOP   
03B30:  BSF    F94.3
03B32:  BTFSS  F82.3
03B34:  BRA    3B32
03B36:  MOVLW  05
03B38:  MOVWF  00
03B3A:  DECFSZ 00,F
03B3C:  BRA    3B3A
03B3E:  BRA    3B40
03B40:  NOP   
03B42:  BSF    F94.4
03B44:  MOVLW  05
03B46:  MOVWF  00
03B48:  DECFSZ 00,F
03B4A:  BRA    3B48
.................... } 
03B4C:  RETLW  00
....................  
.................... void Envio_Esclavos(void){ 
....................    Envio_I2C(0xA0,0,(int8)Temperatura); 
*
03C14:  MOVFF  648,6A7
03C18:  MOVFF  647,6A6
03C1C:  MOVFF  646,6A5
03C20:  MOVFF  645,6A4
03C24:  RCALL  3A44
03C26:  MOVFF  01,698
03C2A:  MOVLW  A0
03C2C:  MOVLB  6
03C2E:  MOVWF  x99
03C30:  CLRF   x9A
03C32:  MOVFF  01,69B
03C36:  MOVLB  0
03C38:  RCALL  3AF6
....................    Envio_I2C(0xA0,1,extraeDecimal(Temperatura)); 
03C3A:  MOVFF  648,69B
03C3E:  MOVFF  647,69A
03C42:  MOVFF  646,699
03C46:  MOVFF  645,698
03C4A:  BRA    3B4E
03C4C:  MOVFF  01,698
03C50:  MOVLW  A0
03C52:  MOVLB  6
03C54:  MOVWF  x99
03C56:  MOVLW  01
03C58:  MOVWF  x9A
03C5A:  MOVFF  01,69B
03C5E:  MOVLB  0
03C60:  RCALL  3AF6
....................    Envio_I2C(0xA0,2,255); 
03C62:  MOVLW  A0
03C64:  MOVLB  6
03C66:  MOVWF  x99
03C68:  MOVLW  02
03C6A:  MOVWF  x9A
03C6C:  MOVLW  FF
03C6E:  MOVWF  x9B
03C70:  MOVLB  0
03C72:  RCALL  3AF6
....................    Envio_I2C(0xA0,3,255); 
03C74:  MOVLW  A0
03C76:  MOVLB  6
03C78:  MOVWF  x99
03C7A:  MOVLW  03
03C7C:  MOVWF  x9A
03C7E:  MOVLW  FF
03C80:  MOVWF  x9B
03C82:  MOVLB  0
03C84:  RCALL  3AF6
....................    Envio_I2C(0xA0,4,128); 
03C86:  MOVLW  A0
03C88:  MOVLB  6
03C8A:  MOVWF  x99
03C8C:  MOVLW  04
03C8E:  MOVWF  x9A
03C90:  MOVLW  80
03C92:  MOVWF  x9B
03C94:  MOVLB  0
03C96:  RCALL  3AF6
.................... } 
03C98:  GOTO   75F4 (RETURN)
....................  
.................... #int_EXT HIGH 
.................... void ext0() {   
....................    Cruce=ON; 
*
01154:  MOVLB  5
01156:  BSF    xA0.5
....................     
....................    if(VelMotor==9){ 
01158:  MOVF   xB3,W
0115A:  SUBLW  09
0115C:  BNZ   116A
....................       set_timer0(190); // Cada cuenta del timer0 es 51.2us y timer1 es 1.59us 
0115E:  CLRF   FD7
01160:  MOVLW  BE
01162:  MOVWF  FD6
....................       Motor1_off;  
01164:  BCF    F8B.0
01166:  BCF    F94.0
....................    }else if(VelMotor==8){ 
01168:  BRA    11F6
0116A:  MOVF   xB3,W
0116C:  SUBLW  08
0116E:  BNZ   117C
....................       set_timer0(180);       
01170:  CLRF   FD7
01172:  MOVLW  B4
01174:  MOVWF  FD6
....................       Motor1_off;  
01176:  BCF    F8B.0
01178:  BCF    F94.0
....................    }else if(VelMotor==7){ 
0117A:  BRA    11F6
0117C:  MOVF   xB3,W
0117E:  SUBLW  07
01180:  BNZ   118E
....................       set_timer0(175); 
01182:  CLRF   FD7
01184:  MOVLW  AF
01186:  MOVWF  FD6
....................       Motor1_off;  
01188:  BCF    F8B.0
0118A:  BCF    F94.0
....................    }else if(VelMotor==6){ 
0118C:  BRA    11F6
0118E:  MOVF   xB3,W
01190:  SUBLW  06
01192:  BNZ   11A0
....................       set_timer0(172); 
01194:  CLRF   FD7
01196:  MOVLW  AC
01198:  MOVWF  FD6
....................       Motor1_off;  
0119A:  BCF    F8B.0
0119C:  BCF    F94.0
....................    }else if(VelMotor==5){ 
0119E:  BRA    11F6
011A0:  MOVF   xB3,W
011A2:  SUBLW  05
011A4:  BNZ   11B2
....................       set_timer0(169); 
011A6:  CLRF   FD7
011A8:  MOVLW  A9
011AA:  MOVWF  FD6
....................       Motor1_off;  
011AC:  BCF    F8B.0
011AE:  BCF    F94.0
....................    }else if(VelMotor==4){ 
011B0:  BRA    11F6
011B2:  MOVF   xB3,W
011B4:  SUBLW  04
011B6:  BNZ   11C4
....................       set_timer0(166); 
011B8:  CLRF   FD7
011BA:  MOVLW  A6
011BC:  MOVWF  FD6
....................       Motor1_off;  
011BE:  BCF    F8B.0
011C0:  BCF    F94.0
....................    }else if(VelMotor==3){ 
011C2:  BRA    11F6
011C4:  MOVF   xB3,W
011C6:  SUBLW  03
011C8:  BNZ   11D6
....................       set_timer0(163); 
011CA:  CLRF   FD7
011CC:  MOVLW  A3
011CE:  MOVWF  FD6
....................       Motor1_off;  
011D0:  BCF    F8B.0
011D2:  BCF    F94.0
....................    }else if(VelMotor==2){ 
011D4:  BRA    11F6
011D6:  MOVF   xB3,W
011D8:  SUBLW  02
011DA:  BNZ   11E8
....................       set_timer0(160); 
011DC:  CLRF   FD7
011DE:  MOVLW  A0
011E0:  MOVWF  FD6
....................       Motor1_off;  
011E2:  BCF    F8B.0
011E4:  BCF    F94.0
....................    }else if(VelMotor==1){ 
011E6:  BRA    11F6
011E8:  DECFSZ xB3,W
011EA:  BRA    11F6
....................       set_timer0(158); 
011EC:  CLRF   FD7
011EE:  MOVLW  9E
011F0:  MOVWF  FD6
....................       Motor1_off;  
011F2:  BCF    F8B.0
011F4:  BCF    F94.0
....................    }                
....................    pulsos++;  
011F6:  INCF   xBC,F
.................... } 
....................  
011F8:  BCF    FF2.1
011FA:  MOVLB  0
011FC:  GOTO   010A
.................... #int_TIMER0 HIGH 
.................... void temp0s(void){ 
....................    if(VelMotor>0 && VelMotor<10){ 
01200:  MOVLB  5
01202:  MOVF   xB3,F
01204:  BZ    1226
01206:  MOVF   xB3,W
01208:  SUBLW  09
0120A:  BNC   1226
....................    if(Cruce){         //If the triac pin is low we change the state and prepare the timer 
0120C:  BTFSS  xA0.5
0120E:  BRA    121E
....................       Motor1_on; 
01210:  BSF    F8B.0
01212:  BCF    F94.0
....................       set_timer0(253);         // Next timer overflow will clear the triac pin 
01214:  CLRF   FD7
01216:  MOVLW  FD
01218:  MOVWF  FD6
....................       Cruce=OFF;         // Flag now signals that we need to turn off the triac output pin 
0121A:  BCF    xA0.5
....................    } else {            //The triac has been triggered, cut the pulse 
0121C:  BRA    1226
....................       Motor1_off; 
0121E:  BCF    F8B.0
01220:  BCF    F94.0
....................       set_timer0(0);         //Set timer period to maximum, timer should not overflow untill next zero cross interrupt 
01222:  CLRF   FD7
01224:  CLRF   FD6
....................    } 
....................    } 
.................... } 
....................  
01226:  BCF    FF2.2
01228:  MOVLB  0
0122A:  GOTO   010A
.................... #int_TIMER1  
.................... void temp1s(void){ 
....................    set_timer1(40536);//5ms 
0122E:  MOVLW  9E
01230:  MOVWF  FCF
01232:  MOVLW  58
01234:  MOVWF  FCE
....................    //set_timer1(65036);//100us 
....................    tiempos++; 
01236:  MOVLB  5
01238:  INCF   xC3,F
0123A:  BTFSC  FD8.2
0123C:  INCF   xC4,F
....................    tiempos3++; 
0123E:  INCF   xC5,F
01240:  BTFSC  FD8.2
01242:  INCF   xC6,F
....................    tiempoctrl++; 
01244:  INCF   xC7,F
01246:  BTFSC  FD8.2
01248:  INCF   xC8,F
....................     
....................    if(LEFT){ 
0124A:  BSF    F96.2
0124C:  BTFSC  F84.2
0124E:  BRA    1258
....................       tleft++; 
01250:  INCF   xDB,F
01252:  BTFSC  FD8.2
01254:  INCF   xDC,F
....................    }else{ 
01256:  BRA    125C
....................       tleft=0; 
01258:  CLRF   xDC
0125A:  CLRF   xDB
....................    } 
....................     
....................    if(VelMotor==10){ 
0125C:  MOVF   xB3,W
0125E:  SUBLW  0A
01260:  BNZ   126A
....................       Motor1_on; 
01262:  BSF    F8B.0
01264:  BCF    F94.0
....................       set_timer0(0); 
01266:  CLRF   FD7
01268:  CLRF   FD6
....................    } 
....................    if(VelMotor==0){ 
0126A:  MOVF   xB3,F
0126C:  BNZ   1276
....................       Motor1_off; 
0126E:  BCF    F8B.0
01270:  BCF    F94.0
....................       set_timer0(0); 
01272:  CLRF   FD7
01274:  CLRF   FD6
....................    } 
....................     
....................    if(tiempos3>=200){ 
01276:  MOVF   xC6,F
01278:  BNZ   1280
0127A:  MOVF   xC5,W
0127C:  SUBLW  C7
0127E:  BC    1288
....................       Lectura2=1; 
01280:  MOVLW  01
01282:  MOVWF  xA8
....................       tiempos3=0; 
01284:  CLRF   xC6
01286:  CLRF   xC5
....................    } 
....................     
....................    if(Controlando==1){ 
01288:  DECFSZ xA9,W
0128A:  BRA    12CE
....................       if(tiempoctrl<Tp){ // Si el tiempo es menor o igual al tiempo de control se enciende la resistencia de lo contrario se apaga. 
0128C:  MOVF   xC8,W
0128E:  SUBWF  xD0,W
01290:  BNC   12B4
01292:  BNZ   129A
01294:  MOVF   xCF,W
01296:  SUBWF  xC7,W
01298:  BC    12B4
....................          if(VelMotor>5){ 
0129A:  MOVF   xB3,W
0129C:  SUBLW  05
0129E:  BC    12AA
....................             SSR_on; 
012A0:  BSF    F8B.2
012A2:  BCF    F94.2
....................             SSR2_off; 
012A4:  BCF    F8B.1
012A6:  BCF    F94.1
....................          }else{ 
012A8:  BRA    12B2
....................             SSR2_off; 
012AA:  BCF    F8B.1
012AC:  BCF    F94.1
....................             SSR_on; 
012AE:  BSF    F8B.2
012B0:  BCF    F94.2
....................          } 
....................       }else{          
012B2:  BRA    12BC
....................          SSR_off; 
012B4:  BCF    F8B.2
012B6:  BCF    F94.2
....................          SSR2_off; 
012B8:  BCF    F8B.1
012BA:  BCF    F94.1
....................       } 
....................        
....................       if(tiempoctrl>=Tc) // Si el tiempo de control es mayor al tiempo de ciclo se reinicia tiempo de control 
012BC:  MOVF   xD2,W
012BE:  SUBWF  xC8,W
012C0:  BNC   12CE
012C2:  BNZ   12CA
012C4:  MOVF   xD1,W
012C6:  SUBWF  xC7,W
012C8:  BNC   12CE
....................          tiempoctrl=0; // tiempoctrl incrementa una unidad cada 5ms, por eso se dividen los tiempos por 0.005. 
012CA:  CLRF   xC8
012CC:  CLRF   xC7
....................    } 
....................      
....................    if(tiempos>=200){  // 12000 para que incremente cada minuto, 200para que incremente cada segundo. 
012CE:  MOVF   xC4,F
012D0:  BNZ   12D8
012D2:  MOVF   xC3,W
012D4:  SUBLW  C7
012D6:  BC    1326
....................       tiempos=0;Lectura=1;tiemporeset++;TiempoControl++;tiemporecta++; 
012D8:  CLRF   xC4
012DA:  CLRF   xC3
012DC:  BSF    xAD.3
012DE:  INCF   xB1,F
012E0:  INCF   xD3,F
012E2:  BTFSC  FD8.2
012E4:  INCF   xD4,F
012E6:  INCF   xA6,F
....................        
....................       if(flagup) 
012E8:  BTFSS  xA0.2
012EA:  BRA    12EE
....................          tiempoup++; 
012EC:  INCF   xBA,F
....................       if(flagdn) 
012EE:  BTFSS  xA0.3
012F0:  BRA    12F4
....................          tiempodn++;  
012F2:  INCF   xBB,F
....................        
....................       if(abrio) 
012F4:  BTFSS  xAE.0
012F6:  BRA    12FE
....................          tiempoApertura++; 
012F8:  INCF   xD5,F
012FA:  BTFSC  FD8.2
012FC:  INCF   xD6,F
....................           
....................       if(flag_setpoint==1) 
012FE:  BTFSS  xAE.6
01300:  BRA    1308
....................          tiemposetpoint++; 
01302:  INCF   xCD,F
01304:  BTFSC  FD8.2
01306:  INCF   xCE,F
....................           
....................       if(tiempo_esterilizacion==1)    
01308:  DECFSZ xBE,W
0130A:  BRA    1312
....................          tinicio++; 
0130C:  INCF   xC9,F
0130E:  BTFSC  FD8.2
01310:  INCF   xCA,F
....................        
....................       if(flag_tiempocalentamiento==1) 
01312:  BTFSS  xAE.4
01314:  BRA    131C
....................          tiempocalentamiento++; 
01316:  INCF   xCB,F
01318:  BTFSC  FD8.2
0131A:  INCF   xCC,F
....................           
....................       if(sobrepaso==1) 
0131C:  BTFSS  xAF.0
0131E:  BRA    1326
....................          tSobrepaso++; 
01320:  INCF   xD7,F
01322:  BTFSC  FD8.2
01324:  INCF   xD8,F
....................    }         
.................... } 
....................  
01326:  BCF    F9E.0
01328:  MOVLB  0
0132A:  GOTO   0068
.................... void main() 
.................... { 
*
06EC8:  CLRF   FF8
06ECA:  BSF    FF1.2
06ECC:  BCF    F9F.0
06ECE:  BSF    FD0.7
06ED0:  BSF    07.7
06ED2:  CLRF   FEA
06ED4:  CLRF   FE9
06ED6:  MOVLB  5
06ED8:  BCF    xA0.0
06EDA:  BCF    xA0.1
06EDC:  BCF    xA0.2
06EDE:  BCF    xA0.3
06EE0:  BCF    xA0.4
06EE2:  BCF    xA0.5
06EE4:  BCF    xA0.6
06EE6:  CLRF   xA1
06EE8:  CLRF   xA2
06EEA:  CLRF   xA3
06EEC:  CLRF   xA4
06EEE:  MOVLW  0A
06EF0:  MOVWF  xA5
06EF2:  CLRF   xA6
06EF4:  CLRF   xA7
06EF6:  CLRF   xA8
06EF8:  CLRF   xA9
06EFA:  MOVWF  xAA
06EFC:  CLRF   xAB
06EFE:  CLRF   xAC
06F00:  BCF    xA0.7
06F02:  BCF    xAD.0
06F04:  BCF    xAD.1
06F06:  BSF    xAD.2
06F08:  BCF    xAD.3
06F0A:  BCF    xAD.4
06F0C:  BCF    xAD.5
06F0E:  BCF    xAD.6
06F10:  BCF    xAD.7
06F12:  BCF    xAE.0
06F14:  BCF    xAE.1
06F16:  BCF    xAE.2
06F18:  BCF    xAE.3
06F1A:  BCF    xAE.4
06F1C:  BCF    xAE.5
06F1E:  BCF    xAE.6
06F20:  BCF    xAE.7
06F22:  BCF    xAF.0
06F24:  BCF    xAF.1
06F26:  CLRF   xB0
06F28:  CLRF   xB1
06F2A:  MOVLW  01
06F2C:  MOVWF  xB2
06F2E:  CLRF   xB3
06F30:  MOVLW  0A
06F32:  MOVWF  xB4
06F34:  CLRF   xB5
06F36:  CLRF   xB6
06F38:  MOVLW  01
06F3A:  MOVWF  xB7
06F3C:  CLRF   xB8
06F3E:  CLRF   xB9
06F40:  CLRF   xBA
06F42:  CLRF   xBB
06F44:  CLRF   xBC
06F46:  MOVWF  xBD
06F48:  CLRF   xBE
06F4A:  CLRF   xBF
06F4C:  CLRF   xC0
06F4E:  CLRF   xC1
06F50:  CLRF   xC2
06F52:  CLRF   xC4
06F54:  CLRF   xC3
06F56:  CLRF   xC6
06F58:  CLRF   xC5
06F5A:  CLRF   xC8
06F5C:  CLRF   xC7
06F5E:  CLRF   xCA
06F60:  CLRF   xC9
06F62:  CLRF   xCC
06F64:  CLRF   xCB
06F66:  CLRF   xCE
06F68:  CLRF   xCD
06F6A:  CLRF   xD0
06F6C:  CLRF   xCF
06F6E:  CLRF   xD2
06F70:  CLRF   xD1
06F72:  CLRF   xD4
06F74:  CLRF   xD3
06F76:  CLRF   xD6
06F78:  CLRF   xD5
06F7A:  CLRF   xD8
06F7C:  CLRF   xD7
06F7E:  CLRF   xDA
06F80:  CLRF   xD9
06F82:  CLRF   xDC
06F84:  CLRF   xDB
06F86:  CLRF   xE0
06F88:  CLRF   xDF
06F8A:  CLRF   xDE
06F8C:  CLRF   xDD
06F8E:  CLRF   xE4
06F90:  CLRF   xE3
06F92:  CLRF   xE2
06F94:  CLRF   xE1
06F96:  CLRF   xE8
06F98:  CLRF   xE7
06F9A:  CLRF   xE6
06F9C:  CLRF   xE5
06F9E:  CLRF   xEC
06FA0:  CLRF   xEB
06FA2:  CLRF   xEA
06FA4:  CLRF   xE9
06FA6:  CLRF   xF0
06FA8:  CLRF   xEF
06FAA:  CLRF   xEE
06FAC:  CLRF   xED
06FAE:  CLRF   xF4
06FB0:  CLRF   xF3
06FB2:  CLRF   xF2
06FB4:  CLRF   xF1
06FB6:  CLRF   xF8
06FB8:  CLRF   xF7
06FBA:  CLRF   xF6
06FBC:  CLRF   xF5
06FBE:  CLRF   xFC
06FC0:  CLRF   xFB
06FC2:  CLRF   xFA
06FC4:  CLRF   xF9
06FC6:  MOVLB  6
06FC8:  CLRF   x10
06FCA:  CLRF   x0F
06FCC:  CLRF   x0E
06FCE:  CLRF   x0D
06FD0:  CLRF   x14
06FD2:  MOVLW  40
06FD4:  MOVWF  x13
06FD6:  MOVLW  1C
06FD8:  MOVWF  x12
06FDA:  MOVLW  8C
06FDC:  MOVWF  x11
06FDE:  CLRF   x1C
06FE0:  CLRF   x1B
06FE2:  MOVLW  20
06FE4:  MOVWF  x1A
06FE6:  MOVLW  82
06FE8:  MOVWF  x19
06FEA:  CLRF   x20
06FEC:  CLRF   x1F
06FEE:  CLRF   x1E
06FF0:  CLRF   x1D
06FF2:  CLRF   x24
06FF4:  CLRF   x23
06FF6:  CLRF   x22
06FF8:  CLRF   x21
06FFA:  CLRF   x28
06FFC:  CLRF   x27
06FFE:  CLRF   x26
07000:  CLRF   x25
07002:  CLRF   x2C
07004:  CLRF   x2B
07006:  CLRF   x2A
07008:  CLRF   x29
0700A:  CLRF   x30
0700C:  CLRF   x2F
0700E:  CLRF   x2E
07010:  CLRF   x2D
07012:  CLRF   x34
07014:  CLRF   x33
07016:  CLRF   x32
07018:  MOVLW  80
0701A:  MOVWF  x31
0701C:  CLRF   x38
0701E:  CLRF   x37
07020:  CLRF   x36
07022:  MOVLW  7E
07024:  MOVWF  x35
07026:  CLRF   x3C
07028:  CLRF   x3B
0702A:  MOVLW  32
0702C:  MOVWF  x3A
0702E:  MOVLW  84
07030:  MOVWF  x39
07032:  CLRF   x40
07034:  CLRF   x3F
07036:  CLRF   x3E
07038:  CLRF   x3D
0703A:  CLRF   x44
0703C:  CLRF   x43
0703E:  CLRF   x42
07040:  CLRF   x41
07042:  CLRF   x48
07044:  CLRF   x47
07046:  CLRF   x46
07048:  CLRF   x45
0704A:  CLRF   x4C
0704C:  CLRF   x4B
0704E:  CLRF   x4A
07050:  CLRF   x49
07052:  CLRF   x50
07054:  CLRF   x4F
07056:  CLRF   x4E
07058:  CLRF   x4D
0705A:  CLRF   x54
0705C:  CLRF   x53
0705E:  CLRF   x52
07060:  CLRF   x51
07062:  CLRF   x58
07064:  CLRF   x57
07066:  CLRF   x56
07068:  CLRF   x55
0706A:  CLRF   x5C
0706C:  CLRF   x5B
0706E:  CLRF   x5A
07070:  CLRF   x59
07072:  CLRF   x60
07074:  CLRF   x5F
07076:  CLRF   x5E
07078:  CLRF   x5D
0707A:  CLRF   x64
0707C:  CLRF   x63
0707E:  CLRF   x62
07080:  CLRF   x61
07082:  CLRF   x68
07084:  CLRF   x67
07086:  CLRF   x66
07088:  CLRF   x65
0708A:  MOVLW  E0
0708C:  MOVWF  x6C
0708E:  MOVLW  2D
07090:  MOVWF  x6B
07092:  MOVLW  10
07094:  MOVWF  x6A
07096:  MOVLW  75
07098:  MOVWF  x69
0709A:  MOVLW  FF
0709C:  MOVWF  x70
0709E:  MOVLW  21
070A0:  MOVWF  x6F
070A2:  MOVLW  15
070A4:  MOVWF  x6E
070A6:  MOVLW  80
070A8:  MOVWF  x6D
070AA:  MOVLW  82
070AC:  MOVWF  x74
070AE:  MOVLW  12
070B0:  MOVWF  x73
070B2:  MOVLW  F4
070B4:  MOVWF  x72
070B6:  MOVLW  86
070B8:  MOVWF  x71
070BA:  CLRF   x75
070BC:  CLRF   x76
070BE:  CLRF   x77
070C0:  MOVF   FC1,W
070C2:  ANDLW  C0
070C4:  IORLW  0F
070C6:  MOVWF  FC1
070C8:  MOVLW  07
070CA:  MOVWF  FB4
070CC:  MOVLB  4
070CE:  CLRF   x2A
070D0:  CLRF   x2B
070D2:  CLRF   x30
070D4:  CLRF   x31
070D6:  CLRF   x32
070D8:  CLRF   x33
070DA:  CLRF   x34
070DC:  CLRF   x35
070DE:  CLRF   x36
070E0:  CLRF   x37
070E2:  CLRF   x38
070E4:  CLRF   x39
070E6:  CLRF   x3A
070E8:  CLRF   x3B
070EA:  CLRF   x3C
070EC:  CLRF   x3D
070EE:  CLRF   x3E
070F0:  CLRF   x3F
070F2:  CLRF   x40
070F4:  CLRF   x41
070F6:  CLRF   x42
070F8:  CLRF   x43
070FA:  CLRF   x44
070FC:  CLRF   x45
070FE:  CLRF   x46
07100:  CLRF   x47
07102:  CLRF   x48
07104:  CLRF   x49
07106:  CLRF   x4A
07108:  CLRF   x4B
0710A:  CLRF   x4C
0710C:  CLRF   x4D
0710E:  CLRF   x4E
07110:  CLRF   x4F
07112:  CLRF   x50
07114:  CLRF   x51
07116:  CLRF   x52
07118:  CLRF   x53
0711A:  CLRF   x54
0711C:  CLRF   x55
0711E:  CLRF   x56
07120:  CLRF   x57
07122:  CLRF   x58
07124:  CLRF   x59
07126:  CLRF   x5A
07128:  CLRF   x5B
0712A:  CLRF   x5C
0712C:  CLRF   x5D
0712E:  CLRF   x5E
07130:  CLRF   x5F
07132:  CLRF   x60
07134:  CLRF   x61
07136:  CLRF   x62
07138:  CLRF   x63
0713A:  CLRF   x64
0713C:  CLRF   x65
0713E:  CLRF   x66
07140:  CLRF   x67
07142:  CLRF   x68
07144:  CLRF   x69
07146:  CLRF   x6A
07148:  CLRF   x6B
0714A:  CLRF   x6C
0714C:  CLRF   x6D
0714E:  CLRF   x6E
07150:  CLRF   x6F
07152:  CLRF   x70
07154:  CLRF   x71
07156:  CLRF   x72
07158:  CLRF   x73
0715A:  CLRF   x74
0715C:  CLRF   x75
0715E:  CLRF   x76
07160:  CLRF   x77
07162:  CLRF   x78
07164:  CLRF   x79
07166:  CLRF   x7A
07168:  CLRF   x7B
0716A:  CLRF   x7C
0716C:  CLRF   x7D
0716E:  CLRF   x7E
07170:  CLRF   x7F
07172:  CLRF   x80
07174:  CLRF   x81
07176:  CLRF   x82
07178:  CLRF   x83
0717A:  CLRF   x84
0717C:  CLRF   x85
0717E:  CLRF   x86
07180:  CLRF   x87
07182:  CLRF   x88
07184:  CLRF   x89
07186:  CLRF   x8A
07188:  CLRF   x8B
0718A:  CLRF   x8C
0718C:  CLRF   x8D
0718E:  CLRF   x8E
07190:  CLRF   x8F
07192:  CLRF   x90
07194:  CLRF   x91
07196:  CLRF   x92
07198:  CLRF   x93
0719A:  CLRF   x94
0719C:  CLRF   x95
0719E:  CLRF   x96
071A0:  CLRF   x97
071A2:  CLRF   x98
071A4:  CLRF   x99
071A6:  CLRF   x9A
071A8:  CLRF   x9B
071AA:  CLRF   x9C
071AC:  CLRF   x9D
071AE:  CLRF   x9E
071B0:  CLRF   x9F
071B2:  CLRF   xA0
071B4:  CLRF   xA1
071B6:  CLRF   xA2
071B8:  CLRF   xA3
071BA:  CLRF   xA4
071BC:  CLRF   xA5
071BE:  CLRF   xA6
071C0:  CLRF   xA7
071C2:  CLRF   xA8
071C4:  CLRF   xA9
071C6:  CLRF   xAA
071C8:  CLRF   xAB
071CA:  CLRF   xAC
071CC:  CLRF   xAD
071CE:  CLRF   xAE
071D0:  CLRF   xAF
071D2:  CLRF   xB0
071D4:  CLRF   xB1
071D6:  CLRF   xB2
071D8:  CLRF   xB3
071DA:  CLRF   xB4
071DC:  CLRF   xB5
071DE:  CLRF   xB6
071E0:  CLRF   xB7
071E2:  CLRF   xB8
071E4:  CLRF   xB9
071E6:  CLRF   xBA
071E8:  CLRF   xBB
071EA:  CLRF   xBC
071EC:  CLRF   xBD
071EE:  CLRF   xBE
071F0:  CLRF   xBF
071F2:  CLRF   xC0
071F4:  CLRF   xC1
071F6:  CLRF   xC2
071F8:  CLRF   xC3
071FA:  CLRF   xC4
071FC:  CLRF   xC5
071FE:  CLRF   xC6
07200:  CLRF   xC7
07202:  CLRF   xC8
07204:  CLRF   xC9
07206:  CLRF   xCA
07208:  CLRF   xCB
0720A:  CLRF   xCC
0720C:  CLRF   xCD
0720E:  CLRF   xCE
07210:  CLRF   xCF
07212:  CLRF   xD0
07214:  CLRF   xD1
07216:  CLRF   xD2
07218:  CLRF   xD3
0721A:  CLRF   xD4
0721C:  CLRF   xD5
0721E:  CLRF   xD6
07220:  CLRF   xD7
07222:  CLRF   xD8
07224:  CLRF   xD9
07226:  CLRF   xDA
07228:  CLRF   xDB
0722A:  CLRF   xDC
0722C:  CLRF   xDD
0722E:  CLRF   xDE
07230:  CLRF   xDF
07232:  CLRF   xE0
07234:  CLRF   xE1
07236:  CLRF   xE2
07238:  CLRF   xE3
0723A:  CLRF   xE4
0723C:  CLRF   xE5
0723E:  CLRF   xE6
07240:  CLRF   xE7
07242:  CLRF   xE8
07244:  CLRF   xE9
07246:  CLRF   xEA
07248:  CLRF   xEB
0724A:  CLRF   xEC
0724C:  CLRF   xED
0724E:  CLRF   xEE
07250:  CLRF   xEF
07252:  CLRF   xF0
07254:  CLRF   xF1
07256:  CLRF   xF2
07258:  CLRF   xF3
0725A:  CLRF   xF4
0725C:  CLRF   xF5
0725E:  CLRF   xF6
07260:  CLRF   xF7
07262:  CLRF   xF8
07264:  CLRF   xF9
07266:  CLRF   xFA
07268:  CLRF   xFB
0726A:  CLRF   xFC
0726C:  CLRF   xFD
0726E:  CLRF   xFE
07270:  CLRF   xFF
07272:  MOVLB  5
07274:  CLRF   x00
07276:  CLRF   x01
07278:  CLRF   x02
0727A:  CLRF   x03
0727C:  CLRF   x04
0727E:  CLRF   x05
07280:  CLRF   x06
07282:  CLRF   x07
07284:  CLRF   x08
07286:  CLRF   x09
07288:  CLRF   x0A
0728A:  CLRF   x0B
0728C:  CLRF   x0C
0728E:  CLRF   x0D
07290:  CLRF   x0E
07292:  CLRF   x0F
07294:  CLRF   x10
07296:  CLRF   x11
07298:  CLRF   x12
0729A:  CLRF   x13
0729C:  CLRF   x14
0729E:  CLRF   x15
072A0:  CLRF   x16
072A2:  CLRF   x17
072A4:  CLRF   x18
072A6:  CLRF   x19
072A8:  CLRF   x1A
072AA:  CLRF   x1B
072AC:  CLRF   x1C
072AE:  CLRF   x1D
072B0:  CLRF   x1E
072B2:  CLRF   x1F
072B4:  CLRF   x20
072B6:  CLRF   x21
072B8:  CLRF   x22
072BA:  CLRF   x23
072BC:  CLRF   x24
072BE:  CLRF   x25
072C0:  CLRF   x26
072C2:  CLRF   x27
072C4:  CLRF   x28
072C6:  CLRF   x29
072C8:  CLRF   x2A
072CA:  CLRF   x2B
072CC:  CLRF   x2C
072CE:  CLRF   x2D
072D0:  CLRF   x2E
072D2:  CLRF   x2F
072D4:  CLRF   x30
072D6:  CLRF   x31
072D8:  CLRF   x32
072DA:  CLRF   x33
072DC:  CLRF   x34
072DE:  CLRF   x35
072E0:  CLRF   x36
072E2:  CLRF   x37
072E4:  CLRF   x38
072E6:  CLRF   x39
072E8:  CLRF   x3A
072EA:  CLRF   x3B
072EC:  CLRF   x3C
072EE:  CLRF   x3D
072F0:  CLRF   x3E
072F2:  CLRF   x3F
072F4:  CLRF   x40
072F6:  CLRF   x41
072F8:  CLRF   x42
072FA:  CLRF   x43
072FC:  CLRF   x44
072FE:  CLRF   x45
07300:  CLRF   x46
07302:  CLRF   x47
07304:  CLRF   x48
07306:  CLRF   x49
07308:  CLRF   x4A
0730A:  CLRF   x4B
0730C:  CLRF   x4C
0730E:  CLRF   x4D
07310:  CLRF   x4E
07312:  CLRF   x4F
07314:  CLRF   x50
07316:  CLRF   x51
07318:  CLRF   x52
0731A:  CLRF   x53
0731C:  CLRF   x54
0731E:  CLRF   x55
07320:  CLRF   x56
07322:  CLRF   x57
07324:  CLRF   x58
07326:  CLRF   x59
07328:  CLRF   x5A
0732A:  CLRF   x5B
0732C:  CLRF   x5C
0732E:  CLRF   x5D
07330:  CLRF   x5E
07332:  CLRF   x5F
07334:  CLRF   x60
07336:  CLRF   x61
07338:  CLRF   x62
0733A:  CLRF   x63
0733C:  CLRF   x64
0733E:  CLRF   x65
07340:  CLRF   x66
07342:  CLRF   x67
07344:  CLRF   x68
07346:  CLRF   x69
07348:  CLRF   x6A
0734A:  CLRF   x6B
0734C:  CLRF   x6C
0734E:  CLRF   x6D
07350:  CLRF   x6E
07352:  CLRF   x6F
07354:  CLRF   x70
07356:  CLRF   x71
07358:  CLRF   x72
0735A:  CLRF   x73
0735C:  CLRF   x74
0735E:  CLRF   x75
07360:  CLRF   x76
07362:  CLRF   x77
07364:  CLRF   x78
07366:  CLRF   x79
07368:  CLRF   x7A
0736A:  CLRF   x7B
0736C:  CLRF   x7C
0736E:  CLRF   x7D
07370:  CLRF   x7E
07372:  CLRF   x7F
07374:  CLRF   x80
07376:  CLRF   x81
07378:  CLRF   x82
0737A:  CLRF   x83
0737C:  CLRF   x84
0737E:  CLRF   x85
07380:  CLRF   x86
07382:  CLRF   x87
07384:  CLRF   x88
07386:  CLRF   x89
07388:  CLRF   x8A
0738A:  CLRF   x8B
0738C:  CLRF   x8C
0738E:  CLRF   x8D
07390:  CLRF   x8E
07392:  CLRF   x8F
07394:  CLRF   x90
07396:  CLRF   x91
07398:  CLRF   x92
0739A:  CLRF   x93
0739C:  CLRF   x94
0739E:  CLRF   x95
073A0:  CLRF   x96
073A2:  CLRF   x97
073A4:  CLRF   x98
073A6:  CLRF   x99
073A8:  CLRF   x9A
073AA:  CLRF   x9B
073AC:  CLRF   x9C
073AE:  CLRF   x9D
073B0:  CLRF   x9E
073B2:  CLRF   x9F
073B4:  CLRF   xFD
073B6:  CLRF   xFE
073B8:  CLRF   xFF
073BA:  MOVLB  6
073BC:  CLRF   x00
073BE:  CLRF   x01
073C0:  CLRF   x02
073C2:  CLRF   x03
073C4:  CLRF   x04
073C6:  CLRF   x05
073C8:  CLRF   x06
073CA:  CLRF   x07
073CC:  CLRF   x08
073CE:  CLRF   x09
073D0:  CLRF   x0A
073D2:  CLRF   x0B
073D4:  CLRF   x0C
073D6:  CLRF   x96
073D8:  CLRF   x97
....................    Motor1_off; 
073DA:  BCF    F8B.0
073DC:  BCF    F94.0
....................    SSR_off; 
073DE:  BCF    F8B.2
073E0:  BCF    F94.2
....................    SSR2_off; 
073E2:  BCF    F8B.1
073E4:  BCF    F94.1
....................    setup_wdt(WDT_ON); 
073E6:  BSF    FD1.0
....................    ConfiguraInterrupciones(); 
073E8:  MOVLB  0
073EA:  GOTO   1356
....................    LeeEEPROM(); 
073EE:  GOTO   17A8
....................    LimitaValores(); 
073F2:  GOTO   20C0
....................    MensajeBienvenida(); 
073F6:  GOTO   38D4
....................    derivativo_ant=Derivativo; 
073FA:  MOVFF  5F8,5FC
073FE:  MOVFF  5F7,5FB
07402:  MOVFF  5F6,5FA
07406:  MOVFF  5F5,5F9
....................     
....................     
....................    if(controlT==0){ 
0740A:  MOVLB  5
0740C:  MOVF   xB5,F
0740E:  BNZ   7414
....................         Menu=0;         
07410:  CLRF   xB6
....................    }else{ 
07412:  BRA    7550
....................       Buzzer_on; 
07414:  BSF    F8B.5
07416:  BCF    F94.5
....................       delay_ms(50); 
07418:  MOVLW  32
0741A:  MOVLB  6
0741C:  MOVWF  xA1
0741E:  MOVLB  0
07420:  CALL   132E
....................       Buzzer_off; 
07424:  BCF    F8B.5
07426:  BCF    F94.5
....................       if(Programa==1){ 
07428:  MOVLB  5
0742A:  DECFSZ xAC,W
0742C:  BRA    7440
....................          Setpoint=Temperatura1; 
0742E:  MOVFF  654,650
07432:  MOVFF  653,64F
07436:  MOVFF  652,64E
0743A:  MOVFF  651,64D
....................       }else if(Programa==2){ 
0743E:  BRA    746E
07440:  MOVF   xAC,W
07442:  SUBLW  02
07444:  BNZ   7458
....................          Setpoint=Temperatura2;  
07446:  MOVFF  658,650
0744A:  MOVFF  657,64F
0744E:  MOVFF  656,64E
07452:  MOVFF  655,64D
....................       }else if(Programa==3){ 
07456:  BRA    746E
07458:  MOVF   xAC,W
0745A:  SUBLW  03
0745C:  BNZ   746E
....................          Setpoint=Temperatura3; 
0745E:  MOVFF  65C,650
07462:  MOVFF  65B,64F
07466:  MOVFF  65A,64E
0746A:  MOVFF  659,64D
....................       } 
....................              
....................       Ganancia=gananciaAnt*(Setpoint/150.0); 
0746E:  MOVFF  650,69C
07472:  MOVFF  64F,69B
07476:  MOVFF  64E,69A
0747A:  MOVFF  64D,699
0747E:  MOVLB  6
07480:  CLRF   xA0
07482:  CLRF   x9F
07484:  MOVLW  16
07486:  MOVWF  x9E
07488:  MOVLW  86
0748A:  MOVWF  x9D
0748C:  MOVLB  0
0748E:  CALL   13D2
07492:  MOVFF  640,6BB
07496:  MOVFF  63F,6BA
0749A:  MOVFF  63E,6B9
0749E:  MOVFF  63D,6B8
074A2:  MOVFF  03,6BF
074A6:  MOVFF  02,6BE
074AA:  MOVFF  01,6BD
074AE:  MOVFF  00,6BC
074B2:  CALL   33AE
074B6:  MOVFF  03,634
074BA:  MOVFF  02,633
074BE:  MOVFF  01,632
074C2:  MOVFF  00,631
....................       Gananciamax=(0.27)*Setpoint;  
074C6:  MOVLW  71
074C8:  MOVLB  6
074CA:  MOVWF  xBB
074CC:  MOVLW  3D
074CE:  MOVWF  xBA
074D0:  MOVLW  0A
074D2:  MOVWF  xB9
074D4:  MOVLW  7D
074D6:  MOVWF  xB8
074D8:  MOVFF  650,6BF
074DC:  MOVFF  64F,6BE
074E0:  MOVFF  64E,6BD
074E4:  MOVFF  64D,6BC
074E8:  MOVLB  0
074EA:  CALL   33AE
074EE:  MOVFF  03,5E8
074F2:  MOVFF  02,5E7
074F6:  MOVFF  01,5E6
074FA:  MOVFF  00,5E5
....................       Menu=20;glcd_rect(15, 18, 30, 53, NO, ON);tiempo_secado=0;glcd_fillScreen(OFF);pausa=0;         
074FE:  MOVLW  14
07500:  MOVLB  5
07502:  MOVWF  xB6
07504:  MOVLW  0F
07506:  MOVLB  6
07508:  MOVWF  xB1
0750A:  MOVLW  12
0750C:  MOVWF  xB2
0750E:  MOVLW  1E
07510:  MOVWF  xB3
07512:  MOVLW  35
07514:  MOVWF  xB4
07516:  CLRF   xB5
07518:  MOVLW  01
0751A:  MOVWF  xB6
0751C:  MOVLB  0
0751E:  CALL   3176
07522:  MOVLB  5
07524:  CLRF   xBF
07526:  MOVLB  6
07528:  CLRF   xA0
0752A:  MOVLB  0
0752C:  CALL   2BFE
07530:  MOVLB  5
07532:  CLRF   xB9
....................              
....................       if((Testerilizacionp[0]==0)&&(Testerilizacionp[1]==0)&&(Testerilizacionp[2]==0)&&(Testerilizacionp[3]==0)) 
07534:  MOVLB  6
07536:  MOVF   x01,F
07538:  BNZ   754C
0753A:  MOVF   x02,F
0753C:  BNZ   754C
0753E:  MOVF   x03,F
07540:  BNZ   754C
07542:  MOVF   x04,F
07544:  BNZ   754C
....................          Infinito=1; 
07546:  MOVLB  5
07548:  BSF    xAD.7
....................       else 
0754A:  BRA    7550
....................          Infinito=0; 
0754C:  MOVLB  5
0754E:  BCF    xAD.7
....................     } 
....................      
....................    if(UP && DOWN) 
07550:  BSF    F92.5
07552:  BTFSC  F80.5
07554:  BRA    75E2
07556:  BSF    F96.0
07558:  BTFSC  F84.0
0755A:  BRA    75E2
....................    { 
....................       delay_ms(500); 
0755C:  MOVLW  02
0755E:  MOVLB  6
07560:  MOVWF  x98
07562:  MOVLW  FA
07564:  MOVWF  xA1
07566:  MOVLB  0
07568:  CALL   132E
0756C:  MOVLB  6
0756E:  DECFSZ x98,F
07570:  BRA    7562
....................       strcpy(Menus.Letra,"Cargando.."); 
07572:  MOVLW  06
07574:  MOVWF  FEA
07576:  MOVLW  78
07578:  MOVWF  FE9
0757A:  MOVFF  FF2,698
0757E:  BCF    FF2.6
07580:  BCF    FF2.7
07582:  MOVLW  00
07584:  MOVLB  0
07586:  CALL   0994
0758A:  TBLRD*-
0758C:  TBLRD*+
0758E:  MOVF   FF5,W
07590:  MOVWF  FEE
07592:  IORLW  00
07594:  BNZ   758C
07596:  MOVLB  6
07598:  BTFSC  x98.6
0759A:  BSF    FF2.6
0759C:  BTFSC  x98.7
0759E:  BSF    FF2.7
....................       displayMenu(Menus.Letra,0,30,1,1); 
075A0:  MOVLW  06
075A2:  MOVWF  xA1
075A4:  MOVLW  78
075A6:  MOVWF  xA0
075A8:  CLRF   xA2
075AA:  MOVLW  1E
075AC:  MOVWF  xA3
075AE:  MOVLW  01
075B0:  MOVWF  xA4
075B2:  MOVWF  xA5
075B4:  MOVLB  0
075B6:  CALL   3238
....................       delay_ms(2000); 
075BA:  MOVLW  08
075BC:  MOVLB  6
075BE:  MOVWF  x98
075C0:  MOVLW  FA
075C2:  MOVWF  xA1
075C4:  MOVLB  0
075C6:  CALL   132E
075CA:  MOVLB  6
075CC:  DECFSZ x98,F
075CE:  BRA    75C0
....................       Menu=100; 
075D0:  MOVLW  64
075D2:  MOVLB  5
075D4:  MOVWF  xB6
....................       glcd_fillScreen(OFF); 
075D6:  MOVLB  6
075D8:  CLRF   xA0
075DA:  MOVLB  0
075DC:  CALL   2BFE
075E0:  MOVLB  5
....................    } 
....................     
.................... while(true) 
.................... { 
....................    if(Menu!=20){ 
075E2:  MOVF   xB6,W
075E4:  SUBLW  14
075E6:  BZ    75EC
....................       TiempoControl=0; 
075E8:  CLRF   xD4
075EA:  CLRF   xD3
....................    } 
....................    restart_wdt(); 
075EC:  CLRWDT
....................    Envio_Esclavos(); 
075EE:  MOVLB  0
075F0:  GOTO   3C14
....................  
....................       if(Lectura2==1){ 
075F4:  MOVLB  5
075F6:  DECFSZ xA8,W
075F8:  BRA    7618
....................          Temperatura=Leer_Sensor(MediaMovil); 
075FA:  MOVFF  5A5,698
075FE:  MOVLB  0
07600:  CALL   34A4
07604:  MOVFF  03,648
07608:  MOVFF  02,647
0760C:  MOVFF  01,646
07610:  MOVFF  00,645
....................          Lectura2=0; 
07614:  MOVLB  5
07616:  CLRF   xA8
....................       } 
....................        
....................       glcd_update();             
07618:  MOVLB  0
0761A:  CALL   2C58
.................... //_-------------------------------------------------------------------------------------------------------------------------------------------------------- 
....................       if(Menu==0){ //Menu de Contrasea. 
0761E:  MOVLB  5
07620:  MOVF   xB6,F
07622:  BNZ   7648
....................          PidePassword(0,0,1,Password[0],Password[1],Password[2],Password[3],0); 
07624:  MOVLB  6
07626:  CLRF   x98
07628:  CLRF   x99
0762A:  MOVLW  01
0762C:  MOVWF  x9A
0762E:  MOVFF  609,69B
07632:  MOVFF  60A,69C
07636:  MOVFF  60B,69D
0763A:  MOVFF  60C,69E
0763E:  CLRF   x9F
07640:  MOVLB  0
07642:  CALL   3F4E
07646:  MOVLB  5
....................       } 
.................... //_--------------------------------------------------------------------------------------------------------------------------------------------------------        
....................  
.................... //_-------------------------------------------------------------------------------------------------------------------------------------------------------- 
....................       if(Menu==1){ //Menu Principal.       
07648:  DECFSZ xB6,W
0764A:  BRA    7B18
....................          flagGuardaEstado=OFF; 
0764C:  BCF    xAE.1
....................          if(Opcion>5) 
0764E:  MOVF   xBD,W
07650:  SUBLW  05
07652:  BC    7658
....................             Opcion=1; 
07654:  MOVLW  01
07656:  MOVWF  xBD
....................              
....................          if(Opcion<1) 
07658:  MOVF   xBD,F
0765A:  BNZ   7660
....................             Opcion=5; 
0765C:  MOVLW  05
0765E:  MOVWF  xBD
....................           
....................          strcpy(Menus.Letra,"Menu"); 
07660:  MOVLW  06
07662:  MOVWF  FEA
07664:  MOVLW  78
07666:  MOVWF  FE9
07668:  MOVFF  FF2,698
0766C:  BCF    FF2.6
0766E:  BCF    FF2.7
07670:  MOVLW  00
07672:  MOVLB  0
07674:  CALL   09C4
07678:  TBLRD*-
0767A:  TBLRD*+
0767C:  MOVF   FF5,W
0767E:  MOVWF  FEE
07680:  IORLW  00
07682:  BNZ   767A
07684:  MOVLB  6
07686:  BTFSC  x98.6
07688:  BSF    FF2.6
0768A:  BTFSC  x98.7
0768C:  BSF    FF2.7
....................          displayMenu(Menus.Letra,30,0,1,2); 
0768E:  MOVLW  06
07690:  MOVWF  xA1
07692:  MOVLW  78
07694:  MOVWF  xA0
07696:  MOVLW  1E
07698:  MOVWF  xA2
0769A:  CLRF   xA3
0769C:  MOVLW  01
0769E:  MOVWF  xA4
076A0:  MOVLW  02
076A2:  MOVWF  xA5
076A4:  MOVLB  0
076A6:  CALL   3238
....................        
....................          if(Opcion<5){ 
076AA:  MOVLB  5
076AC:  MOVF   xBD,W
076AE:  SUBLW  04
076B0:  BTFSS  FD8.0
076B2:  BRA    7924
....................             if(Opcion==1)    
076B4:  DECFSZ xBD,W
076B6:  BRA    7704
....................                {strcpy(Menus.Letra,"Iniciar Proceso"); 
076B8:  MOVLW  06
076BA:  MOVWF  FEA
076BC:  MOVLW  78
076BE:  MOVWF  FE9
076C0:  MOVFF  FF2,698
076C4:  BCF    FF2.6
076C6:  BCF    FF2.7
076C8:  MOVLW  00
076CA:  MOVLB  0
076CC:  CALL   09EE
076D0:  TBLRD*-
076D2:  TBLRD*+
076D4:  MOVF   FF5,W
076D6:  MOVWF  FEE
076D8:  IORLW  00
076DA:  BNZ   76D2
076DC:  MOVLB  6
076DE:  BTFSC  x98.6
076E0:  BSF    FF2.6
076E2:  BTFSC  x98.7
076E4:  BSF    FF2.7
....................                displayMenu(Menus.Letra,0,20,1,1);} 
076E6:  MOVLW  06
076E8:  MOVWF  xA1
076EA:  MOVLW  78
076EC:  MOVWF  xA0
076EE:  CLRF   xA2
076F0:  MOVLW  14
076F2:  MOVWF  xA3
076F4:  MOVLW  01
076F6:  MOVWF  xA4
076F8:  MOVWF  xA5
076FA:  MOVLB  0
076FC:  CALL   3238
....................             else 
07700:  BRA    774C
07702:  MOVLB  5
....................                {strcpy(Menus.Letra,"Iniciar Proceso"); 
07704:  MOVLW  06
07706:  MOVWF  FEA
07708:  MOVLW  78
0770A:  MOVWF  FE9
0770C:  MOVFF  FF2,698
07710:  BCF    FF2.6
07712:  BCF    FF2.7
07714:  MOVLW  00
07716:  MOVLB  0
07718:  CALL   09EE
0771C:  TBLRD*-
0771E:  TBLRD*+
07720:  MOVF   FF5,W
07722:  MOVWF  FEE
07724:  IORLW  00
07726:  BNZ   771E
07728:  MOVLB  6
0772A:  BTFSC  x98.6
0772C:  BSF    FF2.6
0772E:  BTFSC  x98.7
07730:  BSF    FF2.7
....................                displayMenu(Menus.Letra,0,20,0,1);} 
07732:  MOVLW  06
07734:  MOVWF  xA1
07736:  MOVLW  78
07738:  MOVWF  xA0
0773A:  CLRF   xA2
0773C:  MOVLW  14
0773E:  MOVWF  xA3
07740:  CLRF   xA4
07742:  MOVLW  01
07744:  MOVWF  xA5
07746:  MOVLB  0
07748:  CALL   3238
....................              
....................             if(Opcion==2)    
0774C:  MOVLB  5
0774E:  MOVF   xBD,W
07750:  SUBLW  02
07752:  BNZ   77A0
....................                {strcpy(Menus.Letra,"Seleccion Temperatura"); 
07754:  MOVLW  06
07756:  MOVWF  FEA
07758:  MOVLW  78
0775A:  MOVWF  FE9
0775C:  MOVFF  FF2,698
07760:  BCF    FF2.6
07762:  BCF    FF2.7
07764:  MOVLW  00
07766:  MOVLB  0
07768:  CALL   0A22
0776C:  TBLRD*-
0776E:  TBLRD*+
07770:  MOVF   FF5,W
07772:  MOVWF  FEE
07774:  IORLW  00
07776:  BNZ   776E
07778:  MOVLB  6
0777A:  BTFSC  x98.6
0777C:  BSF    FF2.6
0777E:  BTFSC  x98.7
07780:  BSF    FF2.7
....................                displayMenu(Menus.Letra,0,30,1,1);} 
07782:  MOVLW  06
07784:  MOVWF  xA1
07786:  MOVLW  78
07788:  MOVWF  xA0
0778A:  CLRF   xA2
0778C:  MOVLW  1E
0778E:  MOVWF  xA3
07790:  MOVLW  01
07792:  MOVWF  xA4
07794:  MOVWF  xA5
07796:  MOVLB  0
07798:  CALL   3238
....................             else 
0779C:  BRA    77E8
0779E:  MOVLB  5
....................                {strcpy(Menus.Letra,"Seleccion Temperatura"); 
077A0:  MOVLW  06
077A2:  MOVWF  FEA
077A4:  MOVLW  78
077A6:  MOVWF  FE9
077A8:  MOVFF  FF2,698
077AC:  BCF    FF2.6
077AE:  BCF    FF2.7
077B0:  MOVLW  00
077B2:  MOVLB  0
077B4:  CALL   0A22
077B8:  TBLRD*-
077BA:  TBLRD*+
077BC:  MOVF   FF5,W
077BE:  MOVWF  FEE
077C0:  IORLW  00
077C2:  BNZ   77BA
077C4:  MOVLB  6
077C6:  BTFSC  x98.6
077C8:  BSF    FF2.6
077CA:  BTFSC  x98.7
077CC:  BSF    FF2.7
....................                displayMenu(Menus.Letra,0,30,0,1);} 
077CE:  MOVLW  06
077D0:  MOVWF  xA1
077D2:  MOVLW  78
077D4:  MOVWF  xA0
077D6:  CLRF   xA2
077D8:  MOVLW  1E
077DA:  MOVWF  xA3
077DC:  CLRF   xA4
077DE:  MOVLW  01
077E0:  MOVWF  xA5
077E2:  MOVLB  0
077E4:  CALL   3238
....................                 
....................             if(Opcion==3)    
077E8:  MOVLB  5
077EA:  MOVF   xBD,W
077EC:  SUBLW  03
077EE:  BNZ   783C
....................                {strcpy(Menus.Letra,"Temporizador"); 
077F0:  MOVLW  06
077F2:  MOVWF  FEA
077F4:  MOVLW  78
077F6:  MOVWF  FE9
077F8:  MOVFF  FF2,698
077FC:  BCF    FF2.6
077FE:  BCF    FF2.7
07800:  MOVLW  00
07802:  MOVLB  0
07804:  CALL   0A5C
07808:  TBLRD*-
0780A:  TBLRD*+
0780C:  MOVF   FF5,W
0780E:  MOVWF  FEE
07810:  IORLW  00
07812:  BNZ   780A
07814:  MOVLB  6
07816:  BTFSC  x98.6
07818:  BSF    FF2.6
0781A:  BTFSC  x98.7
0781C:  BSF    FF2.7
....................                displayMenu(Menus.Letra,0,40,1,1);} 
0781E:  MOVLW  06
07820:  MOVWF  xA1
07822:  MOVLW  78
07824:  MOVWF  xA0
07826:  CLRF   xA2
07828:  MOVLW  28
0782A:  MOVWF  xA3
0782C:  MOVLW  01
0782E:  MOVWF  xA4
07830:  MOVWF  xA5
07832:  MOVLB  0
07834:  CALL   3238
....................             else 
07838:  BRA    7884
0783A:  MOVLB  5
....................                {strcpy(Menus.Letra,"Temporizador"); 
0783C:  MOVLW  06
0783E:  MOVWF  FEA
07840:  MOVLW  78
07842:  MOVWF  FE9
07844:  MOVFF  FF2,698
07848:  BCF    FF2.6
0784A:  BCF    FF2.7
0784C:  MOVLW  00
0784E:  MOVLB  0
07850:  CALL   0A5C
07854:  TBLRD*-
07856:  TBLRD*+
07858:  MOVF   FF5,W
0785A:  MOVWF  FEE
0785C:  IORLW  00
0785E:  BNZ   7856
07860:  MOVLB  6
07862:  BTFSC  x98.6
07864:  BSF    FF2.6
07866:  BTFSC  x98.7
07868:  BSF    FF2.7
....................                displayMenu(Menus.Letra,0,40,0,1);}    
0786A:  MOVLW  06
0786C:  MOVWF  xA1
0786E:  MOVLW  78
07870:  MOVWF  xA0
07872:  CLRF   xA2
07874:  MOVLW  28
07876:  MOVWF  xA3
07878:  CLRF   xA4
0787A:  MOVLW  01
0787C:  MOVWF  xA5
0787E:  MOVLB  0
07880:  CALL   3238
....................                             
....................             if(Opcion==4)    
07884:  MOVLB  5
07886:  MOVF   xBD,W
07888:  SUBLW  04
0788A:  BNZ   78D8
....................                {strcpy(Menus.Letra,"Cambio Clave"); 
0788C:  MOVLW  06
0788E:  MOVWF  FEA
07890:  MOVLW  78
07892:  MOVWF  FE9
07894:  MOVFF  FF2,698
07898:  BCF    FF2.6
0789A:  BCF    FF2.7
0789C:  MOVLW  00
0789E:  MOVLB  0
078A0:  CALL   0A8E
078A4:  TBLRD*-
078A6:  TBLRD*+
078A8:  MOVF   FF5,W
078AA:  MOVWF  FEE
078AC:  IORLW  00
078AE:  BNZ   78A6
078B0:  MOVLB  6
078B2:  BTFSC  x98.6
078B4:  BSF    FF2.6
078B6:  BTFSC  x98.7
078B8:  BSF    FF2.7
....................                displayMenu(Menus.Letra,0,50,1,1);} 
078BA:  MOVLW  06
078BC:  MOVWF  xA1
078BE:  MOVLW  78
078C0:  MOVWF  xA0
078C2:  CLRF   xA2
078C4:  MOVLW  32
078C6:  MOVWF  xA3
078C8:  MOVLW  01
078CA:  MOVWF  xA4
078CC:  MOVWF  xA5
078CE:  MOVLB  0
078D0:  CALL   3238
....................             else 
078D4:  BRA    7920
078D6:  MOVLB  5
....................                {strcpy(Menus.Letra,"Cambio Clave"); 
078D8:  MOVLW  06
078DA:  MOVWF  FEA
078DC:  MOVLW  78
078DE:  MOVWF  FE9
078E0:  MOVFF  FF2,698
078E4:  BCF    FF2.6
078E6:  BCF    FF2.7
078E8:  MOVLW  00
078EA:  MOVLB  0
078EC:  CALL   0A8E
078F0:  TBLRD*-
078F2:  TBLRD*+
078F4:  MOVF   FF5,W
078F6:  MOVWF  FEE
078F8:  IORLW  00
078FA:  BNZ   78F2
078FC:  MOVLB  6
078FE:  BTFSC  x98.6
07900:  BSF    FF2.6
07902:  BTFSC  x98.7
07904:  BSF    FF2.7
....................                displayMenu(Menus.Letra,0,50,0,1);}      
07906:  MOVLW  06
07908:  MOVWF  xA1
0790A:  MOVLW  78
0790C:  MOVWF  xA0
0790E:  CLRF   xA2
07910:  MOVLW  32
07912:  MOVWF  xA3
07914:  CLRF   xA4
07916:  MOVLW  01
07918:  MOVWF  xA5
0791A:  MOVLB  0
0791C:  CALL   3238
....................          }else{  
07920:  BRA    7A90
07922:  MOVLB  5
....................             if(Opcion==5)    
07924:  MOVF   xBD,W
07926:  SUBLW  05
07928:  BNZ   7976
....................                {strcpy(Menus.Letra,"Velocidad   "); 
0792A:  MOVLW  06
0792C:  MOVWF  FEA
0792E:  MOVLW  78
07930:  MOVWF  FE9
07932:  MOVFF  FF2,698
07936:  BCF    FF2.6
07938:  BCF    FF2.7
0793A:  MOVLW  00
0793C:  MOVLB  0
0793E:  CALL   0AC0
07942:  TBLRD*-
07944:  TBLRD*+
07946:  MOVF   FF5,W
07948:  MOVWF  FEE
0794A:  IORLW  00
0794C:  BNZ   7944
0794E:  MOVLB  6
07950:  BTFSC  x98.6
07952:  BSF    FF2.6
07954:  BTFSC  x98.7
07956:  BSF    FF2.7
....................                displayMenu(Menus.Letra,0,20,1,1);} 
07958:  MOVLW  06
0795A:  MOVWF  xA1
0795C:  MOVLW  78
0795E:  MOVWF  xA0
07960:  CLRF   xA2
07962:  MOVLW  14
07964:  MOVWF  xA3
07966:  MOVLW  01
07968:  MOVWF  xA4
0796A:  MOVWF  xA5
0796C:  MOVLB  0
0796E:  CALL   3238
....................             else 
07972:  BRA    79BE
07974:  MOVLB  5
....................                {strcpy(Menus.Letra,"Velocidad   "); 
07976:  MOVLW  06
07978:  MOVWF  FEA
0797A:  MOVLW  78
0797C:  MOVWF  FE9
0797E:  MOVFF  FF2,698
07982:  BCF    FF2.6
07984:  BCF    FF2.7
07986:  MOVLW  00
07988:  MOVLB  0
0798A:  CALL   0AC0
0798E:  TBLRD*-
07990:  TBLRD*+
07992:  MOVF   FF5,W
07994:  MOVWF  FEE
07996:  IORLW  00
07998:  BNZ   7990
0799A:  MOVLB  6
0799C:  BTFSC  x98.6
0799E:  BSF    FF2.6
079A0:  BTFSC  x98.7
079A2:  BSF    FF2.7
....................                displayMenu(Menus.Letra,0,20,0,1);}      
079A4:  MOVLW  06
079A6:  MOVWF  xA1
079A8:  MOVLW  78
079AA:  MOVWF  xA0
079AC:  CLRF   xA2
079AE:  MOVLW  14
079B0:  MOVWF  xA3
079B2:  CLRF   xA4
079B4:  MOVLW  01
079B6:  MOVWF  xA5
079B8:  MOVLB  0
079BA:  CALL   3238
....................              
....................             strcpy(Menus.Letra,"              "); 
079BE:  MOVLW  06
079C0:  MOVWF  FEA
079C2:  MOVLW  78
079C4:  MOVWF  FE9
079C6:  MOVFF  FF2,698
079CA:  BCF    FF2.6
079CC:  BCF    FF2.7
079CE:  MOVLW  00
079D0:  CALL   0AF2
079D4:  TBLRD*-
079D6:  TBLRD*+
079D8:  MOVF   FF5,W
079DA:  MOVWF  FEE
079DC:  IORLW  00
079DE:  BNZ   79D6
079E0:  MOVLB  6
079E2:  BTFSC  x98.6
079E4:  BSF    FF2.6
079E6:  BTFSC  x98.7
079E8:  BSF    FF2.7
....................             displayMenu(Menus.Letra,0,30,0,1); 
079EA:  MOVLW  06
079EC:  MOVWF  xA1
079EE:  MOVLW  78
079F0:  MOVWF  xA0
079F2:  CLRF   xA2
079F4:  MOVLW  1E
079F6:  MOVWF  xA3
079F8:  CLRF   xA4
079FA:  MOVLW  01
079FC:  MOVWF  xA5
079FE:  MOVLB  0
07A00:  CALL   3238
....................              
....................             strcpy(Menus.Letra,"              "); 
07A04:  MOVLW  06
07A06:  MOVWF  FEA
07A08:  MOVLW  78
07A0A:  MOVWF  FE9
07A0C:  MOVFF  FF2,698
07A10:  BCF    FF2.6
07A12:  BCF    FF2.7
07A14:  MOVLW  00
07A16:  CALL   0AF2
07A1A:  TBLRD*-
07A1C:  TBLRD*+
07A1E:  MOVF   FF5,W
07A20:  MOVWF  FEE
07A22:  IORLW  00
07A24:  BNZ   7A1C
07A26:  MOVLB  6
07A28:  BTFSC  x98.6
07A2A:  BSF    FF2.6
07A2C:  BTFSC  x98.7
07A2E:  BSF    FF2.7
....................             displayMenu(Menus.Letra,0,40,0,1); 
07A30:  MOVLW  06
07A32:  MOVWF  xA1
07A34:  MOVLW  78
07A36:  MOVWF  xA0
07A38:  CLRF   xA2
07A3A:  MOVLW  28
07A3C:  MOVWF  xA3
07A3E:  CLRF   xA4
07A40:  MOVLW  01
07A42:  MOVWF  xA5
07A44:  MOVLB  0
07A46:  CALL   3238
....................              
....................             strcpy(Menus.Letra,"              "); 
07A4A:  MOVLW  06
07A4C:  MOVWF  FEA
07A4E:  MOVLW  78
07A50:  MOVWF  FE9
07A52:  MOVFF  FF2,698
07A56:  BCF    FF2.6
07A58:  BCF    FF2.7
07A5A:  MOVLW  00
07A5C:  CALL   0AF2
07A60:  TBLRD*-
07A62:  TBLRD*+
07A64:  MOVF   FF5,W
07A66:  MOVWF  FEE
07A68:  IORLW  00
07A6A:  BNZ   7A62
07A6C:  MOVLB  6
07A6E:  BTFSC  x98.6
07A70:  BSF    FF2.6
07A72:  BTFSC  x98.7
07A74:  BSF    FF2.7
....................             displayMenu(Menus.Letra,0,50,0,1); 
07A76:  MOVLW  06
07A78:  MOVWF  xA1
07A7A:  MOVLW  78
07A7C:  MOVWF  xA0
07A7E:  CLRF   xA2
07A80:  MOVLW  32
07A82:  MOVWF  xA3
07A84:  CLRF   xA4
07A86:  MOVLW  01
07A88:  MOVWF  xA5
07A8A:  MOVLB  0
07A8C:  CALL   3238
....................          } 
....................              
....................          if(UP){ 
07A90:  BSF    F92.5
07A92:  BTFSC  F80.5
07A94:  BRA    7AB4
....................             DelayPuls();Opcion--;visual=1; 
07A96:  CALL   3E86
07A9A:  MOVLB  5
07A9C:  DECF   xBD,F
07A9E:  BSF    xAD.2
....................             Buzzer_on; 
07AA0:  BSF    F8B.5
07AA2:  BCF    F94.5
....................             delay_ms(50); 
07AA4:  MOVLW  32
07AA6:  MOVLB  6
07AA8:  MOVWF  xA1
07AAA:  MOVLB  0
07AAC:  CALL   132E
....................             Buzzer_off; 
07AB0:  BCF    F8B.5
07AB2:  BCF    F94.5
....................          } 
....................                    
....................          if(DOWN){ 
07AB4:  BSF    F96.0
07AB6:  BTFSC  F84.0
07AB8:  BRA    7AD8
....................             DelayPuls();Opcion++;visual=1;    
07ABA:  CALL   3E86
07ABE:  MOVLB  5
07AC0:  INCF   xBD,F
07AC2:  BSF    xAD.2
....................             Buzzer_on; 
07AC4:  BSF    F8B.5
07AC6:  BCF    F94.5
....................             delay_ms(50); 
07AC8:  MOVLW  32
07ACA:  MOVLB  6
07ACC:  MOVWF  xA1
07ACE:  MOVLB  0
07AD0:  CALL   132E
....................             Buzzer_off; 
07AD4:  BCF    F8B.5
07AD6:  BCF    F94.5
....................          } 
....................                 
....................          if(RIGHT){  
07AD8:  BSF    F96.1
07ADA:  BTFSC  F84.1
07ADC:  BRA    7B1A
....................             Buzzer_on; 
07ADE:  BSF    F8B.5
07AE0:  BCF    F94.5
....................             delay_ms(50); 
07AE2:  MOVLW  32
07AE4:  MOVLB  6
07AE6:  MOVWF  xA1
07AE8:  MOVLB  0
07AEA:  CALL   132E
....................             Buzzer_off; 
07AEE:  BCF    F8B.5
07AF0:  BCF    F94.5
....................             delay_ms(200);Menu=Opcion+3;Opcion=1;glcd_fillscreen(OFF);visual=1; 
07AF2:  MOVLW  C8
07AF4:  MOVLB  6
07AF6:  MOVWF  xA1
07AF8:  MOVLB  0
07AFA:  CALL   132E
07AFE:  MOVLW  03
07B00:  MOVLB  5
07B02:  ADDWF  xBD,W
07B04:  MOVWF  xB6
07B06:  MOVLW  01
07B08:  MOVWF  xBD
07B0A:  MOVLB  6
07B0C:  CLRF   xA0
07B0E:  MOVLB  0
07B10:  CALL   2BFE
07B14:  MOVLB  5
07B16:  BSF    xAD.2
07B18:  MOVLB  0
....................          } 
....................       } 
.................... //_--------------------------------------------------------------------------------------------------------------------------------------------------------        
.................... //-Sub-Menus de seleccin de proceso. 
....................  
.................... //_-------------------------------------------------------------------------------------------------------------------------------------------------------- 
....................       if(Menu==4){ //Menu de Continuar 
07B1A:  MOVLB  5
07B1C:  MOVF   xB6,W
07B1E:  SUBLW  04
07B20:  BTFSS  FD8.2
07B22:  BRA    7F6C
....................        
....................       if(Opcion>3) 
07B24:  MOVF   xBD,W
07B26:  SUBLW  03
07B28:  BC    7B2E
....................          Opcion=1; 
07B2A:  MOVLW  01
07B2C:  MOVWF  xBD
....................           
....................       if(Opcion<1) 
07B2E:  MOVF   xBD,F
07B30:  BNZ   7B36
....................          Opcion=3; 
07B32:  MOVLW  03
07B34:  MOVWF  xBD
....................        
....................          strcpy(Menus.Letra,"Seleccione"); 
07B36:  MOVLW  06
07B38:  MOVWF  FEA
07B3A:  MOVLW  78
07B3C:  MOVWF  FE9
07B3E:  MOVFF  FF2,698
07B42:  BCF    FF2.6
07B44:  BCF    FF2.7
07B46:  MOVLW  00
07B48:  MOVLB  0
07B4A:  CALL   0B26
07B4E:  TBLRD*-
07B50:  TBLRD*+
07B52:  MOVF   FF5,W
07B54:  MOVWF  FEE
07B56:  IORLW  00
07B58:  BNZ   7B50
07B5A:  MOVLB  6
07B5C:  BTFSC  x98.6
07B5E:  BSF    FF2.6
07B60:  BTFSC  x98.7
07B62:  BSF    FF2.7
....................          displayMenu(Menus.Letra,0,0,1,2); 
07B64:  MOVLW  06
07B66:  MOVWF  xA1
07B68:  MOVLW  78
07B6A:  MOVWF  xA0
07B6C:  CLRF   xA2
07B6E:  CLRF   xA3
07B70:  MOVLW  01
07B72:  MOVWF  xA4
07B74:  MOVLW  02
07B76:  MOVWF  xA5
07B78:  MOVLB  0
07B7A:  CALL   3238
....................           
....................          strcpy(Menus.Letra,"Temperatura"); 
07B7E:  MOVLW  06
07B80:  MOVWF  FEA
07B82:  MOVLW  78
07B84:  MOVWF  FE9
07B86:  MOVFF  FF2,698
07B8A:  BCF    FF2.6
07B8C:  BCF    FF2.7
07B8E:  MOVLW  00
07B90:  CALL   0B56
07B94:  TBLRD*-
07B96:  TBLRD*+
07B98:  MOVF   FF5,W
07B9A:  MOVWF  FEE
07B9C:  IORLW  00
07B9E:  BNZ   7B96
07BA0:  MOVLB  6
07BA2:  BTFSC  x98.6
07BA4:  BSF    FF2.6
07BA6:  BTFSC  x98.7
07BA8:  BSF    FF2.7
....................          displayMenu(Menus.Letra,0,16,1,2); 
07BAA:  MOVLW  06
07BAC:  MOVWF  xA1
07BAE:  MOVLW  78
07BB0:  MOVWF  xA0
07BB2:  CLRF   xA2
07BB4:  MOVLW  10
07BB6:  MOVWF  xA3
07BB8:  MOVLW  01
07BBA:  MOVWF  xA4
07BBC:  MOVLW  02
07BBE:  MOVWF  xA5
07BC0:  MOVLB  0
07BC2:  CALL   3238
....................           
....................          displayContrasena(Opcion,10,38,1); 
07BC6:  MOVFF  5BD,6A2
07BCA:  MOVLW  0A
07BCC:  MOVLB  6
07BCE:  MOVWF  xA3
07BD0:  MOVLW  26
07BD2:  MOVWF  xA4
07BD4:  MOVLW  01
07BD6:  MOVWF  xA5
07BD8:  MOVLB  0
07BDA:  CALL   3DC8
....................          glcd_circle(90,38,2,NO,ON); 
07BDE:  MOVLW  5A
07BE0:  MOVLB  6
07BE2:  MOVWF  xAD
07BE4:  MOVLW  26
07BE6:  MOVWF  xAE
07BE8:  MOVLW  02
07BEA:  MOVWF  xAF
07BEC:  CLRF   xB0
07BEE:  MOVLW  01
07BF0:  MOVWF  xB1
07BF2:  MOVLB  0
07BF4:  CALL   4846
....................          strcpy(Menus.Letra,"C");displayMenu(Menus.Letra,97,35,2,2);          
07BF8:  MOVLW  06
07BFA:  MOVWF  FEA
07BFC:  MOVLW  78
07BFE:  MOVWF  FE9
07C00:  MOVFF  FF2,698
07C04:  BCF    FF2.6
07C06:  BCF    FF2.7
07C08:  MOVLW  00
07C0A:  CALL   0796
07C0E:  TBLRD*-
07C10:  TBLRD*+
07C12:  MOVF   FF5,W
07C14:  MOVWF  FEE
07C16:  IORLW  00
07C18:  BNZ   7C10
07C1A:  MOVLB  6
07C1C:  BTFSC  x98.6
07C1E:  BSF    FF2.6
07C20:  BTFSC  x98.7
07C22:  BSF    FF2.7
07C24:  MOVLW  06
07C26:  MOVWF  xA1
07C28:  MOVLW  78
07C2A:  MOVWF  xA0
07C2C:  MOVLW  61
07C2E:  MOVWF  xA2
07C30:  MOVLW  23
07C32:  MOVWF  xA3
07C34:  MOVLW  02
07C36:  MOVWF  xA4
07C38:  MOVWF  xA5
07C3A:  MOVLB  0
07C3C:  CALL   3238
....................           
....................          if(Opcion==1) 
07C40:  MOVLB  5
07C42:  DECFSZ xBD,W
07C44:  BRA    7C86
....................             displayTemperatura(Temperatura1,50,38,0,2); 
07C46:  MOVFF  654,6A7
07C4A:  MOVFF  653,6A6
07C4E:  MOVFF  652,6A5
07C52:  MOVFF  651,6A4
07C56:  MOVLB  0
07C58:  CALL   3A44
07C5C:  MOVFF  02,699
07C60:  MOVFF  01,698
07C64:  MOVFF  02,69B
07C68:  MOVFF  01,69A
07C6C:  MOVLW  32
07C6E:  MOVLB  6
07C70:  MOVWF  x9C
07C72:  MOVLW  26
07C74:  MOVWF  x9D
07C76:  CLRF   x9E
07C78:  MOVLW  02
07C7A:  MOVWF  x9F
07C7C:  MOVLB  0
07C7E:  CALL   4B2E
....................          else if(Opcion==2) 
07C82:  BRA    7D0E
07C84:  MOVLB  5
07C86:  MOVF   xBD,W
07C88:  SUBLW  02
07C8A:  BNZ   7CCC
....................             displayTemperatura(Temperatura2,50,38,0,2);  
07C8C:  MOVFF  658,6A7
07C90:  MOVFF  657,6A6
07C94:  MOVFF  656,6A5
07C98:  MOVFF  655,6A4
07C9C:  MOVLB  0
07C9E:  CALL   3A44
07CA2:  MOVFF  02,699
07CA6:  MOVFF  01,698
07CAA:  MOVFF  02,69B
07CAE:  MOVFF  01,69A
07CB2:  MOVLW  32
07CB4:  MOVLB  6
07CB6:  MOVWF  x9C
07CB8:  MOVLW  26
07CBA:  MOVWF  x9D
07CBC:  CLRF   x9E
07CBE:  MOVLW  02
07CC0:  MOVWF  x9F
07CC2:  MOVLB  0
07CC4:  CALL   4B2E
....................          else if(Opcion==3) 
07CC8:  BRA    7D0E
07CCA:  MOVLB  5
07CCC:  MOVF   xBD,W
07CCE:  SUBLW  03
07CD0:  BNZ   7D10
....................             displayTemperatura(Temperatura3,50,38,0,2);  
07CD2:  MOVFF  65C,6A7
07CD6:  MOVFF  65B,6A6
07CDA:  MOVFF  65A,6A5
07CDE:  MOVFF  659,6A4
07CE2:  MOVLB  0
07CE4:  CALL   3A44
07CE8:  MOVFF  02,699
07CEC:  MOVFF  01,698
07CF0:  MOVFF  02,69B
07CF4:  MOVFF  01,69A
07CF8:  MOVLW  32
07CFA:  MOVLB  6
07CFC:  MOVWF  x9C
07CFE:  MOVLW  26
07D00:  MOVWF  x9D
07D02:  CLRF   x9E
07D04:  MOVLW  02
07D06:  MOVWF  x9F
07D08:  MOVLB  0
07D0A:  CALL   4B2E
07D0E:  MOVLB  5
....................          
....................       if(UP){ 
07D10:  BSF    F92.5
07D12:  BTFSC  F80.5
07D14:  BRA    7D60
....................          delay_ms(50); 
07D16:  MOVLW  32
07D18:  MOVLB  6
07D1A:  MOVWF  xA1
07D1C:  MOVLB  0
07D1E:  CALL   132E
....................          if(UP){ 
07D22:  BSF    F92.5
07D24:  BTFSC  F80.5
07D26:  BRA    7D5E
....................             Buzzer_on; 
07D28:  BSF    F8B.5
07D2A:  BCF    F94.5
....................             delay_ms(50); 
07D2C:  MOVLW  32
07D2E:  MOVLB  6
07D30:  MOVWF  xA1
07D32:  MOVLB  0
07D34:  CALL   132E
....................             Buzzer_off; 
07D38:  BCF    F8B.5
07D3A:  BCF    F94.5
....................             Opcion++; 
07D3C:  MOVLB  5
07D3E:  INCF   xBD,F
....................             glcd_rect(40, 35, 85, 60, YES, OFF); 
07D40:  MOVLW  28
07D42:  MOVLB  6
07D44:  MOVWF  xB1
07D46:  MOVLW  23
07D48:  MOVWF  xB2
07D4A:  MOVLW  55
07D4C:  MOVWF  xB3
07D4E:  MOVLW  3C
07D50:  MOVWF  xB4
07D52:  MOVLW  01
07D54:  MOVWF  xB5
07D56:  CLRF   xB6
07D58:  MOVLB  0
07D5A:  CALL   3176
07D5E:  MOVLB  5
....................          } 
....................       } 
....................              
....................       if(DOWN){   
07D60:  BSF    F96.0
07D62:  BTFSC  F84.0
07D64:  BRA    7DB0
....................          delay_ms(50); 
07D66:  MOVLW  32
07D68:  MOVLB  6
07D6A:  MOVWF  xA1
07D6C:  MOVLB  0
07D6E:  CALL   132E
....................          if(DOWN){ 
07D72:  BSF    F96.0
07D74:  BTFSC  F84.0
07D76:  BRA    7DAE
....................             Buzzer_on; 
07D78:  BSF    F8B.5
07D7A:  BCF    F94.5
....................             delay_ms(50); 
07D7C:  MOVLW  32
07D7E:  MOVLB  6
07D80:  MOVWF  xA1
07D82:  MOVLB  0
07D84:  CALL   132E
....................             Buzzer_off; 
07D88:  BCF    F8B.5
07D8A:  BCF    F94.5
....................             Opcion--;   
07D8C:  MOVLB  5
07D8E:  DECF   xBD,F
....................             glcd_rect(40, 35, 85, 60, YES, OFF); 
07D90:  MOVLW  28
07D92:  MOVLB  6
07D94:  MOVWF  xB1
07D96:  MOVLW  23
07D98:  MOVWF  xB2
07D9A:  MOVLW  55
07D9C:  MOVWF  xB3
07D9E:  MOVLW  3C
07DA0:  MOVWF  xB4
07DA2:  MOVLW  01
07DA4:  MOVWF  xB5
07DA6:  CLRF   xB6
07DA8:  MOVLB  0
07DAA:  CALL   3176
07DAE:  MOVLB  5
....................          } 
....................       } 
....................              
....................       if(RIGHT){   
07DB0:  BSF    F96.1
07DB2:  BTFSC  F84.1
07DB4:  BRA    7F10
....................          delay_ms(50); 
07DB6:  MOVLW  32
07DB8:  MOVLB  6
07DBA:  MOVWF  xA1
07DBC:  MOVLB  0
07DBE:  CALL   132E
....................          if(RIGHT){ 
07DC2:  BSF    F96.1
07DC4:  BTFSC  F84.1
07DC6:  BRA    7F12
....................             Buzzer_on; 
07DC8:  BSF    F8B.5
07DCA:  BCF    F94.5
....................             delay_ms(50); 
07DCC:  MOVLW  32
07DCE:  MOVLB  6
07DD0:  MOVWF  xA1
07DD2:  MOVLB  0
07DD4:  CALL   132E
....................             Buzzer_off; 
07DD8:  BCF    F8B.5
07DDA:  BCF    F94.5
....................             if(Opcion==1){ 
07DDC:  MOVLB  5
07DDE:  DECFSZ xBD,W
07DE0:  BRA    7DF8
....................                Setpoint=Temperatura1; 
07DE2:  MOVFF  654,650
07DE6:  MOVFF  653,64F
07DEA:  MOVFF  652,64E
07DEE:  MOVFF  651,64D
....................                Programa=1; 
07DF2:  MOVLW  01
07DF4:  MOVWF  xAC
....................             }else if(Opcion==2){ 
07DF6:  BRA    7E2E
07DF8:  MOVF   xBD,W
07DFA:  SUBLW  02
07DFC:  BNZ   7E14
....................                Setpoint=Temperatura2;  
07DFE:  MOVFF  658,650
07E02:  MOVFF  657,64F
07E06:  MOVFF  656,64E
07E0A:  MOVFF  655,64D
....................                Programa=2; 
07E0E:  MOVLW  02
07E10:  MOVWF  xAC
....................             }else if(Opcion==3){ 
07E12:  BRA    7E2E
07E14:  MOVF   xBD,W
07E16:  SUBLW  03
07E18:  BNZ   7E2E
....................                Setpoint=Temperatura3; 
07E1A:  MOVFF  65C,650
07E1E:  MOVFF  65B,64F
07E22:  MOVFF  65A,64E
07E26:  MOVFF  659,64D
....................                Programa=3; 
07E2A:  MOVLW  03
07E2C:  MOVWF  xAC
....................             } 
....................              
....................             Ganancia=gananciaAnt*(Setpoint/150.0); 
07E2E:  MOVFF  650,69C
07E32:  MOVFF  64F,69B
07E36:  MOVFF  64E,69A
07E3A:  MOVFF  64D,699
07E3E:  MOVLB  6
07E40:  CLRF   xA0
07E42:  CLRF   x9F
07E44:  MOVLW  16
07E46:  MOVWF  x9E
07E48:  MOVLW  86
07E4A:  MOVWF  x9D
07E4C:  MOVLB  0
07E4E:  CALL   13D2
07E52:  MOVFF  640,6BB
07E56:  MOVFF  63F,6BA
07E5A:  MOVFF  63E,6B9
07E5E:  MOVFF  63D,6B8
07E62:  MOVFF  03,6BF
07E66:  MOVFF  02,6BE
07E6A:  MOVFF  01,6BD
07E6E:  MOVFF  00,6BC
07E72:  CALL   33AE
07E76:  MOVFF  03,634
07E7A:  MOVFF  02,633
07E7E:  MOVFF  01,632
07E82:  MOVFF  00,631
....................             Gananciamax=(0.27)*Setpoint;  
07E86:  MOVLW  71
07E88:  MOVLB  6
07E8A:  MOVWF  xBB
07E8C:  MOVLW  3D
07E8E:  MOVWF  xBA
07E90:  MOVLW  0A
07E92:  MOVWF  xB9
07E94:  MOVLW  7D
07E96:  MOVWF  xB8
07E98:  MOVFF  650,6BF
07E9C:  MOVFF  64F,6BE
07EA0:  MOVFF  64E,6BD
07EA4:  MOVFF  64D,6BC
07EA8:  MOVLB  0
07EAA:  CALL   33AE
07EAE:  MOVFF  03,5E8
07EB2:  MOVFF  02,5E7
07EB6:  MOVFF  01,5E6
07EBA:  MOVFF  00,5E5
....................             //Tpulsomin=((Setpoint*0.24)/100)*Tciclo; 
....................             //Tpulsomin=((Setpoint*0.16)/100)*Tciclo; 
....................             //Tpulsomax=0.35*Setpoint; 
....................             Menu=20;glcd_rect(15, 18, 30, 53, NO, ON);tiempo_secado=0;glcd_fillScreen(OFF);pausa=0;         
07EBE:  MOVLW  14
07EC0:  MOVLB  5
07EC2:  MOVWF  xB6
07EC4:  MOVLW  0F
07EC6:  MOVLB  6
07EC8:  MOVWF  xB1
07ECA:  MOVLW  12
07ECC:  MOVWF  xB2
07ECE:  MOVLW  1E
07ED0:  MOVWF  xB3
07ED2:  MOVLW  35
07ED4:  MOVWF  xB4
07ED6:  CLRF   xB5
07ED8:  MOVLW  01
07EDA:  MOVWF  xB6
07EDC:  MOVLB  0
07EDE:  CALL   3176
07EE2:  MOVLB  5
07EE4:  CLRF   xBF
07EE6:  MOVLB  6
07EE8:  CLRF   xA0
07EEA:  MOVLB  0
07EEC:  CALL   2BFE
07EF0:  MOVLB  5
07EF2:  CLRF   xB9
....................              
....................             if((Testerilizacionp[0]==0)&&(Testerilizacionp[1]==0)&&(Testerilizacionp[2]==0)&&(Testerilizacionp[3]==0)) 
07EF4:  MOVLB  6
07EF6:  MOVF   x01,F
07EF8:  BNZ   7F0C
07EFA:  MOVF   x02,F
07EFC:  BNZ   7F0C
07EFE:  MOVF   x03,F
07F00:  BNZ   7F0C
07F02:  MOVF   x04,F
07F04:  BNZ   7F0C
....................                Infinito=1; 
07F06:  MOVLB  5
07F08:  BSF    xAD.7
....................             else 
07F0A:  BRA    7F10
....................                Infinito=0; 
07F0C:  MOVLB  5
07F0E:  BCF    xAD.7
07F10:  MOVLB  0
....................          } 
....................       }  
....................                    
....................       if(LEFT){ 
07F12:  BSF    F96.2
07F14:  BTFSC  F84.2
07F16:  BRA    7F6E
....................          delay_ms(50); 
07F18:  MOVLW  32
07F1A:  MOVLB  6
07F1C:  MOVWF  xA1
07F1E:  MOVLB  0
07F20:  CALL   132E
....................          if(LEFT){ 
07F24:  BSF    F96.2
07F26:  BTFSC  F84.2
07F28:  BRA    7F6E
....................             Buzzer_on; 
07F2A:  BSF    F8B.5
07F2C:  BCF    F94.5
....................             delay_ms(50); 
07F2E:  MOVLW  32
07F30:  MOVLB  6
07F32:  MOVWF  xA1
07F34:  MOVLB  0
07F36:  CALL   132E
....................             Buzzer_off; 
07F3A:  BCF    F8B.5
07F3C:  BCF    F94.5
....................             delay_ms(300);Menu=1;glcd_fillscreen(OFF);Opcion=1;visual=1; 
07F3E:  MOVLW  02
07F40:  MOVLB  6
07F42:  MOVWF  x98
07F44:  MOVLW  96
07F46:  MOVWF  xA1
07F48:  MOVLB  0
07F4A:  CALL   132E
07F4E:  MOVLB  6
07F50:  DECFSZ x98,F
07F52:  BRA    7F44
07F54:  MOVLW  01
07F56:  MOVLB  5
07F58:  MOVWF  xB6
07F5A:  MOVLB  6
07F5C:  CLRF   xA0
07F5E:  MOVLB  0
07F60:  CALL   2BFE
07F64:  MOVLW  01
07F66:  MOVLB  5
07F68:  MOVWF  xBD
07F6A:  BSF    xAD.2
07F6C:  MOVLB  0
....................          } 
....................       }  
....................     } 
.................... //_--------------------------------------------------------------------------------------------------------------------------------------------------------        
....................  
.................... //_--------------------------------------------------------------------------------------------------------------------------------------------------------       
....................       if(Menu==5){ // Menu de Temperatura 
07F6E:  MOVLB  5
07F70:  MOVF   xB6,W
07F72:  SUBLW  05
07F74:  BTFSS  FD8.2
07F76:  GOTO   8A6E
....................       
....................          if(Opcion>3) 
07F7A:  MOVF   xBD,W
07F7C:  SUBLW  03
07F7E:  BC    7F84
....................             Opcion=1; 
07F80:  MOVLW  01
07F82:  MOVWF  xBD
....................          if(Opcion<1) 
07F84:  MOVF   xBD,F
07F86:  BNZ   7F8C
....................             Opcion=3; 
07F88:  MOVLW  03
07F8A:  MOVWF  xBD
....................           
....................          if(Opcion==1)   { 
07F8C:  DECFSZ xBD,W
07F8E:  BRA    7FEC
....................             strcpy(Menus.Letra,"Temperatura 1:"); 
07F90:  MOVLW  06
07F92:  MOVWF  FEA
07F94:  MOVLW  78
07F96:  MOVWF  FE9
07F98:  MOVFF  FF2,698
07F9C:  BCF    FF2.6
07F9E:  BCF    FF2.7
07FA0:  MOVLW  00
07FA2:  MOVLB  0
07FA4:  CALL   0B86
07FA8:  TBLRD*-
07FAA:  TBLRD*+
07FAC:  MOVF   FF5,W
07FAE:  MOVWF  FEE
07FB0:  IORLW  00
07FB2:  BNZ   7FAA
07FB4:  MOVLB  6
07FB6:  BTFSC  x98.6
07FB8:  BSF    FF2.6
07FBA:  BTFSC  x98.7
07FBC:  BSF    FF2.7
....................             displayTemps(Menus.Letra,Temperatura1,0,20,1,1); 
07FBE:  MOVLW  06
07FC0:  MOVWF  x99
07FC2:  MOVLW  78
07FC4:  MOVWF  x98
07FC6:  MOVFF  654,69D
07FCA:  MOVFF  653,69C
07FCE:  MOVFF  652,69B
07FD2:  MOVFF  651,69A
07FD6:  CLRF   x9E
07FD8:  MOVLW  14
07FDA:  MOVWF  x9F
07FDC:  MOVLW  01
07FDE:  MOVWF  xA0
07FE0:  MOVWF  xA1
07FE2:  MOVLB  0
07FE4:  CALL   4F5E
....................          }else{ 
07FE8:  BRA    8044
07FEA:  MOVLB  5
....................             strcpy(Menus.Letra,"Temperatura 1:"); 
07FEC:  MOVLW  06
07FEE:  MOVWF  FEA
07FF0:  MOVLW  78
07FF2:  MOVWF  FE9
07FF4:  MOVFF  FF2,698
07FF8:  BCF    FF2.6
07FFA:  BCF    FF2.7
07FFC:  MOVLW  00
07FFE:  MOVLB  0
08000:  CALL   0B86
08004:  TBLRD*-
08006:  TBLRD*+
08008:  MOVF   FF5,W
0800A:  MOVWF  FEE
0800C:  IORLW  00
0800E:  BNZ   8006
08010:  MOVLB  6
08012:  BTFSC  x98.6
08014:  BSF    FF2.6
08016:  BTFSC  x98.7
08018:  BSF    FF2.7
....................             displayTemps(Menus.Letra,Temperatura1,0,20,0,1); 
0801A:  MOVLW  06
0801C:  MOVWF  x99
0801E:  MOVLW  78
08020:  MOVWF  x98
08022:  MOVFF  654,69D
08026:  MOVFF  653,69C
0802A:  MOVFF  652,69B
0802E:  MOVFF  651,69A
08032:  CLRF   x9E
08034:  MOVLW  14
08036:  MOVWF  x9F
08038:  CLRF   xA0
0803A:  MOVLW  01
0803C:  MOVWF  xA1
0803E:  MOVLB  0
08040:  CALL   4F5E
....................          } 
....................           
....................          if(Opcion==2)   { 
08044:  MOVLB  5
08046:  MOVF   xBD,W
08048:  SUBLW  02
0804A:  BNZ   80A8
....................             strcpy(Menus.Letra,"Temperatura 2:"); 
0804C:  MOVLW  06
0804E:  MOVWF  FEA
08050:  MOVLW  78
08052:  MOVWF  FE9
08054:  MOVFF  FF2,698
08058:  BCF    FF2.6
0805A:  BCF    FF2.7
0805C:  MOVLW  00
0805E:  MOVLB  0
08060:  CALL   0BBA
08064:  TBLRD*-
08066:  TBLRD*+
08068:  MOVF   FF5,W
0806A:  MOVWF  FEE
0806C:  IORLW  00
0806E:  BNZ   8066
08070:  MOVLB  6
08072:  BTFSC  x98.6
08074:  BSF    FF2.6
08076:  BTFSC  x98.7
08078:  BSF    FF2.7
....................             displayTemps(Menus.Letra,Temperatura2,0,35,1,1); 
0807A:  MOVLW  06
0807C:  MOVWF  x99
0807E:  MOVLW  78
08080:  MOVWF  x98
08082:  MOVFF  658,69D
08086:  MOVFF  657,69C
0808A:  MOVFF  656,69B
0808E:  MOVFF  655,69A
08092:  CLRF   x9E
08094:  MOVLW  23
08096:  MOVWF  x9F
08098:  MOVLW  01
0809A:  MOVWF  xA0
0809C:  MOVWF  xA1
0809E:  MOVLB  0
080A0:  CALL   4F5E
....................          }else{ 
080A4:  BRA    8100
080A6:  MOVLB  5
....................             strcpy(Menus.Letra,"Temperatura 2:"); 
080A8:  MOVLW  06
080AA:  MOVWF  FEA
080AC:  MOVLW  78
080AE:  MOVWF  FE9
080B0:  MOVFF  FF2,698
080B4:  BCF    FF2.6
080B6:  BCF    FF2.7
080B8:  MOVLW  00
080BA:  MOVLB  0
080BC:  CALL   0BBA
080C0:  TBLRD*-
080C2:  TBLRD*+
080C4:  MOVF   FF5,W
080C6:  MOVWF  FEE
080C8:  IORLW  00
080CA:  BNZ   80C2
080CC:  MOVLB  6
080CE:  BTFSC  x98.6
080D0:  BSF    FF2.6
080D2:  BTFSC  x98.7
080D4:  BSF    FF2.7
....................             displayTemps(Menus.Letra,Temperatura2,0,35,0,1); 
080D6:  MOVLW  06
080D8:  MOVWF  x99
080DA:  MOVLW  78
080DC:  MOVWF  x98
080DE:  MOVFF  658,69D
080E2:  MOVFF  657,69C
080E6:  MOVFF  656,69B
080EA:  MOVFF  655,69A
080EE:  CLRF   x9E
080F0:  MOVLW  23
080F2:  MOVWF  x9F
080F4:  CLRF   xA0
080F6:  MOVLW  01
080F8:  MOVWF  xA1
080FA:  MOVLB  0
080FC:  CALL   4F5E
....................          } 
....................              
....................          if(Opcion==3)   { 
08100:  MOVLB  5
08102:  MOVF   xBD,W
08104:  SUBLW  03
08106:  BNZ   8164
....................             strcpy(Menus.Letra,"Temperatura 3:"); 
08108:  MOVLW  06
0810A:  MOVWF  FEA
0810C:  MOVLW  78
0810E:  MOVWF  FE9
08110:  MOVFF  FF2,698
08114:  BCF    FF2.6
08116:  BCF    FF2.7
08118:  MOVLW  00
0811A:  MOVLB  0
0811C:  CALL   0BEE
08120:  TBLRD*-
08122:  TBLRD*+
08124:  MOVF   FF5,W
08126:  MOVWF  FEE
08128:  IORLW  00
0812A:  BNZ   8122
0812C:  MOVLB  6
0812E:  BTFSC  x98.6
08130:  BSF    FF2.6
08132:  BTFSC  x98.7
08134:  BSF    FF2.7
....................             displayTemps(Menus.Letra,Temperatura3,0,50,1,1); 
08136:  MOVLW  06
08138:  MOVWF  x99
0813A:  MOVLW  78
0813C:  MOVWF  x98
0813E:  MOVFF  65C,69D
08142:  MOVFF  65B,69C
08146:  MOVFF  65A,69B
0814A:  MOVFF  659,69A
0814E:  CLRF   x9E
08150:  MOVLW  32
08152:  MOVWF  x9F
08154:  MOVLW  01
08156:  MOVWF  xA0
08158:  MOVWF  xA1
0815A:  MOVLB  0
0815C:  CALL   4F5E
....................          }else{ 
08160:  BRA    81BC
08162:  MOVLB  5
....................             strcpy(Menus.Letra,"Temperatura 3:"); 
08164:  MOVLW  06
08166:  MOVWF  FEA
08168:  MOVLW  78
0816A:  MOVWF  FE9
0816C:  MOVFF  FF2,698
08170:  BCF    FF2.6
08172:  BCF    FF2.7
08174:  MOVLW  00
08176:  MOVLB  0
08178:  CALL   0BEE
0817C:  TBLRD*-
0817E:  TBLRD*+
08180:  MOVF   FF5,W
08182:  MOVWF  FEE
08184:  IORLW  00
08186:  BNZ   817E
08188:  MOVLB  6
0818A:  BTFSC  x98.6
0818C:  BSF    FF2.6
0818E:  BTFSC  x98.7
08190:  BSF    FF2.7
....................             displayTemps(Menus.Letra,Temperatura3,0,50,0,1); 
08192:  MOVLW  06
08194:  MOVWF  x99
08196:  MOVLW  78
08198:  MOVWF  x98
0819A:  MOVFF  65C,69D
0819E:  MOVFF  65B,69C
081A2:  MOVFF  65A,69B
081A6:  MOVFF  659,69A
081AA:  CLRF   x9E
081AC:  MOVLW  32
081AE:  MOVWF  x9F
081B0:  CLRF   xA0
081B2:  MOVLW  01
081B4:  MOVWF  xA1
081B6:  MOVLB  0
081B8:  CALL   4F5E
....................          } 
....................                
....................                 
....................          if(RIGHT){//Si oprime SET          
081BC:  BSF    F96.1
081BE:  BTFSC  F84.1
081C0:  BRA    81EC
....................             delay_ms(50); 
081C2:  MOVLW  32
081C4:  MOVLB  6
081C6:  MOVWF  xA1
081C8:  MOVLB  0
081CA:  CALL   132E
....................             if(RIGHT){ 
081CE:  BSF    F96.1
081D0:  BTFSC  F84.1
081D2:  BRA    81EC
....................                Opcion++;   
081D4:  MOVLB  5
081D6:  INCF   xBD,F
....................                Buzzer_on; 
081D8:  BSF    F8B.5
081DA:  BCF    F94.5
....................                delay_ms(50); 
081DC:  MOVLW  32
081DE:  MOVLB  6
081E0:  MOVWF  xA1
081E2:  MOVLB  0
081E4:  CALL   132E
....................                Buzzer_off; 
081E8:  BCF    F8B.5
081EA:  BCF    F94.5
....................             } 
....................          } 
....................        
....................          strcpy(Menus.Letra,"Temperatura"); 
081EC:  MOVLW  06
081EE:  MOVWF  FEA
081F0:  MOVLW  78
081F2:  MOVWF  FE9
081F4:  MOVFF  FF2,698
081F8:  BCF    FF2.6
081FA:  BCF    FF2.7
081FC:  MOVLW  00
081FE:  CALL   0B56
08202:  TBLRD*-
08204:  TBLRD*+
08206:  MOVF   FF5,W
08208:  MOVWF  FEE
0820A:  IORLW  00
0820C:  BNZ   8204
0820E:  MOVLB  6
08210:  BTFSC  x98.6
08212:  BSF    FF2.6
08214:  BTFSC  x98.7
08216:  BSF    FF2.7
....................          displayMenu(Menus.Letra,0,0,1,2); 
08218:  MOVLW  06
0821A:  MOVWF  xA1
0821C:  MOVLW  78
0821E:  MOVWF  xA0
08220:  CLRF   xA2
08222:  CLRF   xA3
08224:  MOVLW  01
08226:  MOVWF  xA4
08228:  MOVLW  02
0822A:  MOVWF  xA5
0822C:  MOVLB  0
0822E:  CALL   3238
....................           
....................        
....................          if(UP){   
08232:  BSF    F92.5
08234:  BTFSC  F80.5
08236:  BRA    83EE
....................             delay_ms(10); 
08238:  MOVLW  0A
0823A:  MOVLB  6
0823C:  MOVWF  xA1
0823E:  MOVLB  0
08240:  CALL   132E
....................             if(UP){ 
08244:  BSF    F92.5
08246:  BTFSC  F80.5
08248:  BRA    83E8
....................                Buzzer_on; 
0824A:  BSF    F8B.5
0824C:  BCF    F94.5
....................                delay_ms(50); 
0824E:  MOVLW  32
08250:  MOVLB  6
08252:  MOVWF  xA1
08254:  MOVLB  0
08256:  CALL   132E
....................                Buzzer_off; 
0825A:  BCF    F8B.5
0825C:  BCF    F94.5
....................                if(Opcion==1){ 
0825E:  MOVLB  5
08260:  DECFSZ xBD,W
08262:  BRA    82E2
....................                   if(tiempoup<4){ 
08264:  MOVF   xBA,W
08266:  SUBLW  03
08268:  BNC   82AA
....................                      flagup=1; 
0826A:  BSF    xA0.2
....................                      Temperatura1+=0.1;  
0826C:  BCF    FD8.1
0826E:  MOVFF  654,6A7
08272:  MOVFF  653,6A6
08276:  MOVFF  652,6A5
0827A:  MOVFF  651,6A4
0827E:  MOVLW  CD
08280:  MOVLB  6
08282:  MOVWF  xAB
08284:  MOVLW  CC
08286:  MOVWF  xAA
08288:  MOVLW  4C
0828A:  MOVWF  xA9
0828C:  MOVLW  7B
0828E:  MOVWF  xA8
08290:  MOVLB  0
08292:  CALL   1530
08296:  MOVFF  03,654
0829A:  MOVFF  02,653
0829E:  MOVFF  01,652
082A2:  MOVFF  00,651
....................                   } 
....................                   else{ 
082A6:  BRA    82E0
082A8:  MOVLB  5
....................                      flagup=0; 
082AA:  BCF    xA0.2
....................                      Temperatura1+=2; 
082AC:  BCF    FD8.1
082AE:  MOVFF  654,6A7
082B2:  MOVFF  653,6A6
082B6:  MOVFF  652,6A5
082BA:  MOVFF  651,6A4
082BE:  MOVLB  6
082C0:  CLRF   xAB
082C2:  CLRF   xAA
082C4:  CLRF   xA9
082C6:  MOVLW  80
082C8:  MOVWF  xA8
082CA:  MOVLB  0
082CC:  CALL   1530
082D0:  MOVFF  03,654
082D4:  MOVFF  02,653
082D8:  MOVFF  01,652
082DC:  MOVFF  00,651
082E0:  MOVLB  5
....................                   } 
....................                } 
....................                 
....................                if(Opcion==2){ 
082E2:  MOVF   xBD,W
082E4:  SUBLW  02
082E6:  BNZ   8366
....................                   if(tiempoup<4){ 
082E8:  MOVF   xBA,W
082EA:  SUBLW  03
082EC:  BNC   832E
....................                      flagup=1; 
082EE:  BSF    xA0.2
....................                      Temperatura2+=0.1;  
082F0:  BCF    FD8.1
082F2:  MOVFF  658,6A7
082F6:  MOVFF  657,6A6
082FA:  MOVFF  656,6A5
082FE:  MOVFF  655,6A4
08302:  MOVLW  CD
08304:  MOVLB  6
08306:  MOVWF  xAB
08308:  MOVLW  CC
0830A:  MOVWF  xAA
0830C:  MOVLW  4C
0830E:  MOVWF  xA9
08310:  MOVLW  7B
08312:  MOVWF  xA8
08314:  MOVLB  0
08316:  CALL   1530
0831A:  MOVFF  03,658
0831E:  MOVFF  02,657
08322:  MOVFF  01,656
08326:  MOVFF  00,655
....................                   } 
....................                   else{ 
0832A:  BRA    8364
0832C:  MOVLB  5
....................                      flagup=0; 
0832E:  BCF    xA0.2
....................                      Temperatura2+=2; 
08330:  BCF    FD8.1
08332:  MOVFF  658,6A7
08336:  MOVFF  657,6A6
0833A:  MOVFF  656,6A5
0833E:  MOVFF  655,6A4
08342:  MOVLB  6
08344:  CLRF   xAB
08346:  CLRF   xAA
08348:  CLRF   xA9
0834A:  MOVLW  80
0834C:  MOVWF  xA8
0834E:  MOVLB  0
08350:  CALL   1530
08354:  MOVFF  03,658
08358:  MOVFF  02,657
0835C:  MOVFF  01,656
08360:  MOVFF  00,655
08364:  MOVLB  5
....................                   } 
....................                } 
....................                    
....................                if(Opcion==3) 
08366:  MOVF   xBD,W
08368:  SUBLW  03
0836A:  BNZ   83EA
....................                   if(tiempoup<4){ 
0836C:  MOVF   xBA,W
0836E:  SUBLW  03
08370:  BNC   83B2
....................                      flagup=1; 
08372:  BSF    xA0.2
....................                      Temperatura3+=0.1;  
08374:  BCF    FD8.1
08376:  MOVFF  65C,6A7
0837A:  MOVFF  65B,6A6
0837E:  MOVFF  65A,6A5
08382:  MOVFF  659,6A4
08386:  MOVLW  CD
08388:  MOVLB  6
0838A:  MOVWF  xAB
0838C:  MOVLW  CC
0838E:  MOVWF  xAA
08390:  MOVLW  4C
08392:  MOVWF  xA9
08394:  MOVLW  7B
08396:  MOVWF  xA8
08398:  MOVLB  0
0839A:  CALL   1530
0839E:  MOVFF  03,65C
083A2:  MOVFF  02,65B
083A6:  MOVFF  01,65A
083AA:  MOVFF  00,659
....................                   } 
....................                   else{ 
083AE:  BRA    83E8
083B0:  MOVLB  5
....................                      flagup=0; 
083B2:  BCF    xA0.2
....................                      Temperatura3+=2; 
083B4:  BCF    FD8.1
083B6:  MOVFF  65C,6A7
083BA:  MOVFF  65B,6A6
083BE:  MOVFF  65A,6A5
083C2:  MOVFF  659,6A4
083C6:  MOVLB  6
083C8:  CLRF   xAB
083CA:  CLRF   xAA
083CC:  CLRF   xA9
083CE:  MOVLW  80
083D0:  MOVWF  xA8
083D2:  MOVLB  0
083D4:  CALL   1530
083D8:  MOVFF  03,65C
083DC:  MOVFF  02,65B
083E0:  MOVFF  01,65A
083E4:  MOVFF  00,659
083E8:  MOVLB  5
....................                   } 
....................             } 
....................          }else{ 
083EA:  BRA    83F2
083EC:  MOVLB  0
....................             tiempoup=0; 
083EE:  MOVLB  5
083F0:  CLRF   xBA
....................          } 
....................                 
....................          if(DOWN){  
083F2:  BSF    F96.0
083F4:  BTFSC  F84.0
083F6:  BRA    85AC
....................             delay_ms(10); 
083F8:  MOVLW  0A
083FA:  MOVLB  6
083FC:  MOVWF  xA1
083FE:  MOVLB  0
08400:  CALL   132E
....................             if(DOWN){ 
08404:  BSF    F96.0
08406:  BTFSC  F84.0
08408:  BRA    85A8
....................                Buzzer_on; 
0840A:  BSF    F8B.5
0840C:  BCF    F94.5
....................                delay_ms(50); 
0840E:  MOVLW  32
08410:  MOVLB  6
08412:  MOVWF  xA1
08414:  MOVLB  0
08416:  CALL   132E
....................                Buzzer_off; 
0841A:  BCF    F8B.5
0841C:  BCF    F94.5
....................                if(Opcion==1){ 
0841E:  MOVLB  5
08420:  DECFSZ xBD,W
08422:  BRA    84A2
....................                   if(tiempodn<4){ 
08424:  MOVF   xBB,W
08426:  SUBLW  03
08428:  BNC   846A
....................                      flagdn=1; 
0842A:  BSF    xA0.3
....................                      Temperatura1-=0.1;  
0842C:  BSF    FD8.1
0842E:  MOVFF  654,6A7
08432:  MOVFF  653,6A6
08436:  MOVFF  652,6A5
0843A:  MOVFF  651,6A4
0843E:  MOVLW  CD
08440:  MOVLB  6
08442:  MOVWF  xAB
08444:  MOVLW  CC
08446:  MOVWF  xAA
08448:  MOVLW  4C
0844A:  MOVWF  xA9
0844C:  MOVLW  7B
0844E:  MOVWF  xA8
08450:  MOVLB  0
08452:  CALL   1530
08456:  MOVFF  03,654
0845A:  MOVFF  02,653
0845E:  MOVFF  01,652
08462:  MOVFF  00,651
....................                   } 
....................                   else{ 
08466:  BRA    84A0
08468:  MOVLB  5
....................                      flagdn=0; 
0846A:  BCF    xA0.3
....................                      Temperatura1-=2; 
0846C:  BSF    FD8.1
0846E:  MOVFF  654,6A7
08472:  MOVFF  653,6A6
08476:  MOVFF  652,6A5
0847A:  MOVFF  651,6A4
0847E:  MOVLB  6
08480:  CLRF   xAB
08482:  CLRF   xAA
08484:  CLRF   xA9
08486:  MOVLW  80
08488:  MOVWF  xA8
0848A:  MOVLB  0
0848C:  CALL   1530
08490:  MOVFF  03,654
08494:  MOVFF  02,653
08498:  MOVFF  01,652
0849C:  MOVFF  00,651
084A0:  MOVLB  5
....................                   } 
....................                } 
....................                 
....................                if(Opcion==2){ 
084A2:  MOVF   xBD,W
084A4:  SUBLW  02
084A6:  BNZ   8526
....................                   if(tiempodn<4){ 
084A8:  MOVF   xBB,W
084AA:  SUBLW  03
084AC:  BNC   84EE
....................                      flagdn=1; 
084AE:  BSF    xA0.3
....................                      Temperatura2-=0.1;  
084B0:  BSF    FD8.1
084B2:  MOVFF  658,6A7
084B6:  MOVFF  657,6A6
084BA:  MOVFF  656,6A5
084BE:  MOVFF  655,6A4
084C2:  MOVLW  CD
084C4:  MOVLB  6
084C6:  MOVWF  xAB
084C8:  MOVLW  CC
084CA:  MOVWF  xAA
084CC:  MOVLW  4C
084CE:  MOVWF  xA9
084D0:  MOVLW  7B
084D2:  MOVWF  xA8
084D4:  MOVLB  0
084D6:  CALL   1530
084DA:  MOVFF  03,658
084DE:  MOVFF  02,657
084E2:  MOVFF  01,656
084E6:  MOVFF  00,655
....................                   } 
....................                   else{ 
084EA:  BRA    8524
084EC:  MOVLB  5
....................                      flagdn=0; 
084EE:  BCF    xA0.3
....................                      Temperatura2-=2; 
084F0:  BSF    FD8.1
084F2:  MOVFF  658,6A7
084F6:  MOVFF  657,6A6
084FA:  MOVFF  656,6A5
084FE:  MOVFF  655,6A4
08502:  MOVLB  6
08504:  CLRF   xAB
08506:  CLRF   xAA
08508:  CLRF   xA9
0850A:  MOVLW  80
0850C:  MOVWF  xA8
0850E:  MOVLB  0
08510:  CALL   1530
08514:  MOVFF  03,658
08518:  MOVFF  02,657
0851C:  MOVFF  01,656
08520:  MOVFF  00,655
08524:  MOVLB  5
....................                   } 
....................                } 
....................                    
....................                if(Opcion==3){ 
08526:  MOVF   xBD,W
08528:  SUBLW  03
0852A:  BNZ   85AA
....................                   if(tiempodn<4){ 
0852C:  MOVF   xBB,W
0852E:  SUBLW  03
08530:  BNC   8572
....................                      flagdn=1; 
08532:  BSF    xA0.3
....................                      Temperatura3-=0.1;  
08534:  BSF    FD8.1
08536:  MOVFF  65C,6A7
0853A:  MOVFF  65B,6A6
0853E:  MOVFF  65A,6A5
08542:  MOVFF  659,6A4
08546:  MOVLW  CD
08548:  MOVLB  6
0854A:  MOVWF  xAB
0854C:  MOVLW  CC
0854E:  MOVWF  xAA
08550:  MOVLW  4C
08552:  MOVWF  xA9
08554:  MOVLW  7B
08556:  MOVWF  xA8
08558:  MOVLB  0
0855A:  CALL   1530
0855E:  MOVFF  03,65C
08562:  MOVFF  02,65B
08566:  MOVFF  01,65A
0856A:  MOVFF  00,659
....................                   } 
....................                   else{ 
0856E:  BRA    85A8
08570:  MOVLB  5
....................                      flagdn=0; 
08572:  BCF    xA0.3
....................                      Temperatura3-=2; 
08574:  BSF    FD8.1
08576:  MOVFF  65C,6A7
0857A:  MOVFF  65B,6A6
0857E:  MOVFF  65A,6A5
08582:  MOVFF  659,6A4
08586:  MOVLB  6
08588:  CLRF   xAB
0858A:  CLRF   xAA
0858C:  CLRF   xA9
0858E:  MOVLW  80
08590:  MOVWF  xA8
08592:  MOVLB  0
08594:  CALL   1530
08598:  MOVFF  03,65C
0859C:  MOVFF  02,65B
085A0:  MOVFF  01,65A
085A4:  MOVFF  00,659
085A8:  MOVLB  5
....................                   } 
....................                } 
....................             } 
....................          }else{ 
085AA:  BRA    85AE
....................             tiempodn=0; 
085AC:  CLRF   xBB
....................          } 
....................                            
....................          if(LEFT){ 
085AE:  BSF    F96.2
085B0:  BTFSC  F84.2
085B2:  BRA    8932
....................             delay_ms(50); 
085B4:  MOVLW  32
085B6:  MOVLB  6
085B8:  MOVWF  xA1
085BA:  MOVLB  0
085BC:  CALL   132E
....................             if(LEFT){ 
085C0:  BSF    F96.2
085C2:  BTFSC  F84.2
085C4:  BRA    8932
....................                Buzzer_on; 
085C6:  BSF    F8B.5
085C8:  BCF    F94.5
....................                delay_ms(50); 
085CA:  MOVLW  32
085CC:  MOVLB  6
085CE:  MOVWF  xA1
085D0:  MOVLB  0
085D2:  CALL   132E
....................                Buzzer_off; 
085D6:  BCF    F8B.5
085D8:  BCF    F94.5
....................                delay_ms(700);Menu=1;glcd_fillscreen(OFF);Opcion=1;visual=1; 
085DA:  MOVLW  04
085DC:  MOVLB  6
085DE:  MOVWF  x98
085E0:  MOVLW  AF
085E2:  MOVWF  xA1
085E4:  MOVLB  0
085E6:  CALL   132E
085EA:  MOVLB  6
085EC:  DECFSZ x98,F
085EE:  BRA    85E0
085F0:  MOVLW  01
085F2:  MOVLB  5
085F4:  MOVWF  xB6
085F6:  MOVLB  6
085F8:  CLRF   xA0
085FA:  MOVLB  0
085FC:  CALL   2BFE
08600:  MOVLW  01
08602:  MOVLB  5
08604:  MOVWF  xBD
08606:  BSF    xAD.2
....................                 
....................                entero=(int8)Temperatura1; 
08608:  MOVFF  654,6A7
0860C:  MOVFF  653,6A6
08610:  MOVFF  652,6A5
08614:  MOVFF  651,6A4
08618:  MOVLB  0
0861A:  CALL   3A44
0861E:  MOVFF  01,5C1
....................                decimal=(Temperatura1-entero)*10; 
08622:  MOVLB  6
08624:  CLRF   xA5
08626:  MOVFF  5C1,6A4
0862A:  MOVLB  0
0862C:  CALL   139C
08630:  BSF    FD8.1
08632:  MOVFF  654,6A7
08636:  MOVFF  653,6A6
0863A:  MOVFF  652,6A5
0863E:  MOVFF  651,6A4
08642:  MOVFF  03,6AB
08646:  MOVFF  02,6AA
0864A:  MOVFF  01,6A9
0864E:  MOVFF  00,6A8
08652:  CALL   1530
08656:  MOVFF  00,698
0865A:  MOVFF  01,699
0865E:  MOVFF  02,69A
08662:  MOVFF  03,69B
08666:  MOVFF  03,6BB
0866A:  MOVFF  02,6BA
0866E:  MOVFF  01,6B9
08672:  MOVFF  00,6B8
08676:  MOVLB  6
08678:  CLRF   xBF
0867A:  CLRF   xBE
0867C:  MOVLW  20
0867E:  MOVWF  xBD
08680:  MOVLW  82
08682:  MOVWF  xBC
08684:  MOVLB  0
08686:  CALL   33AE
0868A:  MOVFF  03,6A7
0868E:  MOVFF  02,6A6
08692:  MOVFF  01,6A5
08696:  MOVFF  00,6A4
0869A:  CALL   3A44
0869E:  MOVFF  01,5C0
....................                write_eeprom(8,entero); 
086A2:  CLRF   FAA
086A4:  MOVLW  08
086A6:  MOVWF  FA9
086A8:  MOVFF  5C1,FA8
086AC:  BCF    FA6.6
086AE:  BCF    FA6.7
086B0:  BSF    FA6.2
086B2:  MOVF   FF2,W
086B4:  MOVWF  00
086B6:  BCF    FF2.6
086B8:  BCF    FF2.7
086BA:  MOVLB  F
086BC:  MOVLW  55
086BE:  MOVWF  FA7
086C0:  MOVLW  AA
086C2:  MOVWF  FA7
086C4:  BSF    FA6.1
086C6:  BTFSC  FA6.1
086C8:  BRA    86C6
086CA:  BCF    FA6.2
086CC:  MOVF   00,W
086CE:  IORWF  FF2,F
....................                delay_ms(50);    
086D0:  MOVLW  32
086D2:  MOVLB  6
086D4:  MOVWF  xA1
086D6:  MOVLB  0
086D8:  CALL   132E
....................                write_eeprom(9,decimal);//Guardar valor de Setpoint en eeprom 
086DC:  CLRF   FAA
086DE:  MOVLW  09
086E0:  MOVWF  FA9
086E2:  MOVFF  5C0,FA8
086E6:  BCF    FA6.6
086E8:  BCF    FA6.7
086EA:  BSF    FA6.2
086EC:  MOVF   FF2,W
086EE:  MOVWF  00
086F0:  BCF    FF2.6
086F2:  BCF    FF2.7
086F4:  MOVLB  F
086F6:  MOVLW  55
086F8:  MOVWF  FA7
086FA:  MOVLW  AA
086FC:  MOVWF  FA7
086FE:  BSF    FA6.1
08700:  BTFSC  FA6.1
08702:  BRA    8700
08704:  BCF    FA6.2
08706:  MOVF   00,W
08708:  IORWF  FF2,F
....................                delay_ms(50);   
0870A:  MOVLW  32
0870C:  MOVLB  6
0870E:  MOVWF  xA1
08710:  MOVLB  0
08712:  CALL   132E
....................                 
....................                entero=(int8)Temperatura2; 
08716:  MOVFF  658,6A7
0871A:  MOVFF  657,6A6
0871E:  MOVFF  656,6A5
08722:  MOVFF  655,6A4
08726:  CALL   3A44
0872A:  MOVFF  01,5C1
....................                decimal=(Temperatura2-entero)*10; 
0872E:  MOVLB  6
08730:  CLRF   xA5
08732:  MOVFF  5C1,6A4
08736:  MOVLB  0
08738:  CALL   139C
0873C:  BSF    FD8.1
0873E:  MOVFF  658,6A7
08742:  MOVFF  657,6A6
08746:  MOVFF  656,6A5
0874A:  MOVFF  655,6A4
0874E:  MOVFF  03,6AB
08752:  MOVFF  02,6AA
08756:  MOVFF  01,6A9
0875A:  MOVFF  00,6A8
0875E:  CALL   1530
08762:  MOVFF  00,698
08766:  MOVFF  01,699
0876A:  MOVFF  02,69A
0876E:  MOVFF  03,69B
08772:  MOVFF  03,6BB
08776:  MOVFF  02,6BA
0877A:  MOVFF  01,6B9
0877E:  MOVFF  00,6B8
08782:  MOVLB  6
08784:  CLRF   xBF
08786:  CLRF   xBE
08788:  MOVLW  20
0878A:  MOVWF  xBD
0878C:  MOVLW  82
0878E:  MOVWF  xBC
08790:  MOVLB  0
08792:  CALL   33AE
08796:  MOVFF  03,6A7
0879A:  MOVFF  02,6A6
0879E:  MOVFF  01,6A5
087A2:  MOVFF  00,6A4
087A6:  CALL   3A44
087AA:  MOVFF  01,5C0
....................                write_eeprom(10,entero); 
087AE:  CLRF   FAA
087B0:  MOVLW  0A
087B2:  MOVWF  FA9
087B4:  MOVFF  5C1,FA8
087B8:  BCF    FA6.6
087BA:  BCF    FA6.7
087BC:  BSF    FA6.2
087BE:  MOVF   FF2,W
087C0:  MOVWF  00
087C2:  BCF    FF2.6
087C4:  BCF    FF2.7
087C6:  MOVLB  F
087C8:  MOVLW  55
087CA:  MOVWF  FA7
087CC:  MOVLW  AA
087CE:  MOVWF  FA7
087D0:  BSF    FA6.1
087D2:  BTFSC  FA6.1
087D4:  BRA    87D2
087D6:  BCF    FA6.2
087D8:  MOVF   00,W
087DA:  IORWF  FF2,F
....................                delay_ms(50);    
087DC:  MOVLW  32
087DE:  MOVLB  6
087E0:  MOVWF  xA1
087E2:  MOVLB  0
087E4:  CALL   132E
....................                write_eeprom(11,decimal);//Guardar valor de Setpoint en eeprom 
087E8:  CLRF   FAA
087EA:  MOVLW  0B
087EC:  MOVWF  FA9
087EE:  MOVFF  5C0,FA8
087F2:  BCF    FA6.6
087F4:  BCF    FA6.7
087F6:  BSF    FA6.2
087F8:  MOVF   FF2,W
087FA:  MOVWF  00
087FC:  BCF    FF2.6
087FE:  BCF    FF2.7
08800:  MOVLB  F
08802:  MOVLW  55
08804:  MOVWF  FA7
08806:  MOVLW  AA
08808:  MOVWF  FA7
0880A:  BSF    FA6.1
0880C:  BTFSC  FA6.1
0880E:  BRA    880C
08810:  BCF    FA6.2
08812:  MOVF   00,W
08814:  IORWF  FF2,F
....................                delay_ms(50);    
08816:  MOVLW  32
08818:  MOVLB  6
0881A:  MOVWF  xA1
0881C:  MOVLB  0
0881E:  CALL   132E
....................                 
....................                entero=(int8)Temperatura3; 
08822:  MOVFF  65C,6A7
08826:  MOVFF  65B,6A6
0882A:  MOVFF  65A,6A5
0882E:  MOVFF  659,6A4
08832:  CALL   3A44
08836:  MOVFF  01,5C1
....................                decimal=(Temperatura3-entero)*10; 
0883A:  MOVLB  6
0883C:  CLRF   xA5
0883E:  MOVFF  5C1,6A4
08842:  MOVLB  0
08844:  CALL   139C
08848:  BSF    FD8.1
0884A:  MOVFF  65C,6A7
0884E:  MOVFF  65B,6A6
08852:  MOVFF  65A,6A5
08856:  MOVFF  659,6A4
0885A:  MOVFF  03,6AB
0885E:  MOVFF  02,6AA
08862:  MOVFF  01,6A9
08866:  MOVFF  00,6A8
0886A:  CALL   1530
0886E:  MOVFF  00,698
08872:  MOVFF  01,699
08876:  MOVFF  02,69A
0887A:  MOVFF  03,69B
0887E:  MOVFF  03,6BB
08882:  MOVFF  02,6BA
08886:  MOVFF  01,6B9
0888A:  MOVFF  00,6B8
0888E:  MOVLB  6
08890:  CLRF   xBF
08892:  CLRF   xBE
08894:  MOVLW  20
08896:  MOVWF  xBD
08898:  MOVLW  82
0889A:  MOVWF  xBC
0889C:  MOVLB  0
0889E:  CALL   33AE
088A2:  MOVFF  03,6A7
088A6:  MOVFF  02,6A6
088AA:  MOVFF  01,6A5
088AE:  MOVFF  00,6A4
088B2:  CALL   3A44
088B6:  MOVFF  01,5C0
....................                write_eeprom(12,entero); 
088BA:  CLRF   FAA
088BC:  MOVLW  0C
088BE:  MOVWF  FA9
088C0:  MOVFF  5C1,FA8
088C4:  BCF    FA6.6
088C6:  BCF    FA6.7
088C8:  BSF    FA6.2
088CA:  MOVF   FF2,W
088CC:  MOVWF  00
088CE:  BCF    FF2.6
088D0:  BCF    FF2.7
088D2:  MOVLB  F
088D4:  MOVLW  55
088D6:  MOVWF  FA7
088D8:  MOVLW  AA
088DA:  MOVWF  FA7
088DC:  BSF    FA6.1
088DE:  BTFSC  FA6.1
088E0:  BRA    88DE
088E2:  BCF    FA6.2
088E4:  MOVF   00,W
088E6:  IORWF  FF2,F
....................                delay_ms(50);    
088E8:  MOVLW  32
088EA:  MOVLB  6
088EC:  MOVWF  xA1
088EE:  MOVLB  0
088F0:  CALL   132E
....................                write_eeprom(13,decimal);//Guardar valor de Setpoint en eeprom 
088F4:  CLRF   FAA
088F6:  MOVLW  0D
088F8:  MOVWF  FA9
088FA:  MOVFF  5C0,FA8
088FE:  BCF    FA6.6
08900:  BCF    FA6.7
08902:  BSF    FA6.2
08904:  MOVF   FF2,W
08906:  MOVWF  00
08908:  BCF    FF2.6
0890A:  BCF    FF2.7
0890C:  MOVLB  F
0890E:  MOVLW  55
08910:  MOVWF  FA7
08912:  MOVLW  AA
08914:  MOVWF  FA7
08916:  BSF    FA6.1
08918:  BTFSC  FA6.1
0891A:  BRA    8918
0891C:  BCF    FA6.2
0891E:  MOVF   00,W
08920:  IORWF  FF2,F
....................                delay_ms(50);  
08922:  MOVLW  32
08924:  MOVLB  6
08926:  MOVWF  xA1
08928:  MOVLB  0
0892A:  CALL   132E
....................                MensajeAlmacenado(); 
0892E:  CALL   3E94
....................             } 
....................          } 
....................           
....................          if(Temperatura1<20) 
08932:  MOVFF  654,69B
08936:  MOVFF  653,69A
0893A:  MOVFF  652,699
0893E:  MOVFF  651,698
08942:  MOVLB  6
08944:  CLRF   x9F
08946:  CLRF   x9E
08948:  MOVLW  20
0894A:  MOVWF  x9D
0894C:  MOVLW  83
0894E:  MOVWF  x9C
08950:  MOVLB  0
08952:  CALL   2046
08956:  BNC   8966
....................             Temperatura1=100; 
08958:  MOVLB  6
0895A:  CLRF   x54
0895C:  CLRF   x53
0895E:  MOVLW  48
08960:  MOVWF  x52
08962:  MOVLW  85
08964:  MOVWF  x51
....................              
....................          if(Temperatura2<20) 
08966:  MOVFF  658,69B
0896A:  MOVFF  657,69A
0896E:  MOVFF  656,699
08972:  MOVFF  655,698
08976:  MOVLB  6
08978:  CLRF   x9F
0897A:  CLRF   x9E
0897C:  MOVLW  20
0897E:  MOVWF  x9D
08980:  MOVLW  83
08982:  MOVWF  x9C
08984:  MOVLB  0
08986:  CALL   2046
0898A:  BNC   899A
....................             Temperatura2=100; 
0898C:  MOVLB  6
0898E:  CLRF   x58
08990:  CLRF   x57
08992:  MOVLW  48
08994:  MOVWF  x56
08996:  MOVLW  85
08998:  MOVWF  x55
....................              
....................          if(Temperatura3<20) 
0899A:  MOVFF  65C,69B
0899E:  MOVFF  65B,69A
089A2:  MOVFF  65A,699
089A6:  MOVFF  659,698
089AA:  MOVLB  6
089AC:  CLRF   x9F
089AE:  CLRF   x9E
089B0:  MOVLW  20
089B2:  MOVWF  x9D
089B4:  MOVLW  83
089B6:  MOVWF  x9C
089B8:  MOVLB  0
089BA:  CALL   2046
089BE:  BNC   89CE
....................             Temperatura3=100; 
089C0:  MOVLB  6
089C2:  CLRF   x5C
089C4:  CLRF   x5B
089C6:  MOVLW  48
089C8:  MOVWF  x5A
089CA:  MOVLW  85
089CC:  MOVWF  x59
....................              
....................          if(Temperatura1>100) 
089CE:  MOVLB  6
089D0:  CLRF   x9B
089D2:  CLRF   x9A
089D4:  MOVLW  48
089D6:  MOVWF  x99
089D8:  MOVLW  85
089DA:  MOVWF  x98
089DC:  MOVFF  654,69F
089E0:  MOVFF  653,69E
089E4:  MOVFF  652,69D
089E8:  MOVFF  651,69C
089EC:  MOVLB  0
089EE:  CALL   2046
089F2:  BNC   8A02
....................             Temperatura1=20;    
089F4:  MOVLB  6
089F6:  CLRF   x54
089F8:  CLRF   x53
089FA:  MOVLW  20
089FC:  MOVWF  x52
089FE:  MOVLW  83
08A00:  MOVWF  x51
....................              
....................          if(Temperatura2>100) 
08A02:  MOVLB  6
08A04:  CLRF   x9B
08A06:  CLRF   x9A
08A08:  MOVLW  48
08A0A:  MOVWF  x99
08A0C:  MOVLW  85
08A0E:  MOVWF  x98
08A10:  MOVFF  658,69F
08A14:  MOVFF  657,69E
08A18:  MOVFF  656,69D
08A1C:  MOVFF  655,69C
08A20:  MOVLB  0
08A22:  CALL   2046
08A26:  BNC   8A36
....................             Temperatura2=20;    
08A28:  MOVLB  6
08A2A:  CLRF   x58
08A2C:  CLRF   x57
08A2E:  MOVLW  20
08A30:  MOVWF  x56
08A32:  MOVLW  83
08A34:  MOVWF  x55
....................              
....................          if(Temperatura3>100) 
08A36:  MOVLB  6
08A38:  CLRF   x9B
08A3A:  CLRF   x9A
08A3C:  MOVLW  48
08A3E:  MOVWF  x99
08A40:  MOVLW  85
08A42:  MOVWF  x98
08A44:  MOVFF  65C,69F
08A48:  MOVFF  65B,69E
08A4C:  MOVFF  65A,69D
08A50:  MOVFF  659,69C
08A54:  MOVLB  0
08A56:  CALL   2046
08A5A:  BNC   8A6C
....................             Temperatura3=20;    
08A5C:  MOVLB  6
08A5E:  CLRF   x5C
08A60:  CLRF   x5B
08A62:  MOVLW  20
08A64:  MOVWF  x5A
08A66:  MOVLW  83
08A68:  MOVWF  x59
08A6A:  MOVLB  0
08A6C:  MOVLB  5
....................      } 
.................... //_--------------------------------------------------------------------------------------------------------------------------------------------------------     
....................  
.................... //_--------------------------------------------------------------------------------------------------------------------------------------------------------       
....................       if(Menu==6){ // Menu de Temporizador 
08A6E:  MOVF   xB6,W
08A70:  SUBLW  06
08A72:  BTFSS  FD8.2
08A74:  BRA    8E9A
....................       
....................          if(unidad<1) 
08A76:  MOVF   xB7,F
08A78:  BNZ   8A7E
....................             unidad=4; 
08A7A:  MOVLW  04
08A7C:  MOVWF  xB7
....................           
....................          strcpy(Menus.Letra,"Tiempo"); 
08A7E:  MOVLW  06
08A80:  MOVWF  FEA
08A82:  MOVLW  78
08A84:  MOVWF  FE9
08A86:  MOVFF  FF2,698
08A8A:  BCF    FF2.6
08A8C:  BCF    FF2.7
08A8E:  MOVLW  00
08A90:  MOVLB  0
08A92:  CALL   0C22
08A96:  TBLRD*-
08A98:  TBLRD*+
08A9A:  MOVF   FF5,W
08A9C:  MOVWF  FEE
08A9E:  IORLW  00
08AA0:  BNZ   8A98
08AA2:  MOVLB  6
08AA4:  BTFSC  x98.6
08AA6:  BSF    FF2.6
08AA8:  BTFSC  x98.7
08AAA:  BSF    FF2.7
....................          displayMenu(Menus.Letra,10,0,1,2); 
08AAC:  MOVLW  06
08AAE:  MOVWF  xA1
08AB0:  MOVLW  78
08AB2:  MOVWF  xA0
08AB4:  MOVLW  0A
08AB6:  MOVWF  xA2
08AB8:  CLRF   xA3
08ABA:  MOVLW  01
08ABC:  MOVWF  xA4
08ABE:  MOVLW  02
08AC0:  MOVWF  xA5
08AC2:  MOVLB  0
08AC4:  CALL   3238
....................           
....................          if(unidad==4) 
08AC8:  MOVLB  5
08ACA:  MOVF   xB7,W
08ACC:  SUBLW  04
08ACE:  BNZ   8AEE
....................          {displayTiempo(Testerilizacionp[3],20,40,1,2);} 
08AD0:  MOVFF  604,699
08AD4:  MOVLW  14
08AD6:  MOVLB  6
08AD8:  MOVWF  x9A
08ADA:  MOVLW  28
08ADC:  MOVWF  x9B
08ADE:  MOVLW  01
08AE0:  MOVWF  x9C
08AE2:  MOVLW  02
08AE4:  MOVWF  x9D
08AE6:  MOVLB  0
08AE8:  CALL   5278
....................          else 
08AEC:  BRA    8B08
....................          {displayTiempo(Testerilizacionp[3],20,40,0,2);} 
08AEE:  MOVFF  604,699
08AF2:  MOVLW  14
08AF4:  MOVLB  6
08AF6:  MOVWF  x9A
08AF8:  MOVLW  28
08AFA:  MOVWF  x9B
08AFC:  CLRF   x9C
08AFE:  MOVLW  02
08B00:  MOVWF  x9D
08B02:  MOVLB  0
08B04:  CALL   5278
....................           
....................          if(unidad==3) 
08B08:  MOVLB  5
08B0A:  MOVF   xB7,W
08B0C:  SUBLW  03
08B0E:  BNZ   8B2C
....................          {displayTiempo(Testerilizacionp[2],40,40,1,2);} 
08B10:  MOVFF  603,699
08B14:  MOVLW  28
08B16:  MOVLB  6
08B18:  MOVWF  x9A
08B1A:  MOVWF  x9B
08B1C:  MOVLW  01
08B1E:  MOVWF  x9C
08B20:  MOVLW  02
08B22:  MOVWF  x9D
08B24:  MOVLB  0
08B26:  CALL   5278
....................          else 
08B2A:  BRA    8B44
....................          {displayTiempo(Testerilizacionp[2],40,40,0,2);} 
08B2C:  MOVFF  603,699
08B30:  MOVLW  28
08B32:  MOVLB  6
08B34:  MOVWF  x9A
08B36:  MOVWF  x9B
08B38:  CLRF   x9C
08B3A:  MOVLW  02
08B3C:  MOVWF  x9D
08B3E:  MOVLB  0
08B40:  CALL   5278
....................           
....................          if(unidad==2) 
08B44:  MOVLB  5
08B46:  MOVF   xB7,W
08B48:  SUBLW  02
08B4A:  BNZ   8B6A
....................          {displayTiempo(Testerilizacionp[1],70,40,1,2);} 
08B4C:  MOVFF  602,699
08B50:  MOVLW  46
08B52:  MOVLB  6
08B54:  MOVWF  x9A
08B56:  MOVLW  28
08B58:  MOVWF  x9B
08B5A:  MOVLW  01
08B5C:  MOVWF  x9C
08B5E:  MOVLW  02
08B60:  MOVWF  x9D
08B62:  MOVLB  0
08B64:  CALL   5278
....................          else 
08B68:  BRA    8B84
....................          {displayTiempo(Testerilizacionp[1],70,40,0,2);} 
08B6A:  MOVFF  602,699
08B6E:  MOVLW  46
08B70:  MOVLB  6
08B72:  MOVWF  x9A
08B74:  MOVLW  28
08B76:  MOVWF  x9B
08B78:  CLRF   x9C
08B7A:  MOVLW  02
08B7C:  MOVWF  x9D
08B7E:  MOVLB  0
08B80:  CALL   5278
....................           
....................          if(unidad==1) 
08B84:  MOVLB  5
08B86:  DECFSZ xB7,W
08B88:  BRA    8BA8
....................          {displayTiempo(Testerilizacionp[0],90,40,1,2);} 
08B8A:  MOVFF  601,699
08B8E:  MOVLW  5A
08B90:  MOVLB  6
08B92:  MOVWF  x9A
08B94:  MOVLW  28
08B96:  MOVWF  x9B
08B98:  MOVLW  01
08B9A:  MOVWF  x9C
08B9C:  MOVLW  02
08B9E:  MOVWF  x9D
08BA0:  MOVLB  0
08BA2:  CALL   5278
....................          else 
08BA6:  BRA    8BC2
....................          {displayTiempo(Testerilizacionp[0],90,40,0,2);} 
08BA8:  MOVFF  601,699
08BAC:  MOVLW  5A
08BAE:  MOVLB  6
08BB0:  MOVWF  x9A
08BB2:  MOVLW  28
08BB4:  MOVWF  x9B
08BB6:  CLRF   x9C
08BB8:  MOVLW  02
08BBA:  MOVWF  x9D
08BBC:  MOVLB  0
08BBE:  CALL   5278
....................           
....................          strcpy(Menus.Letra,":"); 
08BC2:  MOVLW  06
08BC4:  MOVWF  FEA
08BC6:  MOVLW  78
08BC8:  MOVWF  FE9
08BCA:  MOVFF  FF2,698
08BCE:  BCF    FF2.6
08BD0:  BCF    FF2.7
08BD2:  MOVLW  00
08BD4:  CALL   0C4E
08BD8:  TBLRD*-
08BDA:  TBLRD*+
08BDC:  MOVF   FF5,W
08BDE:  MOVWF  FEE
08BE0:  IORLW  00
08BE2:  BNZ   8BDA
08BE4:  MOVLB  6
08BE6:  BTFSC  x98.6
08BE8:  BSF    FF2.6
08BEA:  BTFSC  x98.7
08BEC:  BSF    FF2.7
....................          displayMenu(Menus.Letra,60,42,2,2);            
08BEE:  MOVLW  06
08BF0:  MOVWF  xA1
08BF2:  MOVLW  78
08BF4:  MOVWF  xA0
08BF6:  MOVLW  3C
08BF8:  MOVWF  xA2
08BFA:  MOVLW  2A
08BFC:  MOVWF  xA3
08BFE:  MOVLW  02
08C00:  MOVWF  xA4
08C02:  MOVWF  xA5
08C04:  MOVLB  0
08C06:  CALL   3238
....................        
....................          if(UP){   
08C0A:  BSF    F92.5
08C0C:  BTFSC  F80.5
08C0E:  BRA    8CAE
....................             delay_ms(50); 
08C10:  MOVLW  32
08C12:  MOVLB  6
08C14:  MOVWF  xA1
08C16:  MOVLB  0
08C18:  CALL   132E
....................             if(UP){ 
08C1C:  BSF    F92.5
08C1E:  BTFSC  F80.5
08C20:  BRA    8CAE
....................                Buzzer_on; 
08C22:  BSF    F8B.5
08C24:  BCF    F94.5
....................                delay_ms(50); 
08C26:  MOVLW  32
08C28:  MOVLB  6
08C2A:  MOVWF  xA1
08C2C:  MOVLB  0
08C2E:  CALL   132E
....................                Buzzer_off; 
08C32:  BCF    F8B.5
08C34:  BCF    F94.5
....................                if(unidad==2){ 
08C36:  MOVLB  5
08C38:  MOVF   xB7,W
08C3A:  SUBLW  02
08C3C:  BNZ   8C76
....................                   if(Testerilizacionp[unidad-1]<5){ 
08C3E:  MOVLW  01
08C40:  SUBWF  xB7,W
08C42:  CLRF   03
08C44:  ADDLW  01
08C46:  MOVWF  FE9
08C48:  MOVLW  06
08C4A:  ADDWFC 03,W
08C4C:  MOVWF  FEA
08C4E:  BTFSC  FEF.7
08C50:  BRA    8C58
08C52:  MOVF   FEF,W
08C54:  SUBLW  04
08C56:  BNC   8C74
....................                      DelayPuls();Testerilizacionp[unidad-1]++;visual=1; 
08C58:  MOVLB  0
08C5A:  CALL   3E86
08C5E:  MOVLW  01
08C60:  MOVLB  5
08C62:  SUBWF  xB7,W
08C64:  CLRF   03
08C66:  ADDLW  01
08C68:  MOVWF  FE9
08C6A:  MOVLW  06
08C6C:  ADDWFC 03,W
08C6E:  MOVWF  FEA
08C70:  INCF   FEF,F
08C72:  BSF    xAD.2
....................                   } 
....................                }else{ 
08C74:  BRA    8CAC
....................                   if(Testerilizacionp[unidad-1]<9){ 
08C76:  MOVLW  01
08C78:  SUBWF  xB7,W
08C7A:  CLRF   03
08C7C:  ADDLW  01
08C7E:  MOVWF  FE9
08C80:  MOVLW  06
08C82:  ADDWFC 03,W
08C84:  MOVWF  FEA
08C86:  BTFSC  FEF.7
08C88:  BRA    8C90
08C8A:  MOVF   FEF,W
08C8C:  SUBLW  08
08C8E:  BNC   8CAC
....................                      DelayPuls();Testerilizacionp[unidad-1]++;visual=1; 
08C90:  MOVLB  0
08C92:  CALL   3E86
08C96:  MOVLW  01
08C98:  MOVLB  5
08C9A:  SUBWF  xB7,W
08C9C:  CLRF   03
08C9E:  ADDLW  01
08CA0:  MOVWF  FE9
08CA2:  MOVLW  06
08CA4:  ADDWFC 03,W
08CA6:  MOVWF  FEA
08CA8:  INCF   FEF,F
08CAA:  BSF    xAD.2
08CAC:  MOVLB  0
....................                   } 
....................                } 
....................             } 
....................          } 
....................                 
....................          if(DOWN){  
08CAE:  BSF    F96.0
08CB0:  BTFSC  F84.0
08CB2:  BRA    8D14
....................             delay_ms(50); 
08CB4:  MOVLW  32
08CB6:  MOVLB  6
08CB8:  MOVWF  xA1
08CBA:  MOVLB  0
08CBC:  CALL   132E
....................             if(DOWN){ 
08CC0:  BSF    F96.0
08CC2:  BTFSC  F84.0
08CC4:  BRA    8D14
....................                Buzzer_on; 
08CC6:  BSF    F8B.5
08CC8:  BCF    F94.5
....................                delay_ms(50); 
08CCA:  MOVLW  32
08CCC:  MOVLB  6
08CCE:  MOVWF  xA1
08CD0:  MOVLB  0
08CD2:  CALL   132E
....................                Buzzer_off; 
08CD6:  BCF    F8B.5
08CD8:  BCF    F94.5
....................                if(Testerilizacionp[unidad-1]>0){ 
08CDA:  MOVLW  01
08CDC:  MOVLB  5
08CDE:  SUBWF  xB7,W
08CE0:  CLRF   03
08CE2:  ADDLW  01
08CE4:  MOVWF  FE9
08CE6:  MOVLW  06
08CE8:  ADDWFC 03,W
08CEA:  MOVWF  FEA
08CEC:  BTFSC  FEF.7
08CEE:  BRA    8D12
08CF0:  MOVF   FEF,W
08CF2:  SUBLW  00
08CF4:  BC    8D12
....................                   DelayPuls();Testerilizacionp[unidad-1]--;visual=1;      
08CF6:  MOVLB  0
08CF8:  CALL   3E86
08CFC:  MOVLW  01
08CFE:  MOVLB  5
08D00:  SUBWF  xB7,W
08D02:  CLRF   03
08D04:  ADDLW  01
08D06:  MOVWF  FE9
08D08:  MOVLW  06
08D0A:  ADDWFC 03,W
08D0C:  MOVWF  FEA
08D0E:  DECF   FEF,F
08D10:  BSF    xAD.2
08D12:  MOVLB  0
....................                } 
....................             } 
....................          } 
....................                 
....................          if(RIGHT){   
08D14:  BSF    F96.1
08D16:  BTFSC  F84.1
08D18:  BRA    8D3A
....................             Buzzer_on; 
08D1A:  BSF    F8B.5
08D1C:  BCF    F94.5
....................             delay_ms(50); 
08D1E:  MOVLW  32
08D20:  MOVLB  6
08D22:  MOVWF  xA1
08D24:  MOVLB  0
08D26:  CALL   132E
....................             Buzzer_off; 
08D2A:  BCF    F8B.5
08D2C:  BCF    F94.5
....................             DelayPuls();unidad--;visual=1; 
08D2E:  CALL   3E86
08D32:  MOVLB  5
08D34:  DECF   xB7,F
08D36:  BSF    xAD.2
08D38:  MOVLB  0
....................          }  
....................                    
....................          if(LEFT){ 
08D3A:  BSF    F96.2
08D3C:  BTFSC  F84.2
08D3E:  BRA    8E9C
....................             delay_ms(50); 
08D40:  MOVLW  32
08D42:  MOVLB  6
08D44:  MOVWF  xA1
08D46:  MOVLB  0
08D48:  CALL   132E
....................             if(LEFT){ 
08D4C:  BSF    F96.2
08D4E:  BTFSC  F84.2
08D50:  BRA    8E9C
....................                Buzzer_on; 
08D52:  BSF    F8B.5
08D54:  BCF    F94.5
....................                delay_ms(50); 
08D56:  MOVLW  32
08D58:  MOVLB  6
08D5A:  MOVWF  xA1
08D5C:  MOVLB  0
08D5E:  CALL   132E
....................                Buzzer_off; 
08D62:  BCF    F8B.5
08D64:  BCF    F94.5
....................                delay_ms(700);Menu=1;glcd_fillscreen(OFF);Opcion=1;visual=1; 
08D66:  MOVLW  04
08D68:  MOVLB  6
08D6A:  MOVWF  x98
08D6C:  MOVLW  AF
08D6E:  MOVWF  xA1
08D70:  MOVLB  0
08D72:  CALL   132E
08D76:  MOVLB  6
08D78:  DECFSZ x98,F
08D7A:  BRA    8D6C
08D7C:  MOVLW  01
08D7E:  MOVLB  5
08D80:  MOVWF  xB6
08D82:  MOVLB  6
08D84:  CLRF   xA0
08D86:  MOVLB  0
08D88:  CALL   2BFE
08D8C:  MOVLW  01
08D8E:  MOVLB  5
08D90:  MOVWF  xBD
08D92:  BSF    xAD.2
....................                write_eeprom(0,Testerilizacionp[0]); 
08D94:  CLRF   FAA
08D96:  CLRF   FA9
08D98:  MOVFF  601,FA8
08D9C:  BCF    FA6.6
08D9E:  BCF    FA6.7
08DA0:  BSF    FA6.2
08DA2:  MOVF   FF2,W
08DA4:  MOVWF  00
08DA6:  BCF    FF2.6
08DA8:  BCF    FF2.7
08DAA:  MOVLB  F
08DAC:  MOVLW  55
08DAE:  MOVWF  FA7
08DB0:  MOVLW  AA
08DB2:  MOVWF  FA7
08DB4:  BSF    FA6.1
08DB6:  BTFSC  FA6.1
08DB8:  BRA    8DB6
08DBA:  BCF    FA6.2
08DBC:  MOVF   00,W
08DBE:  IORWF  FF2,F
....................                delay_ms(50);    
08DC0:  MOVLW  32
08DC2:  MOVLB  6
08DC4:  MOVWF  xA1
08DC6:  MOVLB  0
08DC8:  CALL   132E
....................                write_eeprom(1,Testerilizacionp[1]); 
08DCC:  CLRF   FAA
08DCE:  MOVLW  01
08DD0:  MOVWF  FA9
08DD2:  MOVFF  602,FA8
08DD6:  BCF    FA6.6
08DD8:  BCF    FA6.7
08DDA:  BSF    FA6.2
08DDC:  MOVF   FF2,W
08DDE:  MOVWF  00
08DE0:  BCF    FF2.6
08DE2:  BCF    FF2.7
08DE4:  MOVLB  F
08DE6:  MOVLW  55
08DE8:  MOVWF  FA7
08DEA:  MOVLW  AA
08DEC:  MOVWF  FA7
08DEE:  BSF    FA6.1
08DF0:  BTFSC  FA6.1
08DF2:  BRA    8DF0
08DF4:  BCF    FA6.2
08DF6:  MOVF   00,W
08DF8:  IORWF  FF2,F
....................                delay_ms(50);    
08DFA:  MOVLW  32
08DFC:  MOVLB  6
08DFE:  MOVWF  xA1
08E00:  MOVLB  0
08E02:  CALL   132E
....................                write_eeprom(2,Testerilizacionp[2]); 
08E06:  CLRF   FAA
08E08:  MOVLW  02
08E0A:  MOVWF  FA9
08E0C:  MOVFF  603,FA8
08E10:  BCF    FA6.6
08E12:  BCF    FA6.7
08E14:  BSF    FA6.2
08E16:  MOVF   FF2,W
08E18:  MOVWF  00
08E1A:  BCF    FF2.6
08E1C:  BCF    FF2.7
08E1E:  MOVLB  F
08E20:  MOVLW  55
08E22:  MOVWF  FA7
08E24:  MOVLW  AA
08E26:  MOVWF  FA7
08E28:  BSF    FA6.1
08E2A:  BTFSC  FA6.1
08E2C:  BRA    8E2A
08E2E:  BCF    FA6.2
08E30:  MOVF   00,W
08E32:  IORWF  FF2,F
....................                delay_ms(50);    
08E34:  MOVLW  32
08E36:  MOVLB  6
08E38:  MOVWF  xA1
08E3A:  MOVLB  0
08E3C:  CALL   132E
....................                write_eeprom(3,Testerilizacionp[3]); 
08E40:  CLRF   FAA
08E42:  MOVLW  03
08E44:  MOVWF  FA9
08E46:  MOVFF  604,FA8
08E4A:  BCF    FA6.6
08E4C:  BCF    FA6.7
08E4E:  BSF    FA6.2
08E50:  MOVF   FF2,W
08E52:  MOVWF  00
08E54:  BCF    FF2.6
08E56:  BCF    FF2.7
08E58:  MOVLB  F
08E5A:  MOVLW  55
08E5C:  MOVWF  FA7
08E5E:  MOVLW  AA
08E60:  MOVWF  FA7
08E62:  BSF    FA6.1
08E64:  BTFSC  FA6.1
08E66:  BRA    8E64
08E68:  BCF    FA6.2
08E6A:  MOVF   00,W
08E6C:  IORWF  FF2,F
....................                delay_ms(50);    
08E6E:  MOVLW  32
08E70:  MOVLB  6
08E72:  MOVWF  xA1
08E74:  MOVLB  0
08E76:  CALL   132E
....................                MensajeAlmacenado(); 
08E7A:  CALL   3E94
....................                if((Testerilizacionp[0]==0)&&(Testerilizacionp[1]==0)&&(Testerilizacionp[2]==0)&&(Testerilizacionp[3]==0)) 
08E7E:  MOVLB  6
08E80:  MOVF   x01,F
08E82:  BNZ   8E96
08E84:  MOVF   x02,F
08E86:  BNZ   8E96
08E88:  MOVF   x03,F
08E8A:  BNZ   8E96
08E8C:  MOVF   x04,F
08E8E:  BNZ   8E96
....................                   Infinito=1; 
08E90:  MOVLB  5
08E92:  BSF    xAD.7
....................                else 
08E94:  BRA    8E9A
....................                   Infinito=0; 
08E96:  MOVLB  5
08E98:  BCF    xAD.7
08E9A:  MOVLB  0
....................             } 
....................          } 
....................      } 
.................... //_--------------------------------------------------------------------------------------------------------------------------------------------------------     
....................  
.................... //_--------------------------------------------------------------------------------------------------------------------------------------------------------       
....................       if(Menu==7){ // Menu de Cambio de Contrasea 
08E9C:  MOVLB  5
08E9E:  MOVF   xB6,W
08EA0:  SUBLW  07
08EA2:  BNZ   8ECC
....................          PidePassword(1,7,91,Password[0],Password[1],Password[2],Password[3],0); 
08EA4:  MOVLW  01
08EA6:  MOVLB  6
08EA8:  MOVWF  x98
08EAA:  MOVLW  07
08EAC:  MOVWF  x99
08EAE:  MOVLW  5B
08EB0:  MOVWF  x9A
08EB2:  MOVFF  609,69B
08EB6:  MOVFF  60A,69C
08EBA:  MOVFF  60B,69D
08EBE:  MOVFF  60C,69E
08EC2:  CLRF   x9F
08EC4:  MOVLB  0
08EC6:  CALL   3F4E
08ECA:  MOVLB  5
....................       }     
.................... //_--------------------------------------------------------------------------------------------------------------------------------------------------------     
....................  
.................... //_--------------------------------------------------------------------------------------------------------------------------------------------------------       
....................       if(Menu==91){ // Menu de Cambio de Contrasea 
08ECC:  MOVF   xB6,W
08ECE:  SUBLW  5B
08ED0:  BNZ   8EFA
....................        PidePassword(1,91,91,Password[0],Password[1],Password[2],Password[3],1); 
08ED2:  MOVLW  01
08ED4:  MOVLB  6
08ED6:  MOVWF  x98
08ED8:  MOVLW  5B
08EDA:  MOVWF  x99
08EDC:  MOVWF  x9A
08EDE:  MOVFF  609,69B
08EE2:  MOVFF  60A,69C
08EE6:  MOVFF  60B,69D
08EEA:  MOVFF  60C,69E
08EEE:  MOVLW  01
08EF0:  MOVWF  x9F
08EF2:  MOVLB  0
08EF4:  CALL   3F4E
08EF8:  MOVLB  5
....................     }     
.................... //_--------------------------------------------------------------------------------------------------------------------------------------------------------     
....................  
.................... //_--------------------------------------------------------------------------------------------------------------------------------------------------------       
....................       if(Menu==8){ // Menu de Ajuste de Velocidad de Ventilador 
08EFA:  MOVF   xB6,W
08EFC:  SUBLW  08
08EFE:  BTFSS  FD8.2
08F00:  BRA    90D2
....................        
....................          if(Vel1>10) 
08F02:  MOVF   xB4,W
08F04:  SUBLW  0A
08F06:  BC    8F0C
....................             Vel1=10; 
08F08:  MOVLW  0A
08F0A:  MOVWF  xB4
....................        
....................          if(visual==1){ 
08F0C:  BTFSS  xAD.2
08F0E:  BRA    8FD0
....................             glcd_fillScreen(OFF); 
08F10:  MOVLB  6
08F12:  CLRF   xA0
08F14:  MOVLB  0
08F16:  CALL   2BFE
....................             strcpy(Menus.Letra,"Velocidad"); 
08F1A:  MOVLW  06
08F1C:  MOVWF  FEA
08F1E:  MOVLW  78
08F20:  MOVWF  FE9
08F22:  MOVFF  FF2,698
08F26:  BCF    FF2.6
08F28:  BCF    FF2.7
08F2A:  MOVLW  00
08F2C:  CALL   0C74
08F30:  TBLRD*-
08F32:  TBLRD*+
08F34:  MOVF   FF5,W
08F36:  MOVWF  FEE
08F38:  IORLW  00
08F3A:  BNZ   8F32
08F3C:  MOVLB  6
08F3E:  BTFSC  x98.6
08F40:  BSF    FF2.6
08F42:  BTFSC  x98.7
08F44:  BSF    FF2.7
....................             displayMenu(Menus.Letra,0,0,1,2); 
08F46:  MOVLW  06
08F48:  MOVWF  xA1
08F4A:  MOVLW  78
08F4C:  MOVWF  xA0
08F4E:  CLRF   xA2
08F50:  CLRF   xA3
08F52:  MOVLW  01
08F54:  MOVWF  xA4
08F56:  MOVLW  02
08F58:  MOVWF  xA5
08F5A:  MOVLB  0
08F5C:  CALL   3238
....................             displayTemperatura(Vel1*10,30,30,0,3); 
08F60:  MOVLB  5
08F62:  MOVF   xB4,W
08F64:  MULLW  0A
08F66:  MOVFF  FF3,698
08F6A:  MOVLB  6
08F6C:  CLRF   x9B
08F6E:  MOVFF  698,69A
08F72:  MOVLW  1E
08F74:  MOVWF  x9C
08F76:  MOVWF  x9D
08F78:  CLRF   x9E
08F7A:  MOVLW  03
08F7C:  MOVWF  x9F
08F7E:  MOVLB  0
08F80:  CALL   4B2E
....................             strcpy(Menus.Letra,"%");displayMenu(Menus.Letra,90,35,2,2); 
08F84:  MOVLW  06
08F86:  MOVWF  FEA
08F88:  MOVLW  78
08F8A:  MOVWF  FE9
08F8C:  MOVFF  FF2,698
08F90:  BCF    FF2.6
08F92:  BCF    FF2.7
08F94:  MOVLW  00
08F96:  CALL   0CA2
08F9A:  TBLRD*-
08F9C:  TBLRD*+
08F9E:  MOVF   FF5,W
08FA0:  MOVWF  FEE
08FA2:  IORLW  00
08FA4:  BNZ   8F9C
08FA6:  MOVLB  6
08FA8:  BTFSC  x98.6
08FAA:  BSF    FF2.6
08FAC:  BTFSC  x98.7
08FAE:  BSF    FF2.7
08FB0:  MOVLW  06
08FB2:  MOVWF  xA1
08FB4:  MOVLW  78
08FB6:  MOVWF  xA0
08FB8:  MOVLW  5A
08FBA:  MOVWF  xA2
08FBC:  MOVLW  23
08FBE:  MOVWF  xA3
08FC0:  MOVLW  02
08FC2:  MOVWF  xA4
08FC4:  MOVWF  xA5
08FC6:  MOVLB  0
08FC8:  CALL   3238
....................             visual=0; 
08FCC:  MOVLB  5
08FCE:  BCF    xAD.2
....................          } 
....................        
....................          if(UP){   
08FD0:  BSF    F92.5
08FD2:  BTFSC  F80.5
08FD4:  BRA    8FF8
....................             DelayPuls();Vel1++;visual=1; 
08FD6:  MOVLB  0
08FD8:  CALL   3E86
08FDC:  MOVLB  5
08FDE:  INCF   xB4,F
08FE0:  BSF    xAD.2
....................             Buzzer_on; 
08FE2:  BSF    F8B.5
08FE4:  BCF    F94.5
....................             delay_ms(50); 
08FE6:  MOVLW  32
08FE8:  MOVLB  6
08FEA:  MOVWF  xA1
08FEC:  MOVLB  0
08FEE:  CALL   132E
....................             Buzzer_off; 
08FF2:  BCF    F8B.5
08FF4:  BCF    F94.5
08FF6:  MOVLB  5
....................          } 
....................                 
....................          if(DOWN && Vel1>0){   
08FF8:  BSF    F96.0
08FFA:  BTFSC  F84.0
08FFC:  BRA    9024
08FFE:  MOVF   xB4,F
09000:  BZ    9024
....................             DelayPuls();Vel1--;visual=1;  
09002:  MOVLB  0
09004:  CALL   3E86
09008:  MOVLB  5
0900A:  DECF   xB4,F
0900C:  BSF    xAD.2
....................             Buzzer_on; 
0900E:  BSF    F8B.5
09010:  BCF    F94.5
....................             delay_ms(50); 
09012:  MOVLW  32
09014:  MOVLB  6
09016:  MOVWF  xA1
09018:  MOVLB  0
0901A:  CALL   132E
....................             Buzzer_off; 
0901E:  BCF    F8B.5
09020:  BCF    F94.5
09022:  MOVLB  5
....................          } 
....................                 
....................          if(RIGHT){ 
09024:  BSF    F96.1
09026:  BTFSC  F84.1
09028:  BRA    9042
....................             visual=1; 
0902A:  BSF    xAD.2
....................             Buzzer_on; 
0902C:  BSF    F8B.5
0902E:  BCF    F94.5
....................             delay_ms(50); 
09030:  MOVLW  32
09032:  MOVLB  6
09034:  MOVWF  xA1
09036:  MOVLB  0
09038:  CALL   132E
....................             Buzzer_off; 
0903C:  BCF    F8B.5
0903E:  BCF    F94.5
09040:  MOVLB  5
....................          } 
....................                    
....................          if(LEFT){ 
09042:  BSF    F96.2
09044:  BTFSC  F84.2
09046:  BRA    90D2
....................             Buzzer_on; 
09048:  BSF    F8B.5
0904A:  BCF    F94.5
....................             delay_ms(50); 
0904C:  MOVLW  32
0904E:  MOVLB  6
09050:  MOVWF  xA1
09052:  MOVLB  0
09054:  CALL   132E
....................             Buzzer_off; 
09058:  BCF    F8B.5
0905A:  BCF    F94.5
....................             delay_ms(10); 
0905C:  MOVLW  0A
0905E:  MOVLB  6
09060:  MOVWF  xA1
09062:  MOVLB  0
09064:  CALL   132E
....................             delay_ms(700);Menu=1;glcd_fillscreen(OFF);Opcion=1;visual=1; 
09068:  MOVLW  04
0906A:  MOVLB  6
0906C:  MOVWF  x98
0906E:  MOVLW  AF
09070:  MOVWF  xA1
09072:  MOVLB  0
09074:  CALL   132E
09078:  MOVLB  6
0907A:  DECFSZ x98,F
0907C:  BRA    906E
0907E:  MOVLW  01
09080:  MOVLB  5
09082:  MOVWF  xB6
09084:  MOVLB  6
09086:  CLRF   xA0
09088:  MOVLB  0
0908A:  CALL   2BFE
0908E:  MOVLW  01
09090:  MOVLB  5
09092:  MOVWF  xBD
09094:  BSF    xAD.2
....................             write_eeprom(28,Vel1);delay_ms(20); 
09096:  CLRF   FAA
09098:  MOVLW  1C
0909A:  MOVWF  FA9
0909C:  MOVFF  5B4,FA8
090A0:  BCF    FA6.6
090A2:  BCF    FA6.7
090A4:  BSF    FA6.2
090A6:  MOVF   FF2,W
090A8:  MOVWF  00
090AA:  BCF    FF2.6
090AC:  BCF    FF2.7
090AE:  MOVLB  F
090B0:  MOVLW  55
090B2:  MOVWF  FA7
090B4:  MOVLW  AA
090B6:  MOVWF  FA7
090B8:  BSF    FA6.1
090BA:  BTFSC  FA6.1
090BC:  BRA    90BA
090BE:  BCF    FA6.2
090C0:  MOVF   00,W
090C2:  IORWF  FF2,F
090C4:  MOVLW  14
090C6:  MOVLB  6
090C8:  MOVWF  xA1
090CA:  MOVLB  0
090CC:  CALL   132E
090D0:  MOVLB  5
....................          } 
....................      } 
.................... //_-------------------------------------------------------------------------------------------------------------------------------------------------------- 
....................  
.................... //_-------------------------------------------------------------------------------------------------------------------------------------------------------- 
....................       if(Menu==20){ //Menu de Funcionamiento 
090D2:  MOVF   xB6,W
090D4:  SUBLW  14
090D6:  BTFSS  FD8.2
090D8:  GOTO   9ECE
....................          if(!flagGuardaEstado){ 
090DC:  BTFSC  xAE.1
090DE:  BRA    9158
....................             write_eeprom(29,1);delay_ms(20); 
090E0:  CLRF   FAA
090E2:  MOVLW  1D
090E4:  MOVWF  FA9
090E6:  MOVLW  01
090E8:  MOVWF  FA8
090EA:  BCF    FA6.6
090EC:  BCF    FA6.7
090EE:  BSF    FA6.2
090F0:  MOVF   FF2,W
090F2:  MOVWF  00
090F4:  BCF    FF2.6
090F6:  BCF    FF2.7
090F8:  MOVLB  F
090FA:  MOVLW  55
090FC:  MOVWF  FA7
090FE:  MOVLW  AA
09100:  MOVWF  FA7
09102:  BSF    FA6.1
09104:  BTFSC  FA6.1
09106:  BRA    9104
09108:  BCF    FA6.2
0910A:  MOVF   00,W
0910C:  IORWF  FF2,F
0910E:  MOVLW  14
09110:  MOVLB  6
09112:  MOVWF  xA1
09114:  MOVLB  0
09116:  CALL   132E
....................             write_eeprom(30,Programa);delay_ms(20); 
0911A:  CLRF   FAA
0911C:  MOVLW  1E
0911E:  MOVWF  FA9
09120:  MOVFF  5AC,FA8
09124:  BCF    FA6.6
09126:  BCF    FA6.7
09128:  BSF    FA6.2
0912A:  MOVF   FF2,W
0912C:  MOVWF  00
0912E:  BCF    FF2.6
09130:  BCF    FF2.7
09132:  MOVLB  F
09134:  MOVLW  55
09136:  MOVWF  FA7
09138:  MOVLW  AA
0913A:  MOVWF  FA7
0913C:  BSF    FA6.1
0913E:  BTFSC  FA6.1
09140:  BRA    913E
09142:  BCF    FA6.2
09144:  MOVF   00,W
09146:  IORWF  FF2,F
09148:  MOVLW  14
0914A:  MOVLB  6
0914C:  MOVWF  xA1
0914E:  MOVLB  0
09150:  CALL   132E
....................             flagGuardaEstado=ON; 
09154:  MOVLB  5
09156:  BSF    xAE.1
....................          } 
....................       // Muestra imagen de fondo en Display GLCD 
....................       glcd_imagen(5); 
09158:  MOVLW  05
0915A:  MOVLB  6
0915C:  MOVWF  x98
0915E:  MOVLB  0
09160:  GOTO   543E
....................        
....................       if(UP && DOWN){ 
09164:  BSF    F92.5
09166:  BTFSC  F80.5
09168:  BRA    9180
0916A:  BSF    F96.0
0916C:  BTFSC  F84.0
0916E:  BRA    9180
....................          glcd_init(ON);flag_display=!flag_display; 
09170:  MOVLW  01
09172:  MOVLB  6
09174:  MOVWF  x98
09176:  MOVLB  0
09178:  CALL   2D10
0917C:  MOVLB  5
0917E:  BTG    xAE.5
....................       } 
....................       /* 
....................       if(UP){ 
....................          delay_ms(50); 
....................          if(UP){ 
....................             Buzzer_on; 
....................             delay_ms(50); 
....................             Buzzer_off; 
....................             Vel1++;  
....................             Ganancia=gananciaAnt*(Setpoint/150.0); 
....................             flagMotor=OFF; 
....................          } 
....................       } 
....................        
....................       if(DOWN){ 
....................          delay_ms(50); 
....................          if(DOWN){ 
....................             if(Vel1>0){ 
....................                Buzzer_on; 
....................                delay_ms(50); 
....................                Buzzer_off; 
....................                Vel1--; 
....................                Ganancia=gananciaAnt*(Setpoint/150.0); 
....................                flagMotor=OFF; 
....................             } 
....................          } 
....................       } 
....................       */ 
....................       if(Vel1>10)Vel1=10; 
09180:  MOVLB  5
09182:  MOVF   xB4,W
09184:  SUBLW  0A
09186:  BC    918C
09188:  MOVLW  0A
0918A:  MOVWF  xB4
....................        
....................       if(Temperatura>=Setpoint-0.5) 
0918C:  BSF    FD8.1
0918E:  MOVFF  650,6A7
09192:  MOVFF  64F,6A6
09196:  MOVFF  64E,6A5
0919A:  MOVFF  64D,6A4
0919E:  MOVLB  6
091A0:  CLRF   xAB
091A2:  CLRF   xAA
091A4:  CLRF   xA9
091A6:  MOVLW  7E
091A8:  MOVWF  xA8
091AA:  MOVLB  0
091AC:  CALL   1530
091B0:  MOVFF  03,69B
091B4:  MOVFF  02,69A
091B8:  MOVFF  01,699
091BC:  MOVFF  00,698
091C0:  MOVFF  648,69F
091C4:  MOVFF  647,69E
091C8:  MOVFF  646,69D
091CC:  MOVFF  645,69C
091D0:  CALL   2046
091D4:  BC    91D8
091D6:  BNZ   91DE
....................          flag_setpoint=1; 
091D8:  MOVLB  5
091DA:  BSF    xAE.6
091DC:  MOVLB  0
....................       if(!TERM && !DOOR && !Finalizo){ 
091DE:  BSF    F92.3
091E0:  BTFSC  F80.3
091E2:  BRA    9382
091E4:  BSF    F92.4
091E6:  BTFSC  F80.4
091E8:  BRA    9382
091EA:  MOVLB  5
091EC:  BTFSS  xAE.7
091EE:  BRA    91F4
091F0:  MOVLB  0
091F2:  BRA    9382
....................           
....................          if(!flagMotor && Vel1<=3){ 
091F4:  BTFSC  xA0.6
091F6:  BRA    9220
091F8:  MOVF   xB4,W
091FA:  SUBLW  03
091FC:  BNC   9220
....................             VelMotor=10; 
091FE:  MOVLW  0A
09200:  MOVWF  xB3
....................             delay_ms(2000); 
09202:  MOVLW  08
09204:  MOVLB  6
09206:  MOVWF  x98
09208:  MOVLW  FA
0920A:  MOVWF  xA1
0920C:  MOVLB  0
0920E:  CALL   132E
09212:  MOVLB  6
09214:  DECFSZ x98,F
09216:  BRA    9208
....................             VelMotor=Vel1; 
09218:  MOVFF  5B4,5B3
....................             flagMotor=ON; 
0921C:  MOVLB  5
0921E:  BSF    xA0.6
....................          } 
....................           
....................          VelMotor=Vel1; 
09220:  MOVFF  5B4,5B3
....................          if(Temperatura>=Setpoint-1.0){ 
09224:  BSF    FD8.1
09226:  MOVFF  650,6A7
0922A:  MOVFF  64F,6A6
0922E:  MOVFF  64E,6A5
09232:  MOVFF  64D,6A4
09236:  MOVLB  6
09238:  CLRF   xAB
0923A:  CLRF   xAA
0923C:  CLRF   xA9
0923E:  MOVLW  7F
09240:  MOVWF  xA8
09242:  MOVLB  0
09244:  CALL   1530
09248:  MOVFF  03,69B
0924C:  MOVFF  02,69A
09250:  MOVFF  01,699
09254:  MOVFF  00,698
09258:  MOVFF  648,69F
0925C:  MOVFF  647,69E
09260:  MOVFF  646,69D
09264:  MOVFF  645,69C
09268:  CALL   2046
0926C:  BC    9270
0926E:  BNZ   92FC
....................             glcd_rect(0, 55, 127, 63, YES, OFF); 
09270:  MOVLB  6
09272:  CLRF   xB1
09274:  MOVLW  37
09276:  MOVWF  xB2
09278:  MOVLW  7F
0927A:  MOVWF  xB3
0927C:  MOVLW  3F
0927E:  MOVWF  xB4
09280:  MOVLW  01
09282:  MOVWF  xB5
09284:  CLRF   xB6
09286:  MOVLB  0
09288:  CALL   3176
....................             strcpy(Menus.Letra,"Status:Controlando "); 
0928C:  MOVLW  06
0928E:  MOVWF  FEA
09290:  MOVLW  78
09292:  MOVWF  FE9
09294:  MOVFF  FF2,698
09298:  BCF    FF2.6
0929A:  BCF    FF2.7
0929C:  MOVLW  00
0929E:  CALL   0CC8
092A2:  TBLRD*-
092A4:  TBLRD*+
092A6:  MOVF   FF5,W
092A8:  MOVWF  FEE
092AA:  IORLW  00
092AC:  BNZ   92A4
092AE:  MOVLB  6
092B0:  BTFSC  x98.6
092B2:  BSF    FF2.6
092B4:  BTFSC  x98.7
092B6:  BSF    FF2.7
....................             displayMenu(Menus.Letra,0,55,2,1); 
092B8:  MOVLW  06
092BA:  MOVWF  xA1
092BC:  MOVLW  78
092BE:  MOVWF  xA0
092C0:  CLRF   xA2
092C2:  MOVLW  37
092C4:  MOVWF  xA3
092C6:  MOVLW  02
092C8:  MOVWF  xA4
092CA:  MOVLW  01
092CC:  MOVWF  xA5
092CE:  MOVLB  0
092D0:  CALL   3238
....................             if(!Infinito) 
092D4:  MOVLB  5
092D6:  BTFSC  xAD.7
092D8:  BRA    92DE
....................                tiempo_esterilizacion=1; 
092DA:  MOVLW  01
092DC:  MOVWF  xBE
....................              
....................             if(VelMotor>5){ 
092DE:  MOVF   xB3,W
092E0:  SUBLW  05
092E2:  BC    92EE
....................                ControlaForzada(); 
092E4:  MOVLB  0
092E6:  CALL   5562
....................             }else{ 
092EA:  BRA    92F4
092EC:  MOVLB  5
....................                ControlaNatural(); 
092EE:  MOVLB  0
092F0:  CALL   5FCE
....................             } 
....................                 
....................             flag_tiempocalentamiento=0; 
092F4:  MOVLB  5
092F6:  BCF    xAE.4
....................          }else{ 
092F8:  BRA    9384
092FA:  MOVLB  0
....................             flag_tiempocalentamiento=1; 
092FC:  MOVLB  5
092FE:  BSF    xAE.4
....................             glcd_rect(0, 55, 127, 63, YES, OFF); 
09300:  MOVLB  6
09302:  CLRF   xB1
09304:  MOVLW  37
09306:  MOVWF  xB2
09308:  MOVLW  7F
0930A:  MOVWF  xB3
0930C:  MOVLW  3F
0930E:  MOVWF  xB4
09310:  MOVLW  01
09312:  MOVWF  xB5
09314:  CLRF   xB6
09316:  MOVLB  0
09318:  CALL   3176
....................             tiempo_esterilizacion=0; 
0931C:  MOVLB  5
0931E:  CLRF   xBE
....................             strcpy(Menus.Letra,"Status:Calentando "); 
09320:  MOVLW  06
09322:  MOVWF  FEA
09324:  MOVLW  78
09326:  MOVWF  FE9
09328:  MOVFF  FF2,698
0932C:  BCF    FF2.6
0932E:  BCF    FF2.7
09330:  MOVLW  00
09332:  MOVLB  0
09334:  CALL   0D00
09338:  TBLRD*-
0933A:  TBLRD*+
0933C:  MOVF   FF5,W
0933E:  MOVWF  FEE
09340:  IORLW  00
09342:  BNZ   933A
09344:  MOVLB  6
09346:  BTFSC  x98.6
09348:  BSF    FF2.6
0934A:  BTFSC  x98.7
0934C:  BSF    FF2.7
....................             displayMenu(Menus.Letra,0,55,2,1); 
0934E:  MOVLW  06
09350:  MOVWF  xA1
09352:  MOVLW  78
09354:  MOVWF  xA0
09356:  CLRF   xA2
09358:  MOVLW  37
0935A:  MOVWF  xA3
0935C:  MOVLW  02
0935E:  MOVWF  xA4
09360:  MOVLW  01
09362:  MOVWF  xA5
09364:  MOVLB  0
09366:  CALL   3238
....................             if(VelMotor>5){ 
0936A:  MOVLB  5
0936C:  MOVF   xB3,W
0936E:  SUBLW  05
09370:  BC    937C
....................                ControlaForzada(); 
09372:  MOVLB  0
09374:  CALL   5562
....................             }else{ 
09378:  BRA    9382
0937A:  MOVLB  5
....................                ControlaNatural(); 
0937C:  MOVLB  0
0937E:  CALL   5FCE
09382:  MOVLB  5
....................             } 
....................          } 
....................       } 
....................           
....................       if(DOOR){ 
09384:  BSF    F92.4
09386:  BTFSS  F80.4
09388:  BRA    947E
....................          flag_controlando=0; 
0938A:  BCF    xA0.4
....................          TiempoControl=0; 
0938C:  CLRF   xD4
0938E:  CLRF   xD3
....................          Controlando=0; 
09390:  CLRF   xA9
....................          VelMotor=0; 
09392:  CLRF   xB3
....................          Motor1_off; 
09394:  BCF    F8B.0
09396:  BCF    F94.0
....................          flagMotor=OFF; 
09398:  BCF    xA0.6
....................          flag_tiempocalentamiento=0; 
0939A:  BCF    xAE.4
....................          if(flag_clear2==0){ 
0939C:  BTFSC  xAE.2
0939E:  BRA    93F8
....................             Ganancia=gananciaAnt*(Setpoint/150); 
093A0:  MOVFF  650,69C
093A4:  MOVFF  64F,69B
093A8:  MOVFF  64E,69A
093AC:  MOVFF  64D,699
093B0:  MOVLB  6
093B2:  CLRF   xA0
093B4:  CLRF   x9F
093B6:  MOVLW  16
093B8:  MOVWF  x9E
093BA:  MOVLW  86
093BC:  MOVWF  x9D
093BE:  MOVLB  0
093C0:  CALL   13D2
093C4:  MOVFF  640,6BB
093C8:  MOVFF  63F,6BA
093CC:  MOVFF  63E,6B9
093D0:  MOVFF  63D,6B8
093D4:  MOVFF  03,6BF
093D8:  MOVFF  02,6BE
093DC:  MOVFF  01,6BD
093E0:  MOVFF  00,6BC
093E4:  CALL   33AE
093E8:  MOVFF  03,634
093EC:  MOVFF  02,633
093F0:  MOVFF  01,632
093F4:  MOVFF  00,631
....................          } 
....................          glcd_rect(0, 55, 127, 63, YES, OFF); 
093F8:  MOVLB  6
093FA:  CLRF   xB1
093FC:  MOVLW  37
093FE:  MOVWF  xB2
09400:  MOVLW  7F
09402:  MOVWF  xB3
09404:  MOVLW  3F
09406:  MOVWF  xB4
09408:  MOVLW  01
0940A:  MOVWF  xB5
0940C:  CLRF   xB6
0940E:  MOVLB  0
09410:  CALL   3176
....................          tiempo_esterilizacion=0; 
09414:  MOVLB  5
09416:  CLRF   xBE
....................          SSR_off; 
09418:  BCF    F8B.2
0941A:  BCF    F94.2
....................          SSR2_off; 
0941C:  BCF    F8B.1
0941E:  BCF    F94.1
....................          Tpulso=0.0; 
09420:  MOVLB  6
09422:  CLRF   x20
09424:  CLRF   x1F
09426:  CLRF   x1E
09428:  CLRF   x1D
....................          flag_clear2=1; 
0942A:  MOVLB  5
0942C:  BSF    xAE.2
....................          flag_ganancia=0; 
0942E:  CLRF   xA7
....................          strcpy(Menus.Letra,"Status:Puerta Abierta"); 
09430:  MOVLW  06
09432:  MOVWF  FEA
09434:  MOVLW  78
09436:  MOVWF  FE9
09438:  MOVFF  FF2,698
0943C:  BCF    FF2.6
0943E:  BCF    FF2.7
09440:  MOVLW  00
09442:  MOVLB  0
09444:  CALL   0D38
09448:  TBLRD*-
0944A:  TBLRD*+
0944C:  MOVF   FF5,W
0944E:  MOVWF  FEE
09450:  IORLW  00
09452:  BNZ   944A
09454:  MOVLB  6
09456:  BTFSC  x98.6
09458:  BSF    FF2.6
0945A:  BTFSC  x98.7
0945C:  BSF    FF2.7
....................          displayMenu(Menus.Letra,0,55,2,1); 
0945E:  MOVLW  06
09460:  MOVWF  xA1
09462:  MOVLW  78
09464:  MOVWF  xA0
09466:  CLRF   xA2
09468:  MOVLW  37
0946A:  MOVWF  xA3
0946C:  MOVLW  02
0946E:  MOVWF  xA4
09470:  MOVLW  01
09472:  MOVWF  xA5
09474:  MOVLB  0
09476:  CALL   3238
....................       }else{ 
0947A:  BRA    94A8
0947C:  MOVLB  5
....................          if(flag_clear2==1){ 
0947E:  BTFSS  xAE.2
09480:  BRA    94A2
....................             glcd_rect(0, 55, 127, 63, YES, OFF); 
09482:  MOVLB  6
09484:  CLRF   xB1
09486:  MOVLW  37
09488:  MOVWF  xB2
0948A:  MOVLW  7F
0948C:  MOVWF  xB3
0948E:  MOVLW  3F
09490:  MOVWF  xB4
09492:  MOVLW  01
09494:  MOVWF  xB5
09496:  CLRF   xB6
09498:  MOVLB  0
0949A:  CALL   3176
....................             flag_clear2=0; 
0949E:  MOVLB  5
094A0:  BCF    xAE.2
....................          } 
....................          tiempoApertura=0; 
094A2:  CLRF   xD6
094A4:  CLRF   xD5
094A6:  MOVLB  0
....................       } 
....................        
....................       if(TERM){ 
094A8:  BSF    F92.3
094AA:  BTFSS  F80.3
094AC:  BRA    95A2
....................          TiempoControl=0; 
094AE:  MOVLB  5
094B0:  CLRF   xD4
094B2:  CLRF   xD3
....................          Alarma=1; 
094B4:  BSF    xA0.1
....................          Controlando=0; 
094B6:  CLRF   xA9
....................          VelMotor=0; 
094B8:  CLRF   xB3
....................          Motor1_off; 
094BA:  BCF    F8B.0
094BC:  BCF    F94.0
....................          flagMotor=OFF; 
094BE:  BCF    xA0.6
....................          flag_tiempocalentamiento=0; 
094C0:  BCF    xAE.4
....................          if(flag_clear3==0){ 
094C2:  BTFSC  xAE.3
094C4:  BRA    94FE
....................             glcd_rect(0, 55, 127, 63, YES, OFF); 
094C6:  MOVLB  6
094C8:  CLRF   xB1
094CA:  MOVLW  37
094CC:  MOVWF  xB2
094CE:  MOVLW  7F
094D0:  MOVWF  xB3
094D2:  MOVLW  3F
094D4:  MOVWF  xB4
094D6:  MOVLW  01
094D8:  MOVWF  xB5
094DA:  CLRF   xB6
094DC:  MOVLB  0
094DE:  CALL   3176
....................             tiempo_esterilizacion=0; 
094E2:  MOVLB  5
094E4:  CLRF   xBE
....................             SSR_off; 
094E6:  BCF    F8B.2
094E8:  BCF    F94.2
....................             SSR2_off; 
094EA:  BCF    F8B.1
094EC:  BCF    F94.1
....................             Tpulso=0.0; 
094EE:  MOVLB  6
094F0:  CLRF   x20
094F2:  CLRF   x1F
094F4:  CLRF   x1E
094F6:  CLRF   x1D
....................             flag_clear3=1; 
094F8:  MOVLB  5
094FA:  BSF    xAE.3
....................             flag_ganancia=0; 
094FC:  CLRF   xA7
....................          } 
....................          strcpy(Menus.Letra,"Status:Alarma 01"); 
094FE:  MOVLW  06
09500:  MOVWF  FEA
09502:  MOVLW  78
09504:  MOVWF  FE9
09506:  MOVFF  FF2,698
0950A:  BCF    FF2.6
0950C:  BCF    FF2.7
0950E:  MOVLW  00
09510:  MOVLB  0
09512:  CALL   0D72
09516:  TBLRD*-
09518:  TBLRD*+
0951A:  MOVF   FF5,W
0951C:  MOVWF  FEE
0951E:  IORLW  00
09520:  BNZ   9518
09522:  MOVLB  6
09524:  BTFSC  x98.6
09526:  BSF    FF2.6
09528:  BTFSC  x98.7
0952A:  BSF    FF2.7
....................          displayMenu(Menus.Letra,0,55,2,1);  
0952C:  MOVLW  06
0952E:  MOVWF  xA1
09530:  MOVLW  78
09532:  MOVWF  xA0
09534:  CLRF   xA2
09536:  MOVLW  37
09538:  MOVWF  xA3
0953A:  MOVLW  02
0953C:  MOVWF  xA4
0953E:  MOVLW  01
09540:  MOVWF  xA5
09542:  MOVLB  0
09544:  CALL   3238
....................          Ganancia=gananciaAnt*(Setpoint/150); 
09548:  MOVFF  650,69C
0954C:  MOVFF  64F,69B
09550:  MOVFF  64E,69A
09554:  MOVFF  64D,699
09558:  MOVLB  6
0955A:  CLRF   xA0
0955C:  CLRF   x9F
0955E:  MOVLW  16
09560:  MOVWF  x9E
09562:  MOVLW  86
09564:  MOVWF  x9D
09566:  MOVLB  0
09568:  CALL   13D2
0956C:  MOVFF  640,6BB
09570:  MOVFF  63F,6BA
09574:  MOVFF  63E,6B9
09578:  MOVFF  63D,6B8
0957C:  MOVFF  03,6BF
09580:  MOVFF  02,6BE
09584:  MOVFF  01,6BD
09588:  MOVFF  00,6BC
0958C:  CALL   33AE
09590:  MOVFF  03,634
09594:  MOVFF  02,633
09598:  MOVFF  01,632
0959C:  MOVFF  00,631
....................       }else{ 
095A0:  BRA    95CA
....................          Alarma=0; 
095A2:  MOVLB  5
095A4:  BCF    xA0.1
....................          if(flag_clear3==1){ 
095A6:  BTFSS  xAE.3
095A8:  BRA    95CA
....................             glcd_rect(0, 55, 127, 63, YES, OFF); 
095AA:  MOVLB  6
095AC:  CLRF   xB1
095AE:  MOVLW  37
095B0:  MOVWF  xB2
095B2:  MOVLW  7F
095B4:  MOVWF  xB3
095B6:  MOVLW  3F
095B8:  MOVWF  xB4
095BA:  MOVLW  01
095BC:  MOVWF  xB5
095BE:  CLRF   xB6
095C0:  MOVLB  0
095C2:  CALL   3176
....................             flag_clear3=0; 
095C6:  MOVLB  5
095C8:  BCF    xAE.3
....................          } 
....................       }    
....................          
....................       if(Lectura==1){  
095CA:  MOVLB  5
095CC:  BTFSS  xAD.3
095CE:  BRA    9BDA
....................          if(Alarma) 
095D0:  BTFSS  xA0.1
095D2:  BRA    95DA
....................             output_toggle(PIN_C7); 
095D4:  BCF    F94.7
095D6:  BTG    F8B.7
....................          else 
095D8:  BRA    95DE
....................             output_bit(PIN_C7,0); 
095DA:  BCF    F8B.7
095DC:  BCF    F94.7
....................          Lectura=0; 
095DE:  BCF    xAD.3
....................          Potencia=(100.0/Tciclo)*Tpulso; 
095E0:  MOVLB  6
095E2:  CLRF   x9C
095E4:  CLRF   x9B
095E6:  MOVLW  48
095E8:  MOVWF  x9A
095EA:  MOVLW  85
095EC:  MOVWF  x99
095EE:  MOVFF  61C,6A0
095F2:  MOVFF  61B,69F
095F6:  MOVFF  61A,69E
095FA:  MOVFF  619,69D
095FE:  MOVLB  0
09600:  CALL   13D2
09604:  MOVFF  00,698
09608:  MOVFF  01,699
0960C:  MOVFF  02,69A
09610:  MOVFF  03,69B
09614:  MOVFF  03,6BB
09618:  MOVFF  02,6BA
0961C:  MOVFF  01,6B9
09620:  MOVFF  00,6B8
09624:  MOVFF  620,6BF
09628:  MOVFF  61F,6BE
0962C:  MOVFF  61E,6BD
09630:  MOVFF  61D,6BC
09634:  CALL   33AE
09638:  MOVFF  03,5E0
0963C:  MOVFF  02,5DF
09640:  MOVFF  01,5DE
09644:  MOVFF  00,5DD
....................           
....................  //----------------Muestra Temperatura-------------------------- 
....................             if((Pt<100 || Pt>230)){ 
09648:  MOVFF  618,69B
0964C:  MOVFF  617,69A
09650:  MOVFF  616,699
09654:  MOVFF  615,698
09658:  MOVLB  6
0965A:  CLRF   x9F
0965C:  CLRF   x9E
0965E:  MOVLW  48
09660:  MOVWF  x9D
09662:  MOVLW  85
09664:  MOVWF  x9C
09666:  MOVLB  0
09668:  CALL   2046
0966C:  BC    9694
0966E:  MOVLB  6
09670:  CLRF   x9B
09672:  CLRF   x9A
09674:  MOVLW  66
09676:  MOVWF  x99
09678:  MOVLW  86
0967A:  MOVWF  x98
0967C:  MOVFF  618,69F
09680:  MOVFF  617,69E
09684:  MOVFF  616,69D
09688:  MOVFF  615,69C
0968C:  MOVLB  0
0968E:  CALL   2046
09692:  BNC   9702
....................                glcd_rect(15, 29, 69, 45, YES, OFF); 
09694:  MOVLW  0F
09696:  MOVLB  6
09698:  MOVWF  xB1
0969A:  MOVLW  1D
0969C:  MOVWF  xB2
0969E:  MOVLW  45
096A0:  MOVWF  xB3
096A2:  MOVLW  2D
096A4:  MOVWF  xB4
096A6:  MOVLW  01
096A8:  MOVWF  xB5
096AA:  CLRF   xB6
096AC:  MOVLB  0
096AE:  CALL   3176
....................                strcpy(Menus.Letra,"-----");displayMenu(Menus.Letra,15,29,2,2); 
096B2:  MOVLW  06
096B4:  MOVWF  FEA
096B6:  MOVLW  78
096B8:  MOVWF  FE9
096BA:  MOVFF  FF2,698
096BE:  BCF    FF2.6
096C0:  BCF    FF2.7
096C2:  MOVLW  00
096C4:  CALL   0DA8
096C8:  TBLRD*-
096CA:  TBLRD*+
096CC:  MOVF   FF5,W
096CE:  MOVWF  FEE
096D0:  IORLW  00
096D2:  BNZ   96CA
096D4:  MOVLB  6
096D6:  BTFSC  x98.6
096D8:  BSF    FF2.6
096DA:  BTFSC  x98.7
096DC:  BSF    FF2.7
096DE:  MOVLW  06
096E0:  MOVWF  xA1
096E2:  MOVLW  78
096E4:  MOVWF  xA0
096E6:  MOVLW  0F
096E8:  MOVWF  xA2
096EA:  MOVLW  1D
096EC:  MOVWF  xA3
096EE:  MOVLW  02
096F0:  MOVWF  xA4
096F2:  MOVWF  xA5
096F4:  MOVLB  0
096F6:  CALL   3238
....................                Desconectado=1; 
096FA:  MOVLB  5
096FC:  BSF    xA0.0
....................             }else{ 
096FE:  BRA    9770
09700:  MOVLB  0
....................                if(Desconectado==1){ 
09702:  MOVLB  5
09704:  BTFSS  xA0.0
09706:  BRA    974C
....................                   Desconectado=0; 
09708:  BCF    xA0.0
....................                   delay_ms(2000); 
0970A:  MOVLW  08
0970C:  MOVLB  6
0970E:  MOVWF  x98
09710:  MOVLW  FA
09712:  MOVWF  xA1
09714:  MOVLB  0
09716:  CALL   132E
0971A:  MOVLB  6
0971C:  DECFSZ x98,F
0971E:  BRA    9710
....................                   for(i=0;i<80;i++){ 
09720:  MOVLB  5
09722:  CLRF   xB8
09724:  MOVF   xB8,W
09726:  SUBLW  4F
09728:  BNC   974C
....................                      Temperatura=Leer_Sensor(80); 
0972A:  MOVLW  50
0972C:  MOVLB  6
0972E:  MOVWF  x98
09730:  MOVLB  0
09732:  CALL   34A4
09736:  MOVFF  03,648
0973A:  MOVFF  02,647
0973E:  MOVFF  01,646
09742:  MOVFF  00,645
....................                   } 
09746:  MOVLB  5
09748:  INCF   xB8,F
0974A:  BRA    9724
....................                } 
....................                displayT(Temperatura,15,29,2); 
0974C:  MOVFF  648,69B
09750:  MOVFF  647,69A
09754:  MOVFF  646,699
09758:  MOVFF  645,698
0975C:  MOVLW  0F
0975E:  MOVLB  6
09760:  MOVWF  x9C
09762:  MOVLW  1D
09764:  MOVWF  x9D
09766:  MOVLW  02
09768:  MOVWF  x9E
0976A:  MOVLB  0
0976C:  CALL   6D7E
....................             } 
....................          glcd_circle(74,30,2,NO,ON); 
09770:  MOVLW  4A
09772:  MOVLB  6
09774:  MOVWF  xAD
09776:  MOVLW  1E
09778:  MOVWF  xAE
0977A:  MOVLW  02
0977C:  MOVWF  xAF
0977E:  CLRF   xB0
09780:  MOVLW  01
09782:  MOVWF  xB1
09784:  MOVLB  0
09786:  CALL   4846
....................          strcpy(Menus.Letra,"C");displayMenu(Menus.Letra,75,30,2,2); 
0978A:  MOVLW  06
0978C:  MOVWF  FEA
0978E:  MOVLW  78
09790:  MOVWF  FE9
09792:  MOVFF  FF2,698
09796:  BCF    FF2.6
09798:  BCF    FF2.7
0979A:  MOVLW  00
0979C:  CALL   0796
097A0:  TBLRD*-
097A2:  TBLRD*+
097A4:  MOVF   FF5,W
097A6:  MOVWF  FEE
097A8:  IORLW  00
097AA:  BNZ   97A2
097AC:  MOVLB  6
097AE:  BTFSC  x98.6
097B0:  BSF    FF2.6
097B2:  BTFSC  x98.7
097B4:  BSF    FF2.7
097B6:  MOVLW  06
097B8:  MOVWF  xA1
097BA:  MOVLW  78
097BC:  MOVWF  xA0
097BE:  MOVLW  4B
097C0:  MOVWF  xA2
097C2:  MOVLW  1E
097C4:  MOVWF  xA3
097C6:  MOVLW  02
097C8:  MOVWF  xA4
097CA:  MOVWF  xA5
097CC:  MOVLB  0
097CE:  CALL   3238
....................           
....................          displayT(Setpoint,30,46,1); 
097D2:  MOVFF  650,69B
097D6:  MOVFF  64F,69A
097DA:  MOVFF  64E,699
097DE:  MOVFF  64D,698
097E2:  MOVLW  1E
097E4:  MOVLB  6
097E6:  MOVWF  x9C
097E8:  MOVLW  2E
097EA:  MOVWF  x9D
097EC:  MOVLW  01
097EE:  MOVWF  x9E
097F0:  MOVLB  0
097F2:  CALL   6D7E
....................          //displayT(TiempoControl,30,46,1); 
....................          glcd_circle(65,47,1,NO,ON); 
097F6:  MOVLW  41
097F8:  MOVLB  6
097FA:  MOVWF  xAD
097FC:  MOVLW  2F
097FE:  MOVWF  xAE
09800:  MOVLW  01
09802:  MOVWF  xAF
09804:  CLRF   xB0
09806:  MOVWF  xB1
09808:  MOVLB  0
0980A:  CALL   4846
....................          strcpy(Menus.Letra,"C");displayMenu(Menus.Letra,68,45,2,1); 
0980E:  MOVLW  06
09810:  MOVWF  FEA
09812:  MOVLW  78
09814:  MOVWF  FE9
09816:  MOVFF  FF2,698
0981A:  BCF    FF2.6
0981C:  BCF    FF2.7
0981E:  MOVLW  00
09820:  CALL   0796
09824:  TBLRD*-
09826:  TBLRD*+
09828:  MOVF   FF5,W
0982A:  MOVWF  FEE
0982C:  IORLW  00
0982E:  BNZ   9826
09830:  MOVLB  6
09832:  BTFSC  x98.6
09834:  BSF    FF2.6
09836:  BTFSC  x98.7
09838:  BSF    FF2.7
0983A:  MOVLW  06
0983C:  MOVWF  xA1
0983E:  MOVLW  78
09840:  MOVWF  xA0
09842:  MOVLW  44
09844:  MOVWF  xA2
09846:  MOVLW  2D
09848:  MOVWF  xA3
0984A:  MOVLW  02
0984C:  MOVWF  xA4
0984E:  MOVLW  01
09850:  MOVWF  xA5
09852:  MOVLB  0
09854:  CALL   3238
....................          strcpy(Menus.Letra,"Temp:");displayMenu(Menus.Letra,0,45,2,1);  
09858:  MOVLW  06
0985A:  MOVWF  FEA
0985C:  MOVLW  78
0985E:  MOVWF  FE9
09860:  MOVFF  FF2,698
09864:  BCF    FF2.6
09866:  BCF    FF2.7
09868:  MOVLW  00
0986A:  CALL   0DD2
0986E:  TBLRD*-
09870:  TBLRD*+
09872:  MOVF   FF5,W
09874:  MOVWF  FEE
09876:  IORLW  00
09878:  BNZ   9870
0987A:  MOVLB  6
0987C:  BTFSC  x98.6
0987E:  BSF    FF2.6
09880:  BTFSC  x98.7
09882:  BSF    FF2.7
09884:  MOVLW  06
09886:  MOVWF  xA1
09888:  MOVLW  78
0988A:  MOVWF  xA0
0988C:  CLRF   xA2
0988E:  MOVLW  2D
09890:  MOVWF  xA3
09892:  MOVLW  02
09894:  MOVWF  xA4
09896:  MOVLW  01
09898:  MOVWF  xA5
0989A:  MOVLB  0
0989C:  CALL   3238
....................           
....................          displayTiempo(Potencia,97,42,3,1);strcpy(Menus.Letra,"%");displayMenu(Menus.Letra,115,42,2,1); 
098A0:  MOVFF  5E0,6A7
098A4:  MOVFF  5DF,6A6
098A8:  MOVFF  5DE,6A5
098AC:  MOVFF  5DD,6A4
098B0:  CALL   3A44
098B4:  MOVFF  01,698
098B8:  MOVFF  01,699
098BC:  MOVLW  61
098BE:  MOVLB  6
098C0:  MOVWF  x9A
098C2:  MOVLW  2A
098C4:  MOVWF  x9B
098C6:  MOVLW  03
098C8:  MOVWF  x9C
098CA:  MOVLW  01
098CC:  MOVWF  x9D
098CE:  MOVLB  0
098D0:  CALL   5278
098D4:  MOVLW  06
098D6:  MOVWF  FEA
098D8:  MOVLW  78
098DA:  MOVWF  FE9
098DC:  MOVFF  FF2,698
098E0:  BCF    FF2.6
098E2:  BCF    FF2.7
098E4:  MOVLW  00
098E6:  CALL   0CA2
098EA:  TBLRD*-
098EC:  TBLRD*+
098EE:  MOVF   FF5,W
098F0:  MOVWF  FEE
098F2:  IORLW  00
098F4:  BNZ   98EC
098F6:  MOVLB  6
098F8:  BTFSC  x98.6
098FA:  BSF    FF2.6
098FC:  BTFSC  x98.7
098FE:  BSF    FF2.7
09900:  MOVLW  06
09902:  MOVWF  xA1
09904:  MOVLW  78
09906:  MOVWF  xA0
09908:  MOVLW  73
0990A:  MOVWF  xA2
0990C:  MOVLW  2A
0990E:  MOVWF  xA3
09910:  MOVLW  02
09912:  MOVWF  xA4
09914:  MOVLW  01
09916:  MOVWF  xA5
09918:  MOVLB  0
0991A:  CALL   3238
....................           
....................          
....................          if(flag_display==1){ 
0991E:  MOVLB  5
09920:  BTFSS  xAE.5
09922:  BRA    994C
....................             displayT(Ganancia,97,13,1); 
09924:  MOVFF  634,69B
09928:  MOVFF  633,69A
0992C:  MOVFF  632,699
09930:  MOVFF  631,698
09934:  MOVLW  61
09936:  MOVLB  6
09938:  MOVWF  x9C
0993A:  MOVLW  0D
0993C:  MOVWF  x9D
0993E:  MOVLW  01
09940:  MOVWF  x9E
09942:  MOVLB  0
09944:  CALL   6D7E
....................          }else{ 
09948:  BRA    99BA
0994A:  MOVLB  5
....................             displayTiempo(VelMotor*10,97,13,3,1); 
0994C:  MOVF   xB3,W
0994E:  MULLW  0A
09950:  MOVFF  FF3,698
09954:  MOVLB  6
09956:  MOVFF  698,699
0995A:  MOVLW  61
0995C:  MOVWF  x9A
0995E:  MOVLW  0D
09960:  MOVWF  x9B
09962:  MOVLW  03
09964:  MOVWF  x9C
09966:  MOVLW  01
09968:  MOVWF  x9D
0996A:  MOVLB  0
0996C:  CALL   5278
....................             strcpy(Menus.Letra,"%");displayMenu(Menus.Letra,115,13,2,1); 
09970:  MOVLW  06
09972:  MOVWF  FEA
09974:  MOVLW  78
09976:  MOVWF  FE9
09978:  MOVFF  FF2,698
0997C:  BCF    FF2.6
0997E:  BCF    FF2.7
09980:  MOVLW  00
09982:  CALL   0CA2
09986:  TBLRD*-
09988:  TBLRD*+
0998A:  MOVF   FF5,W
0998C:  MOVWF  FEE
0998E:  IORLW  00
09990:  BNZ   9988
09992:  MOVLB  6
09994:  BTFSC  x98.6
09996:  BSF    FF2.6
09998:  BTFSC  x98.7
0999A:  BSF    FF2.7
0999C:  MOVLW  06
0999E:  MOVWF  xA1
099A0:  MOVLW  78
099A2:  MOVWF  xA0
099A4:  MOVLW  73
099A6:  MOVWF  xA2
099A8:  MOVLW  0D
099AA:  MOVWF  xA3
099AC:  MOVLW  02
099AE:  MOVWF  xA4
099B0:  MOVLW  01
099B2:  MOVWF  xA5
099B4:  MOVLB  0
099B6:  CALL   3238
....................          } 
....................           
....................          // Muestra Valor de esterilizacion Programado. 
....................          displayTiempo(Testerilizacion[3],20,2,0,2);displayTiempo(Testerilizacion[2],33,2,0,2); 
099BA:  MOVFF  600,699
099BE:  MOVLW  14
099C0:  MOVLB  6
099C2:  MOVWF  x9A
099C4:  MOVLW  02
099C6:  MOVWF  x9B
099C8:  CLRF   x9C
099CA:  MOVWF  x9D
099CC:  MOVLB  0
099CE:  CALL   5278
099D2:  MOVFF  5FF,699
099D6:  MOVLW  21
099D8:  MOVLB  6
099DA:  MOVWF  x9A
099DC:  MOVLW  02
099DE:  MOVWF  x9B
099E0:  CLRF   x9C
099E2:  MOVWF  x9D
099E4:  MOVLB  0
099E6:  CALL   5278
....................          strcpy(Menus.Letra,":");displayMenu(Menus.Letra,46,2,2,2);  
099EA:  MOVLW  06
099EC:  MOVWF  FEA
099EE:  MOVLW  78
099F0:  MOVWF  FE9
099F2:  MOVFF  FF2,698
099F6:  BCF    FF2.6
099F8:  BCF    FF2.7
099FA:  MOVLW  00
099FC:  CALL   0C4E
09A00:  TBLRD*-
09A02:  TBLRD*+
09A04:  MOVF   FF5,W
09A06:  MOVWF  FEE
09A08:  IORLW  00
09A0A:  BNZ   9A02
09A0C:  MOVLB  6
09A0E:  BTFSC  x98.6
09A10:  BSF    FF2.6
09A12:  BTFSC  x98.7
09A14:  BSF    FF2.7
09A16:  MOVLW  06
09A18:  MOVWF  xA1
09A1A:  MOVLW  78
09A1C:  MOVWF  xA0
09A1E:  MOVLW  2E
09A20:  MOVWF  xA2
09A22:  MOVLW  02
09A24:  MOVWF  xA3
09A26:  MOVWF  xA4
09A28:  MOVWF  xA5
09A2A:  MOVLB  0
09A2C:  CALL   3238
....................          displayTiempo(Testerilizacion[1],55,2,0,2);displayTiempo(Testerilizacion[0],68,2,0,2); 
09A30:  MOVFF  5FE,699
09A34:  MOVLW  37
09A36:  MOVLB  6
09A38:  MOVWF  x9A
09A3A:  MOVLW  02
09A3C:  MOVWF  x9B
09A3E:  CLRF   x9C
09A40:  MOVWF  x9D
09A42:  MOVLB  0
09A44:  CALL   5278
09A48:  MOVFF  5FD,699
09A4C:  MOVLW  44
09A4E:  MOVLB  6
09A50:  MOVWF  x9A
09A52:  MOVLW  02
09A54:  MOVWF  x9B
09A56:  CLRF   x9C
09A58:  MOVWF  x9D
09A5A:  MOVLB  0
09A5C:  CALL   5278
....................           
....................          // Muestra Valor de esterilizacion actual. 
....................          strcpy(Menus.Letra,"Time:");displayMenu(Menus.Letra,0,18,2,1);  
09A60:  MOVLW  06
09A62:  MOVWF  FEA
09A64:  MOVLW  78
09A66:  MOVWF  FE9
09A68:  MOVFF  FF2,698
09A6C:  BCF    FF2.6
09A6E:  BCF    FF2.7
09A70:  MOVLW  00
09A72:  CALL   0DFC
09A76:  TBLRD*-
09A78:  TBLRD*+
09A7A:  MOVF   FF5,W
09A7C:  MOVWF  FEE
09A7E:  IORLW  00
09A80:  BNZ   9A78
09A82:  MOVLB  6
09A84:  BTFSC  x98.6
09A86:  BSF    FF2.6
09A88:  BTFSC  x98.7
09A8A:  BSF    FF2.7
09A8C:  MOVLW  06
09A8E:  MOVWF  xA1
09A90:  MOVLW  78
09A92:  MOVWF  xA0
09A94:  CLRF   xA2
09A96:  MOVLW  12
09A98:  MOVWF  xA3
09A9A:  MOVLW  02
09A9C:  MOVWF  xA4
09A9E:  MOVLW  01
09AA0:  MOVWF  xA5
09AA2:  MOVLB  0
09AA4:  CALL   3238
....................          displayTiempo(Testerilizacionp[3],30,18,0,1);displayTiempo(Testerilizacionp[2],36,18,0,1); 
09AA8:  MOVFF  604,699
09AAC:  MOVLW  1E
09AAE:  MOVLB  6
09AB0:  MOVWF  x9A
09AB2:  MOVLW  12
09AB4:  MOVWF  x9B
09AB6:  CLRF   x9C
09AB8:  MOVLW  01
09ABA:  MOVWF  x9D
09ABC:  MOVLB  0
09ABE:  CALL   5278
09AC2:  MOVFF  603,699
09AC6:  MOVLW  24
09AC8:  MOVLB  6
09ACA:  MOVWF  x9A
09ACC:  MOVLW  12
09ACE:  MOVWF  x9B
09AD0:  CLRF   x9C
09AD2:  MOVLW  01
09AD4:  MOVWF  x9D
09AD6:  MOVLB  0
09AD8:  CALL   5278
....................          strcpy(Menus.Letra,":");displayMenu(Menus.Letra,42,18,2,1);  
09ADC:  MOVLW  06
09ADE:  MOVWF  FEA
09AE0:  MOVLW  78
09AE2:  MOVWF  FE9
09AE4:  MOVFF  FF2,698
09AE8:  BCF    FF2.6
09AEA:  BCF    FF2.7
09AEC:  MOVLW  00
09AEE:  CALL   0C4E
09AF2:  TBLRD*-
09AF4:  TBLRD*+
09AF6:  MOVF   FF5,W
09AF8:  MOVWF  FEE
09AFA:  IORLW  00
09AFC:  BNZ   9AF4
09AFE:  MOVLB  6
09B00:  BTFSC  x98.6
09B02:  BSF    FF2.6
09B04:  BTFSC  x98.7
09B06:  BSF    FF2.7
09B08:  MOVLW  06
09B0A:  MOVWF  xA1
09B0C:  MOVLW  78
09B0E:  MOVWF  xA0
09B10:  MOVLW  2A
09B12:  MOVWF  xA2
09B14:  MOVLW  12
09B16:  MOVWF  xA3
09B18:  MOVLW  02
09B1A:  MOVWF  xA4
09B1C:  MOVLW  01
09B1E:  MOVWF  xA5
09B20:  MOVLB  0
09B22:  CALL   3238
....................          displayTiempo(Testerilizacionp[1],48,18,0,1);displayTiempo(Testerilizacionp[0],54,18,0,1); 
09B26:  MOVFF  602,699
09B2A:  MOVLW  30
09B2C:  MOVLB  6
09B2E:  MOVWF  x9A
09B30:  MOVLW  12
09B32:  MOVWF  x9B
09B34:  CLRF   x9C
09B36:  MOVLW  01
09B38:  MOVWF  x9D
09B3A:  MOVLB  0
09B3C:  CALL   5278
09B40:  MOVFF  601,699
09B44:  MOVLW  36
09B46:  MOVLB  6
09B48:  MOVWF  x9A
09B4A:  MOVLW  12
09B4C:  MOVWF  x9B
09B4E:  CLRF   x9C
09B50:  MOVLW  01
09B52:  MOVWF  x9D
09B54:  MOVLB  0
09B56:  CALL   5278
....................          strcpy(Menus.Letra,"(H:M)");displayMenu(Menus.Letra,60,18,2,1);  
09B5A:  MOVLW  06
09B5C:  MOVWF  FEA
09B5E:  MOVLW  78
09B60:  MOVWF  FE9
09B62:  MOVFF  FF2,698
09B66:  BCF    FF2.6
09B68:  BCF    FF2.7
09B6A:  MOVLW  00
09B6C:  CALL   0E26
09B70:  TBLRD*-
09B72:  TBLRD*+
09B74:  MOVF   FF5,W
09B76:  MOVWF  FEE
09B78:  IORLW  00
09B7A:  BNZ   9B72
09B7C:  MOVLB  6
09B7E:  BTFSC  x98.6
09B80:  BSF    FF2.6
09B82:  BTFSC  x98.7
09B84:  BSF    FF2.7
09B86:  MOVLW  06
09B88:  MOVWF  xA1
09B8A:  MOVLW  78
09B8C:  MOVWF  xA0
09B8E:  MOVLW  3C
09B90:  MOVWF  xA2
09B92:  MOVLW  12
09B94:  MOVWF  xA3
09B96:  MOVLW  02
09B98:  MOVWF  xA4
09B9A:  MOVLW  01
09B9C:  MOVWF  xA5
09B9E:  MOVLB  0
09BA0:  CALL   3238
....................           
....................          glcd_rect(0, 0, 89, 27, NO, ON); 
09BA4:  MOVLB  6
09BA6:  CLRF   xB1
09BA8:  CLRF   xB2
09BAA:  MOVLW  59
09BAC:  MOVWF  xB3
09BAE:  MOVLW  1B
09BB0:  MOVWF  xB4
09BB2:  CLRF   xB5
09BB4:  MOVLW  01
09BB6:  MOVWF  xB6
09BB8:  MOVLB  0
09BBA:  CALL   3176
....................          glcd_rect(0, 27, 89, 54, NO, ON); 
09BBE:  MOVLB  6
09BC0:  CLRF   xB1
09BC2:  MOVLW  1B
09BC4:  MOVWF  xB2
09BC6:  MOVLW  59
09BC8:  MOVWF  xB3
09BCA:  MOVLW  36
09BCC:  MOVWF  xB4
09BCE:  CLRF   xB5
09BD0:  MOVLW  01
09BD2:  MOVWF  xB6
09BD4:  MOVLB  0
09BD6:  CALL   3176
....................       }  
....................        
....................       // Si cumplio el tiempo de esterilizacin, Muestre ciclo finalizado y detenga control de temperatura. 
....................       if((Testerilizacionp[0]>0)||(Testerilizacionp[1]>0)||(Testerilizacionp[2]>0)||(Testerilizacionp[3]>0)){ 
09BDA:  MOVLB  6
09BDC:  BTFSC  x01.7
09BDE:  BRA    9BE6
09BE0:  MOVF   x01,W
09BE2:  SUBLW  00
09BE4:  BNC   9C06
09BE6:  BTFSC  x02.7
09BE8:  BRA    9BF0
09BEA:  MOVF   x02,W
09BEC:  SUBLW  00
09BEE:  BNC   9C06
09BF0:  BTFSC  x03.7
09BF2:  BRA    9BFA
09BF4:  MOVF   x03,W
09BF6:  SUBLW  00
09BF8:  BNC   9C06
09BFA:  BTFSC  x04.7
09BFC:  BRA    9D3E
09BFE:  MOVF   x04,W
09C00:  SUBLW  00
09C02:  BTFSC  FD8.0
09C04:  BRA    9D3E
....................          if((Testerilizacion[0]>=Testerilizacionp[0])&&(Testerilizacion[1]>=Testerilizacionp[1])&&(Testerilizacion[2]>=Testerilizacionp[2])&&(Testerilizacion[3]>=Testerilizacionp[3]) && tiempo_esterilizacion==1){ 
09C06:  MOVF   x01,W
09C08:  XORLW  80
09C0A:  MOVWF  00
09C0C:  MOVLB  5
09C0E:  MOVF   xFD,W
09C10:  XORLW  80
09C12:  SUBWF  00,W
09C14:  BZ    9C1A
09C16:  BTFSC  FD8.0
09C18:  BRA    9D3E
09C1A:  MOVLB  6
09C1C:  MOVF   x02,W
09C1E:  XORLW  80
09C20:  MOVWF  00
09C22:  MOVLB  5
09C24:  MOVF   xFE,W
09C26:  XORLW  80
09C28:  SUBWF  00,W
09C2A:  BZ    9C30
09C2C:  BTFSC  FD8.0
09C2E:  BRA    9D3E
09C30:  MOVLB  6
09C32:  MOVF   x03,W
09C34:  XORLW  80
09C36:  MOVWF  00
09C38:  MOVLB  5
09C3A:  MOVF   xFF,W
09C3C:  XORLW  80
09C3E:  SUBWF  00,W
09C40:  BZ    9C46
09C42:  BTFSC  FD8.0
09C44:  BRA    9D3E
09C46:  MOVLB  6
09C48:  MOVF   x04,W
09C4A:  XORLW  80
09C4C:  MOVWF  00
09C4E:  MOVF   x00,W
09C50:  XORLW  80
09C52:  SUBWF  00,W
09C54:  BZ    9C5E
09C56:  BTFSS  FD8.0
09C58:  BRA    9C5E
09C5A:  MOVLB  5
09C5C:  BRA    9D3E
09C5E:  MOVLB  5
09C60:  DECFSZ xBE,W
09C62:  BRA    9D3E
....................             if(flag_clear==0){ 
09C64:  BTFSC  xAD.6
09C66:  BRA    9D3E
....................                glcd_fillScreen(OFF); 
09C68:  MOVLB  6
09C6A:  CLRF   xA0
09C6C:  MOVLB  0
09C6E:  CALL   2BFE
....................                glcd_rect(0, 55, 127, 63, YES, OFF); 
09C72:  MOVLB  6
09C74:  CLRF   xB1
09C76:  MOVLW  37
09C78:  MOVWF  xB2
09C7A:  MOVLW  7F
09C7C:  MOVWF  xB3
09C7E:  MOVLW  3F
09C80:  MOVWF  xB4
09C82:  MOVLW  01
09C84:  MOVWF  xB5
09C86:  CLRF   xB6
09C88:  MOVLB  0
09C8A:  CALL   3176
....................                strcpy(Menus.Letra,"Status:Finalizado"); 
09C8E:  MOVLW  06
09C90:  MOVWF  FEA
09C92:  MOVLW  78
09C94:  MOVWF  FE9
09C96:  MOVFF  FF2,698
09C9A:  BCF    FF2.6
09C9C:  BCF    FF2.7
09C9E:  MOVLW  00
09CA0:  CALL   0E50
09CA4:  TBLRD*-
09CA6:  TBLRD*+
09CA8:  MOVF   FF5,W
09CAA:  MOVWF  FEE
09CAC:  IORLW  00
09CAE:  BNZ   9CA6
09CB0:  MOVLB  6
09CB2:  BTFSC  x98.6
09CB4:  BSF    FF2.6
09CB6:  BTFSC  x98.7
09CB8:  BSF    FF2.7
....................                displayMenu(Menus.Letra,0,55,2,1); 
09CBA:  MOVLW  06
09CBC:  MOVWF  xA1
09CBE:  MOVLW  78
09CC0:  MOVWF  xA0
09CC2:  CLRF   xA2
09CC4:  MOVLW  37
09CC6:  MOVWF  xA3
09CC8:  MOVLW  02
09CCA:  MOVWF  xA4
09CCC:  MOVLW  01
09CCE:  MOVWF  xA5
09CD0:  MOVLB  0
09CD2:  CALL   3238
....................                tiempo_esterilizacion=0; 
09CD6:  MOVLB  5
09CD8:  CLRF   xBE
....................                Pausa=2; 
09CDA:  MOVLW  02
09CDC:  MOVWF  xB9
....................                flag_clear=1; 
09CDE:  BSF    xAD.6
....................                SSR_off; 
09CE0:  BCF    F8B.2
09CE2:  BCF    F94.2
....................                SSR2_off; 
09CE4:  BCF    F8B.1
09CE6:  BCF    F94.1
....................                Motor1_off; 
09CE8:  BCF    F8B.0
09CEA:  BCF    F94.0
....................                Controlando=0; 
09CEC:  CLRF   xA9
....................                Tpulso=0.0; 
09CEE:  MOVLB  6
09CF0:  CLRF   x20
09CF2:  CLRF   x1F
09CF4:  CLRF   x1E
09CF6:  CLRF   x1D
....................                flag_ganancia=0; 
09CF8:  MOVLB  5
09CFA:  CLRF   xA7
....................                Finalizo=1; 
09CFC:  BSF    xAE.7
....................                for(i=0;i<10;i++){ 
09CFE:  CLRF   xB8
09D00:  MOVF   xB8,W
09D02:  SUBLW  09
09D04:  BNC   9D3E
....................                   output_bit(PIN_C7,1); 
09D06:  BSF    F8B.7
09D08:  BCF    F94.7
....................                   delay_ms(800); 
09D0A:  MOVLW  04
09D0C:  MOVLB  6
09D0E:  MOVWF  x98
09D10:  MOVLW  C8
09D12:  MOVWF  xA1
09D14:  MOVLB  0
09D16:  CALL   132E
09D1A:  MOVLB  6
09D1C:  DECFSZ x98,F
09D1E:  BRA    9D10
....................                   output_bit(PIN_C7,0); 
09D20:  BCF    F8B.7
09D22:  BCF    F94.7
....................                   delay_ms(800); 
09D24:  MOVLW  04
09D26:  MOVWF  x98
09D28:  MOVLW  C8
09D2A:  MOVWF  xA1
09D2C:  MOVLB  0
09D2E:  CALL   132E
09D32:  MOVLB  6
09D34:  DECFSZ x98,F
09D36:  BRA    9D28
....................                } 
09D38:  MOVLB  5
09D3A:  INCF   xB8,F
09D3C:  BRA    9D00
....................             } 
....................          } 
....................       } 
....................         
....................       if(Finalizo){ 
09D3E:  MOVLB  5
09D40:  BTFSS  xAE.7
09D42:  BRA    9DEA
....................          strcpy(Menus.Letra,"Status:Finalizado"); 
09D44:  MOVLW  06
09D46:  MOVWF  FEA
09D48:  MOVLW  78
09D4A:  MOVWF  FE9
09D4C:  MOVFF  FF2,698
09D50:  BCF    FF2.6
09D52:  BCF    FF2.7
09D54:  MOVLW  00
09D56:  MOVLB  0
09D58:  CALL   0E50
09D5C:  TBLRD*-
09D5E:  TBLRD*+
09D60:  MOVF   FF5,W
09D62:  MOVWF  FEE
09D64:  IORLW  00
09D66:  BNZ   9D5E
09D68:  MOVLB  6
09D6A:  BTFSC  x98.6
09D6C:  BSF    FF2.6
09D6E:  BTFSC  x98.7
09D70:  BSF    FF2.7
....................          displayMenu(Menus.Letra,0,55,2,1); 
09D72:  MOVLW  06
09D74:  MOVWF  xA1
09D76:  MOVLW  78
09D78:  MOVWF  xA0
09D7A:  CLRF   xA2
09D7C:  MOVLW  37
09D7E:  MOVWF  xA3
09D80:  MOVLW  02
09D82:  MOVWF  xA4
09D84:  MOVLW  01
09D86:  MOVWF  xA5
09D88:  MOVLB  0
09D8A:  CALL   3238
....................          SSR_off; 
09D8E:  BCF    F8B.2
09D90:  BCF    F94.2
....................          SSR2_off; 
09D92:  BCF    F8B.1
09D94:  BCF    F94.1
....................          VelMotor=0; 
09D96:  MOVLB  5
09D98:  CLRF   xB3
....................          Controlando=0; 
09D9A:  CLRF   xA9
....................          Tpulso=0.0; 
09D9C:  MOVLB  6
09D9E:  CLRF   x20
09DA0:  CLRF   x1F
09DA2:  CLRF   x1E
09DA4:  CLRF   x1D
....................          tiempo_esterilizacion=0; 
09DA6:  MOVLB  5
09DA8:  CLRF   xBE
....................          if(flagGuardaEstado){ 
09DAA:  BTFSS  xAE.1
09DAC:  BRA    9DEA
....................             write_eeprom(29,0);delay_ms(20); 
09DAE:  CLRF   FAA
09DB0:  MOVLW  1D
09DB2:  MOVWF  FA9
09DB4:  CLRF   FA8
09DB6:  BCF    FA6.6
09DB8:  BCF    FA6.7
09DBA:  BSF    FA6.2
09DBC:  MOVF   FF2,W
09DBE:  MOVWF  00
09DC0:  BCF    FF2.6
09DC2:  BCF    FF2.7
09DC4:  MOVLB  F
09DC6:  MOVLW  55
09DC8:  MOVWF  FA7
09DCA:  MOVLW  AA
09DCC:  MOVWF  FA7
09DCE:  BSF    FA6.1
09DD0:  BTFSC  FA6.1
09DD2:  BRA    9DD0
09DD4:  BCF    FA6.2
09DD6:  MOVF   00,W
09DD8:  IORWF  FF2,F
09DDA:  MOVLW  14
09DDC:  MOVLB  6
09DDE:  MOVWF  xA1
09DE0:  MOVLB  0
09DE2:  CALL   132E
....................             flagGuardaEstado=OFF; 
09DE6:  MOVLB  5
09DE8:  BCF    xAE.1
....................          } 
....................       } 
....................        
....................       CuentaTiempo(); 
09DEA:  MOVLB  0
09DEC:  GOTO   6DF8
....................       if(tleft>400){//Si oprime boton de Toma. 
09DF0:  MOVLB  5
09DF2:  MOVF   xDC,W
09DF4:  SUBLW  00
09DF6:  BC    9ECE
09DF8:  XORLW  FF
09DFA:  BNZ   9E02
09DFC:  MOVF   xDB,W
09DFE:  SUBLW  90
09E00:  BC    9ECE
....................          Menu=1;glcd_fillscreen(OFF);Opcion=1;visual=1;Pausa=1; 
09E02:  MOVLW  01
09E04:  MOVWF  xB6
09E06:  MOVLB  6
09E08:  CLRF   xA0
09E0A:  MOVLB  0
09E0C:  CALL   2BFE
09E10:  MOVLW  01
09E12:  MOVLB  5
09E14:  MOVWF  xBD
09E16:  BSF    xAD.2
09E18:  MOVWF  xB9
....................          write_eeprom(29,0);delay_ms(20);                
09E1A:  CLRF   FAA
09E1C:  MOVLW  1D
09E1E:  MOVWF  FA9
09E20:  CLRF   FA8
09E22:  BCF    FA6.6
09E24:  BCF    FA6.7
09E26:  BSF    FA6.2
09E28:  MOVF   FF2,W
09E2A:  MOVWF  00
09E2C:  BCF    FF2.6
09E2E:  BCF    FF2.7
09E30:  MOVLB  F
09E32:  MOVLW  55
09E34:  MOVWF  FA7
09E36:  MOVLW  AA
09E38:  MOVWF  FA7
09E3A:  BSF    FA6.1
09E3C:  BTFSC  FA6.1
09E3E:  BRA    9E3C
09E40:  BCF    FA6.2
09E42:  MOVF   00,W
09E44:  IORWF  FF2,F
09E46:  MOVLW  14
09E48:  MOVLB  6
09E4A:  MOVWF  xA1
09E4C:  MOVLB  0
09E4E:  CALL   132E
....................          Controlando=0; 
09E52:  MOVLB  5
09E54:  CLRF   xA9
....................          SSR_off; 
09E56:  BCF    F8B.2
09E58:  BCF    F94.2
....................          SSR2_off; 
09E5A:  BCF    F8B.1
09E5C:  BCF    F94.1
....................          Ganancia=gananciaAnt*(Setpoint/150); 
09E5E:  MOVFF  650,69C
09E62:  MOVFF  64F,69B
09E66:  MOVFF  64E,69A
09E6A:  MOVFF  64D,699
09E6E:  MOVLB  6
09E70:  CLRF   xA0
09E72:  CLRF   x9F
09E74:  MOVLW  16
09E76:  MOVWF  x9E
09E78:  MOVLW  86
09E7A:  MOVWF  x9D
09E7C:  MOVLB  0
09E7E:  CALL   13D2
09E82:  MOVFF  640,6BB
09E86:  MOVFF  63F,6BA
09E8A:  MOVFF  63E,6B9
09E8E:  MOVFF  63D,6B8
09E92:  MOVFF  03,6BF
09E96:  MOVFF  02,6BE
09E9A:  MOVFF  01,6BD
09E9E:  MOVFF  00,6BC
09EA2:  CALL   33AE
09EA6:  MOVFF  03,634
09EAA:  MOVFF  02,633
09EAE:  MOVFF  01,632
09EB2:  MOVFF  00,631
....................          tiempo_esterilizacion=0; 
09EB6:  MOVLB  5
09EB8:  CLRF   xBE
....................          SSR_off; 
09EBA:  BCF    F8B.2
09EBC:  BCF    F94.2
....................          SSR2_off; 
09EBE:  BCF    F8B.1
09EC0:  BCF    F94.1
....................          Tpulso=0.0; 
09EC2:  MOVLB  6
09EC4:  CLRF   x20
09EC6:  CLRF   x1F
09EC8:  CLRF   x1E
09ECA:  CLRF   x1D
09ECC:  MOVLB  5
....................       } 
....................     } 
.................... //_--------------------------------------------------------------------------------------------------------------------------------------------------------        
....................  
.................... //_-------------------------------------------------------------------------------------------------------------------------------------------------------- 
....................       if(Menu==100){ //Menu de Configuracin de Parametros de Control 
09ECE:  MOVF   xB6,W
09ED0:  SUBLW  64
09ED2:  BTFSS  FD8.2
09ED4:  BRA    A5B0
....................        
....................       if(Opcion>8) 
09ED6:  MOVF   xBD,W
09ED8:  SUBLW  08
09EDA:  BC    9EE0
....................       {Opcion=1;} 
09EDC:  MOVLW  01
09EDE:  MOVWF  xBD
....................       if(Opcion<1) 
09EE0:  MOVF   xBD,F
09EE2:  BNZ   9EE8
....................       {Opcion=8;} 
09EE4:  MOVLW  08
09EE6:  MOVWF  xBD
....................        
....................       if(Opcion<=6){ 
09EE8:  MOVF   xBD,W
09EEA:  SUBLW  06
09EEC:  BTFSS  FD8.0
09EEE:  BRA    A294
....................          if(Opcion==1)    
09EF0:  DECFSZ xBD,W
09EF2:  BRA    9F3E
....................             {strcpy(Menus.Letra,"Proporcional"); 
09EF4:  MOVLW  06
09EF6:  MOVWF  FEA
09EF8:  MOVLW  78
09EFA:  MOVWF  FE9
09EFC:  MOVFF  FF2,698
09F00:  BCF    FF2.6
09F02:  BCF    FF2.7
09F04:  MOVLW  00
09F06:  MOVLB  0
09F08:  CALL   0E86
09F0C:  TBLRD*-
09F0E:  TBLRD*+
09F10:  MOVF   FF5,W
09F12:  MOVWF  FEE
09F14:  IORLW  00
09F16:  BNZ   9F0E
09F18:  MOVLB  6
09F1A:  BTFSC  x98.6
09F1C:  BSF    FF2.6
09F1E:  BTFSC  x98.7
09F20:  BSF    FF2.7
....................             displayMenu(Menus.Letra,0,0,1,1);} 
09F22:  MOVLW  06
09F24:  MOVWF  xA1
09F26:  MOVLW  78
09F28:  MOVWF  xA0
09F2A:  CLRF   xA2
09F2C:  CLRF   xA3
09F2E:  MOVLW  01
09F30:  MOVWF  xA4
09F32:  MOVWF  xA5
09F34:  MOVLB  0
09F36:  CALL   3238
....................          else 
09F3A:  BRA    9F84
09F3C:  MOVLB  5
....................             {strcpy(Menus.Letra,"Proporcional"); 
09F3E:  MOVLW  06
09F40:  MOVWF  FEA
09F42:  MOVLW  78
09F44:  MOVWF  FE9
09F46:  MOVFF  FF2,698
09F4A:  BCF    FF2.6
09F4C:  BCF    FF2.7
09F4E:  MOVLW  00
09F50:  MOVLB  0
09F52:  CALL   0E86
09F56:  TBLRD*-
09F58:  TBLRD*+
09F5A:  MOVF   FF5,W
09F5C:  MOVWF  FEE
09F5E:  IORLW  00
09F60:  BNZ   9F58
09F62:  MOVLB  6
09F64:  BTFSC  x98.6
09F66:  BSF    FF2.6
09F68:  BTFSC  x98.7
09F6A:  BSF    FF2.7
....................             displayMenu(Menus.Letra,0,0,0,1);} 
09F6C:  MOVLW  06
09F6E:  MOVWF  xA1
09F70:  MOVLW  78
09F72:  MOVWF  xA0
09F74:  CLRF   xA2
09F76:  CLRF   xA3
09F78:  CLRF   xA4
09F7A:  MOVLW  01
09F7C:  MOVWF  xA5
09F7E:  MOVLB  0
09F80:  CALL   3238
....................           
....................          if(Opcion==2)    
09F84:  MOVLB  5
09F86:  MOVF   xBD,W
09F88:  SUBLW  02
09F8A:  BNZ   9FD8
....................             {strcpy(Menus.Letra,"Integral"); 
09F8C:  MOVLW  06
09F8E:  MOVWF  FEA
09F90:  MOVLW  78
09F92:  MOVWF  FE9
09F94:  MOVFF  FF2,698
09F98:  BCF    FF2.6
09F9A:  BCF    FF2.7
09F9C:  MOVLW  00
09F9E:  MOVLB  0
09FA0:  CALL   0EB8
09FA4:  TBLRD*-
09FA6:  TBLRD*+
09FA8:  MOVF   FF5,W
09FAA:  MOVWF  FEE
09FAC:  IORLW  00
09FAE:  BNZ   9FA6
09FB0:  MOVLB  6
09FB2:  BTFSC  x98.6
09FB4:  BSF    FF2.6
09FB6:  BTFSC  x98.7
09FB8:  BSF    FF2.7
....................             displayMenu(Menus.Letra,0,9,1,1);} 
09FBA:  MOVLW  06
09FBC:  MOVWF  xA1
09FBE:  MOVLW  78
09FC0:  MOVWF  xA0
09FC2:  CLRF   xA2
09FC4:  MOVLW  09
09FC6:  MOVWF  xA3
09FC8:  MOVLW  01
09FCA:  MOVWF  xA4
09FCC:  MOVWF  xA5
09FCE:  MOVLB  0
09FD0:  CALL   3238
....................          else 
09FD4:  BRA    A020
09FD6:  MOVLB  5
....................             {strcpy(Menus.Letra,"Integral"); 
09FD8:  MOVLW  06
09FDA:  MOVWF  FEA
09FDC:  MOVLW  78
09FDE:  MOVWF  FE9
09FE0:  MOVFF  FF2,698
09FE4:  BCF    FF2.6
09FE6:  BCF    FF2.7
09FE8:  MOVLW  00
09FEA:  MOVLB  0
09FEC:  CALL   0EB8
09FF0:  TBLRD*-
09FF2:  TBLRD*+
09FF4:  MOVF   FF5,W
09FF6:  MOVWF  FEE
09FF8:  IORLW  00
09FFA:  BNZ   9FF2
09FFC:  MOVLB  6
09FFE:  BTFSC  x98.6
0A000:  BSF    FF2.6
0A002:  BTFSC  x98.7
0A004:  BSF    FF2.7
....................             displayMenu(Menus.Letra,0,9,0,1);} 
0A006:  MOVLW  06
0A008:  MOVWF  xA1
0A00A:  MOVLW  78
0A00C:  MOVWF  xA0
0A00E:  CLRF   xA2
0A010:  MOVLW  09
0A012:  MOVWF  xA3
0A014:  CLRF   xA4
0A016:  MOVLW  01
0A018:  MOVWF  xA5
0A01A:  MOVLB  0
0A01C:  CALL   3238
....................              
....................          if(Opcion==3)    
0A020:  MOVLB  5
0A022:  MOVF   xBD,W
0A024:  SUBLW  03
0A026:  BNZ   A074
....................             {strcpy(Menus.Letra,"Derivativo"); 
0A028:  MOVLW  06
0A02A:  MOVWF  FEA
0A02C:  MOVLW  78
0A02E:  MOVWF  FE9
0A030:  MOVFF  FF2,698
0A034:  BCF    FF2.6
0A036:  BCF    FF2.7
0A038:  MOVLW  00
0A03A:  MOVLB  0
0A03C:  CALL   0EE6
0A040:  TBLRD*-
0A042:  TBLRD*+
0A044:  MOVF   FF5,W
0A046:  MOVWF  FEE
0A048:  IORLW  00
0A04A:  BNZ   A042
0A04C:  MOVLB  6
0A04E:  BTFSC  x98.6
0A050:  BSF    FF2.6
0A052:  BTFSC  x98.7
0A054:  BSF    FF2.7
....................             displayMenu(Menus.Letra,0,18,1,1);} 
0A056:  MOVLW  06
0A058:  MOVWF  xA1
0A05A:  MOVLW  78
0A05C:  MOVWF  xA0
0A05E:  CLRF   xA2
0A060:  MOVLW  12
0A062:  MOVWF  xA3
0A064:  MOVLW  01
0A066:  MOVWF  xA4
0A068:  MOVWF  xA5
0A06A:  MOVLB  0
0A06C:  CALL   3238
....................          else 
0A070:  BRA    A0BC
0A072:  MOVLB  5
....................             {strcpy(Menus.Letra,"Derivativo"); 
0A074:  MOVLW  06
0A076:  MOVWF  FEA
0A078:  MOVLW  78
0A07A:  MOVWF  FE9
0A07C:  MOVFF  FF2,698
0A080:  BCF    FF2.6
0A082:  BCF    FF2.7
0A084:  MOVLW  00
0A086:  MOVLB  0
0A088:  CALL   0EE6
0A08C:  TBLRD*-
0A08E:  TBLRD*+
0A090:  MOVF   FF5,W
0A092:  MOVWF  FEE
0A094:  IORLW  00
0A096:  BNZ   A08E
0A098:  MOVLB  6
0A09A:  BTFSC  x98.6
0A09C:  BSF    FF2.6
0A09E:  BTFSC  x98.7
0A0A0:  BSF    FF2.7
....................             displayMenu(Menus.Letra,0,18,0,1);}    
0A0A2:  MOVLW  06
0A0A4:  MOVWF  xA1
0A0A6:  MOVLW  78
0A0A8:  MOVWF  xA0
0A0AA:  CLRF   xA2
0A0AC:  MOVLW  12
0A0AE:  MOVWF  xA3
0A0B0:  CLRF   xA4
0A0B2:  MOVLW  01
0A0B4:  MOVWF  xA5
0A0B6:  MOVLB  0
0A0B8:  CALL   3238
....................           
....................          if(Opcion==4)    
0A0BC:  MOVLB  5
0A0BE:  MOVF   xBD,W
0A0C0:  SUBLW  04
0A0C2:  BNZ   A110
....................             {strcpy(Menus.Letra,"Tciclo"); 
0A0C4:  MOVLW  06
0A0C6:  MOVWF  FEA
0A0C8:  MOVLW  78
0A0CA:  MOVWF  FE9
0A0CC:  MOVFF  FF2,698
0A0D0:  BCF    FF2.6
0A0D2:  BCF    FF2.7
0A0D4:  MOVLW  00
0A0D6:  MOVLB  0
0A0D8:  CALL   0F16
0A0DC:  TBLRD*-
0A0DE:  TBLRD*+
0A0E0:  MOVF   FF5,W
0A0E2:  MOVWF  FEE
0A0E4:  IORLW  00
0A0E6:  BNZ   A0DE
0A0E8:  MOVLB  6
0A0EA:  BTFSC  x98.6
0A0EC:  BSF    FF2.6
0A0EE:  BTFSC  x98.7
0A0F0:  BSF    FF2.7
....................             displayMenu(Menus.Letra,0,27,1,1);} 
0A0F2:  MOVLW  06
0A0F4:  MOVWF  xA1
0A0F6:  MOVLW  78
0A0F8:  MOVWF  xA0
0A0FA:  CLRF   xA2
0A0FC:  MOVLW  1B
0A0FE:  MOVWF  xA3
0A100:  MOVLW  01
0A102:  MOVWF  xA4
0A104:  MOVWF  xA5
0A106:  MOVLB  0
0A108:  CALL   3238
....................          else 
0A10C:  BRA    A158
0A10E:  MOVLB  5
....................             {strcpy(Menus.Letra,"Tciclo"); 
0A110:  MOVLW  06
0A112:  MOVWF  FEA
0A114:  MOVLW  78
0A116:  MOVWF  FE9
0A118:  MOVFF  FF2,698
0A11C:  BCF    FF2.6
0A11E:  BCF    FF2.7
0A120:  MOVLW  00
0A122:  MOVLB  0
0A124:  CALL   0F16
0A128:  TBLRD*-
0A12A:  TBLRD*+
0A12C:  MOVF   FF5,W
0A12E:  MOVWF  FEE
0A130:  IORLW  00
0A132:  BNZ   A12A
0A134:  MOVLB  6
0A136:  BTFSC  x98.6
0A138:  BSF    FF2.6
0A13A:  BTFSC  x98.7
0A13C:  BSF    FF2.7
....................             displayMenu(Menus.Letra,0,27,0,1);} 
0A13E:  MOVLW  06
0A140:  MOVWF  xA1
0A142:  MOVLW  78
0A144:  MOVWF  xA0
0A146:  CLRF   xA2
0A148:  MOVLW  1B
0A14A:  MOVWF  xA3
0A14C:  CLRF   xA4
0A14E:  MOVLW  01
0A150:  MOVWF  xA5
0A152:  MOVLB  0
0A154:  CALL   3238
....................              
....................          if(Opcion==5)    
0A158:  MOVLB  5
0A15A:  MOVF   xBD,W
0A15C:  SUBLW  05
0A15E:  BNZ   A1AC
....................             {strcpy(Menus.Letra,"Ajuste +"); 
0A160:  MOVLW  06
0A162:  MOVWF  FEA
0A164:  MOVLW  78
0A166:  MOVWF  FE9
0A168:  MOVFF  FF2,698
0A16C:  BCF    FF2.6
0A16E:  BCF    FF2.7
0A170:  MOVLW  00
0A172:  MOVLB  0
0A174:  CALL   0F42
0A178:  TBLRD*-
0A17A:  TBLRD*+
0A17C:  MOVF   FF5,W
0A17E:  MOVWF  FEE
0A180:  IORLW  00
0A182:  BNZ   A17A
0A184:  MOVLB  6
0A186:  BTFSC  x98.6
0A188:  BSF    FF2.6
0A18A:  BTFSC  x98.7
0A18C:  BSF    FF2.7
....................             displayMenu(Menus.Letra,0,36,1,1);} 
0A18E:  MOVLW  06
0A190:  MOVWF  xA1
0A192:  MOVLW  78
0A194:  MOVWF  xA0
0A196:  CLRF   xA2
0A198:  MOVLW  24
0A19A:  MOVWF  xA3
0A19C:  MOVLW  01
0A19E:  MOVWF  xA4
0A1A0:  MOVWF  xA5
0A1A2:  MOVLB  0
0A1A4:  CALL   3238
....................          else 
0A1A8:  BRA    A1F4
0A1AA:  MOVLB  5
....................             {strcpy(Menus.Letra,"Ajuste +"); 
0A1AC:  MOVLW  06
0A1AE:  MOVWF  FEA
0A1B0:  MOVLW  78
0A1B2:  MOVWF  FE9
0A1B4:  MOVFF  FF2,698
0A1B8:  BCF    FF2.6
0A1BA:  BCF    FF2.7
0A1BC:  MOVLW  00
0A1BE:  MOVLB  0
0A1C0:  CALL   0F42
0A1C4:  TBLRD*-
0A1C6:  TBLRD*+
0A1C8:  MOVF   FF5,W
0A1CA:  MOVWF  FEE
0A1CC:  IORLW  00
0A1CE:  BNZ   A1C6
0A1D0:  MOVLB  6
0A1D2:  BTFSC  x98.6
0A1D4:  BSF    FF2.6
0A1D6:  BTFSC  x98.7
0A1D8:  BSF    FF2.7
....................             displayMenu(Menus.Letra,0,36,0,1);}    
0A1DA:  MOVLW  06
0A1DC:  MOVWF  xA1
0A1DE:  MOVLW  78
0A1E0:  MOVWF  xA0
0A1E2:  CLRF   xA2
0A1E4:  MOVLW  24
0A1E6:  MOVWF  xA3
0A1E8:  CLRF   xA4
0A1EA:  MOVLW  01
0A1EC:  MOVWF  xA5
0A1EE:  MOVLB  0
0A1F0:  CALL   3238
....................                          
....................          if(Opcion==6)    
0A1F4:  MOVLB  5
0A1F6:  MOVF   xBD,W
0A1F8:  SUBLW  06
0A1FA:  BNZ   A248
....................             {strcpy(Menus.Letra,"Ajuste -"); 
0A1FC:  MOVLW  06
0A1FE:  MOVWF  FEA
0A200:  MOVLW  78
0A202:  MOVWF  FE9
0A204:  MOVFF  FF2,698
0A208:  BCF    FF2.6
0A20A:  BCF    FF2.7
0A20C:  MOVLW  00
0A20E:  MOVLB  0
0A210:  CALL   0F70
0A214:  TBLRD*-
0A216:  TBLRD*+
0A218:  MOVF   FF5,W
0A21A:  MOVWF  FEE
0A21C:  IORLW  00
0A21E:  BNZ   A216
0A220:  MOVLB  6
0A222:  BTFSC  x98.6
0A224:  BSF    FF2.6
0A226:  BTFSC  x98.7
0A228:  BSF    FF2.7
....................             displayMenu(Menus.Letra,0,45,1,1);} 
0A22A:  MOVLW  06
0A22C:  MOVWF  xA1
0A22E:  MOVLW  78
0A230:  MOVWF  xA0
0A232:  CLRF   xA2
0A234:  MOVLW  2D
0A236:  MOVWF  xA3
0A238:  MOVLW  01
0A23A:  MOVWF  xA4
0A23C:  MOVWF  xA5
0A23E:  MOVLB  0
0A240:  CALL   3238
....................          else 
0A244:  BRA    A290
0A246:  MOVLB  5
....................             {strcpy(Menus.Letra,"Ajuste -"); 
0A248:  MOVLW  06
0A24A:  MOVWF  FEA
0A24C:  MOVLW  78
0A24E:  MOVWF  FE9
0A250:  MOVFF  FF2,698
0A254:  BCF    FF2.6
0A256:  BCF    FF2.7
0A258:  MOVLW  00
0A25A:  MOVLB  0
0A25C:  CALL   0F70
0A260:  TBLRD*-
0A262:  TBLRD*+
0A264:  MOVF   FF5,W
0A266:  MOVWF  FEE
0A268:  IORLW  00
0A26A:  BNZ   A262
0A26C:  MOVLB  6
0A26E:  BTFSC  x98.6
0A270:  BSF    FF2.6
0A272:  BTFSC  x98.7
0A274:  BSF    FF2.7
....................             displayMenu(Menus.Letra,0,45,0,1);}      
0A276:  MOVLW  06
0A278:  MOVWF  xA1
0A27A:  MOVLW  78
0A27C:  MOVWF  xA0
0A27E:  CLRF   xA2
0A280:  MOVLW  2D
0A282:  MOVWF  xA3
0A284:  CLRF   xA4
0A286:  MOVLW  01
0A288:  MOVWF  xA5
0A28A:  MOVLB  0
0A28C:  CALL   3238
....................       } 
....................       else{ 
0A290:  BRA    A4DE
0A292:  MOVLB  5
....................          if(Opcion==7)    
0A294:  MOVF   xBD,W
0A296:  SUBLW  07
0A298:  BNZ   A2E4
....................             {strcpy(Menus.Letra,"Media Movil"); 
0A29A:  MOVLW  06
0A29C:  MOVWF  FEA
0A29E:  MOVLW  78
0A2A0:  MOVWF  FE9
0A2A2:  MOVFF  FF2,698
0A2A6:  BCF    FF2.6
0A2A8:  BCF    FF2.7
0A2AA:  MOVLW  00
0A2AC:  MOVLB  0
0A2AE:  CALL   0F9E
0A2B2:  TBLRD*-
0A2B4:  TBLRD*+
0A2B6:  MOVF   FF5,W
0A2B8:  MOVWF  FEE
0A2BA:  IORLW  00
0A2BC:  BNZ   A2B4
0A2BE:  MOVLB  6
0A2C0:  BTFSC  x98.6
0A2C2:  BSF    FF2.6
0A2C4:  BTFSC  x98.7
0A2C6:  BSF    FF2.7
....................             displayMenu(Menus.Letra,0,0,1,1);} 
0A2C8:  MOVLW  06
0A2CA:  MOVWF  xA1
0A2CC:  MOVLW  78
0A2CE:  MOVWF  xA0
0A2D0:  CLRF   xA2
0A2D2:  CLRF   xA3
0A2D4:  MOVLW  01
0A2D6:  MOVWF  xA4
0A2D8:  MOVWF  xA5
0A2DA:  MOVLB  0
0A2DC:  CALL   3238
....................          else 
0A2E0:  BRA    A32A
0A2E2:  MOVLB  5
....................             {strcpy(Menus.Letra,"Media Movil"); 
0A2E4:  MOVLW  06
0A2E6:  MOVWF  FEA
0A2E8:  MOVLW  78
0A2EA:  MOVWF  FE9
0A2EC:  MOVFF  FF2,698
0A2F0:  BCF    FF2.6
0A2F2:  BCF    FF2.7
0A2F4:  MOVLW  00
0A2F6:  MOVLB  0
0A2F8:  CALL   0F9E
0A2FC:  TBLRD*-
0A2FE:  TBLRD*+
0A300:  MOVF   FF5,W
0A302:  MOVWF  FEE
0A304:  IORLW  00
0A306:  BNZ   A2FE
0A308:  MOVLB  6
0A30A:  BTFSC  x98.6
0A30C:  BSF    FF2.6
0A30E:  BTFSC  x98.7
0A310:  BSF    FF2.7
....................             displayMenu(Menus.Letra,0,0,0,1);}      
0A312:  MOVLW  06
0A314:  MOVWF  xA1
0A316:  MOVLW  78
0A318:  MOVWF  xA0
0A31A:  CLRF   xA2
0A31C:  CLRF   xA3
0A31E:  CLRF   xA4
0A320:  MOVLW  01
0A322:  MOVWF  xA5
0A324:  MOVLB  0
0A326:  CALL   3238
....................              
....................          if(Opcion==8)    
0A32A:  MOVLB  5
0A32C:  MOVF   xBD,W
0A32E:  SUBLW  08
0A330:  BNZ   A37E
....................             {strcpy(Menus.Letra,"Ganancia    "); 
0A332:  MOVLW  06
0A334:  MOVWF  FEA
0A336:  MOVLW  78
0A338:  MOVWF  FE9
0A33A:  MOVFF  FF2,698
0A33E:  BCF    FF2.6
0A340:  BCF    FF2.7
0A342:  MOVLW  00
0A344:  MOVLB  0
0A346:  CALL   0FCE
0A34A:  TBLRD*-
0A34C:  TBLRD*+
0A34E:  MOVF   FF5,W
0A350:  MOVWF  FEE
0A352:  IORLW  00
0A354:  BNZ   A34C
0A356:  MOVLB  6
0A358:  BTFSC  x98.6
0A35A:  BSF    FF2.6
0A35C:  BTFSC  x98.7
0A35E:  BSF    FF2.7
....................             displayMenu(Menus.Letra,0,9,1,1);} 
0A360:  MOVLW  06
0A362:  MOVWF  xA1
0A364:  MOVLW  78
0A366:  MOVWF  xA0
0A368:  CLRF   xA2
0A36A:  MOVLW  09
0A36C:  MOVWF  xA3
0A36E:  MOVLW  01
0A370:  MOVWF  xA4
0A372:  MOVWF  xA5
0A374:  MOVLB  0
0A376:  CALL   3238
....................          else 
0A37A:  BRA    A3C6
0A37C:  MOVLB  5
....................             {strcpy(Menus.Letra,"Ganancia    "); 
0A37E:  MOVLW  06
0A380:  MOVWF  FEA
0A382:  MOVLW  78
0A384:  MOVWF  FE9
0A386:  MOVFF  FF2,698
0A38A:  BCF    FF2.6
0A38C:  BCF    FF2.7
0A38E:  MOVLW  00
0A390:  MOVLB  0
0A392:  CALL   0FCE
0A396:  TBLRD*-
0A398:  TBLRD*+
0A39A:  MOVF   FF5,W
0A39C:  MOVWF  FEE
0A39E:  IORLW  00
0A3A0:  BNZ   A398
0A3A2:  MOVLB  6
0A3A4:  BTFSC  x98.6
0A3A6:  BSF    FF2.6
0A3A8:  BTFSC  x98.7
0A3AA:  BSF    FF2.7
....................             displayMenu(Menus.Letra,0,9,0,1);}   
0A3AC:  MOVLW  06
0A3AE:  MOVWF  xA1
0A3B0:  MOVLW  78
0A3B2:  MOVWF  xA0
0A3B4:  CLRF   xA2
0A3B6:  MOVLW  09
0A3B8:  MOVWF  xA3
0A3BA:  CLRF   xA4
0A3BC:  MOVLW  01
0A3BE:  MOVWF  xA5
0A3C0:  MOVLB  0
0A3C2:  CALL   3238
....................              
....................              
....................             strcpy(Menus.Letra,"            "); 
0A3C6:  MOVLW  06
0A3C8:  MOVWF  FEA
0A3CA:  MOVLW  78
0A3CC:  MOVWF  FE9
0A3CE:  MOVFF  FF2,698
0A3D2:  BCF    FF2.6
0A3D4:  BCF    FF2.7
0A3D6:  MOVLW  00
0A3D8:  CALL   1000
0A3DC:  TBLRD*-
0A3DE:  TBLRD*+
0A3E0:  MOVF   FF5,W
0A3E2:  MOVWF  FEE
0A3E4:  IORLW  00
0A3E6:  BNZ   A3DE
0A3E8:  MOVLB  6
0A3EA:  BTFSC  x98.6
0A3EC:  BSF    FF2.6
0A3EE:  BTFSC  x98.7
0A3F0:  BSF    FF2.7
....................             displayMenu(Menus.Letra,0,18,0,1); 
0A3F2:  MOVLW  06
0A3F4:  MOVWF  xA1
0A3F6:  MOVLW  78
0A3F8:  MOVWF  xA0
0A3FA:  CLRF   xA2
0A3FC:  MOVLW  12
0A3FE:  MOVWF  xA3
0A400:  CLRF   xA4
0A402:  MOVLW  01
0A404:  MOVWF  xA5
0A406:  MOVLB  0
0A408:  CALL   3238
....................              
....................             strcpy(Menus.Letra,"            "); 
0A40C:  MOVLW  06
0A40E:  MOVWF  FEA
0A410:  MOVLW  78
0A412:  MOVWF  FE9
0A414:  MOVFF  FF2,698
0A418:  BCF    FF2.6
0A41A:  BCF    FF2.7
0A41C:  MOVLW  00
0A41E:  CALL   1000
0A422:  TBLRD*-
0A424:  TBLRD*+
0A426:  MOVF   FF5,W
0A428:  MOVWF  FEE
0A42A:  IORLW  00
0A42C:  BNZ   A424
0A42E:  MOVLB  6
0A430:  BTFSC  x98.6
0A432:  BSF    FF2.6
0A434:  BTFSC  x98.7
0A436:  BSF    FF2.7
....................             displayMenu(Menus.Letra,0,27,0,1); 
0A438:  MOVLW  06
0A43A:  MOVWF  xA1
0A43C:  MOVLW  78
0A43E:  MOVWF  xA0
0A440:  CLRF   xA2
0A442:  MOVLW  1B
0A444:  MOVWF  xA3
0A446:  CLRF   xA4
0A448:  MOVLW  01
0A44A:  MOVWF  xA5
0A44C:  MOVLB  0
0A44E:  CALL   3238
....................              
....................             strcpy(Menus.Letra,"            "); 
0A452:  MOVLW  06
0A454:  MOVWF  FEA
0A456:  MOVLW  78
0A458:  MOVWF  FE9
0A45A:  MOVFF  FF2,698
0A45E:  BCF    FF2.6
0A460:  BCF    FF2.7
0A462:  MOVLW  00
0A464:  CALL   1000
0A468:  TBLRD*-
0A46A:  TBLRD*+
0A46C:  MOVF   FF5,W
0A46E:  MOVWF  FEE
0A470:  IORLW  00
0A472:  BNZ   A46A
0A474:  MOVLB  6
0A476:  BTFSC  x98.6
0A478:  BSF    FF2.6
0A47A:  BTFSC  x98.7
0A47C:  BSF    FF2.7
....................             displayMenu(Menus.Letra,0,36,0,1); 
0A47E:  MOVLW  06
0A480:  MOVWF  xA1
0A482:  MOVLW  78
0A484:  MOVWF  xA0
0A486:  CLRF   xA2
0A488:  MOVLW  24
0A48A:  MOVWF  xA3
0A48C:  CLRF   xA4
0A48E:  MOVLW  01
0A490:  MOVWF  xA5
0A492:  MOVLB  0
0A494:  CALL   3238
....................              
....................             strcpy(Menus.Letra,"            "); 
0A498:  MOVLW  06
0A49A:  MOVWF  FEA
0A49C:  MOVLW  78
0A49E:  MOVWF  FE9
0A4A0:  MOVFF  FF2,698
0A4A4:  BCF    FF2.6
0A4A6:  BCF    FF2.7
0A4A8:  MOVLW  00
0A4AA:  CALL   1000
0A4AE:  TBLRD*-
0A4B0:  TBLRD*+
0A4B2:  MOVF   FF5,W
0A4B4:  MOVWF  FEE
0A4B6:  IORLW  00
0A4B8:  BNZ   A4B0
0A4BA:  MOVLB  6
0A4BC:  BTFSC  x98.6
0A4BE:  BSF    FF2.6
0A4C0:  BTFSC  x98.7
0A4C2:  BSF    FF2.7
....................             displayMenu(Menus.Letra,0,45,0,1); 
0A4C4:  MOVLW  06
0A4C6:  MOVWF  xA1
0A4C8:  MOVLW  78
0A4CA:  MOVWF  xA0
0A4CC:  CLRF   xA2
0A4CE:  MOVLW  2D
0A4D0:  MOVWF  xA3
0A4D2:  CLRF   xA4
0A4D4:  MOVLW  01
0A4D6:  MOVWF  xA5
0A4D8:  MOVLB  0
0A4DA:  CALL   3238
....................       }    
....................        
....................          if(UP)//Si oprime hacia arriba 
0A4DE:  BSF    F92.5
0A4E0:  BTFSC  F80.5
0A4E2:  BRA    A50C
....................          { 
....................             delay_ms(10); 
0A4E4:  MOVLW  0A
0A4E6:  MOVLB  6
0A4E8:  MOVWF  xA1
0A4EA:  MOVLB  0
0A4EC:  CALL   132E
....................             if(Flanco == 0) 
0A4F0:  MOVLB  5
0A4F2:  BTFSC  xA0.7
0A4F4:  BRA    A50A
....................                {Flanco = 1;delay_ms(30);Opcion--;visual=1; 
0A4F6:  BSF    xA0.7
0A4F8:  MOVLW  1E
0A4FA:  MOVLB  6
0A4FC:  MOVWF  xA1
0A4FE:  MOVLB  0
0A500:  CALL   132E
0A504:  MOVLB  5
0A506:  DECF   xBD,F
0A508:  BSF    xAD.2
....................                } 
....................          } 
....................             else 
0A50A:  BRA    A510
....................                {Flanco = 0;} 
0A50C:  MOVLB  5
0A50E:  BCF    xA0.7
....................                    
....................          if(DOWN)//Si oprime hacia abajo 
0A510:  BSF    F96.0
0A512:  BTFSC  F84.0
0A514:  BRA    A53E
....................          { 
....................             delay_ms(10); 
0A516:  MOVLW  0A
0A518:  MOVLB  6
0A51A:  MOVWF  xA1
0A51C:  MOVLB  0
0A51E:  CALL   132E
....................             if(Flanco2 == 0) 
0A522:  MOVLB  5
0A524:  BTFSC  xAD.1
0A526:  BRA    A53C
....................                {Flanco2 = 1;delay_ms(30);Opcion++;visual=1; 
0A528:  BSF    xAD.1
0A52A:  MOVLW  1E
0A52C:  MOVLB  6
0A52E:  MOVWF  xA1
0A530:  MOVLB  0
0A532:  CALL   132E
0A536:  MOVLB  5
0A538:  INCF   xBD,F
0A53A:  BSF    xAD.2
....................                }      
....................          } 
....................             else 
0A53C:  BRA    A540
....................                {Flanco2 = 0;}   
0A53E:  BCF    xAD.1
....................                 
....................          if(RIGHT)//Si oprime SET 
0A540:  BSF    F96.1
0A542:  BTFSC  F84.1
0A544:  BRA    A582
....................          {   
....................             delay_ms(10); 
0A546:  MOVLW  0A
0A548:  MOVLB  6
0A54A:  MOVWF  xA1
0A54C:  MOVLB  0
0A54E:  CALL   132E
....................             if(Flanco1 == 0) 
0A552:  MOVLB  5
0A554:  BTFSC  xAD.0
0A556:  BRA    A580
....................                {Flanco1 = 1;delay_ms(30);Menu=Opcion+100;Opcion=1;glcd_fillscreen(OFF);visual=1; 
0A558:  BSF    xAD.0
0A55A:  MOVLW  1E
0A55C:  MOVLB  6
0A55E:  MOVWF  xA1
0A560:  MOVLB  0
0A562:  CALL   132E
0A566:  MOVLW  64
0A568:  MOVLB  5
0A56A:  ADDWF  xBD,W
0A56C:  MOVWF  xB6
0A56E:  MOVLW  01
0A570:  MOVWF  xBD
0A572:  MOVLB  6
0A574:  CLRF   xA0
0A576:  MOVLB  0
0A578:  CALL   2BFE
0A57C:  MOVLB  5
0A57E:  BSF    xAD.2
....................                } 
....................          } 
....................             else 
0A580:  BRA    A584
....................                {Flanco1 = 0;}  
0A582:  BCF    xAD.0
....................                 
....................          if(LEFT)//Si oprime boton de Toma. 
0A584:  BSF    F96.2
0A586:  BTFSC  F84.2
0A588:  BRA    A5B0
....................          { 
....................             delay_ms(10); 
0A58A:  MOVLW  0A
0A58C:  MOVLB  6
0A58E:  MOVWF  xA1
0A590:  MOVLB  0
0A592:  CALL   132E
....................             delay_ms(700);reset_cpu();          
0A596:  MOVLW  04
0A598:  MOVLB  6
0A59A:  MOVWF  x98
0A59C:  MOVLW  AF
0A59E:  MOVWF  xA1
0A5A0:  MOVLB  0
0A5A2:  CALL   132E
0A5A6:  MOVLB  6
0A5A8:  DECFSZ x98,F
0A5AA:  BRA    A59C
0A5AC:  RESET
0A5AE:  MOVLB  5
....................          }       
....................          
....................     } 
.................... //_--------------------------------------------------------------------------------------------------------------------------------------------------------        
....................  
.................... //_--------------------------------------------------------------------------------------------------------------------------------------------------------       
....................       if(Menu==101){ // Menu de Ajuste de Ganancia 
0A5B0:  MOVF   xB6,W
0A5B2:  SUBLW  65
0A5B4:  BTFSS  FD8.2
0A5B6:  BRA    A7C6
....................          if(Ganancia>4)       
0A5B8:  MOVLB  6
0A5BA:  CLRF   x9B
0A5BC:  CLRF   x9A
0A5BE:  CLRF   x99
0A5C0:  MOVLW  81
0A5C2:  MOVWF  x98
0A5C4:  MOVFF  634,69F
0A5C8:  MOVFF  633,69E
0A5CC:  MOVFF  632,69D
0A5D0:  MOVFF  631,69C
0A5D4:  MOVLB  0
0A5D6:  CALL   2046
0A5DA:  BNC   A5EA
....................             Ganancia=1; 
0A5DC:  MOVLB  6
0A5DE:  CLRF   x34
0A5E0:  CLRF   x33
0A5E2:  CLRF   x32
0A5E4:  MOVLW  7F
0A5E6:  MOVWF  x31
....................          else if(Ganancia<1) 
0A5E8:  BRA    A61A
0A5EA:  MOVFF  634,69B
0A5EE:  MOVFF  633,69A
0A5F2:  MOVFF  632,699
0A5F6:  MOVFF  631,698
0A5FA:  MOVLB  6
0A5FC:  CLRF   x9F
0A5FE:  CLRF   x9E
0A600:  CLRF   x9D
0A602:  MOVLW  7F
0A604:  MOVWF  x9C
0A606:  MOVLB  0
0A608:  CALL   2046
0A60C:  BNC   A61A
....................             Ganancia=4; 
0A60E:  MOVLB  6
0A610:  CLRF   x34
0A612:  CLRF   x33
0A614:  CLRF   x32
0A616:  MOVLW  81
0A618:  MOVWF  x31
....................           
....................          if(visual==1){ 
0A61A:  MOVLB  5
0A61C:  BTFSS  xAD.2
0A61E:  BRA    A6AC
....................             glcd_fillScreen(OFF); 
0A620:  MOVLB  6
0A622:  CLRF   xA0
0A624:  MOVLB  0
0A626:  CALL   2BFE
....................             strcpy(Menus.Letra,"P"); 
0A62A:  MOVLW  06
0A62C:  MOVWF  FEA
0A62E:  MOVLW  78
0A630:  MOVWF  FE9
0A632:  MOVFF  FF2,698
0A636:  BCF    FF2.6
0A638:  BCF    FF2.7
0A63A:  MOVLW  00
0A63C:  CALL   1032
0A640:  TBLRD*-
0A642:  TBLRD*+
0A644:  MOVF   FF5,W
0A646:  MOVWF  FEE
0A648:  IORLW  00
0A64A:  BNZ   A642
0A64C:  MOVLB  6
0A64E:  BTFSC  x98.6
0A650:  BSF    FF2.6
0A652:  BTFSC  x98.7
0A654:  BSF    FF2.7
....................             displayMenu(Menus.Letra,0,0,1,2);  
0A656:  MOVLW  06
0A658:  MOVWF  xA1
0A65A:  MOVLW  78
0A65C:  MOVWF  xA0
0A65E:  CLRF   xA2
0A660:  CLRF   xA3
0A662:  MOVLW  01
0A664:  MOVWF  xA4
0A666:  MOVLW  02
0A668:  MOVWF  xA5
0A66A:  MOVLB  0
0A66C:  CALL   3238
....................             displayTemperatura(Ganancia,30,30,0,3);          
0A670:  MOVFF  634,6A7
0A674:  MOVFF  633,6A6
0A678:  MOVFF  632,6A5
0A67C:  MOVFF  631,6A4
0A680:  CALL   3A44
0A684:  MOVFF  02,699
0A688:  MOVFF  01,698
0A68C:  MOVFF  02,69B
0A690:  MOVFF  01,69A
0A694:  MOVLW  1E
0A696:  MOVLB  6
0A698:  MOVWF  x9C
0A69A:  MOVWF  x9D
0A69C:  CLRF   x9E
0A69E:  MOVLW  03
0A6A0:  MOVWF  x9F
0A6A2:  MOVLB  0
0A6A4:  CALL   4B2E
....................             visual=0; 
0A6A8:  MOVLB  5
0A6AA:  BCF    xAD.2
....................          } 
....................        
....................          if(UP){   
0A6AC:  BSF    F92.5
0A6AE:  BTFSC  F80.5
0A6B0:  BRA    A6F0
....................             DelayPuls();Ganancia+=1.0;visual=1;             
0A6B2:  MOVLB  0
0A6B4:  CALL   3E86
0A6B8:  BCF    FD8.1
0A6BA:  MOVFF  634,6A7
0A6BE:  MOVFF  633,6A6
0A6C2:  MOVFF  632,6A5
0A6C6:  MOVFF  631,6A4
0A6CA:  MOVLB  6
0A6CC:  CLRF   xAB
0A6CE:  CLRF   xAA
0A6D0:  CLRF   xA9
0A6D2:  MOVLW  7F
0A6D4:  MOVWF  xA8
0A6D6:  MOVLB  0
0A6D8:  CALL   1530
0A6DC:  MOVFF  03,634
0A6E0:  MOVFF  02,633
0A6E4:  MOVFF  01,632
0A6E8:  MOVFF  00,631
0A6EC:  MOVLB  5
0A6EE:  BSF    xAD.2
....................          } 
....................                 
....................          if(DOWN){   
0A6F0:  BSF    F96.0
0A6F2:  BTFSC  F84.0
0A6F4:  BRA    A734
....................             DelayPuls();Ganancia-=1.0;visual=1;      
0A6F6:  MOVLB  0
0A6F8:  CALL   3E86
0A6FC:  BSF    FD8.1
0A6FE:  MOVFF  634,6A7
0A702:  MOVFF  633,6A6
0A706:  MOVFF  632,6A5
0A70A:  MOVFF  631,6A4
0A70E:  MOVLB  6
0A710:  CLRF   xAB
0A712:  CLRF   xAA
0A714:  CLRF   xA9
0A716:  MOVLW  7F
0A718:  MOVWF  xA8
0A71A:  MOVLB  0
0A71C:  CALL   1530
0A720:  MOVFF  03,634
0A724:  MOVFF  02,633
0A728:  MOVFF  01,632
0A72C:  MOVFF  00,631
0A730:  MOVLB  5
0A732:  BSF    xAD.2
....................          } 
....................                 
....................          if(RIGHT)//Si oprime SET 
0A734:  BSF    F96.1
0A736:  BTFSC  F84.1
0A738:  BRA    A73C
....................             visual=1;           
0A73A:  BSF    xAD.2
....................                    
....................          if(LEFT){ 
0A73C:  BSF    F96.2
0A73E:  BTFSC  F84.2
0A740:  BRA    A7C6
....................             delay_ms(700);Menu=100;glcd_fillscreen(OFF);Opcion=1;visual=1; 
0A742:  MOVLW  04
0A744:  MOVLB  6
0A746:  MOVWF  x98
0A748:  MOVLW  AF
0A74A:  MOVWF  xA1
0A74C:  MOVLB  0
0A74E:  CALL   132E
0A752:  MOVLB  6
0A754:  DECFSZ x98,F
0A756:  BRA    A748
0A758:  MOVLW  64
0A75A:  MOVLB  5
0A75C:  MOVWF  xB6
0A75E:  MOVLB  6
0A760:  CLRF   xA0
0A762:  MOVLB  0
0A764:  CALL   2BFE
0A768:  MOVLW  01
0A76A:  MOVLB  5
0A76C:  MOVWF  xBD
0A76E:  BSF    xAD.2
....................             write_eeprom(14,(int8)Ganancia);delay_ms(20); 
0A770:  MOVFF  634,6A7
0A774:  MOVFF  633,6A6
0A778:  MOVFF  632,6A5
0A77C:  MOVFF  631,6A4
0A780:  MOVLB  0
0A782:  CALL   3A44
0A786:  MOVFF  01,698
0A78A:  CLRF   FAA
0A78C:  MOVLW  0E
0A78E:  MOVWF  FA9
0A790:  MOVFF  698,FA8
0A794:  BCF    FA6.6
0A796:  BCF    FA6.7
0A798:  BSF    FA6.2
0A79A:  MOVF   FF2,W
0A79C:  MOVWF  00
0A79E:  BCF    FF2.6
0A7A0:  BCF    FF2.7
0A7A2:  MOVLB  F
0A7A4:  MOVLW  55
0A7A6:  MOVWF  FA7
0A7A8:  MOVLW  AA
0A7AA:  MOVWF  FA7
0A7AC:  BSF    FA6.1
0A7AE:  BTFSC  FA6.1
0A7B0:  BRA    A7AE
0A7B2:  BCF    FA6.2
0A7B4:  MOVF   00,W
0A7B6:  IORWF  FF2,F
0A7B8:  MOVLW  14
0A7BA:  MOVLB  6
0A7BC:  MOVWF  xA1
0A7BE:  MOVLB  0
0A7C0:  CALL   132E
0A7C4:  MOVLB  5
....................          } 
....................      } 
.................... //_-------------------------------------------------------------------------------------------------------------------------------------------------------- 
....................  
.................... //_--------------------------------------------------------------------------------------------------------------------------------------------------------       
....................       if(Menu==102){ // Menu de Ajuste de Integral    
0A7C6:  MOVF   xB6,W
0A7C8:  SUBLW  66
0A7CA:  BTFSS  FD8.2
0A7CC:  BRA    A9E8
....................          if(Integral>4)       
0A7CE:  MOVLB  6
0A7D0:  CLRF   x9B
0A7D2:  CLRF   x9A
0A7D4:  CLRF   x99
0A7D6:  MOVLW  81
0A7D8:  MOVWF  x98
0A7DA:  MOVFF  5F4,69F
0A7DE:  MOVFF  5F3,69E
0A7E2:  MOVFF  5F2,69D
0A7E6:  MOVFF  5F1,69C
0A7EA:  MOVLB  0
0A7EC:  CALL   2046
0A7F0:  BNC   A800
....................             Integral=1; 
0A7F2:  MOVLB  5
0A7F4:  CLRF   xF4
0A7F6:  CLRF   xF3
0A7F8:  CLRF   xF2
0A7FA:  MOVLW  7F
0A7FC:  MOVWF  xF1
....................          else if(Integral<1) 
0A7FE:  BRA    A830
0A800:  MOVFF  5F4,69B
0A804:  MOVFF  5F3,69A
0A808:  MOVFF  5F2,699
0A80C:  MOVFF  5F1,698
0A810:  MOVLB  6
0A812:  CLRF   x9F
0A814:  CLRF   x9E
0A816:  CLRF   x9D
0A818:  MOVLW  7F
0A81A:  MOVWF  x9C
0A81C:  MOVLB  0
0A81E:  CALL   2046
0A822:  BNC   A830
....................             Integral=4; 
0A824:  MOVLB  5
0A826:  CLRF   xF4
0A828:  CLRF   xF3
0A82A:  CLRF   xF2
0A82C:  MOVLW  81
0A82E:  MOVWF  xF1
....................        
....................          if(visual==1){ 
0A830:  MOVLB  5
0A832:  BTFSS  xAD.2
0A834:  BRA    A8C2
....................             glcd_fillScreen(OFF); 
0A836:  MOVLB  6
0A838:  CLRF   xA0
0A83A:  MOVLB  0
0A83C:  CALL   2BFE
....................             strcpy(Menus.Letra,"I"); 
0A840:  MOVLW  06
0A842:  MOVWF  FEA
0A844:  MOVLW  78
0A846:  MOVWF  FE9
0A848:  MOVFF  FF2,698
0A84C:  BCF    FF2.6
0A84E:  BCF    FF2.7
0A850:  MOVLW  00
0A852:  CALL   1058
0A856:  TBLRD*-
0A858:  TBLRD*+
0A85A:  MOVF   FF5,W
0A85C:  MOVWF  FEE
0A85E:  IORLW  00
0A860:  BNZ   A858
0A862:  MOVLB  6
0A864:  BTFSC  x98.6
0A866:  BSF    FF2.6
0A868:  BTFSC  x98.7
0A86A:  BSF    FF2.7
....................             displayMenu(Menus.Letra,0,0,1,2); 
0A86C:  MOVLW  06
0A86E:  MOVWF  xA1
0A870:  MOVLW  78
0A872:  MOVWF  xA0
0A874:  CLRF   xA2
0A876:  CLRF   xA3
0A878:  MOVLW  01
0A87A:  MOVWF  xA4
0A87C:  MOVLW  02
0A87E:  MOVWF  xA5
0A880:  MOVLB  0
0A882:  CALL   3238
....................             displayTemperatura(Integral,30,30,0,3);  
0A886:  MOVFF  5F4,6A7
0A88A:  MOVFF  5F3,6A6
0A88E:  MOVFF  5F2,6A5
0A892:  MOVFF  5F1,6A4
0A896:  CALL   3A44
0A89A:  MOVFF  02,699
0A89E:  MOVFF  01,698
0A8A2:  MOVFF  02,69B
0A8A6:  MOVFF  01,69A
0A8AA:  MOVLW  1E
0A8AC:  MOVLB  6
0A8AE:  MOVWF  x9C
0A8B0:  MOVWF  x9D
0A8B2:  CLRF   x9E
0A8B4:  MOVLW  03
0A8B6:  MOVWF  x9F
0A8B8:  MOVLB  0
0A8BA:  CALL   4B2E
....................             visual=0; 
0A8BE:  MOVLB  5
0A8C0:  BCF    xAD.2
....................          } 
....................        
....................          if(UP){   
0A8C2:  BSF    F92.5
0A8C4:  BTFSC  F80.5
0A8C6:  BRA    A906
....................             DelayPuls();Integral+=1.0;visual=1;  
0A8C8:  MOVLB  0
0A8CA:  CALL   3E86
0A8CE:  BCF    FD8.1
0A8D0:  MOVFF  5F4,6A7
0A8D4:  MOVFF  5F3,6A6
0A8D8:  MOVFF  5F2,6A5
0A8DC:  MOVFF  5F1,6A4
0A8E0:  MOVLB  6
0A8E2:  CLRF   xAB
0A8E4:  CLRF   xAA
0A8E6:  CLRF   xA9
0A8E8:  MOVLW  7F
0A8EA:  MOVWF  xA8
0A8EC:  MOVLB  0
0A8EE:  CALL   1530
0A8F2:  MOVFF  03,5F4
0A8F6:  MOVFF  02,5F3
0A8FA:  MOVFF  01,5F2
0A8FE:  MOVFF  00,5F1
0A902:  MOVLB  5
0A904:  BSF    xAD.2
....................          } 
....................                 
....................          if(DOWN){               
0A906:  BSF    F96.0
0A908:  BTFSC  F84.0
0A90A:  BRA    A94A
....................             DelayPuls();Integral-=1.0;visual=1;      
0A90C:  MOVLB  0
0A90E:  CALL   3E86
0A912:  BSF    FD8.1
0A914:  MOVFF  5F4,6A7
0A918:  MOVFF  5F3,6A6
0A91C:  MOVFF  5F2,6A5
0A920:  MOVFF  5F1,6A4
0A924:  MOVLB  6
0A926:  CLRF   xAB
0A928:  CLRF   xAA
0A92A:  CLRF   xA9
0A92C:  MOVLW  7F
0A92E:  MOVWF  xA8
0A930:  MOVLB  0
0A932:  CALL   1530
0A936:  MOVFF  03,5F4
0A93A:  MOVFF  02,5F3
0A93E:  MOVFF  01,5F2
0A942:  MOVFF  00,5F1
0A946:  MOVLB  5
0A948:  BSF    xAD.2
....................          } 
....................                 
....................          if(RIGHT)//Si oprime SET 
0A94A:  BSF    F96.1
0A94C:  BTFSC  F84.1
0A94E:  BRA    A952
....................             visual=1;  
0A950:  BSF    xAD.2
....................                    
....................          if(LEFT){ 
0A952:  BSF    F96.2
0A954:  BTFSC  F84.2
0A956:  BRA    A9E8
....................             delay_ms(10); 
0A958:  MOVLW  0A
0A95A:  MOVLB  6
0A95C:  MOVWF  xA1
0A95E:  MOVLB  0
0A960:  CALL   132E
....................             delay_ms(700);Menu=100;glcd_fillscreen(OFF);Opcion=1;visual=1; 
0A964:  MOVLW  04
0A966:  MOVLB  6
0A968:  MOVWF  x98
0A96A:  MOVLW  AF
0A96C:  MOVWF  xA1
0A96E:  MOVLB  0
0A970:  CALL   132E
0A974:  MOVLB  6
0A976:  DECFSZ x98,F
0A978:  BRA    A96A
0A97A:  MOVLW  64
0A97C:  MOVLB  5
0A97E:  MOVWF  xB6
0A980:  MOVLB  6
0A982:  CLRF   xA0
0A984:  MOVLB  0
0A986:  CALL   2BFE
0A98A:  MOVLW  01
0A98C:  MOVLB  5
0A98E:  MOVWF  xBD
0A990:  BSF    xAD.2
....................             write_eeprom(15,(int8)Integral);delay_ms(20); 
0A992:  MOVFF  5F4,6A7
0A996:  MOVFF  5F3,6A6
0A99A:  MOVFF  5F2,6A5
0A99E:  MOVFF  5F1,6A4
0A9A2:  MOVLB  0
0A9A4:  CALL   3A44
0A9A8:  MOVFF  01,698
0A9AC:  CLRF   FAA
0A9AE:  MOVLW  0F
0A9B0:  MOVWF  FA9
0A9B2:  MOVFF  698,FA8
0A9B6:  BCF    FA6.6
0A9B8:  BCF    FA6.7
0A9BA:  BSF    FA6.2
0A9BC:  MOVF   FF2,W
0A9BE:  MOVWF  00
0A9C0:  BCF    FF2.6
0A9C2:  BCF    FF2.7
0A9C4:  MOVLB  F
0A9C6:  MOVLW  55
0A9C8:  MOVWF  FA7
0A9CA:  MOVLW  AA
0A9CC:  MOVWF  FA7
0A9CE:  BSF    FA6.1
0A9D0:  BTFSC  FA6.1
0A9D2:  BRA    A9D0
0A9D4:  BCF    FA6.2
0A9D6:  MOVF   00,W
0A9D8:  IORWF  FF2,F
0A9DA:  MOVLW  14
0A9DC:  MOVLB  6
0A9DE:  MOVWF  xA1
0A9E0:  MOVLB  0
0A9E2:  CALL   132E
0A9E6:  MOVLB  5
....................          } 
....................      } 
.................... //_-------------------------------------------------------------------------------------------------------------------------------------------------------- 
....................  
.................... //_--------------------------------------------------------------------------------------------------------------------------------------------------------       
....................       if(Menu==103){ // Menu de Ajuste de Derivativo 
0A9E8:  MOVF   xB6,W
0A9EA:  SUBLW  67
0A9EC:  BTFSS  FD8.2
0A9EE:  BRA    AC1C
....................        
....................          if(Derivativo>40) 
0A9F0:  MOVLB  6
0A9F2:  CLRF   x9B
0A9F4:  CLRF   x9A
0A9F6:  MOVLW  20
0A9F8:  MOVWF  x99
0A9FA:  MOVLW  84
0A9FC:  MOVWF  x98
0A9FE:  MOVFF  5F8,69F
0AA02:  MOVFF  5F7,69E
0AA06:  MOVFF  5F6,69D
0AA0A:  MOVFF  5F5,69C
0AA0E:  MOVLB  0
0AA10:  CALL   2046
0AA14:  BNC   AA26
....................             Derivativo=10; 
0AA16:  MOVLB  5
0AA18:  CLRF   xF8
0AA1A:  CLRF   xF7
0AA1C:  MOVLW  20
0AA1E:  MOVWF  xF6
0AA20:  MOVLW  82
0AA22:  MOVWF  xF5
....................          else if(Derivativo<10) 
0AA24:  BRA    AA5A
0AA26:  MOVFF  5F8,69B
0AA2A:  MOVFF  5F7,69A
0AA2E:  MOVFF  5F6,699
0AA32:  MOVFF  5F5,698
0AA36:  MOVLB  6
0AA38:  CLRF   x9F
0AA3A:  CLRF   x9E
0AA3C:  MOVLW  20
0AA3E:  MOVWF  x9D
0AA40:  MOVLW  82
0AA42:  MOVWF  x9C
0AA44:  MOVLB  0
0AA46:  CALL   2046
0AA4A:  BNC   AA5A
....................             Derivativo=40; 
0AA4C:  MOVLB  5
0AA4E:  CLRF   xF8
0AA50:  CLRF   xF7
0AA52:  MOVLW  20
0AA54:  MOVWF  xF6
0AA56:  MOVLW  84
0AA58:  MOVWF  xF5
....................        
....................          if(visual==1){ 
0AA5A:  MOVLB  5
0AA5C:  BTFSS  xAD.2
0AA5E:  BRA    AAEC
....................             glcd_fillScreen(OFF); 
0AA60:  MOVLB  6
0AA62:  CLRF   xA0
0AA64:  MOVLB  0
0AA66:  CALL   2BFE
....................             strcpy(Menus.Letra,"D"); 
0AA6A:  MOVLW  06
0AA6C:  MOVWF  FEA
0AA6E:  MOVLW  78
0AA70:  MOVWF  FE9
0AA72:  MOVFF  FF2,698
0AA76:  BCF    FF2.6
0AA78:  BCF    FF2.7
0AA7A:  MOVLW  00
0AA7C:  CALL   107E
0AA80:  TBLRD*-
0AA82:  TBLRD*+
0AA84:  MOVF   FF5,W
0AA86:  MOVWF  FEE
0AA88:  IORLW  00
0AA8A:  BNZ   AA82
0AA8C:  MOVLB  6
0AA8E:  BTFSC  x98.6
0AA90:  BSF    FF2.6
0AA92:  BTFSC  x98.7
0AA94:  BSF    FF2.7
....................             displayMenu(Menus.Letra,0,0,1,2);          
0AA96:  MOVLW  06
0AA98:  MOVWF  xA1
0AA9A:  MOVLW  78
0AA9C:  MOVWF  xA0
0AA9E:  CLRF   xA2
0AAA0:  CLRF   xA3
0AAA2:  MOVLW  01
0AAA4:  MOVWF  xA4
0AAA6:  MOVLW  02
0AAA8:  MOVWF  xA5
0AAAA:  MOVLB  0
0AAAC:  CALL   3238
....................             displayTemperatura(Derivativo,30,30,0,3); 
0AAB0:  MOVFF  5F8,6A7
0AAB4:  MOVFF  5F7,6A6
0AAB8:  MOVFF  5F6,6A5
0AABC:  MOVFF  5F5,6A4
0AAC0:  CALL   3A44
0AAC4:  MOVFF  02,699
0AAC8:  MOVFF  01,698
0AACC:  MOVFF  02,69B
0AAD0:  MOVFF  01,69A
0AAD4:  MOVLW  1E
0AAD6:  MOVLB  6
0AAD8:  MOVWF  x9C
0AADA:  MOVWF  x9D
0AADC:  CLRF   x9E
0AADE:  MOVLW  03
0AAE0:  MOVWF  x9F
0AAE2:  MOVLB  0
0AAE4:  CALL   4B2E
....................             visual=0; 
0AAE8:  MOVLB  5
0AAEA:  BCF    xAD.2
....................          } 
....................        
....................          if(UP){   
0AAEC:  BSF    F92.5
0AAEE:  BTFSC  F80.5
0AAF0:  BRA    AB3A
....................             delay_ms(10); 
0AAF2:  MOVLW  0A
0AAF4:  MOVLB  6
0AAF6:  MOVWF  xA1
0AAF8:  MOVLB  0
0AAFA:  CALL   132E
....................             DelayPuls();Derivativo+=1.0;visual=1; 
0AAFE:  CALL   3E86
0AB02:  BCF    FD8.1
0AB04:  MOVFF  5F8,6A7
0AB08:  MOVFF  5F7,6A6
0AB0C:  MOVFF  5F6,6A5
0AB10:  MOVFF  5F5,6A4
0AB14:  MOVLB  6
0AB16:  CLRF   xAB
0AB18:  CLRF   xAA
0AB1A:  CLRF   xA9
0AB1C:  MOVLW  7F
0AB1E:  MOVWF  xA8
0AB20:  MOVLB  0
0AB22:  CALL   1530
0AB26:  MOVFF  03,5F8
0AB2A:  MOVFF  02,5F7
0AB2E:  MOVFF  01,5F6
0AB32:  MOVFF  00,5F5
0AB36:  MOVLB  5
0AB38:  BSF    xAD.2
....................          } 
....................                 
....................          if(DOWN){   
0AB3A:  BSF    F96.0
0AB3C:  BTFSC  F84.0
0AB3E:  BRA    AB7E
....................             DelayPuls();Derivativo-=1.0;visual=1;      
0AB40:  MOVLB  0
0AB42:  CALL   3E86
0AB46:  BSF    FD8.1
0AB48:  MOVFF  5F8,6A7
0AB4C:  MOVFF  5F7,6A6
0AB50:  MOVFF  5F6,6A5
0AB54:  MOVFF  5F5,6A4
0AB58:  MOVLB  6
0AB5A:  CLRF   xAB
0AB5C:  CLRF   xAA
0AB5E:  CLRF   xA9
0AB60:  MOVLW  7F
0AB62:  MOVWF  xA8
0AB64:  MOVLB  0
0AB66:  CALL   1530
0AB6A:  MOVFF  03,5F8
0AB6E:  MOVFF  02,5F7
0AB72:  MOVFF  01,5F6
0AB76:  MOVFF  00,5F5
0AB7A:  MOVLB  5
0AB7C:  BSF    xAD.2
....................          } 
....................                 
....................          if(RIGHT)//Si oprime SET 
0AB7E:  BSF    F96.1
0AB80:  BTFSC  F84.1
0AB82:  BRA    AB86
....................             visual=1;  
0AB84:  BSF    xAD.2
....................                    
....................          if(LEFT){ 
0AB86:  BSF    F96.2
0AB88:  BTFSC  F84.2
0AB8A:  BRA    AC1C
....................             delay_ms(10); 
0AB8C:  MOVLW  0A
0AB8E:  MOVLB  6
0AB90:  MOVWF  xA1
0AB92:  MOVLB  0
0AB94:  CALL   132E
....................             delay_ms(700);Menu=100;glcd_fillscreen(OFF);Opcion=1;visual=1; 
0AB98:  MOVLW  04
0AB9A:  MOVLB  6
0AB9C:  MOVWF  x98
0AB9E:  MOVLW  AF
0ABA0:  MOVWF  xA1
0ABA2:  MOVLB  0
0ABA4:  CALL   132E
0ABA8:  MOVLB  6
0ABAA:  DECFSZ x98,F
0ABAC:  BRA    AB9E
0ABAE:  MOVLW  64
0ABB0:  MOVLB  5
0ABB2:  MOVWF  xB6
0ABB4:  MOVLB  6
0ABB6:  CLRF   xA0
0ABB8:  MOVLB  0
0ABBA:  CALL   2BFE
0ABBE:  MOVLW  01
0ABC0:  MOVLB  5
0ABC2:  MOVWF  xBD
0ABC4:  BSF    xAD.2
....................             write_eeprom(16,(int8)Derivativo);delay_ms(20); 
0ABC6:  MOVFF  5F8,6A7
0ABCA:  MOVFF  5F7,6A6
0ABCE:  MOVFF  5F6,6A5
0ABD2:  MOVFF  5F5,6A4
0ABD6:  MOVLB  0
0ABD8:  CALL   3A44
0ABDC:  MOVFF  01,698
0ABE0:  CLRF   FAA
0ABE2:  MOVLW  10
0ABE4:  MOVWF  FA9
0ABE6:  MOVFF  698,FA8
0ABEA:  BCF    FA6.6
0ABEC:  BCF    FA6.7
0ABEE:  BSF    FA6.2
0ABF0:  MOVF   FF2,W
0ABF2:  MOVWF  00
0ABF4:  BCF    FF2.6
0ABF6:  BCF    FF2.7
0ABF8:  MOVLB  F
0ABFA:  MOVLW  55
0ABFC:  MOVWF  FA7
0ABFE:  MOVLW  AA
0AC00:  MOVWF  FA7
0AC02:  BSF    FA6.1
0AC04:  BTFSC  FA6.1
0AC06:  BRA    AC04
0AC08:  BCF    FA6.2
0AC0A:  MOVF   00,W
0AC0C:  IORWF  FF2,F
0AC0E:  MOVLW  14
0AC10:  MOVLB  6
0AC12:  MOVWF  xA1
0AC14:  MOVLB  0
0AC16:  CALL   132E
0AC1A:  MOVLB  5
....................          } 
....................      } 
.................... //_-------------------------------------------------------------------------------------------------------------------------------------------------------- 
....................  
.................... //_--------------------------------------------------------------------------------------------------------------------------------------------------------       
....................       if(Menu==104){ // Menu de Tiempo de Ciclo 
0AC1C:  MOVF   xB6,W
0AC1E:  SUBLW  68
0AC20:  BTFSS  FD8.2
0AC22:  BRA    AE3A
....................        
....................          if(Tciclo>10) 
0AC24:  MOVLB  6
0AC26:  CLRF   x9B
0AC28:  CLRF   x9A
0AC2A:  MOVLW  20
0AC2C:  MOVWF  x99
0AC2E:  MOVLW  82
0AC30:  MOVWF  x98
0AC32:  MOVFF  61C,69F
0AC36:  MOVFF  61B,69E
0AC3A:  MOVFF  61A,69D
0AC3E:  MOVFF  619,69C
0AC42:  MOVLB  0
0AC44:  CALL   2046
0AC48:  BNC   AC5A
....................             Tciclo=5; 
0AC4A:  MOVLB  6
0AC4C:  CLRF   x1C
0AC4E:  CLRF   x1B
0AC50:  MOVLW  20
0AC52:  MOVWF  x1A
0AC54:  MOVLW  81
0AC56:  MOVWF  x19
....................          else if(Tciclo<5) 
0AC58:  BRA    AC8E
0AC5A:  MOVFF  61C,69B
0AC5E:  MOVFF  61B,69A
0AC62:  MOVFF  61A,699
0AC66:  MOVFF  619,698
0AC6A:  MOVLB  6
0AC6C:  CLRF   x9F
0AC6E:  CLRF   x9E
0AC70:  MOVLW  20
0AC72:  MOVWF  x9D
0AC74:  MOVLW  81
0AC76:  MOVWF  x9C
0AC78:  MOVLB  0
0AC7A:  CALL   2046
0AC7E:  BNC   AC8E
....................             Tciclo=10; 
0AC80:  MOVLB  6
0AC82:  CLRF   x1C
0AC84:  CLRF   x1B
0AC86:  MOVLW  20
0AC88:  MOVWF  x1A
0AC8A:  MOVLW  82
0AC8C:  MOVWF  x19
....................        
....................          if(visual==1){ 
0AC8E:  MOVLB  5
0AC90:  BTFSS  xAD.2
0AC92:  BRA    AD20
....................             glcd_fillScreen(OFF); 
0AC94:  MOVLB  6
0AC96:  CLRF   xA0
0AC98:  MOVLB  0
0AC9A:  CALL   2BFE
....................             strcpy(Menus.Letra,"Tciclo"); 
0AC9E:  MOVLW  06
0ACA0:  MOVWF  FEA
0ACA2:  MOVLW  78
0ACA4:  MOVWF  FE9
0ACA6:  MOVFF  FF2,698
0ACAA:  BCF    FF2.6
0ACAC:  BCF    FF2.7
0ACAE:  MOVLW  00
0ACB0:  CALL   0F16
0ACB4:  TBLRD*-
0ACB6:  TBLRD*+
0ACB8:  MOVF   FF5,W
0ACBA:  MOVWF  FEE
0ACBC:  IORLW  00
0ACBE:  BNZ   ACB6
0ACC0:  MOVLB  6
0ACC2:  BTFSC  x98.6
0ACC4:  BSF    FF2.6
0ACC6:  BTFSC  x98.7
0ACC8:  BSF    FF2.7
....................             displayMenu(Menus.Letra,0,0,1,2);          
0ACCA:  MOVLW  06
0ACCC:  MOVWF  xA1
0ACCE:  MOVLW  78
0ACD0:  MOVWF  xA0
0ACD2:  CLRF   xA2
0ACD4:  CLRF   xA3
0ACD6:  MOVLW  01
0ACD8:  MOVWF  xA4
0ACDA:  MOVLW  02
0ACDC:  MOVWF  xA5
0ACDE:  MOVLB  0
0ACE0:  CALL   3238
....................             displayTemperatura(Tciclo,30,30,0,3); 
0ACE4:  MOVFF  61C,6A7
0ACE8:  MOVFF  61B,6A6
0ACEC:  MOVFF  61A,6A5
0ACF0:  MOVFF  619,6A4
0ACF4:  CALL   3A44
0ACF8:  MOVFF  02,699
0ACFC:  MOVFF  01,698
0AD00:  MOVFF  02,69B
0AD04:  MOVFF  01,69A
0AD08:  MOVLW  1E
0AD0A:  MOVLB  6
0AD0C:  MOVWF  x9C
0AD0E:  MOVWF  x9D
0AD10:  CLRF   x9E
0AD12:  MOVLW  03
0AD14:  MOVWF  x9F
0AD16:  MOVLB  0
0AD18:  CALL   4B2E
....................             visual=0; 
0AD1C:  MOVLB  5
0AD1E:  BCF    xAD.2
....................          } 
....................        
....................          if(UP){   
0AD20:  BSF    F92.5
0AD22:  BTFSC  F80.5
0AD24:  BRA    AD64
....................             DelayPuls();Tciclo+=1.0;visual=1; 
0AD26:  MOVLB  0
0AD28:  CALL   3E86
0AD2C:  BCF    FD8.1
0AD2E:  MOVFF  61C,6A7
0AD32:  MOVFF  61B,6A6
0AD36:  MOVFF  61A,6A5
0AD3A:  MOVFF  619,6A4
0AD3E:  MOVLB  6
0AD40:  CLRF   xAB
0AD42:  CLRF   xAA
0AD44:  CLRF   xA9
0AD46:  MOVLW  7F
0AD48:  MOVWF  xA8
0AD4A:  MOVLB  0
0AD4C:  CALL   1530
0AD50:  MOVFF  03,61C
0AD54:  MOVFF  02,61B
0AD58:  MOVFF  01,61A
0AD5C:  MOVFF  00,619
0AD60:  MOVLB  5
0AD62:  BSF    xAD.2
....................          } 
....................                 
....................          if(DOWN){   
0AD64:  BSF    F96.0
0AD66:  BTFSC  F84.0
0AD68:  BRA    ADA8
....................             DelayPuls();Tciclo-=1.0;visual=1;      
0AD6A:  MOVLB  0
0AD6C:  CALL   3E86
0AD70:  BSF    FD8.1
0AD72:  MOVFF  61C,6A7
0AD76:  MOVFF  61B,6A6
0AD7A:  MOVFF  61A,6A5
0AD7E:  MOVFF  619,6A4
0AD82:  MOVLB  6
0AD84:  CLRF   xAB
0AD86:  CLRF   xAA
0AD88:  CLRF   xA9
0AD8A:  MOVLW  7F
0AD8C:  MOVWF  xA8
0AD8E:  MOVLB  0
0AD90:  CALL   1530
0AD94:  MOVFF  03,61C
0AD98:  MOVFF  02,61B
0AD9C:  MOVFF  01,61A
0ADA0:  MOVFF  00,619
0ADA4:  MOVLB  5
0ADA6:  BSF    xAD.2
....................          } 
....................                 
....................          if(RIGHT) 
0ADA8:  BSF    F96.1
0ADAA:  BTFSC  F84.1
0ADAC:  BRA    ADB0
....................             visual=1;  
0ADAE:  BSF    xAD.2
....................                    
....................          if(LEFT){ 
0ADB0:  BSF    F96.2
0ADB2:  BTFSC  F84.2
0ADB4:  BRA    AE3A
....................             delay_ms(10); 
0ADB6:  MOVLW  0A
0ADB8:  MOVLB  6
0ADBA:  MOVWF  xA1
0ADBC:  MOVLB  0
0ADBE:  CALL   132E
....................             delay_ms(700);Menu=100;glcd_fillscreen(OFF);Opcion=1;visual=1; 
0ADC2:  MOVLW  04
0ADC4:  MOVLB  6
0ADC6:  MOVWF  x98
0ADC8:  MOVLW  AF
0ADCA:  MOVWF  xA1
0ADCC:  MOVLB  0
0ADCE:  CALL   132E
0ADD2:  MOVLB  6
0ADD4:  DECFSZ x98,F
0ADD6:  BRA    ADC8
0ADD8:  MOVLW  64
0ADDA:  MOVLB  5
0ADDC:  MOVWF  xB6
0ADDE:  MOVLB  6
0ADE0:  CLRF   xA0
0ADE2:  MOVLB  0
0ADE4:  CALL   2BFE
0ADE8:  MOVLW  01
0ADEA:  MOVLB  5
0ADEC:  MOVWF  xBD
0ADEE:  BSF    xAD.2
....................             write_eeprom(17,(int8)Tciclo); 
0ADF0:  MOVFF  61C,6A7
0ADF4:  MOVFF  61B,6A6
0ADF8:  MOVFF  61A,6A5
0ADFC:  MOVFF  619,6A4
0AE00:  MOVLB  0
0AE02:  CALL   3A44
0AE06:  MOVFF  01,698
0AE0A:  CLRF   FAA
0AE0C:  MOVLW  11
0AE0E:  MOVWF  FA9
0AE10:  MOVFF  698,FA8
0AE14:  BCF    FA6.6
0AE16:  BCF    FA6.7
0AE18:  BSF    FA6.2
0AE1A:  MOVF   FF2,W
0AE1C:  MOVWF  00
0AE1E:  BCF    FF2.6
0AE20:  BCF    FF2.7
0AE22:  MOVLB  F
0AE24:  MOVLW  55
0AE26:  MOVWF  FA7
0AE28:  MOVLW  AA
0AE2A:  MOVWF  FA7
0AE2C:  BSF    FA6.1
0AE2E:  BTFSC  FA6.1
0AE30:  BRA    AE2E
0AE32:  BCF    FA6.2
0AE34:  MOVF   00,W
0AE36:  IORWF  FF2,F
0AE38:  MOVLB  5
....................          } 
....................      } 
.................... //_-------------------------------------------------------------------------------------------------------------------------------------------------------- 
....................  
.................... //_--------------------------------------------------------------------------------------------------------------------------------------------------------       
....................       if(Menu==105){ // Menu de Ajuste de Ajuste+ 
0AE3A:  MOVF   xB6,W
0AE3C:  SUBLW  69
0AE3E:  BTFSS  FD8.2
0AE40:  BRA    AF68
....................        
....................          if(Ajuste>100) 
0AE42:  MOVF   xA3,W
0AE44:  SUBLW  64
0AE46:  BC    AE4A
....................             Ajuste=0; 
0AE48:  CLRF   xA3
....................        
....................          if(visual==1) 
0AE4A:  BTFSS  xAD.2
0AE4C:  BRA    AEBC
....................          { 
....................             glcd_fillScreen(OFF); 
0AE4E:  MOVLB  6
0AE50:  CLRF   xA0
0AE52:  MOVLB  0
0AE54:  CALL   2BFE
....................             strcpy(Menus.Letra,"Ajuste"); 
0AE58:  MOVLW  06
0AE5A:  MOVWF  FEA
0AE5C:  MOVLW  78
0AE5E:  MOVWF  FE9
0AE60:  MOVFF  FF2,698
0AE64:  BCF    FF2.6
0AE66:  BCF    FF2.7
0AE68:  MOVLW  00
0AE6A:  CALL   10A4
0AE6E:  TBLRD*-
0AE70:  TBLRD*+
0AE72:  MOVF   FF5,W
0AE74:  MOVWF  FEE
0AE76:  IORLW  00
0AE78:  BNZ   AE70
0AE7A:  MOVLB  6
0AE7C:  BTFSC  x98.6
0AE7E:  BSF    FF2.6
0AE80:  BTFSC  x98.7
0AE82:  BSF    FF2.7
....................             displayMenu(Menus.Letra,0,0,1,2);       
0AE84:  MOVLW  06
0AE86:  MOVWF  xA1
0AE88:  MOVLW  78
0AE8A:  MOVWF  xA0
0AE8C:  CLRF   xA2
0AE8E:  CLRF   xA3
0AE90:  MOVLW  01
0AE92:  MOVWF  xA4
0AE94:  MOVLW  02
0AE96:  MOVWF  xA5
0AE98:  MOVLB  0
0AE9A:  CALL   3238
....................             displayTemperatura(Ajuste,30,30,0,3); 
0AE9E:  MOVLB  6
0AEA0:  CLRF   x9B
0AEA2:  MOVFF  5A3,69A
0AEA6:  MOVLW  1E
0AEA8:  MOVWF  x9C
0AEAA:  MOVWF  x9D
0AEAC:  CLRF   x9E
0AEAE:  MOVLW  03
0AEB0:  MOVWF  x9F
0AEB2:  MOVLB  0
0AEB4:  CALL   4B2E
....................             visual=0; 
0AEB8:  MOVLB  5
0AEBA:  BCF    xAD.2
....................          } 
....................        
....................          if(UP){   
0AEBC:  BSF    F92.5
0AEBE:  BTFSC  F80.5
0AEC0:  BRA    AECE
....................             DelayPuls();Ajuste++;visual=1; 
0AEC2:  MOVLB  0
0AEC4:  CALL   3E86
0AEC8:  MOVLB  5
0AECA:  INCF   xA3,F
0AECC:  BSF    xAD.2
....................          } 
....................                 
....................          if(DOWN)//Si oprime hacia abajo 
0AECE:  BSF    F96.0
0AED0:  BTFSC  F84.0
0AED2:  BRA    AEE4
....................          {   
....................             if(Ajuste>0){ 
0AED4:  MOVF   xA3,F
0AED6:  BZ    AEE4
....................                DelayPuls();Ajuste--;visual=1;      
0AED8:  MOVLB  0
0AEDA:  CALL   3E86
0AEDE:  MOVLB  5
0AEE0:  DECF   xA3,F
0AEE2:  BSF    xAD.2
....................             } 
....................          } 
....................                 
....................          if(RIGHT) 
0AEE4:  BSF    F96.1
0AEE6:  BTFSC  F84.1
0AEE8:  BRA    AEEC
....................             visual=1; 
0AEEA:  BSF    xAD.2
....................                    
....................          if(LEFT){ 
0AEEC:  BSF    F96.2
0AEEE:  BTFSC  F84.2
0AEF0:  BRA    AF68
....................             delay_ms(10); 
0AEF2:  MOVLW  0A
0AEF4:  MOVLB  6
0AEF6:  MOVWF  xA1
0AEF8:  MOVLB  0
0AEFA:  CALL   132E
....................             delay_ms(700);Menu=100;glcd_fillscreen(OFF);Opcion=1;visual=1; 
0AEFE:  MOVLW  04
0AF00:  MOVLB  6
0AF02:  MOVWF  x98
0AF04:  MOVLW  AF
0AF06:  MOVWF  xA1
0AF08:  MOVLB  0
0AF0A:  CALL   132E
0AF0E:  MOVLB  6
0AF10:  DECFSZ x98,F
0AF12:  BRA    AF04
0AF14:  MOVLW  64
0AF16:  MOVLB  5
0AF18:  MOVWF  xB6
0AF1A:  MOVLB  6
0AF1C:  CLRF   xA0
0AF1E:  MOVLB  0
0AF20:  CALL   2BFE
0AF24:  MOVLW  01
0AF26:  MOVLB  5
0AF28:  MOVWF  xBD
0AF2A:  BSF    xAD.2
....................             write_eeprom(18,Ajuste);delay_ms(20); 
0AF2C:  CLRF   FAA
0AF2E:  MOVLW  12
0AF30:  MOVWF  FA9
0AF32:  MOVFF  5A3,FA8
0AF36:  BCF    FA6.6
0AF38:  BCF    FA6.7
0AF3A:  BSF    FA6.2
0AF3C:  MOVF   FF2,W
0AF3E:  MOVWF  00
0AF40:  BCF    FF2.6
0AF42:  BCF    FF2.7
0AF44:  MOVLB  F
0AF46:  MOVLW  55
0AF48:  MOVWF  FA7
0AF4A:  MOVLW  AA
0AF4C:  MOVWF  FA7
0AF4E:  BSF    FA6.1
0AF50:  BTFSC  FA6.1
0AF52:  BRA    AF50
0AF54:  BCF    FA6.2
0AF56:  MOVF   00,W
0AF58:  IORWF  FF2,F
0AF5A:  MOVLW  14
0AF5C:  MOVLB  6
0AF5E:  MOVWF  xA1
0AF60:  MOVLB  0
0AF62:  CALL   132E
0AF66:  MOVLB  5
....................          } 
....................      } 
.................... //_-------------------------------------------------------------------------------------------------------------------------------------------------------- 
....................  
.................... //_--------------------------------------------------------------------------------------------------------------------------------------------------------       
....................       if(Menu==106){ // Menu de Ajuste de Ajuste - 
0AF68:  MOVF   xB6,W
0AF6A:  SUBLW  6A
0AF6C:  BTFSS  FD8.2
0AF6E:  BRA    B096
....................        
....................          if(Ajusten>100) 
0AF70:  MOVF   xA4,W
0AF72:  SUBLW  64
0AF74:  BC    AF78
....................             Ajusten=0; 
0AF76:  CLRF   xA4
....................         
....................          if(visual==1){ 
0AF78:  BTFSS  xAD.2
0AF7A:  BRA    AFEA
....................             glcd_fillScreen(OFF); 
0AF7C:  MOVLB  6
0AF7E:  CLRF   xA0
0AF80:  MOVLB  0
0AF82:  CALL   2BFE
....................             strcpy(Menus.Letra,"Ajusten"); 
0AF86:  MOVLW  06
0AF88:  MOVWF  FEA
0AF8A:  MOVLW  78
0AF8C:  MOVWF  FE9
0AF8E:  MOVFF  FF2,698
0AF92:  BCF    FF2.6
0AF94:  BCF    FF2.7
0AF96:  MOVLW  00
0AF98:  CALL   10D0
0AF9C:  TBLRD*-
0AF9E:  TBLRD*+
0AFA0:  MOVF   FF5,W
0AFA2:  MOVWF  FEE
0AFA4:  IORLW  00
0AFA6:  BNZ   AF9E
0AFA8:  MOVLB  6
0AFAA:  BTFSC  x98.6
0AFAC:  BSF    FF2.6
0AFAE:  BTFSC  x98.7
0AFB0:  BSF    FF2.7
....................             displayMenu(Menus.Letra,0,0,1,2); 
0AFB2:  MOVLW  06
0AFB4:  MOVWF  xA1
0AFB6:  MOVLW  78
0AFB8:  MOVWF  xA0
0AFBA:  CLRF   xA2
0AFBC:  CLRF   xA3
0AFBE:  MOVLW  01
0AFC0:  MOVWF  xA4
0AFC2:  MOVLW  02
0AFC4:  MOVWF  xA5
0AFC6:  MOVLB  0
0AFC8:  CALL   3238
....................             displayTemperatura(Ajusten,30,30,0,3); 
0AFCC:  MOVLB  6
0AFCE:  CLRF   x9B
0AFD0:  MOVFF  5A4,69A
0AFD4:  MOVLW  1E
0AFD6:  MOVWF  x9C
0AFD8:  MOVWF  x9D
0AFDA:  CLRF   x9E
0AFDC:  MOVLW  03
0AFDE:  MOVWF  x9F
0AFE0:  MOVLB  0
0AFE2:  CALL   4B2E
....................             visual=0; 
0AFE6:  MOVLB  5
0AFE8:  BCF    xAD.2
....................          } 
....................        
....................          if(UP){   
0AFEA:  BSF    F92.5
0AFEC:  BTFSC  F80.5
0AFEE:  BRA    AFFC
....................             DelayPuls();Ajusten++;visual=1; 
0AFF0:  MOVLB  0
0AFF2:  CALL   3E86
0AFF6:  MOVLB  5
0AFF8:  INCF   xA4,F
0AFFA:  BSF    xAD.2
....................          } 
....................                 
....................          if(DOWN){   
0AFFC:  BSF    F96.0
0AFFE:  BTFSC  F84.0
0B000:  BRA    B012
....................             if(Ajusten>0){ 
0B002:  MOVF   xA4,F
0B004:  BZ    B012
....................                DelayPuls();Ajusten--;visual=1;      
0B006:  MOVLB  0
0B008:  CALL   3E86
0B00C:  MOVLB  5
0B00E:  DECF   xA4,F
0B010:  BSF    xAD.2
....................             } 
....................          } 
....................                 
....................          if(RIGHT) 
0B012:  BSF    F96.1
0B014:  BTFSC  F84.1
0B016:  BRA    B01A
....................             visual=1; 
0B018:  BSF    xAD.2
....................                    
....................          if(LEFT){ 
0B01A:  BSF    F96.2
0B01C:  BTFSC  F84.2
0B01E:  BRA    B096
....................             delay_ms(10); 
0B020:  MOVLW  0A
0B022:  MOVLB  6
0B024:  MOVWF  xA1
0B026:  MOVLB  0
0B028:  CALL   132E
....................             delay_ms(700);Menu=100;glcd_fillscreen(OFF);Opcion=1;visual=1; 
0B02C:  MOVLW  04
0B02E:  MOVLB  6
0B030:  MOVWF  x98
0B032:  MOVLW  AF
0B034:  MOVWF  xA1
0B036:  MOVLB  0
0B038:  CALL   132E
0B03C:  MOVLB  6
0B03E:  DECFSZ x98,F
0B040:  BRA    B032
0B042:  MOVLW  64
0B044:  MOVLB  5
0B046:  MOVWF  xB6
0B048:  MOVLB  6
0B04A:  CLRF   xA0
0B04C:  MOVLB  0
0B04E:  CALL   2BFE
0B052:  MOVLW  01
0B054:  MOVLB  5
0B056:  MOVWF  xBD
0B058:  BSF    xAD.2
....................             write_eeprom(19,Ajusten);delay_ms(20); 
0B05A:  CLRF   FAA
0B05C:  MOVLW  13
0B05E:  MOVWF  FA9
0B060:  MOVFF  5A4,FA8
0B064:  BCF    FA6.6
0B066:  BCF    FA6.7
0B068:  BSF    FA6.2
0B06A:  MOVF   FF2,W
0B06C:  MOVWF  00
0B06E:  BCF    FF2.6
0B070:  BCF    FF2.7
0B072:  MOVLB  F
0B074:  MOVLW  55
0B076:  MOVWF  FA7
0B078:  MOVLW  AA
0B07A:  MOVWF  FA7
0B07C:  BSF    FA6.1
0B07E:  BTFSC  FA6.1
0B080:  BRA    B07E
0B082:  BCF    FA6.2
0B084:  MOVF   00,W
0B086:  IORWF  FF2,F
0B088:  MOVLW  14
0B08A:  MOVLB  6
0B08C:  MOVWF  xA1
0B08E:  MOVLB  0
0B090:  CALL   132E
0B094:  MOVLB  5
....................          } 
....................      } 
.................... //_-------------------------------------------------------------------------------------------------------------------------------------------------------- 
....................  
.................... //_--------------------------------------------------------------------------------------------------------------------------------------------------------       
....................       if(Menu==107){ // Menu de Ajuste de Media Movil 
0B096:  MOVF   xB6,W
0B098:  SUBLW  6B
0B09A:  BTFSS  FD8.2
0B09C:  BRA    B1CE
....................        
....................          if(MediaMovil>80) 
0B09E:  MOVF   xA5,W
0B0A0:  SUBLW  50
0B0A2:  BC    B0AA
....................             MediaMovil=10; 
0B0A4:  MOVLW  0A
0B0A6:  MOVWF  xA5
....................          else if(MediaMovil<10) 
0B0A8:  BRA    B0B4
0B0AA:  MOVF   xA5,W
0B0AC:  SUBLW  09
0B0AE:  BNC   B0B4
....................             MediaMovil=80; 
0B0B0:  MOVLW  50
0B0B2:  MOVWF  xA5
....................        
....................          if(visual==1){ 
0B0B4:  BTFSS  xAD.2
0B0B6:  BRA    B126
....................             glcd_fillScreen(OFF); 
0B0B8:  MOVLB  6
0B0BA:  CLRF   xA0
0B0BC:  MOVLB  0
0B0BE:  CALL   2BFE
....................             strcpy(Menus.Letra,"Media"); 
0B0C2:  MOVLW  06
0B0C4:  MOVWF  FEA
0B0C6:  MOVLW  78
0B0C8:  MOVWF  FE9
0B0CA:  MOVFF  FF2,698
0B0CE:  BCF    FF2.6
0B0D0:  BCF    FF2.7
0B0D2:  MOVLW  00
0B0D4:  CALL   10FC
0B0D8:  TBLRD*-
0B0DA:  TBLRD*+
0B0DC:  MOVF   FF5,W
0B0DE:  MOVWF  FEE
0B0E0:  IORLW  00
0B0E2:  BNZ   B0DA
0B0E4:  MOVLB  6
0B0E6:  BTFSC  x98.6
0B0E8:  BSF    FF2.6
0B0EA:  BTFSC  x98.7
0B0EC:  BSF    FF2.7
....................             displayMenu(Menus.Letra,0,0,1,2); 
0B0EE:  MOVLW  06
0B0F0:  MOVWF  xA1
0B0F2:  MOVLW  78
0B0F4:  MOVWF  xA0
0B0F6:  CLRF   xA2
0B0F8:  CLRF   xA3
0B0FA:  MOVLW  01
0B0FC:  MOVWF  xA4
0B0FE:  MOVLW  02
0B100:  MOVWF  xA5
0B102:  MOVLB  0
0B104:  CALL   3238
....................             displayTemperatura(MediaMovil,30,30,0,3); 
0B108:  MOVLB  6
0B10A:  CLRF   x9B
0B10C:  MOVFF  5A5,69A
0B110:  MOVLW  1E
0B112:  MOVWF  x9C
0B114:  MOVWF  x9D
0B116:  CLRF   x9E
0B118:  MOVLW  03
0B11A:  MOVWF  x9F
0B11C:  MOVLB  0
0B11E:  CALL   4B2E
....................             visual=0; 
0B122:  MOVLB  5
0B124:  BCF    xAD.2
....................          } 
....................        
....................          if(UP){   
0B126:  BSF    F92.5
0B128:  BTFSC  F80.5
0B12A:  BRA    B138
....................             DelayPuls();MediaMovil++;visual=1; 
0B12C:  MOVLB  0
0B12E:  CALL   3E86
0B132:  MOVLB  5
0B134:  INCF   xA5,F
0B136:  BSF    xAD.2
....................          } 
....................                 
....................          if(DOWN){   
0B138:  BSF    F96.0
0B13A:  BTFSC  F84.0
0B13C:  BRA    B14A
....................             DelayPuls();MediaMovil--;visual=1;      
0B13E:  MOVLB  0
0B140:  CALL   3E86
0B144:  MOVLB  5
0B146:  DECF   xA5,F
0B148:  BSF    xAD.2
....................          } 
....................                 
....................          if(RIGHT) 
0B14A:  BSF    F96.1
0B14C:  BTFSC  F84.1
0B14E:  BRA    B152
....................             visual=1; 
0B150:  BSF    xAD.2
....................                    
....................          if(LEFT){ 
0B152:  BSF    F96.2
0B154:  BTFSC  F84.2
0B156:  BRA    B1CE
....................             delay_ms(10); 
0B158:  MOVLW  0A
0B15A:  MOVLB  6
0B15C:  MOVWF  xA1
0B15E:  MOVLB  0
0B160:  CALL   132E
....................             delay_ms(700);Menu=100;glcd_fillscreen(OFF);Opcion=1;visual=1; 
0B164:  MOVLW  04
0B166:  MOVLB  6
0B168:  MOVWF  x98
0B16A:  MOVLW  AF
0B16C:  MOVWF  xA1
0B16E:  MOVLB  0
0B170:  CALL   132E
0B174:  MOVLB  6
0B176:  DECFSZ x98,F
0B178:  BRA    B16A
0B17A:  MOVLW  64
0B17C:  MOVLB  5
0B17E:  MOVWF  xB6
0B180:  MOVLB  6
0B182:  CLRF   xA0
0B184:  MOVLB  0
0B186:  CALL   2BFE
0B18A:  MOVLW  01
0B18C:  MOVLB  5
0B18E:  MOVWF  xBD
0B190:  BSF    xAD.2
....................             write_eeprom(20,(int8)MediaMovil);delay_ms(20); 
0B192:  CLRF   FAA
0B194:  MOVLW  14
0B196:  MOVWF  FA9
0B198:  MOVFF  5A5,FA8
0B19C:  BCF    FA6.6
0B19E:  BCF    FA6.7
0B1A0:  BSF    FA6.2
0B1A2:  MOVF   FF2,W
0B1A4:  MOVWF  00
0B1A6:  BCF    FF2.6
0B1A8:  BCF    FF2.7
0B1AA:  MOVLB  F
0B1AC:  MOVLW  55
0B1AE:  MOVWF  FA7
0B1B0:  MOVLW  AA
0B1B2:  MOVWF  FA7
0B1B4:  BSF    FA6.1
0B1B6:  BTFSC  FA6.1
0B1B8:  BRA    B1B6
0B1BA:  BCF    FA6.2
0B1BC:  MOVF   00,W
0B1BE:  IORWF  FF2,F
0B1C0:  MOVLW  14
0B1C2:  MOVLB  6
0B1C4:  MOVWF  xA1
0B1C6:  MOVLB  0
0B1C8:  CALL   132E
0B1CC:  MOVLB  5
....................          } 
....................      } 
.................... //_-------------------------------------------------------------------------------------------------------------------------------------------------------- 
....................  
.................... //_--------------------------------------------------------------------------------------------------------------------------------------------------------       
....................       if(Menu==108){ // Menu de Ganancia Instrumentacion 
0B1CE:  MOVF   xB6,W
0B1D0:  SUBLW  6C
0B1D2:  BTFSS  FD8.2
0B1D4:  BRA    B4A6
....................        
....................          if(Gain>110 || Gain<100) 
0B1D6:  MOVLB  6
0B1D8:  CLRF   x9B
0B1DA:  CLRF   x9A
0B1DC:  MOVLW  5C
0B1DE:  MOVWF  x99
0B1E0:  MOVLW  85
0B1E2:  MOVWF  x98
0B1E4:  MOVFF  5EC,69F
0B1E8:  MOVFF  5EB,69E
0B1EC:  MOVFF  5EA,69D
0B1F0:  MOVFF  5E9,69C
0B1F4:  MOVLB  0
0B1F6:  CALL   2046
0B1FA:  BC    B222
0B1FC:  MOVFF  5EC,69B
0B200:  MOVFF  5EB,69A
0B204:  MOVFF  5EA,699
0B208:  MOVFF  5E9,698
0B20C:  MOVLB  6
0B20E:  CLRF   x9F
0B210:  CLRF   x9E
0B212:  MOVLW  48
0B214:  MOVWF  x9D
0B216:  MOVLW  85
0B218:  MOVWF  x9C
0B21A:  MOVLB  0
0B21C:  CALL   2046
0B220:  BNC   B236
....................             Gain=105.9; 
0B222:  MOVLW  CD
0B224:  MOVLB  5
0B226:  MOVWF  xEC
0B228:  MOVLW  CC
0B22A:  MOVWF  xEB
0B22C:  MOVLW  53
0B22E:  MOVWF  xEA
0B230:  MOVLW  85
0B232:  MOVWF  xE9
0B234:  MOVLB  0
....................        
....................          strcpy(Menus.Letra,"Ganancia"); 
0B236:  MOVLW  06
0B238:  MOVWF  FEA
0B23A:  MOVLW  78
0B23C:  MOVWF  FE9
0B23E:  MOVFF  FF2,698
0B242:  BCF    FF2.6
0B244:  BCF    FF2.7
0B246:  MOVLW  00
0B248:  CALL   1126
0B24C:  TBLRD*-
0B24E:  TBLRD*+
0B250:  MOVF   FF5,W
0B252:  MOVWF  FEE
0B254:  IORLW  00
0B256:  BNZ   B24E
0B258:  MOVLB  6
0B25A:  BTFSC  x98.6
0B25C:  BSF    FF2.6
0B25E:  BTFSC  x98.7
0B260:  BSF    FF2.7
....................          displayMenu(Menus.Letra,0,0,1,2); 
0B262:  MOVLW  06
0B264:  MOVWF  xA1
0B266:  MOVLW  78
0B268:  MOVWF  xA0
0B26A:  CLRF   xA2
0B26C:  CLRF   xA3
0B26E:  MOVLW  01
0B270:  MOVWF  xA4
0B272:  MOVLW  02
0B274:  MOVWF  xA5
0B276:  MOVLB  0
0B278:  CALL   3238
....................          displayTT(Gain,30,30,2); 
0B27C:  MOVFF  5EC,69B
0B280:  MOVFF  5EB,69A
0B284:  MOVFF  5EA,699
0B288:  MOVFF  5E9,698
0B28C:  MOVLW  1E
0B28E:  MOVLB  6
0B290:  MOVWF  x9C
0B292:  MOVWF  x9D
0B294:  MOVLW  02
0B296:  MOVWF  x9E
0B298:  MOVLB  0
0B29A:  GOTO   6E4C
....................  
....................          if(UP){   
0B29E:  BSF    F92.5
0B2A0:  BTFSC  F80.5
0B2A2:  BRA    B2E2
....................             DelayPuls(); 
0B2A4:  CALL   3E86
....................             Gain+=0.1; 
0B2A8:  BCF    FD8.1
0B2AA:  MOVFF  5EC,6A7
0B2AE:  MOVFF  5EB,6A6
0B2B2:  MOVFF  5EA,6A5
0B2B6:  MOVFF  5E9,6A4
0B2BA:  MOVLW  CD
0B2BC:  MOVLB  6
0B2BE:  MOVWF  xAB
0B2C0:  MOVLW  CC
0B2C2:  MOVWF  xAA
0B2C4:  MOVLW  4C
0B2C6:  MOVWF  xA9
0B2C8:  MOVLW  7B
0B2CA:  MOVWF  xA8
0B2CC:  MOVLB  0
0B2CE:  CALL   1530
0B2D2:  MOVFF  03,5EC
0B2D6:  MOVFF  02,5EB
0B2DA:  MOVFF  01,5EA
0B2DE:  MOVFF  00,5E9
....................          } 
....................                 
....................          if(DOWN){   
0B2E2:  BSF    F96.0
0B2E4:  BTFSC  F84.0
0B2E6:  BRA    B326
....................             DelayPuls(); 
0B2E8:  CALL   3E86
....................             Gain-=0.1; 
0B2EC:  BSF    FD8.1
0B2EE:  MOVFF  5EC,6A7
0B2F2:  MOVFF  5EB,6A6
0B2F6:  MOVFF  5EA,6A5
0B2FA:  MOVFF  5E9,6A4
0B2FE:  MOVLW  CD
0B300:  MOVLB  6
0B302:  MOVWF  xAB
0B304:  MOVLW  CC
0B306:  MOVWF  xAA
0B308:  MOVLW  4C
0B30A:  MOVWF  xA9
0B30C:  MOVLW  7B
0B30E:  MOVWF  xA8
0B310:  MOVLB  0
0B312:  CALL   1530
0B316:  MOVFF  03,5EC
0B31A:  MOVFF  02,5EB
0B31E:  MOVFF  01,5EA
0B322:  MOVFF  00,5E9
....................          } 
....................                 
....................          if(RIGHT) 
0B326:  BSF    F96.1
0B328:  BTFSC  F84.1
0B32A:  BRA    B332
....................             visual=1; 
0B32C:  MOVLB  5
0B32E:  BSF    xAD.2
0B330:  MOVLB  0
....................                    
....................          if(LEFT){ 
0B332:  BSF    F96.2
0B334:  BTFSC  F84.2
0B336:  BRA    B4A4
....................             delay_ms(10); 
0B338:  MOVLW  0A
0B33A:  MOVLB  6
0B33C:  MOVWF  xA1
0B33E:  MOVLB  0
0B340:  CALL   132E
....................             delay_ms(700);Menu=100;glcd_fillscreen(OFF);Opcion=1;visual=1; 
0B344:  MOVLW  04
0B346:  MOVLB  6
0B348:  MOVWF  x98
0B34A:  MOVLW  AF
0B34C:  MOVWF  xA1
0B34E:  MOVLB  0
0B350:  CALL   132E
0B354:  MOVLB  6
0B356:  DECFSZ x98,F
0B358:  BRA    B34A
0B35A:  MOVLW  64
0B35C:  MOVLB  5
0B35E:  MOVWF  xB6
0B360:  MOVLB  6
0B362:  CLRF   xA0
0B364:  MOVLB  0
0B366:  CALL   2BFE
0B36A:  MOVLW  01
0B36C:  MOVLB  5
0B36E:  MOVWF  xBD
0B370:  BSF    xAD.2
....................             write_eeprom(21,(int8)Gain); 
0B372:  MOVFF  5EC,6A7
0B376:  MOVFF  5EB,6A6
0B37A:  MOVFF  5EA,6A5
0B37E:  MOVFF  5E9,6A4
0B382:  MOVLB  0
0B384:  CALL   3A44
0B388:  MOVFF  01,698
0B38C:  CLRF   FAA
0B38E:  MOVLW  15
0B390:  MOVWF  FA9
0B392:  MOVFF  698,FA8
0B396:  BCF    FA6.6
0B398:  BCF    FA6.7
0B39A:  BSF    FA6.2
0B39C:  MOVF   FF2,W
0B39E:  MOVWF  00
0B3A0:  BCF    FF2.6
0B3A2:  BCF    FF2.7
0B3A4:  MOVLB  F
0B3A6:  MOVLW  55
0B3A8:  MOVWF  FA7
0B3AA:  MOVLW  AA
0B3AC:  MOVWF  FA7
0B3AE:  BSF    FA6.1
0B3B0:  BTFSC  FA6.1
0B3B2:  BRA    B3B0
0B3B4:  BCF    FA6.2
0B3B6:  MOVF   00,W
0B3B8:  IORWF  FF2,F
....................             delay_ms(10); 
0B3BA:  MOVLW  0A
0B3BC:  MOVLB  6
0B3BE:  MOVWF  xA1
0B3C0:  MOVLB  0
0B3C2:  CALL   132E
....................             Temporal=Gain-((int8)Gain); 
0B3C6:  MOVFF  5EC,6A7
0B3CA:  MOVFF  5EB,6A6
0B3CE:  MOVFF  5EA,6A5
0B3D2:  MOVFF  5E9,6A4
0B3D6:  CALL   3A44
0B3DA:  MOVLB  6
0B3DC:  CLRF   xA5
0B3DE:  MOVFF  01,6A4
0B3E2:  MOVLB  0
0B3E4:  CALL   139C
0B3E8:  BSF    FD8.1
0B3EA:  MOVFF  5EC,6A7
0B3EE:  MOVFF  5EB,6A6
0B3F2:  MOVFF  5EA,6A5
0B3F6:  MOVFF  5E9,6A4
0B3FA:  MOVFF  03,6AB
0B3FE:  MOVFF  02,6AA
0B402:  MOVFF  01,6A9
0B406:  MOVFF  00,6A8
0B40A:  CALL   1530
0B40E:  MOVFF  03,660
0B412:  MOVFF  02,65F
0B416:  MOVFF  01,65E
0B41A:  MOVFF  00,65D
....................             Temporal=Temporal*10; 
0B41E:  MOVFF  660,6BB
0B422:  MOVFF  65F,6BA
0B426:  MOVFF  65E,6B9
0B42A:  MOVFF  65D,6B8
0B42E:  MOVLB  6
0B430:  CLRF   xBF
0B432:  CLRF   xBE
0B434:  MOVLW  20
0B436:  MOVWF  xBD
0B438:  MOVLW  82
0B43A:  MOVWF  xBC
0B43C:  MOVLB  0
0B43E:  CALL   33AE
0B442:  MOVFF  03,660
0B446:  MOVFF  02,65F
0B44A:  MOVFF  01,65E
0B44E:  MOVFF  00,65D
....................             write_eeprom(22,(int8)Temporal); 
0B452:  MOVFF  660,6A7
0B456:  MOVFF  65F,6A6
0B45A:  MOVFF  65E,6A5
0B45E:  MOVFF  65D,6A4
0B462:  CALL   3A44
0B466:  MOVFF  01,698
0B46A:  CLRF   FAA
0B46C:  MOVLW  16
0B46E:  MOVWF  FA9
0B470:  MOVFF  698,FA8
0B474:  BCF    FA6.6
0B476:  BCF    FA6.7
0B478:  BSF    FA6.2
0B47A:  MOVF   FF2,W
0B47C:  MOVWF  00
0B47E:  BCF    FF2.6
0B480:  BCF    FF2.7
0B482:  MOVLB  F
0B484:  MOVLW  55
0B486:  MOVWF  FA7
0B488:  MOVLW  AA
0B48A:  MOVWF  FA7
0B48C:  BSF    FA6.1
0B48E:  BTFSC  FA6.1
0B490:  BRA    B48E
0B492:  BCF    FA6.2
0B494:  MOVF   00,W
0B496:  IORWF  FF2,F
....................             delay_ms(10); 
0B498:  MOVLW  0A
0B49A:  MOVLB  6
0B49C:  MOVWF  xA1
0B49E:  MOVLB  0
0B4A0:  CALL   132E
0B4A4:  MOVLB  5
....................          } 
....................      } 
.................... //_-------------------------------------------------------------------------------------------------------------------------------------------------------- 
....................  
....................  
....................       if(tiemporeset>=60 && Menu!=0) 
0B4A6:  MOVF   xB1,W
0B4A8:  SUBLW  3B
0B4AA:  BC    B4C0
0B4AC:  MOVF   xB6,F
0B4AE:  BZ    B4C0
....................       { 
....................          glcd_init(ON); 
0B4B0:  MOVLW  01
0B4B2:  MOVLB  6
0B4B4:  MOVWF  x98
0B4B6:  MOVLB  0
0B4B8:  CALL   2D10
....................          tiemporeset=0; 
0B4BC:  MOVLB  5
0B4BE:  CLRF   xB1
....................       }  
....................    } 
0B4C0:  GOTO   75E2
.................... } 
0B4C4:  SLEEP 

Configuration Fuses:
   Word  1: 0200   HS NOIESO NOFCMEN
   Word  2: 1B1F   BROWNOUT WDT BORV20 NOPUT WDT8192
   Word  3: 0000   NOPBADEN NOLPT1OSC NOMCLR
   Word  4: 00B0   NOSTVREN NODEBUG NOLVP NOXINST BBSIZ4K
   Word  5: C03F   NOPROTECT NOCPD NOCPB
   Word  6: E03F   NOWRT NOWRTD NOWRTC NOWRTB
   Word  7: 403F   NOEBTR NOEBTRB
