CCS PCH C Compiler, Version 5.059, 56587               16-abr.-18 14:38

               Filename:   C:\Users\judapies\Desktop\Firmware V1.1 22L\Horno.lst

               ROM used:   28514 bytes (87%)
                           Largest free fragment is 4250
               RAM used:   1603 (78%) at main() level
                           1655 (81%) worst case
               Stack used: 5 locations (4 in main + 1 for interrupts)
               Stack size: 31

*
0000:  GOTO   341C
*
0008:  MOVWF  04
000A:  MOVFF  FD8,05
000E:  MOVFF  FE0,06
0012:  MOVLB  0
0014:  MOVFF  FE9,0C
0018:  MOVFF  FEA,07
001C:  MOVFF  FE1,08
0020:  MOVFF  FE2,09
0024:  MOVFF  FD9,0A
0028:  MOVFF  FDA,0B
002C:  MOVFF  FF3,12
0030:  MOVFF  FF4,13
0034:  MOVFF  FFA,14
0038:  MOVFF  FF5,15
003C:  MOVFF  FF6,16
0040:  MOVFF  FF7,17
0044:  MOVFF  00,0E
0048:  MOVFF  01,0F
004C:  MOVFF  02,10
0050:  MOVFF  03,11
0054:  BTFSS  F9D.0
0056:  GOTO   0060
005A:  BTFSC  F9E.0
005C:  GOTO   0ADE
0060:  MOVFF  0E,00
0064:  MOVFF  0F,01
0068:  MOVFF  10,02
006C:  MOVFF  11,03
0070:  MOVFF  0C,FE9
0074:  MOVFF  07,FEA
0078:  BSF    07.7
007A:  MOVFF  08,FE1
007E:  MOVFF  09,FE2
0082:  MOVFF  0A,FD9
0086:  MOVFF  0B,FDA
008A:  MOVFF  12,FF3
008E:  MOVFF  13,FF4
0092:  MOVFF  14,FFA
0096:  MOVFF  15,FF5
009A:  MOVFF  16,FF6
009E:  MOVFF  17,FF7
00A2:  MOVF   04,W
00A4:  MOVFF  06,FE0
00A8:  MOVFF  05,FD8
00AC:  RETFIE 0
....................  
.................... #include <18F4550.h> 
.................... //////////// Standard Header file for the PIC18F4550 device //////////////// 
.................... /////////////////////////////////////////////////////////////////////////// 
.................... ////        (C) Copyright 1996, 2014 Custom Computer Services          //// 
.................... //// This source code may only be used by licensed users of the CCS C  //// 
.................... //// compiler.  This source code may only be distributed to other      //// 
.................... //// licensed users of the CCS C compiler.  No other use, reproduction //// 
.................... //// or distribution is permitted without written permission.          //// 
.................... //// Derivative programs created using this software in object code    //// 
.................... //// form are not restricted in any way.                               //// 
.................... /////////////////////////////////////////////////////////////////////////// 
.................... #device PIC18F4550 
00AE:  CLRF   FF7
00B0:  ADDLW  BE
00B2:  MOVWF  FF6
00B4:  MOVLW  00
00B6:  ADDWFC FF7,F
00B8:  TBLRD*+
00BA:  MOVF   FF5,W
00BC:  RETURN 0
00BE:  DATA 00,00
00C0:  DATA 00,00
00C2:  DATA 00,00
00C4:  DATA 00,5F
00C6:  DATA 00,00
00C8:  DATA 00,03
00CA:  DATA 00,03
00CC:  DATA 00,14
00CE:  DATA 3E,14
00D0:  DATA 3E,14
00D2:  DATA 24,2A
00D4:  DATA 7F,2A
00D6:  DATA 12,43
00D8:  DATA 33,08
00DA:  DATA 66,61
00DC:  DATA 36,49
00DE:  DATA 55,22
00E0:  DATA 50,00
00E2:  DATA 05,03
00E4:  DATA 00,00
00E6:  DATA 00,1C
00E8:  DATA 22,41
00EA:  DATA 00,00
00EC:  DATA 41,22
00EE:  DATA 1C,00
00F0:  DATA 14,08
00F2:  DATA 3E,08
00F4:  DATA 14,08
00F6:  DATA 08,3E
00F8:  DATA 08,08
00FA:  DATA 00,50
00FC:  DATA 30,00
00FE:  DATA 00,08
0100:  DATA 08,08
0102:  DATA 08,08
0104:  DATA 00,60
0106:  DATA 60,00
0108:  DATA 00,20
010A:  DATA 10,08
010C:  DATA 04,02
010E:  DATA 3E,51
0110:  DATA 49,45
0112:  DATA 3E,00
0114:  DATA 04,02
0116:  DATA 7F,00
0118:  DATA 42,61
011A:  DATA 51,49
011C:  DATA 46,22
011E:  DATA 41,49
0120:  DATA 49,36
0122:  DATA 18,14
0124:  DATA 12,7F
0126:  DATA 10,27
0128:  DATA 45,45
012A:  DATA 45,39
012C:  DATA 3E,49
012E:  DATA 49,49
0130:  DATA 32,01
0132:  DATA 01,71
0134:  DATA 09,07
0136:  DATA 36,49
0138:  DATA 49,49
013A:  DATA 36,26
013C:  DATA 49,49
013E:  DATA 49,3E
0140:  DATA 00,36
0142:  DATA 36,00
0144:  DATA 00,00
0146:  DATA 56,36
0148:  DATA 00,00
014A:  DATA 08,14
014C:  DATA 22,41
014E:  DATA 00,14
0150:  DATA 14,14
0152:  DATA 14,14
0154:  DATA 00,41
0156:  DATA 22,14
0158:  DATA 08,02
015A:  DATA 01,51
015C:  DATA 09,06
015E:  DATA 3E,41
0160:  DATA 59,55
0162:  DATA 5E,7E
0164:  DATA 09,09
0166:  DATA 09,7E
0168:  DATA 7F,49
016A:  DATA 49,49
016C:  DATA 36,3E
016E:  DATA 41,41
0170:  DATA 41,22
0172:  DATA 7F,41
0174:  DATA 41,41
0176:  DATA 3E,7F
0178:  DATA 49,49
017A:  DATA 49,41
017C:  DATA 7F,09
017E:  DATA 09,09
0180:  DATA 01,3E
0182:  DATA 41,41
0184:  DATA 49,3A
0186:  DATA 7F,08
0188:  DATA 08,08
018A:  DATA 7F,00
018C:  DATA 41,7F
018E:  DATA 41,00
0190:  DATA 30,40
0192:  DATA 40,40
0194:  DATA 3F,7F
0196:  DATA 08,14
0198:  DATA 22,41
019A:  DATA 7F,40
019C:  DATA 40,40
019E:  DATA 40,7F
01A0:  DATA 02,0C
01A2:  DATA 02,7F
01A4:  DATA 7F,02
01A6:  DATA 04,08
01A8:  DATA 7F,3E
01AA:  DATA 41,41
01AC:  DATA 41,3E
01AE:  DATA 7F,09
01B0:  DATA 09,09
01B2:  DATA 06,1E
01B4:  DATA 21,21
01B6:  DATA 21,5E
01B8:  DATA 7F,09
01BA:  DATA 09,09
01BC:  DATA 76,00
01BE:  CLRF   FF7
01C0:  ADDLW  CE
01C2:  MOVWF  FF6
01C4:  MOVLW  01
01C6:  ADDWFC FF7,F
01C8:  TBLRD*+
01CA:  MOVF   FF5,W
01CC:  RETURN 0
01CE:  DATA 26,49
01D0:  DATA 49,49
01D2:  DATA 32,01
01D4:  DATA 01,7F
01D6:  DATA 01,01
01D8:  DATA 3F,40
01DA:  DATA 40,40
01DC:  DATA 3F,1F
01DE:  DATA 20,40
01E0:  DATA 20,1F
01E2:  DATA 7F,20
01E4:  DATA 10,20
01E6:  DATA 7F,41
01E8:  DATA 22,1C
01EA:  DATA 22,41
01EC:  DATA 07,08
01EE:  DATA 70,08
01F0:  DATA 07,61
01F2:  DATA 51,49
01F4:  DATA 45,43
01F6:  DATA 00,7F
01F8:  DATA 41,00
01FA:  DATA 00,02
01FC:  DATA 04,08
01FE:  DATA 10,20
0200:  DATA 00,00
0202:  DATA 41,7F
0204:  DATA 00,04
0206:  DATA 02,01
0208:  DATA 02,04
020A:  DATA 40,40
020C:  DATA 40,40
020E:  DATA 40,00
0210:  DATA 01,02
0212:  DATA 04,00
0214:  DATA 20,54
0216:  DATA 54,54
0218:  DATA 78,7F
021A:  DATA 44,44
021C:  DATA 44,38
021E:  DATA 38,44
0220:  DATA 44,44
0222:  DATA 44,38
0224:  DATA 44,44
0226:  DATA 44,7F
0228:  DATA 38,54
022A:  DATA 54,54
022C:  DATA 18,04
022E:  DATA 04,7E
0230:  DATA 05,05
0232:  DATA 08,54
0234:  DATA 54,54
0236:  DATA 3C,7F
0238:  DATA 08,04
023A:  DATA 04,78
023C:  DATA 00,44
023E:  DATA 7D,40
0240:  DATA 00,20
0242:  DATA 40,44
0244:  DATA 3D,00
0246:  DATA 7F,10
0248:  DATA 28,44
024A:  DATA 00,00
024C:  DATA 41,7F
024E:  DATA 40,00
0250:  DATA 7C,04
0252:  DATA 78,04
0254:  DATA 78,7C
0256:  DATA 08,04
0258:  DATA 04,78
025A:  DATA 38,44
025C:  DATA 44,44
025E:  DATA 38,7C
0260:  DATA 14,14
0262:  DATA 14,08
0264:  DATA 08,14
0266:  DATA 14,14
0268:  DATA 7C,00
026A:  DATA 7C,08
026C:  DATA 04,04
026E:  DATA 48,54
0270:  DATA 54,54
0272:  DATA 20,04
0274:  DATA 04,3F
0276:  DATA 44,44
0278:  DATA 3C,40
027A:  DATA 40,20
027C:  DATA 7C,1C
027E:  DATA 20,40
0280:  DATA 20,1C
0282:  DATA 3C,40
0284:  DATA 30,40
0286:  DATA 3C,44
0288:  DATA 28,10
028A:  DATA 28,44
028C:  DATA 0C,50
028E:  DATA 50,50
0290:  DATA 3C,44
0292:  DATA 64,54
0294:  DATA 4C,44
0296:  DATA 00,08
0298:  DATA 36,41
029A:  DATA 41,00
029C:  DATA 00,7F
029E:  DATA 00,00
02A0:  DATA 41,41
02A2:  DATA 36,08
02A4:  DATA 00,02
02A6:  DATA 01,02
02A8:  DATA 04,02
02AA:  ADDLW  B8
02AC:  MOVWF  FF6
02AE:  MOVLW  02
02B0:  ADDWFC FF7,F
02B2:  TBLRD*+
02B4:  MOVF   FF5,W
02B6:  RETURN 0
02B8:  DATA 00,00
02BA:  DATA 00,00
02BC:  DATA 00,00
02BE:  DATA 00,00
02C0:  DATA 00,00
02C2:  DATA 00,1F
02C4:  DATA FF,FF
02C6:  DATA FF,FE
02C8:  DATA 00,00
02CA:  DATA 00,00
02CC:  DATA 00,00
02CE:  DATA 00,00
02D0:  DATA 00,00
02D2:  DATA 00,1F
02D4:  DATA FF,FF
02D6:  DATA FF,FE
02D8:  DATA 01,C0
02DA:  DATA 00,00
02DC:  DATA 00,00
02DE:  DATA 00,00
02E0:  DATA 00,00
02E2:  DATA 00,1C
02E4:  DATA 00,00
02E6:  DATA 00,0E
02E8:  DATA 07,F0
02EA:  DATA 00,00
02EC:  DATA 00,00
02EE:  DATA 00,00
02F0:  DATA 00,00
02F2:  DATA 00,1C
02F4:  DATA 00,00
02F6:  DATA 00,0E
02F8:  DATA 1C,9C
02FA:  DATA 00,00
02FC:  DATA 00,00
02FE:  DATA 00,00
0300:  DATA 00,00
0302:  DATA 00,1C
0304:  DATA 7F,00
0306:  DATA 00,0E
0308:  DATA 18,0C
030A:  DATA 00,00
030C:  DATA 00,00
030E:  DATA 00,00
0310:  DATA 00,00
0312:  DATA 00,1C
0314:  DATA 41,00
0316:  DATA 00,0E
0318:  DATA 30,86
031A:  DATA 00,00
031C:  DATA 00,00
031E:  DATA 00,00
0320:  DATA 00,00
0322:  DATA 00,1C
0324:  DATA 41,00
0326:  DATA 00,0E
0328:  DATA 20,82
032A:  DATA 00,00
032C:  DATA 00,00
032E:  DATA 00,00
0330:  DATA 00,00
0332:  DATA 00,1C
0334:  DATA 41,02
0336:  DATA 00,0E
0338:  DATA 60,83
033A:  DATA 00,00
033C:  DATA 00,00
033E:  DATA 00,00
0340:  DATA 00,00
0342:  DATA 00,1C
0344:  DATA 7F,05
0346:  DATA 00,0E
0348:  DATA 70,87
034A:  DATA 00,00
034C:  DATA 00,00
034E:  DATA 00,00
0350:  DATA 00,00
0352:  DATA 00,1C
0354:  DATA 00,02
0356:  DATA 00,0E
0358:  DATA 60,C3
035A:  DATA 00,00
035C:  DATA 00,00
035E:  DATA 00,00
0360:  DATA 00,00
0362:  DATA 00,1C
0364:  DATA 00,00
0366:  DATA 00,0E
0368:  DATA 20,62
036A:  DATA 00,00
036C:  DATA 00,00
036E:  DATA 00,00
0370:  DATA 00,00
0372:  DATA 00,1C
0374:  DATA 00,00
0376:  DATA 00,0E
0378:  DATA 30,26
037A:  DATA 00,00
037C:  DATA 00,00
037E:  DATA 00,00
0380:  DATA 00,00
0382:  DATA 00,1F
0384:  DATA FF,FF
0386:  DATA FF,FE
0388:  DATA 18,0C
038A:  DATA 00,00
038C:  DATA 00,00
038E:  DATA 00,00
0390:  DATA 00,00
0392:  DATA 00,1C
0394:  DATA 00,00
0396:  DATA 00,0E
0398:  DATA 1C,9C
039A:  DATA 00,00
039C:  DATA 00,00
039E:  DATA 00,00
03A0:  DATA 00,00
03A2:  DATA 00,1C
03A4:  DATA 00,00
03A6:  DATA 00,0E
03A8:  DATA 07,F0
03AA:  DATA 00,00
03AC:  DATA 00,00
03AE:  DATA 00,00
03B0:  DATA 00,00
03B2:  DATA 00,1C
03B4:  DATA 00,00
03B6:  DATA 00,0E
03B8:  DATA 01,C0
03BA:  DATA 00,00
03BC:  DATA 00,00
03BE:  DATA 00,00
03C0:  DATA 00,00
03C2:  DATA 00,1C
03C4:  DATA 00,00
03C6:  DATA 00,0E
03C8:  DATA 00,00
03CA:  DATA 00,00
03CC:  DATA 00,00
03CE:  DATA 00,00
03D0:  DATA 00,00
03D2:  DATA 00,1C
03D4:  DATA 00,00
03D6:  DATA 00,0E
03D8:  DATA 00,00
03DA:  DATA 00,00
03DC:  DATA 00,00
03DE:  DATA 00,00
03E0:  DATA 00,00
03E2:  DATA 00,1C
03E4:  DATA 00,00
03E6:  DATA 00,0E
03E8:  DATA 00,00
03EA:  DATA 00,00
03EC:  DATA 00,00
03EE:  DATA 00,00
03F0:  DATA 00,00
03F2:  DATA 00,1C
03F4:  DATA 00,00
03F6:  DATA 00,0E
03F8:  DATA 00,00
03FA:  DATA 00,00
03FC:  DATA 00,00
03FE:  DATA 00,00
0400:  DATA 00,00
0402:  DATA 00,1C
0404:  DATA 00,00
0406:  DATA 00,0E
0408:  DATA 00,00
040A:  DATA 00,00
040C:  DATA 00,00
040E:  DATA 00,00
0410:  DATA 00,00
0412:  DATA 00,1C
0414:  DATA 00,1E
0416:  DATA 00,0E
0418:  DATA 00,00
041A:  DATA 00,00
041C:  DATA 00,00
041E:  DATA 00,00
0420:  DATA 00,00
0422:  DATA 00,1C
0424:  DATA 00,E1
0426:  DATA C0,0E
0428:  DATA 00,00
042A:  DATA 00,00
042C:  DATA 00,00
042E:  DATA 00,00
0430:  DATA 00,00
0432:  DATA 00,1C
0434:  DATA 01,80
0436:  DATA 60,0E
0438:  DATA 00,00
043A:  DATA 00,00
043C:  DATA 00,00
043E:  DATA 00,00
0440:  DATA 00,00
0442:  DATA 00,1C
0444:  DATA 02,78
0446:  DATA 10,0E
0448:  DATA 00,00
044A:  DATA 00,00
044C:  DATA 00,00
044E:  DATA 00,00
0450:  DATA 00,00
0452:  DATA 00,1C
0454:  DATA 06,7C
0456:  DATA 18,0E
0458:  DATA 00,00
045A:  DATA 00,00
045C:  DATA 00,00
045E:  DATA 00,00
0460:  DATA 00,00
0462:  DATA 00,1C
0464:  DATA 04,7C
0466:  DATA 08,0E
0468:  DATA 00,00
046A:  DATA 00,00
046C:  DATA 00,00
046E:  DATA 00,00
0470:  DATA 00,00
0472:  DATA 00,1C
0474:  DATA 08,3C
0476:  DATA 04,0E
0478:  DATA 00,00
047A:  DATA 00,00
047C:  DATA 00,00
047E:  DATA 00,00
0480:  DATA 00,00
0482:  DATA 00,1C
0484:  DATA 08,10
0486:  DATA 04,0E
0488:  DATA 01,80
048A:  DATA 00,00
048C:  DATA 00,00
048E:  DATA 00,00
0490:  DATA 00,00
0492:  DATA 00,1C
0494:  DATA 08,0C
0496:  DATA E4,0E
0498:  DATA 02,40
049A:  DATA 00,00
049C:  DATA 00,00
049E:  DATA 00,00
04A0:  DATA 00,00
04A2:  DATA 00,1C
04A4:  DATA 08,2D
04A6:  DATA F4,0E
04A8:  DATA 02,70
04AA:  DATA 00,00
04AC:  DATA 00,00
04AE:  DATA 00,00
04B0:  DATA 00,00
04B2:  DATA 00,1C
04B4:  DATA 08,63
04B6:  DATA F4,0E
04B8:  DATA 02,40
04BA:  DATA 00,00
04BC:  DATA 00,00
04BE:  DATA 00,00
04C0:  DATA 00,00
04C2:  DATA 00,1C
04C4:  DATA 08,F1
04C6:  DATA E4,0E
04C8:  DATA 03,C0
04CA:  DATA 00,00
04CC:  DATA 00,00
04CE:  DATA 00,00
04D0:  DATA 00,00
04D2:  DATA 00,1C
04D4:  DATA 04,F0
04D6:  DATA 08,0E
04D8:  DATA 03,F0
04DA:  DATA 00,00
04DC:  DATA 00,00
04DE:  DATA 00,00
04E0:  DATA 00,00
04E2:  DATA 00,1C
04E4:  DATA 04,F0
04E6:  DATA 08,0E
04E8:  DATA 03,C0
04EA:  DATA 00,00
04EC:  DATA 00,00
04EE:  DATA 00,00
04F0:  DATA 00,00
04F2:  DATA 00,1C
04F4:  DATA 02,70
04F6:  DATA 10,0E
04F8:  DATA 03,C0
04FA:  DATA 00,00
04FC:  DATA 00,00
04FE:  DATA 00,00
0500:  DATA 00,00
0502:  DATA 00,1C
0504:  DATA 03,00
0506:  DATA 30,0E
0508:  DATA 07,E0
050A:  DATA 00,00
050C:  DATA 00,00
050E:  DATA 00,00
0510:  DATA 00,00
0512:  DATA 00,1C
0514:  DATA 00,C0
0516:  DATA C0,0E
0518:  DATA 0F,F0
051A:  DATA 00,00
051C:  DATA 00,00
051E:  DATA 00,00
0520:  DATA 00,00
0522:  DATA 00,1C
0524:  DATA 00,7F
0526:  DATA 80,0E
0528:  DATA 0B,F0
052A:  DATA 00,00
052C:  DATA 00,00
052E:  DATA 00,00
0530:  DATA 00,00
0532:  DATA 00,1C
0534:  DATA 00,00
0536:  DATA 00,0E
0538:  DATA 0B,F0
053A:  DATA 00,00
053C:  DATA 00,00
053E:  DATA 00,00
0540:  DATA 00,00
0542:  DATA 00,1C
0544:  DATA 00,00
0546:  DATA 00,0E
0548:  DATA 0F,F0
054A:  DATA 00,00
054C:  DATA 00,00
054E:  DATA 00,00
0550:  DATA 00,00
0552:  DATA 00,1C
0554:  DATA 00,00
0556:  DATA 00,0E
0558:  DATA 0F,F0
055A:  DATA 00,00
055C:  DATA 00,00
055E:  DATA 00,00
0560:  DATA 00,00
0562:  DATA 00,1C
0564:  DATA 00,00
0566:  DATA 00,0E
0568:  DATA 07,E0
056A:  DATA 00,00
056C:  DATA 00,00
056E:  DATA 00,00
0570:  DATA 00,00
0572:  DATA 00,1C
0574:  DATA 00,00
0576:  DATA 00,0E
0578:  DATA 03,C0
057A:  DATA 00,00
057C:  DATA 00,00
057E:  DATA 00,00
0580:  DATA 00,00
0582:  DATA 00,1C
0584:  DATA 00,00
0586:  DATA 00,0E
0588:  DATA 00,00
058A:  DATA 00,00
058C:  DATA 00,00
058E:  DATA 00,00
0590:  DATA 00,00
0592:  DATA 00,1C
0594:  DATA 00,00
0596:  DATA 00,0E
0598:  DATA 00,00
059A:  DATA 00,00
059C:  DATA 00,00
059E:  DATA 00,00
05A0:  DATA 00,00
05A2:  DATA 00,1C
05A4:  DATA 00,00
05A6:  DATA 00,0E
05A8:  DATA 00,00
05AA:  DATA 00,00
05AC:  DATA 00,00
05AE:  DATA 00,00
05B0:  DATA 00,00
05B2:  DATA 00,1C
05B4:  DATA 00,00
05B6:  DATA 00,0E
05B8:  DATA 00,00
05BA:  DATA 00,00
05BC:  DATA 00,00
05BE:  DATA 00,00
05C0:  DATA 00,00
05C2:  DATA 00,1C
05C4:  DATA 00,00
05C6:  DATA 00,0E
05C8:  DATA 00,00
05CA:  DATA 00,00
05CC:  DATA 00,00
05CE:  DATA 00,00
05D0:  DATA 00,00
05D2:  DATA 00,1C
05D4:  DATA 00,00
05D6:  DATA 00,0E
05D8:  DATA 00,00
05DA:  DATA 00,00
05DC:  DATA 00,00
05DE:  DATA 00,00
05E0:  DATA 00,00
05E2:  DATA 00,1C
05E4:  DATA 00,00
05E6:  DATA 00,0E
05E8:  DATA 00,00
05EA:  DATA 00,00
05EC:  DATA 00,00
05EE:  DATA 00,00
05F0:  DATA 00,00
05F2:  DATA 00,1C
05F4:  DATA 00,00
05F6:  DATA 00,0E
05F8:  DATA 00,00
05FA:  DATA 00,00
05FC:  DATA 00,00
05FE:  DATA 00,00
0600:  DATA 00,00
0602:  DATA 00,1F
0604:  DATA FF,FF
0606:  DATA FF,FE
0608:  DATA 00,00
060A:  DATA 00,00
060C:  DATA 00,00
060E:  DATA 00,00
0610:  DATA 00,00
0612:  DATA 00,1F
0614:  DATA FF,FF
0616:  DATA FF,FE
0618:  DATA 00,00
061A:  DATA 00,00
061C:  DATA 00,00
061E:  DATA 00,00
0620:  DATA 00,00
0622:  DATA 00,1F
0624:  DATA FF,FF
0626:  DATA FF,FE
0628:  DATA 00,00
062A:  DATA 00,00
062C:  DATA 00,00
062E:  DATA 00,00
0630:  DATA 00,00
0632:  DATA 00,00
0634:  DATA 00,00
0636:  DATA 00,00
0638:  DATA 00,00
063A:  DATA 00,00
063C:  DATA 00,00
063E:  DATA 00,00
0640:  DATA 00,00
0642:  DATA 00,00
0644:  DATA 00,00
0646:  DATA 00,00
0648:  DATA 00,00
064A:  DATA 00,00
064C:  DATA 00,00
064E:  DATA 00,00
0650:  DATA 00,00
0652:  DATA 00,00
0654:  DATA 00,00
0656:  DATA 00,00
0658:  DATA 00,00
065A:  DATA 00,00
065C:  DATA 00,00
065E:  DATA 00,00
0660:  DATA 00,00
0662:  DATA 00,00
0664:  DATA 00,00
0666:  DATA 00,00
0668:  DATA 00,00
066A:  DATA 00,00
066C:  DATA 00,00
066E:  DATA 00,00
0670:  DATA 00,00
0672:  DATA 00,00
0674:  DATA 00,00
0676:  DATA 00,00
0678:  DATA 00,00
067A:  DATA 00,00
067C:  DATA 00,00
067E:  DATA 00,00
0680:  DATA 00,00
0682:  DATA 00,00
0684:  DATA 00,00
0686:  DATA 00,00
0688:  DATA 00,00
068A:  DATA 00,00
068C:  DATA 00,00
068E:  DATA 00,00
0690:  DATA 00,00
0692:  DATA 00,00
0694:  DATA 00,00
0696:  DATA 00,00
0698:  DATA 00,00
069A:  DATA 00,00
069C:  DATA 00,00
069E:  DATA 00,00
06A0:  DATA 00,00
06A2:  DATA 00,00
06A4:  DATA 00,00
06A6:  DATA 00,00
06A8:  DATA 00,00
06AA:  DATA 00,00
06AC:  DATA 00,00
06AE:  DATA 00,00
06B0:  DATA 00,00
06B2:  DATA 00,00
06B4:  DATA 00,00
06B6:  DATA 00,00
06B8:  CLRF   FF7
06BA:  ADDLW  C8
06BC:  MOVWF  FF6
06BE:  MOVLW  06
06C0:  ADDWFC FF7,F
06C2:  TBLRD*+
06C4:  MOVF   FF5,W
06C6:  RETURN 0
06C8:  DATA 4A,50
06CA:  DATA 20,49
06CC:  DATA 6E,67
06CE:  DATA 6C,6F
06D0:  DATA 62,61
06D2:  DATA 6C,00
06D4:  CLRF   FF7
06D6:  ADDLW  E4
06D8:  MOVWF  FF6
06DA:  MOVLW  06
06DC:  ADDWFC FF7,F
06DE:  TBLRD*+
06E0:  MOVF   FF5,W
06E2:  RETURN 0
06E4:  DATA 20,20
06E6:  DATA 20,20
06E8:  DATA 49,6E
06EA:  DATA 63,75
06EC:  DATA 62,61
06EE:  DATA 64,6F
06F0:  DATA 72,61
06F2:  DATA 00,00
06F4:  CLRF   FF7
06F6:  ADDLW  04
06F8:  MOVWF  FF6
06FA:  MOVLW  07
06FC:  ADDWFC FF7,F
06FE:  TBLRD*+
0700:  MOVF   FF5,W
0702:  RETURN 0
0704:  DATA 20,20
0706:  DATA 20,20
0708:  DATA 52,65
070A:  DATA 66,72
070C:  DATA 69,67
070E:  DATA 65,72
0710:  DATA 61,64
0712:  DATA 61,00
0714:  CLRF   FF7
0716:  ADDLW  24
0718:  MOVWF  FF6
071A:  MOVLW  07
071C:  ADDWFC FF7,F
071E:  TBLRD*+
0720:  MOVF   FF5,W
0722:  RETURN 0
0724:  DATA 20,20
0726:  DATA 20,32
0728:  DATA 32,20
072A:  DATA 4C,74
072C:  DATA 73,00
072E:  CLRF   FF7
0730:  ADDLW  3E
0732:  MOVWF  FF6
0734:  MOVLW  07
0736:  ADDWFC FF7,F
0738:  TBLRD*+
073A:  MOVF   FF5,W
073C:  RETURN 0
073E:  DATA 43,61
0740:  DATA 72,67
0742:  DATA 61,6E
0744:  DATA 64,6F
0746:  DATA 2E,2E
0748:  DATA 00,00
074A:  CLRF   FF7
074C:  ADDLW  5A
074E:  MOVWF  FF6
0750:  MOVLW  07
0752:  ADDWFC FF7,F
0754:  TBLRD*+
0756:  MOVF   FF5,W
0758:  RETURN 0
075A:  DATA 43,6C
075C:  DATA 61,76
075E:  DATA 65,00
0760:  CLRF   FF7
0762:  ADDLW  70
0764:  MOVWF  FF6
0766:  MOVLW  07
0768:  ADDWFC FF7,F
076A:  TBLRD*+
076C:  MOVF   FF5,W
076E:  RETURN 0
0770:  DATA 43,6F
0772:  DATA 72,72
0774:  DATA 65,63
0776:  DATA 74,61
0778:  DATA 00,00
077A:  CLRF   FF7
077C:  ADDLW  8A
077E:  MOVWF  FF6
0780:  MOVLW  07
0782:  ADDWFC FF7,F
0784:  TBLRD*+
0786:  MOVF   FF5,W
0788:  RETURN 0
078A:  DATA 49,6E
078C:  DATA 63,6F
078E:  DATA 72,72
0790:  DATA 65,63
0792:  DATA 74,61
0794:  DATA 00,00
0796:  CLRF   FF7
0798:  ADDLW  A6
079A:  MOVWF  FF6
079C:  MOVLW  07
079E:  ADDWFC FF7,F
07A0:  TBLRD*+
07A2:  MOVF   FF5,W
07A4:  RETURN 0
07A6:  DATA 4D,65
07A8:  DATA 6E,75
07AA:  DATA 00,00
07AC:  CLRF   FF7
07AE:  ADDLW  BC
07B0:  MOVWF  FF6
07B2:  MOVLW  07
07B4:  ADDWFC FF7,F
07B6:  TBLRD*+
07B8:  MOVF   FF5,W
07BA:  RETURN 0
07BC:  DATA 49,6E
07BE:  DATA 69,63
07C0:  DATA 69,61
07C2:  DATA 72,20
07C4:  DATA 50,72
07C6:  DATA 6F,63
07C8:  DATA 65,73
07CA:  DATA 6F,00
07CC:  CLRF   FF7
07CE:  ADDLW  DC
07D0:  MOVWF  FF6
07D2:  MOVLW  07
07D4:  ADDWFC FF7,F
07D6:  TBLRD*+
07D8:  MOVF   FF5,W
07DA:  RETURN 0
07DC:  DATA 54,65
07DE:  DATA 6D,70
07E0:  DATA 65,72
07E2:  DATA 61,74
07E4:  DATA 75,72
07E6:  DATA 61,00
07E8:  CLRF   FF7
07EA:  ADDLW  F8
07EC:  MOVWF  FF6
07EE:  MOVLW  07
07F0:  ADDWFC FF7,F
07F2:  TBLRD*+
07F4:  MOVF   FF5,W
07F6:  RETURN 0
07F8:  DATA 54,65
07FA:  DATA 6D,70
07FC:  DATA 6F,72
07FE:  DATA 69,7A
0800:  DATA 61,64
0802:  DATA 6F,72
0804:  DATA 00,00
0806:  CLRF   FF7
0808:  ADDLW  16
080A:  MOVWF  FF6
080C:  MOVLW  08
080E:  ADDWFC FF7,F
0810:  TBLRD*+
0812:  MOVF   FF5,W
0814:  RETURN 0
0816:  DATA 43,61
0818:  DATA 6D,62
081A:  DATA 69,6F
081C:  DATA 20,43
081E:  DATA 6C,61
0820:  DATA 76,65
0822:  DATA 00,00
0824:  CLRF   FF7
0826:  ADDLW  34
0828:  MOVWF  FF6
082A:  MOVLW  08
082C:  ADDWFC FF7,F
082E:  TBLRD*+
0830:  MOVF   FF5,W
0832:  RETURN 0
0834:  DATA 43,6F
0836:  DATA 6E,74
0838:  DATA 69,6E
083A:  DATA 75,61
083C:  DATA 72,00
083E:  CLRF   FF7
0840:  ADDLW  4E
0842:  MOVWF  FF6
0844:  MOVLW  08
0846:  ADDWFC FF7,F
0848:  TBLRD*+
084A:  MOVF   FF5,W
084C:  RETURN 0
084E:  DATA 53,49
0850:  DATA 00,00
0852:  CLRF   FF7
0854:  ADDLW  62
0856:  MOVWF  FF6
0858:  MOVLW  08
085A:  ADDWFC FF7,F
085C:  TBLRD*+
085E:  MOVF   FF5,W
0860:  RETURN 0
0862:  DATA 4E,4F
0864:  DATA 00,00
0866:  CLRF   FF7
0868:  ADDLW  76
086A:  MOVWF  FF6
086C:  MOVLW  08
086E:  ADDWFC FF7,F
0870:  TBLRD*+
0872:  MOVF   FF5,W
0874:  RETURN 0
0876:  DATA 43,00
0878:  CLRF   FF7
087A:  ADDLW  88
087C:  MOVWF  FF6
087E:  MOVLW  08
0880:  ADDWFC FF7,F
0882:  TBLRD*+
0884:  MOVF   FF5,W
0886:  RETURN 0
0888:  DATA 54,65
088A:  DATA 6D,70
088C:  DATA 6F,72
088E:  DATA 69,7A
0890:  DATA 61,00
0892:  CLRF   FF7
0894:  ADDLW  A2
0896:  MOVWF  FF6
0898:  MOVLW  08
089A:  ADDWFC FF7,F
089C:  TBLRD*+
089E:  MOVF   FF5,W
08A0:  RETURN 0
08A2:  DATA 3A,00
08A4:  CLRF   FF7
08A6:  ADDLW  B4
08A8:  MOVWF  FF6
08AA:  MOVLW  08
08AC:  ADDWFC FF7,F
08AE:  TBLRD*+
08B0:  MOVF   FF5,W
08B2:  RETURN 0
08B4:  DATA 43,6C
08B6:  DATA 61,76
08B8:  DATA 65,20
08BA:  DATA 4E,75
08BC:  DATA 65,76
08BE:  DATA 61,00
08C0:  CLRF   FF7
08C2:  ADDLW  D0
08C4:  MOVWF  FF6
08C6:  MOVLW  08
08C8:  ADDWFC FF7,F
08CA:  TBLRD*+
08CC:  MOVF   FF5,W
08CE:  RETURN 0
08D0:  DATA 53,74
08D2:  DATA 61,74
08D4:  DATA 75,73
08D6:  DATA 3A,43
08D8:  DATA 6F,6E
08DA:  DATA 74,72
08DC:  DATA 6F,6C
08DE:  DATA 61,6E
08E0:  DATA 64,6F
08E2:  DATA 00,00
08E4:  CLRF   FF7
08E6:  ADDLW  F4
08E8:  MOVWF  FF6
08EA:  MOVLW  08
08EC:  ADDWFC FF7,F
08EE:  TBLRD*+
08F0:  MOVF   FF5,W
08F2:  RETURN 0
08F4:  DATA 53,74
08F6:  DATA 61,74
08F8:  DATA 75,73
08FA:  DATA 3A,45
08FC:  DATA 6E,66
08FE:  DATA 72,69
0900:  DATA 61,6E
0902:  DATA 64,6F
0904:  DATA 00,00
0906:  CLRF   FF7
0908:  ADDLW  16
090A:  MOVWF  FF6
090C:  MOVLW  09
090E:  ADDWFC FF7,F
0910:  TBLRD*+
0912:  MOVF   FF5,W
0914:  RETURN 0
0916:  DATA 53,74
0918:  DATA 61,74
091A:  DATA 75,73
091C:  DATA 3A,43
091E:  DATA 61,6C
0920:  DATA 65,6E
0922:  DATA 74,61
0924:  DATA 6E,64
0926:  DATA 6F,00
0928:  CLRF   FF7
092A:  ADDLW  38
092C:  MOVWF  FF6
092E:  MOVLW  09
0930:  ADDWFC FF7,F
0932:  TBLRD*+
0934:  MOVF   FF5,W
0936:  RETURN 0
0938:  DATA 53,74
093A:  DATA 61,74
093C:  DATA 75,73
093E:  DATA 3A,50
0940:  DATA 61,75
0942:  DATA 73,61
0944:  DATA 64,6F
0946:  DATA 00,00
0948:  CLRF   FF7
094A:  ADDLW  58
094C:  MOVWF  FF6
094E:  MOVLW  09
0950:  ADDWFC FF7,F
0952:  TBLRD*+
0954:  MOVF   FF5,W
0956:  RETURN 0
0958:  DATA 53,74
095A:  DATA 61,74
095C:  DATA 75,73
095E:  DATA 3A,41
0960:  DATA 6C,61
0962:  DATA 72,6D
0964:  DATA 61,20
0966:  DATA 30,31
0968:  DATA 00,00
096A:  CLRF   FF7
096C:  ADDLW  7A
096E:  MOVWF  FF6
0970:  MOVLW  09
0972:  ADDWFC FF7,F
0974:  TBLRD*+
0976:  MOVF   FF5,W
0978:  RETURN 0
097A:  DATA 54,65
097C:  DATA 6D,70
097E:  DATA 3A,00
0980:  CLRF   FF7
0982:  ADDLW  90
0984:  MOVWF  FF6
0986:  MOVLW  09
0988:  ADDWFC FF7,F
098A:  TBLRD*+
098C:  MOVF   FF5,W
098E:  RETURN 0
0990:  DATA 25,00
0992:  CLRF   FF7
0994:  ADDLW  A2
0996:  MOVWF  FF6
0998:  MOVLW  09
099A:  ADDWFC FF7,F
099C:  TBLRD*+
099E:  MOVF   FF5,W
09A0:  RETURN 0
09A2:  DATA 54,69
09A4:  DATA 6D,65
09A6:  DATA 3A,00
09A8:  CLRF   FF7
09AA:  ADDLW  B8
09AC:  MOVWF  FF6
09AE:  MOVLW  09
09B0:  ADDWFC FF7,F
09B2:  TBLRD*+
09B4:  MOVF   FF5,W
09B6:  RETURN 0
09B8:  DATA 28,48
09BA:  DATA 3A,4D
09BC:  DATA 29,00
09BE:  CLRF   FF7
09C0:  ADDLW  CE
09C2:  MOVWF  FF6
09C4:  MOVLW  09
09C6:  ADDWFC FF7,F
09C8:  TBLRD*+
09CA:  MOVF   FF5,W
09CC:  RETURN 0
09CE:  DATA 53,74
09D0:  DATA 61,74
09D2:  DATA 75,73
09D4:  DATA 3A,46
09D6:  DATA 69,6E
09D8:  DATA 61,6C
09DA:  DATA 69,7A
09DC:  DATA 61,64
09DE:  DATA 6F,00
09E0:  CLRF   FF7
09E2:  ADDLW  F0
09E4:  MOVWF  FF6
09E6:  MOVLW  09
09E8:  ADDWFC FF7,F
09EA:  TBLRD*+
09EC:  MOVF   FF5,W
09EE:  RETURN 0
09F0:  DATA 52,65
09F2:  DATA 67,72
09F4:  DATA 65,73
09F6:  DATA 61,72
09F8:  DATA 00,00
09FA:  CLRF   FF7
09FC:  ADDLW  0A
09FE:  MOVWF  FF6
0A00:  MOVLW  0A
0A02:  ADDWFC FF7,F
0A04:  TBLRD*+
0A06:  MOVF   FF5,W
0A08:  RETURN 0
0A0A:  DATA 47,61
0A0C:  DATA 6E,61
0A0E:  DATA 6E,63
0A10:  DATA 69,61
0A12:  DATA 00,00
0A14:  CLRF   FF7
0A16:  ADDLW  24
0A18:  MOVWF  FF6
0A1A:  MOVLW  0A
0A1C:  ADDWFC FF7,F
0A1E:  TBLRD*+
0A20:  MOVF   FF5,W
0A22:  RETURN 0
0A24:  DATA 54,63
0A26:  DATA 69,63
0A28:  DATA 6C,6F
0A2A:  DATA 00,00
0A2C:  CLRF   FF7
0A2E:  ADDLW  3C
0A30:  MOVWF  FF6
0A32:  MOVLW  0A
0A34:  ADDWFC FF7,F
0A36:  TBLRD*+
0A38:  MOVF   FF5,W
0A3A:  RETURN 0
0A3C:  DATA 41,6A
0A3E:  DATA 75,73
0A40:  DATA 74,65
0A42:  DATA 20,2B
0A44:  DATA 00,00
0A46:  CLRF   FF7
0A48:  ADDLW  56
0A4A:  MOVWF  FF6
0A4C:  MOVLW  0A
0A4E:  ADDWFC FF7,F
0A50:  TBLRD*+
0A52:  MOVF   FF5,W
0A54:  RETURN 0
0A56:  DATA 41,6A
0A58:  DATA 75,73
0A5A:  DATA 74,65
0A5C:  DATA 20,2D
0A5E:  DATA 00,00
0A60:  CLRF   FF7
0A62:  ADDLW  70
0A64:  MOVWF  FF6
0A66:  MOVLW  0A
0A68:  ADDWFC FF7,F
0A6A:  TBLRD*+
0A6C:  MOVF   FF5,W
0A6E:  RETURN 0
0A70:  DATA 4D,65
0A72:  DATA 64,69
0A74:  DATA 61,20
0A76:  DATA 4D,6F
0A78:  DATA 76,69
0A7A:  DATA 6C,00
0A7C:  CLRF   FF7
0A7E:  ADDLW  8C
0A80:  MOVWF  FF6
0A82:  MOVLW  0A
0A84:  ADDWFC FF7,F
0A86:  TBLRD*+
0A88:  MOVF   FF5,W
0A8A:  RETURN 0
0A8C:  DATA 43,6F
0A8E:  DATA 65,66
0A90:  DATA 69,63
0A92:  DATA 69,65
0A94:  DATA 6E,74
0A96:  DATA 65,00
0A98:  CLRF   FF7
0A9A:  ADDLW  A8
0A9C:  MOVWF  FF6
0A9E:  MOVLW  0A
0AA0:  ADDWFC FF7,F
0AA2:  TBLRD*+
0AA4:  MOVF   FF5,W
0AA6:  RETURN 0
0AA8:  DATA 41,6A
0AAA:  DATA 75,73
0AAC:  DATA 74,65
0AAE:  DATA 00,00
0AB0:  CLRF   FF7
0AB2:  ADDLW  C0
0AB4:  MOVWF  FF6
0AB6:  MOVLW  0A
0AB8:  ADDWFC FF7,F
0ABA:  TBLRD*+
0ABC:  MOVF   FF5,W
0ABE:  RETURN 0
0AC0:  DATA 41,6A
0AC2:  DATA 75,73
0AC4:  DATA 74,65
0AC6:  DATA 6E,00
0AC8:  CLRF   FF7
0ACA:  ADDLW  D8
0ACC:  MOVWF  FF6
0ACE:  MOVLW  0A
0AD0:  ADDWFC FF7,F
0AD2:  TBLRD*+
0AD4:  MOVF   FF5,W
0AD6:  RETURN 0
0AD8:  DATA 4D,65
0ADA:  DATA 64,69
0ADC:  DATA 61,00
*
0BA0:  MOVLW  8E
0BA2:  MOVWF  00
0BA4:  MOVFF  646,01
0BA8:  MOVFF  645,02
0BAC:  CLRF   03
0BAE:  MOVF   01,F
0BB0:  BNZ   0BC4
0BB2:  MOVFF  02,01
0BB6:  CLRF   02
0BB8:  MOVLW  08
0BBA:  SUBWF  00,F
0BBC:  MOVF   01,F
0BBE:  BNZ   0BC4
0BC0:  CLRF   00
0BC2:  BRA    0BD4
0BC4:  BCF    FD8.0
0BC6:  BTFSC  01.7
0BC8:  BRA    0BD2
0BCA:  RLCF   02,F
0BCC:  RLCF   01,F
0BCE:  DECF   00,F
0BD0:  BRA    0BC4
0BD2:  BCF    01.7
0BD4:  RETURN 0
0BD6:  MOVFF  640,647
0BDA:  MOVLB  6
0BDC:  MOVF   x44,W
0BDE:  XORWF  x47,F
0BE0:  BTFSS  x47.7
0BE2:  BRA    0BEE
0BE4:  BCF    FD8.2
0BE6:  BCF    FD8.0
0BE8:  BTFSC  x40.7
0BEA:  BSF    FD8.0
0BEC:  BRA    0C4C
0BEE:  MOVFF  640,647
0BF2:  MOVFF  643,648
0BF6:  MOVF   x3F,W
0BF8:  SUBWF  x48,F
0BFA:  BZ    0C08
0BFC:  BTFSS  x47.7
0BFE:  BRA    0C4C
0C00:  MOVF   FD8,W
0C02:  XORLW  01
0C04:  MOVWF  FD8
0C06:  BRA    0C4C
0C08:  MOVFF  644,648
0C0C:  MOVF   x40,W
0C0E:  SUBWF  x48,F
0C10:  BZ    0C1E
0C12:  BTFSS  x47.7
0C14:  BRA    0C4C
0C16:  MOVF   FD8,W
0C18:  XORLW  01
0C1A:  MOVWF  FD8
0C1C:  BRA    0C4C
0C1E:  MOVFF  645,648
0C22:  MOVF   x41,W
0C24:  SUBWF  x48,F
0C26:  BZ    0C34
0C28:  BTFSS  x47.7
0C2A:  BRA    0C4C
0C2C:  MOVF   FD8,W
0C2E:  XORLW  01
0C30:  MOVWF  FD8
0C32:  BRA    0C4C
0C34:  MOVFF  646,648
0C38:  MOVF   x42,W
0C3A:  SUBWF  x48,F
0C3C:  BZ    0C4A
0C3E:  BTFSS  x47.7
0C40:  BRA    0C4C
0C42:  MOVF   FD8,W
0C44:  XORLW  01
0C46:  MOVWF  FD8
0C48:  BRA    0C4C
0C4A:  BCF    FD8.0
0C4C:  MOVLB  0
0C4E:  RETURN 0
*
1390:  MOVLB  6
1392:  MOVF   x55,W
1394:  CLRF   01
1396:  SUBWF  x54,W
1398:  BC    13A0
139A:  MOVFF  654,00
139E:  BRA    13B8
13A0:  CLRF   00
13A2:  MOVLW  08
13A4:  MOVWF  x56
13A6:  RLCF   x54,F
13A8:  RLCF   00,F
13AA:  MOVF   x55,W
13AC:  SUBWF  00,W
13AE:  BTFSC  FD8.0
13B0:  MOVWF  00
13B2:  RLCF   01,F
13B4:  DECFSZ x56,F
13B6:  BRA    13A6
13B8:  MOVLB  0
13BA:  RETURN 0
13BC:  MOVFF  63E,FEA
13C0:  MOVFF  63D,FE9
13C4:  MOVLB  6
13C6:  MOVFF  65C,FEF
13CA:  INCF   FE9,F
13CC:  BTFSC  FD8.2
13CE:  INCF   FEA,F
13D0:  CLRF   FEF
13D2:  INCF   x3D,F
13D4:  BTFSC  FD8.2
13D6:  INCF   x3E,F
13D8:  MOVLB  0
13DA:  RETURN 0
13DC:  MOVLW  20
13DE:  MOVLB  6
13E0:  BTFSS  x4F.4
13E2:  MOVLW  30
13E4:  MOVWF  x50
13E6:  MOVFF  64E,00
13EA:  BTFSS  x4E.7
13EC:  BRA    13FE
13EE:  COMF   00,F
13F0:  INCF   00,F
13F2:  MOVFF  00,64E
13F6:  MOVLW  2D
13F8:  MOVWF  x50
13FA:  BSF    x4F.7
13FC:  BSF    x4F.0
13FE:  MOVF   01,W
1400:  MOVFF  64E,654
1404:  MOVLW  64
1406:  MOVWF  x55
1408:  MOVLB  0
140A:  RCALL  1390
140C:  MOVFF  00,64E
1410:  MOVLW  30
1412:  ADDWF  01,W
1414:  MOVLB  6
1416:  MOVWF  x51
1418:  MOVFF  64E,654
141C:  MOVLW  0A
141E:  MOVWF  x55
1420:  MOVLB  0
1422:  RCALL  1390
1424:  MOVLW  30
1426:  ADDWF  00,W
1428:  MOVLB  6
142A:  MOVWF  x53
142C:  MOVLW  30
142E:  ADDWF  01,W
1430:  MOVWF  x52
1432:  MOVFF  650,00
1436:  MOVLW  30
1438:  SUBWF  x51,W
143A:  BZ    1444
143C:  BSF    x4F.1
143E:  BTFSC  x4F.7
1440:  BSF    x4F.2
1442:  BRA    1468
1444:  MOVFF  650,651
1448:  MOVLW  20
144A:  MOVWF  x50
144C:  MOVLW  30
144E:  SUBWF  x52,W
1450:  BZ    145A
1452:  BSF    x4F.0
1454:  BTFSC  x4F.7
1456:  BSF    x4F.1
1458:  BRA    1468
145A:  BTFSS  FD8.2
145C:  BSF    x4F.0
145E:  BNZ   1468
1460:  MOVFF  651,652
1464:  MOVLW  20
1466:  MOVWF  x51
1468:  BTFSC  x4F.2
146A:  BRA    1476
146C:  BTFSC  x4F.1
146E:  BRA    147E
1470:  BTFSC  x4F.0
1472:  BRA    1486
1474:  BRA    148E
1476:  MOVFF  650,65C
147A:  MOVLB  0
147C:  RCALL  13BC
147E:  MOVFF  651,65C
1482:  MOVLB  0
1484:  RCALL  13BC
1486:  MOVFF  652,65C
148A:  MOVLB  0
148C:  RCALL  13BC
148E:  MOVFF  653,65C
1492:  MOVLB  0
1494:  RCALL  13BC
1496:  GOTO   14B0 (RETURN)
*
15AA:  MOVLB  6
15AC:  MOVF   x40,W
15AE:  BTFSC  FD8.2
15B0:  BRA    16FC
15B2:  MOVWF  x4C
15B4:  MOVF   x44,W
15B6:  BTFSC  FD8.2
15B8:  BRA    16FC
15BA:  SUBWF  x4C,F
15BC:  BNC   15C8
15BE:  MOVLW  7F
15C0:  ADDWF  x4C,F
15C2:  BTFSC  FD8.0
15C4:  BRA    16FC
15C6:  BRA    15D4
15C8:  MOVLW  81
15CA:  SUBWF  x4C,F
15CC:  BTFSS  FD8.0
15CE:  BRA    16FC
15D0:  BTFSC  FD8.2
15D2:  BRA    16FC
15D4:  MOVFF  64C,00
15D8:  CLRF   01
15DA:  CLRF   02
15DC:  CLRF   03
15DE:  CLRF   x4B
15E0:  MOVFF  641,64A
15E4:  BSF    x4A.7
15E6:  MOVFF  642,649
15EA:  MOVFF  643,648
15EE:  MOVLW  19
15F0:  MOVWF  x4C
15F2:  MOVF   x47,W
15F4:  SUBWF  x48,F
15F6:  BC    1612
15F8:  MOVLW  01
15FA:  SUBWF  x49,F
15FC:  BC    1612
15FE:  SUBWF  x4A,F
1600:  BC    1612
1602:  SUBWF  x4B,F
1604:  BC    1612
1606:  INCF   x4B,F
1608:  INCF   x4A,F
160A:  INCF   x49,F
160C:  MOVF   x47,W
160E:  ADDWF  x48,F
1610:  BRA    1662
1612:  MOVF   x46,W
1614:  SUBWF  x49,F
1616:  BC    163C
1618:  MOVLW  01
161A:  SUBWF  x4A,F
161C:  BC    163C
161E:  SUBWF  x4B,F
1620:  BC    163C
1622:  INCF   x4B,F
1624:  INCF   x4A,F
1626:  MOVF   x46,W
1628:  ADDWF  x49,F
162A:  MOVF   x47,W
162C:  ADDWF  x48,F
162E:  BNC   1662
1630:  INCF   x49,F
1632:  BNZ   1662
1634:  INCF   x4A,F
1636:  BNZ   1662
1638:  INCF   x4B,F
163A:  BRA    1662
163C:  MOVF   x45,W
163E:  IORLW  80
1640:  SUBWF  x4A,F
1642:  BC    1660
1644:  MOVLW  01
1646:  SUBWF  x4B,F
1648:  BC    1660
164A:  INCF   x4B,F
164C:  MOVF   x45,W
164E:  IORLW  80
1650:  ADDWF  x4A,F
1652:  MOVF   x46,W
1654:  ADDWF  x49,F
1656:  BNC   162A
1658:  INCF   x4A,F
165A:  BNZ   162A
165C:  INCF   x4B,F
165E:  BRA    162A
1660:  BSF    03.0
1662:  DECFSZ x4C,F
1664:  BRA    1668
1666:  BRA    167E
1668:  BCF    FD8.0
166A:  RLCF   x48,F
166C:  RLCF   x49,F
166E:  RLCF   x4A,F
1670:  RLCF   x4B,F
1672:  BCF    FD8.0
1674:  RLCF   03,F
1676:  RLCF   02,F
1678:  RLCF   01,F
167A:  RLCF   x4D,F
167C:  BRA    15F2
167E:  BTFSS  x4D.0
1680:  BRA    168E
1682:  BCF    FD8.0
1684:  RRCF   01,F
1686:  RRCF   02,F
1688:  RRCF   03,F
168A:  RRCF   x4D,F
168C:  BRA    1692
168E:  DECF   00,F
1690:  BZ    16FC
1692:  BTFSC  x4D.7
1694:  BRA    16D2
1696:  BCF    FD8.0
1698:  RLCF   x48,F
169A:  RLCF   x49,F
169C:  RLCF   x4A,F
169E:  RLCF   x4B,F
16A0:  MOVF   x47,W
16A2:  SUBWF  x48,F
16A4:  BC    16B4
16A6:  MOVLW  01
16A8:  SUBWF  x49,F
16AA:  BC    16B4
16AC:  SUBWF  x4A,F
16AE:  BC    16B4
16B0:  SUBWF  x4B,F
16B2:  BNC   16E8
16B4:  MOVF   x46,W
16B6:  SUBWF  x49,F
16B8:  BC    16C4
16BA:  MOVLW  01
16BC:  SUBWF  x4A,F
16BE:  BC    16C4
16C0:  SUBWF  x4B,F
16C2:  BNC   16E8
16C4:  MOVF   x45,W
16C6:  IORLW  80
16C8:  SUBWF  x4A,F
16CA:  BC    16D2
16CC:  MOVLW  01
16CE:  SUBWF  x4B,F
16D0:  BNC   16E8
16D2:  INCF   03,F
16D4:  BNZ   16E8
16D6:  INCF   02,F
16D8:  BNZ   16E8
16DA:  INCF   01,F
16DC:  BNZ   16E8
16DE:  INCF   00,F
16E0:  BZ    16FC
16E2:  RRCF   01,F
16E4:  RRCF   02,F
16E6:  RRCF   03,F
16E8:  MOVFF  641,64C
16EC:  MOVF   x45,W
16EE:  XORWF  x4C,F
16F0:  BTFSS  x4C.7
16F2:  BRA    16F8
16F4:  BSF    01.7
16F6:  BRA    1704
16F8:  BCF    01.7
16FA:  BRA    1704
16FC:  CLRF   00
16FE:  CLRF   01
1700:  CLRF   02
1702:  CLRF   03
1704:  MOVLB  0
1706:  RETURN 0
1708:  MOVLW  80
170A:  BTFSS  FD8.1
170C:  BRA    1712
170E:  MOVLB  6
1710:  XORWF  x49,F
1712:  MOVLB  6
1714:  CLRF   x4E
1716:  CLRF   x4F
1718:  MOVFF  645,64D
171C:  MOVF   x49,W
171E:  XORWF  x4D,F
1720:  MOVF   x44,W
1722:  BTFSC  FD8.2
1724:  BRA    18E4
1726:  MOVWF  x4C
1728:  MOVWF  00
172A:  MOVF   x48,W
172C:  BTFSC  FD8.2
172E:  BRA    18F6
1730:  SUBWF  x4C,F
1732:  BTFSC  FD8.2
1734:  BRA    183C
1736:  BNC   17B4
1738:  MOVFF  649,652
173C:  BSF    x52.7
173E:  MOVFF  64A,651
1742:  MOVFF  64B,650
1746:  CLRF   x4F
1748:  BCF    FD8.0
174A:  RRCF   x52,F
174C:  RRCF   x51,F
174E:  RRCF   x50,F
1750:  RRCF   x4F,F
1752:  DECFSZ x4C,F
1754:  BRA    1746
1756:  BTFSS  x4D.7
1758:  BRA    1760
175A:  BSF    x4E.0
175C:  BRA    191E
175E:  BCF    x4E.0
1760:  BCF    x4C.0
1762:  BSF    x4E.4
1764:  MOVLW  06
1766:  MOVWF  FEA
1768:  MOVLW  47
176A:  MOVWF  FE9
176C:  BRA    1944
176E:  BCF    x4E.4
1770:  BTFSC  x4D.7
1772:  BRA    1788
1774:  BTFSS  x4C.0
1776:  BRA    179E
1778:  RRCF   x52,F
177A:  RRCF   x51,F
177C:  RRCF   x50,F
177E:  RRCF   x4F,F
1780:  INCF   00,F
1782:  BTFSC  FD8.2
1784:  BRA    1914
1786:  BRA    179E
1788:  BTFSC  x52.7
178A:  BRA    17A4
178C:  BCF    FD8.0
178E:  RLCF   x4F,F
1790:  RLCF   x50,F
1792:  RLCF   x51,F
1794:  RLCF   x52,F
1796:  DECF   00,F
1798:  BTFSC  FD8.2
179A:  BRA    1914
179C:  BRA    1788
179E:  BSF    x4E.6
17A0:  BRA    187C
17A2:  BCF    x4E.6
17A4:  MOVFF  645,64D
17A8:  BTFSS  x45.7
17AA:  BRA    17B0
17AC:  BSF    x52.7
17AE:  BRA    1906
17B0:  BCF    x52.7
17B2:  BRA    1906
17B4:  MOVFF  648,64C
17B8:  MOVFF  648,00
17BC:  MOVF   x44,W
17BE:  SUBWF  x4C,F
17C0:  MOVFF  645,652
17C4:  BSF    x52.7
17C6:  MOVFF  646,651
17CA:  MOVFF  647,650
17CE:  CLRF   x4F
17D0:  BCF    FD8.0
17D2:  RRCF   x52,F
17D4:  RRCF   x51,F
17D6:  RRCF   x50,F
17D8:  RRCF   x4F,F
17DA:  DECFSZ x4C,F
17DC:  BRA    17CE
17DE:  BTFSS  x4D.7
17E0:  BRA    17E8
17E2:  BSF    x4E.1
17E4:  BRA    191E
17E6:  BCF    x4E.1
17E8:  BCF    x4C.0
17EA:  BSF    x4E.5
17EC:  MOVLW  06
17EE:  MOVWF  FEA
17F0:  MOVLW  4B
17F2:  MOVWF  FE9
17F4:  BRA    1944
17F6:  BCF    x4E.5
17F8:  BTFSC  x4D.7
17FA:  BRA    1810
17FC:  BTFSS  x4C.0
17FE:  BRA    1826
1800:  RRCF   x52,F
1802:  RRCF   x51,F
1804:  RRCF   x50,F
1806:  RRCF   x4F,F
1808:  INCF   00,F
180A:  BTFSC  FD8.2
180C:  BRA    1914
180E:  BRA    1826
1810:  BTFSC  x52.7
1812:  BRA    182C
1814:  BCF    FD8.0
1816:  RLCF   x4F,F
1818:  RLCF   x50,F
181A:  RLCF   x51,F
181C:  RLCF   x52,F
181E:  DECF   00,F
1820:  BTFSC  FD8.2
1822:  BRA    1914
1824:  BRA    1810
1826:  BSF    x4E.7
1828:  BRA    187C
182A:  BCF    x4E.7
182C:  MOVFF  649,64D
1830:  BTFSS  x49.7
1832:  BRA    1838
1834:  BSF    x52.7
1836:  BRA    1906
1838:  BCF    x52.7
183A:  BRA    1906
183C:  MOVFF  649,652
1840:  BSF    x52.7
1842:  MOVFF  64A,651
1846:  MOVFF  64B,650
184A:  BTFSS  x4D.7
184C:  BRA    1856
184E:  BCF    x52.7
1850:  BSF    x4E.2
1852:  BRA    191E
1854:  BCF    x4E.2
1856:  CLRF   x4F
1858:  BCF    x4C.0
185A:  MOVLW  06
185C:  MOVWF  FEA
185E:  MOVLW  47
1860:  MOVWF  FE9
1862:  BRA    1944
1864:  BTFSC  x4D.7
1866:  BRA    18A0
1868:  MOVFF  645,64D
186C:  BTFSS  x4C.0
186E:  BRA    187C
1870:  RRCF   x52,F
1872:  RRCF   x51,F
1874:  RRCF   x50,F
1876:  RRCF   x4F,F
1878:  INCF   00,F
187A:  BZ    1914
187C:  BTFSS  x4F.7
187E:  BRA    1896
1880:  INCF   x50,F
1882:  BNZ   1896
1884:  INCF   x51,F
1886:  BNZ   1896
1888:  INCF   x52,F
188A:  BNZ   1896
188C:  RRCF   x52,F
188E:  RRCF   x51,F
1890:  RRCF   x50,F
1892:  INCF   00,F
1894:  BZ    1914
1896:  BTFSC  x4E.6
1898:  BRA    17A2
189A:  BTFSC  x4E.7
189C:  BRA    182A
189E:  BRA    18D8
18A0:  MOVLW  80
18A2:  XORWF  x52,F
18A4:  BTFSS  x52.7
18A6:  BRA    18B0
18A8:  BRA    191E
18AA:  MOVFF  649,64D
18AE:  BRA    18C4
18B0:  MOVFF  645,64D
18B4:  MOVF   x52,F
18B6:  BNZ   18C4
18B8:  MOVF   x51,F
18BA:  BNZ   18C4
18BC:  MOVF   x50,F
18BE:  BNZ   18C4
18C0:  CLRF   00
18C2:  BRA    1906
18C4:  BTFSC  x52.7
18C6:  BRA    18D8
18C8:  BCF    FD8.0
18CA:  RLCF   x4F,F
18CC:  RLCF   x50,F
18CE:  RLCF   x51,F
18D0:  RLCF   x52,F
18D2:  DECFSZ 00,F
18D4:  BRA    18C4
18D6:  BRA    1914
18D8:  BTFSS  x4D.7
18DA:  BRA    18E0
18DC:  BSF    x52.7
18DE:  BRA    1906
18E0:  BCF    x52.7
18E2:  BRA    1906
18E4:  MOVFF  648,00
18E8:  MOVFF  649,652
18EC:  MOVFF  64A,651
18F0:  MOVFF  64B,650
18F4:  BRA    1906
18F6:  MOVFF  644,00
18FA:  MOVFF  645,652
18FE:  MOVFF  646,651
1902:  MOVFF  647,650
1906:  MOVFF  652,01
190A:  MOVFF  651,02
190E:  MOVFF  650,03
1912:  BRA    197C
1914:  CLRF   00
1916:  CLRF   01
1918:  CLRF   02
191A:  CLRF   03
191C:  BRA    197C
191E:  CLRF   x4F
1920:  COMF   x50,F
1922:  COMF   x51,F
1924:  COMF   x52,F
1926:  COMF   x4F,F
1928:  INCF   x4F,F
192A:  BNZ   1936
192C:  INCF   x50,F
192E:  BNZ   1936
1930:  INCF   x51,F
1932:  BNZ   1936
1934:  INCF   x52,F
1936:  BTFSC  x4E.0
1938:  BRA    175E
193A:  BTFSC  x4E.1
193C:  BRA    17E6
193E:  BTFSC  x4E.2
1940:  BRA    1854
1942:  BRA    18AA
1944:  MOVF   FEF,W
1946:  ADDWF  x50,F
1948:  BNC   1954
194A:  INCF   x51,F
194C:  BNZ   1954
194E:  INCF   x52,F
1950:  BTFSC  FD8.2
1952:  BSF    x4C.0
1954:  MOVF   FED,F
1956:  MOVF   FEF,W
1958:  ADDWF  x51,F
195A:  BNC   1962
195C:  INCF   x52,F
195E:  BTFSC  FD8.2
1960:  BSF    x4C.0
1962:  MOVF   FED,F
1964:  MOVF   FEF,W
1966:  BTFSC  FEF.7
1968:  BRA    196C
196A:  XORLW  80
196C:  ADDWF  x52,F
196E:  BTFSC  FD8.0
1970:  BSF    x4C.0
1972:  BTFSC  x4E.4
1974:  BRA    176E
1976:  BTFSC  x4E.5
1978:  BRA    17F6
197A:  BRA    1864
197C:  MOVLB  0
197E:  RETURN 0
1980:  MOVLB  6
1982:  MOVF   x43,W
1984:  MULWF  x45
1986:  MOVFF  FF3,01
198A:  MOVFF  FF4,00
198E:  MULWF  x46
1990:  MOVF   FF3,W
1992:  ADDWF  00,F
1994:  MOVF   x44,W
1996:  MULWF  x45
1998:  MOVF   FF3,W
199A:  ADDWFC 00,W
199C:  MOVWF  02
199E:  MOVLB  0
19A0:  RETURN 0
19A2:  MOVLB  6
19A4:  MOVF   x5C,W
19A6:  BTFSC  FD8.2
19A8:  BRA    1A8C
19AA:  MOVWF  00
19AC:  MOVF   x60,W
19AE:  BTFSC  FD8.2
19B0:  BRA    1A8C
19B2:  ADDWF  00,F
19B4:  BNC   19BE
19B6:  MOVLW  81
19B8:  ADDWF  00,F
19BA:  BC    1A8C
19BC:  BRA    19C6
19BE:  MOVLW  7F
19C0:  SUBWF  00,F
19C2:  BNC   1A8C
19C4:  BZ    1A8C
19C6:  MOVFF  65D,664
19CA:  MOVF   x61,W
19CC:  XORWF  x64,F
19CE:  BSF    x5D.7
19D0:  BSF    x61.7
19D2:  MOVF   x5F,W
19D4:  MULWF  x63
19D6:  MOVFF  FF4,666
19DA:  MOVF   x5E,W
19DC:  MULWF  x62
19DE:  MOVFF  FF4,03
19E2:  MOVFF  FF3,665
19E6:  MULWF  x63
19E8:  MOVF   FF3,W
19EA:  ADDWF  x66,F
19EC:  MOVF   FF4,W
19EE:  ADDWFC x65,F
19F0:  MOVLW  00
19F2:  ADDWFC 03,F
19F4:  MOVF   x5F,W
19F6:  MULWF  x62
19F8:  MOVF   FF3,W
19FA:  ADDWF  x66,F
19FC:  MOVF   FF4,W
19FE:  ADDWFC x65,F
1A00:  MOVLW  00
1A02:  CLRF   02
1A04:  ADDWFC 03,F
1A06:  ADDWFC 02,F
1A08:  MOVF   x5D,W
1A0A:  MULWF  x63
1A0C:  MOVF   FF3,W
1A0E:  ADDWF  x65,F
1A10:  MOVF   FF4,W
1A12:  ADDWFC 03,F
1A14:  MOVLW  00
1A16:  ADDWFC 02,F
1A18:  MOVF   x5D,W
1A1A:  MULWF  x62
1A1C:  MOVF   FF3,W
1A1E:  ADDWF  03,F
1A20:  MOVF   FF4,W
1A22:  ADDWFC 02,F
1A24:  MOVLW  00
1A26:  CLRF   01
1A28:  ADDWFC 01,F
1A2A:  MOVF   x5F,W
1A2C:  MULWF  x61
1A2E:  MOVF   FF3,W
1A30:  ADDWF  x65,F
1A32:  MOVF   FF4,W
1A34:  ADDWFC 03,F
1A36:  MOVLW  00
1A38:  ADDWFC 02,F
1A3A:  ADDWFC 01,F
1A3C:  MOVF   x5E,W
1A3E:  MULWF  x61
1A40:  MOVF   FF3,W
1A42:  ADDWF  03,F
1A44:  MOVF   FF4,W
1A46:  ADDWFC 02,F
1A48:  MOVLW  00
1A4A:  ADDWFC 01,F
1A4C:  MOVF   x5D,W
1A4E:  MULWF  x61
1A50:  MOVF   FF3,W
1A52:  ADDWF  02,F
1A54:  MOVF   FF4,W
1A56:  ADDWFC 01,F
1A58:  INCF   00,F
1A5A:  BTFSC  01.7
1A5C:  BRA    1A68
1A5E:  RLCF   x65,F
1A60:  RLCF   03,F
1A62:  RLCF   02,F
1A64:  RLCF   01,F
1A66:  DECF   00,F
1A68:  MOVLW  00
1A6A:  BTFSS  x65.7
1A6C:  BRA    1A82
1A6E:  INCF   03,F
1A70:  ADDWFC 02,F
1A72:  ADDWFC 01,F
1A74:  MOVF   01,W
1A76:  BNZ   1A82
1A78:  MOVF   02,W
1A7A:  BNZ   1A82
1A7C:  MOVF   03,W
1A7E:  BNZ   1A82
1A80:  INCF   00,F
1A82:  BTFSC  x64.7
1A84:  BSF    01.7
1A86:  BTFSS  x64.7
1A88:  BCF    01.7
1A8A:  BRA    1A94
1A8C:  CLRF   00
1A8E:  CLRF   01
1A90:  CLRF   02
1A92:  CLRF   03
1A94:  MOVLB  0
1A96:  RETURN 0
*
1E3A:  CLRF   00
1E3C:  CLRF   01
1E3E:  MOVLB  6
1E40:  MOVF   x48,W
1E42:  BCF    FD8.0
1E44:  BTFSC  x49.0
1E46:  ADDWF  00,F
1E48:  RRCF   00,F
1E4A:  RRCF   01,F
1E4C:  BTFSC  x49.1
1E4E:  ADDWF  00,F
1E50:  RRCF   00,F
1E52:  RRCF   01,F
1E54:  BTFSC  x49.2
1E56:  ADDWF  00,F
1E58:  RRCF   00,F
1E5A:  RRCF   01,F
1E5C:  BTFSC  x49.3
1E5E:  ADDWF  00,F
1E60:  RRCF   00,F
1E62:  RRCF   01,F
1E64:  BTFSC  x49.4
1E66:  ADDWF  00,F
1E68:  RRCF   00,F
1E6A:  RRCF   01,F
1E6C:  BTFSC  x49.5
1E6E:  ADDWF  00,F
1E70:  RRCF   00,F
1E72:  RRCF   01,F
1E74:  BTFSC  x49.6
1E76:  ADDWF  00,F
1E78:  RRCF   00,F
1E7A:  RRCF   01,F
1E7C:  BTFSC  x49.7
1E7E:  ADDWF  00,F
1E80:  RRCF   00,F
1E82:  RRCF   01,F
1E84:  MOVLB  0
1E86:  RETURN 0
*
20B0:  MOVFF  FEA,658
20B4:  MOVFF  FE9,657
20B8:  MOVLB  6
20BA:  SWAPF  x51,W
20BC:  IORLW  F0
20BE:  MOVWF  x53
20C0:  ADDWF  x53,F
20C2:  ADDLW  E2
20C4:  MOVWF  x54
20C6:  ADDLW  32
20C8:  MOVWF  x56
20CA:  MOVF   x51,W
20CC:  ANDLW  0F
20CE:  ADDWF  x54,F
20D0:  ADDWF  x54,F
20D2:  ADDWF  x56,F
20D4:  ADDLW  E9
20D6:  MOVWF  x55
20D8:  ADDWF  x55,F
20DA:  ADDWF  x55,F
20DC:  SWAPF  x50,W
20DE:  ANDLW  0F
20E0:  ADDWF  x55,F
20E2:  ADDWF  x56,F
20E4:  RLCF   x55,F
20E6:  RLCF   x56,F
20E8:  COMF   x56,F
20EA:  RLCF   x56,F
20EC:  MOVF   x50,W
20EE:  ANDLW  0F
20F0:  ADDWF  x56,F
20F2:  RLCF   x53,F
20F4:  MOVLW  07
20F6:  MOVWF  x52
20F8:  MOVLW  0A
20FA:  DECF   x55,F
20FC:  ADDWF  x56,F
20FE:  BNC   20FA
2100:  DECF   x54,F
2102:  ADDWF  x55,F
2104:  BNC   2100
2106:  DECF   x53,F
2108:  ADDWF  x54,F
210A:  BNC   2106
210C:  DECF   x52,F
210E:  ADDWF  x53,F
2110:  BNC   210C
2112:  MOVLW  06
2114:  MOVWF  FEA
2116:  MOVLW  52
2118:  MOVWF  FE9
211A:  MOVLW  07
211C:  ANDWF  x57,W
211E:  BCF    x57.6
2120:  ADDWF  FE9,F
2122:  MOVLW  00
2124:  ADDWFC FEA,F
2126:  MOVF   FE9,W
2128:  SUBLW  56
212A:  BNZ   2134
212C:  MOVF   FEA,W
212E:  SUBLW  06
2130:  BNZ   2134
2132:  BSF    x57.6
2134:  MOVF   FEF,W
2136:  MOVWF  00
2138:  BNZ   214A
213A:  BTFSC  x57.6
213C:  BRA    214A
213E:  BTFSC  x57.4
2140:  BRA    216E
2142:  BTFSC  x57.3
2144:  BRA    214A
2146:  MOVLW  20
2148:  BRA    2150
214A:  BSF    x57.3
214C:  BCF    x57.4
214E:  MOVLW  30
2150:  ADDWF  00,F
2152:  MOVFF  FEA,651
2156:  MOVFF  FE9,650
215A:  MOVFF  00,65C
215E:  MOVLB  0
2160:  CALL   13BC
2164:  MOVFF  651,FEA
2168:  MOVFF  650,FE9
216C:  MOVLB  6
216E:  MOVF   FEE,W
2170:  BTFSS  x57.6
2172:  BRA    2126
2174:  MOVLB  0
2176:  RETURN 0
*
2332:  MOVF   01,W
2334:  MOVFF  64E,654
2338:  MOVLW  64
233A:  MOVLB  6
233C:  MOVWF  x55
233E:  MOVLB  0
2340:  CALL   1390
2344:  MOVFF  00,64E
2348:  MOVF   01,W
234A:  MOVLW  30
234C:  BNZ   235E
234E:  MOVLB  6
2350:  BTFSS  x4F.1
2352:  BRA    2374
2354:  BTFSC  x4F.3
2356:  BRA    2374
2358:  BTFSC  x4F.4
235A:  MOVLW  20
235C:  BRA    2366
235E:  MOVLB  6
2360:  BCF    x4F.3
2362:  BCF    x4F.4
2364:  BSF    x4F.0
2366:  ADDWF  01,F
2368:  MOVFF  01,65C
236C:  MOVLB  0
236E:  CALL   13BC
2372:  MOVLB  6
2374:  MOVFF  64E,654
2378:  MOVLW  0A
237A:  MOVWF  x55
237C:  MOVLB  0
237E:  CALL   1390
2382:  MOVFF  00,64E
2386:  MOVF   01,W
2388:  MOVLW  30
238A:  BNZ   239C
238C:  MOVLB  6
238E:  BTFSC  x4F.3
2390:  BRA    23A8
2392:  BTFSS  x4F.0
2394:  BRA    23A8
2396:  BTFSC  x4F.4
2398:  MOVLW  20
239A:  MOVLB  0
239C:  ADDWF  01,F
239E:  MOVFF  01,65C
23A2:  CALL   13BC
23A6:  MOVLB  6
23A8:  MOVLW  30
23AA:  ADDWF  x4E,F
23AC:  MOVFF  64E,65C
23B0:  MOVLB  0
23B2:  CALL   13BC
23B6:  RETURN 0
*
2696:  MOVLW  8E
2698:  MOVWF  00
269A:  MOVLB  6
269C:  MOVF   x3F,W
269E:  SUBWF  00,F
26A0:  MOVFF  640,02
26A4:  MOVFF  641,01
26A8:  BSF    02.7
26AA:  MOVF   00,F
26AC:  BZ    26C0
26AE:  BCF    FD8.0
26B0:  MOVF   02,F
26B2:  BNZ   26B8
26B4:  MOVF   01,F
26B6:  BZ    26C0
26B8:  RRCF   02,F
26BA:  RRCF   01,F
26BC:  DECFSZ 00,F
26BE:  BRA    26AE
26C0:  BTFSS  x40.7
26C2:  BRA    26CE
26C4:  COMF   01,F
26C6:  COMF   02,F
26C8:  INCF   01,F
26CA:  BTFSC  FD8.2
26CC:  INCF   02,F
26CE:  MOVLB  0
26D0:  RETURN 0
*
311A:  MOVLB  6
311C:  MOVF   x5C,W
311E:  SUBLW  B6
3120:  MOVWF  x5C
3122:  CLRF   03
3124:  MOVFF  65D,660
3128:  BSF    x5D.7
312A:  BCF    FD8.0
312C:  RRCF   x5D,F
312E:  RRCF   x5E,F
3130:  RRCF   x5F,F
3132:  RRCF   03,F
3134:  RRCF   02,F
3136:  RRCF   01,F
3138:  RRCF   00,F
313A:  DECFSZ x5C,F
313C:  BRA    312A
313E:  BTFSS  x60.7
3140:  BRA    3158
3142:  COMF   00,F
3144:  COMF   01,F
3146:  COMF   02,F
3148:  COMF   03,F
314A:  INCF   00,F
314C:  BTFSC  FD8.2
314E:  INCF   01,F
3150:  BTFSC  FD8.2
3152:  INCF   02,F
3154:  BTFSC  FD8.2
3156:  INCF   03,F
3158:  MOVLB  0
315A:  GOTO   324A (RETURN)
315E:  BTFSC  FD8.1
3160:  BRA    316A
3162:  MOVLW  06
3164:  MOVWF  FEA
3166:  MOVLW  64
3168:  MOVWF  FE9
316A:  CLRF   00
316C:  CLRF   01
316E:  CLRF   02
3170:  CLRF   03
3172:  MOVLB  6
3174:  CLRF   x64
3176:  CLRF   x65
3178:  CLRF   x66
317A:  CLRF   x67
317C:  MOVF   x63,W
317E:  IORWF  x62,W
3180:  IORWF  x61,W
3182:  IORWF  x60,W
3184:  BZ    31DE
3186:  MOVLW  20
3188:  MOVWF  x68
318A:  BCF    FD8.0
318C:  RLCF   x5C,F
318E:  RLCF   x5D,F
3190:  RLCF   x5E,F
3192:  RLCF   x5F,F
3194:  RLCF   x64,F
3196:  RLCF   x65,F
3198:  RLCF   x66,F
319A:  RLCF   x67,F
319C:  MOVF   x63,W
319E:  SUBWF  x67,W
31A0:  BNZ   31B2
31A2:  MOVF   x62,W
31A4:  SUBWF  x66,W
31A6:  BNZ   31B2
31A8:  MOVF   x61,W
31AA:  SUBWF  x65,W
31AC:  BNZ   31B2
31AE:  MOVF   x60,W
31B0:  SUBWF  x64,W
31B2:  BNC   31D2
31B4:  MOVF   x60,W
31B6:  SUBWF  x64,F
31B8:  MOVF   x61,W
31BA:  BTFSS  FD8.0
31BC:  INCFSZ x61,W
31BE:  SUBWF  x65,F
31C0:  MOVF   x62,W
31C2:  BTFSS  FD8.0
31C4:  INCFSZ x62,W
31C6:  SUBWF  x66,F
31C8:  MOVF   x63,W
31CA:  BTFSS  FD8.0
31CC:  INCFSZ x63,W
31CE:  SUBWF  x67,F
31D0:  BSF    FD8.0
31D2:  RLCF   00,F
31D4:  RLCF   01,F
31D6:  RLCF   02,F
31D8:  RLCF   03,F
31DA:  DECFSZ x68,F
31DC:  BRA    318A
31DE:  MOVFF  664,FEF
31E2:  MOVFF  665,FEC
31E6:  MOVFF  666,FEC
31EA:  MOVFF  667,FEC
31EE:  MOVLB  0
31F0:  RETURN 0
31F2:  MOVF   FE9,W
31F4:  MOVLB  6
31F6:  MOVWF  x54
31F8:  MOVF   x53,W
31FA:  MOVWF  x56
31FC:  BZ    3236
31FE:  MOVFF  652,65F
3202:  MOVFF  651,65E
3206:  MOVFF  650,65D
320A:  MOVFF  64F,65C
320E:  CLRF   x63
3210:  CLRF   x62
3212:  MOVLW  20
3214:  MOVWF  x61
3216:  MOVLW  82
3218:  MOVWF  x60
321A:  MOVLB  0
321C:  CALL   19A2
3220:  MOVFF  03,652
3224:  MOVFF  02,651
3228:  MOVFF  01,650
322C:  MOVFF  00,64F
3230:  MOVLB  6
3232:  DECFSZ x56,F
3234:  BRA    31FE
3236:  MOVFF  652,65F
323A:  MOVFF  651,65E
323E:  MOVFF  650,65D
3242:  MOVFF  64F,65C
3246:  MOVLB  0
3248:  BRA    311A
324A:  MOVFF  03,652
324E:  MOVFF  02,651
3252:  MOVFF  01,650
3256:  MOVFF  00,64F
325A:  MOVLB  6
325C:  BTFSS  x52.7
325E:  BRA    327A
3260:  DECF   x54,F
3262:  BSF    x54.5
3264:  COMF   x4F,F
3266:  COMF   x50,F
3268:  COMF   x51,F
326A:  COMF   x52,F
326C:  INCF   x4F,F
326E:  BTFSC  FD8.2
3270:  INCF   x50,F
3272:  BTFSC  FD8.2
3274:  INCF   x51,F
3276:  BTFSC  FD8.2
3278:  INCF   x52,F
327A:  MOVLW  3B
327C:  MOVWF  x5B
327E:  MOVLW  9A
3280:  MOVWF  x5A
3282:  MOVLW  CA
3284:  MOVWF  x59
3286:  CLRF   x58
3288:  MOVLW  0A
328A:  MOVWF  x56
328C:  MOVF   x53,W
328E:  BTFSC  FD8.2
3290:  INCF   x54,F
3292:  BSF    FD8.1
3294:  MOVLW  06
3296:  MOVWF  FEA
3298:  MOVLW  4F
329A:  MOVWF  FE9
329C:  MOVFF  652,65F
32A0:  MOVFF  651,65E
32A4:  MOVFF  650,65D
32A8:  MOVFF  64F,65C
32AC:  MOVFF  65B,663
32B0:  MOVFF  65A,662
32B4:  MOVFF  659,661
32B8:  MOVFF  658,660
32BC:  MOVLB  0
32BE:  RCALL  315E
32C0:  MOVF   01,W
32C2:  MOVF   00,F
32C4:  BNZ   32EC
32C6:  MOVLB  6
32C8:  INCF   x53,W
32CA:  SUBWF  x56,W
32CC:  BTFSS  FD8.2
32CE:  BRA    32D4
32D0:  MOVLB  0
32D2:  BRA    32EC
32D4:  MOVF   x54,W
32D6:  BZ    32F2
32D8:  ANDLW  0F
32DA:  SUBWF  x56,W
32DC:  BZ    32E0
32DE:  BC    3368
32E0:  BTFSC  x54.7
32E2:  BRA    3368
32E4:  BTFSC  x54.6
32E6:  BRA    32F2
32E8:  MOVLW  20
32EA:  BRA    335A
32EC:  MOVLW  20
32EE:  MOVLB  6
32F0:  ANDWF  x54,F
32F2:  BTFSS  x54.5
32F4:  BRA    3314
32F6:  BCF    x54.5
32F8:  MOVF   x53,W
32FA:  BTFSS  FD8.2
32FC:  DECF   x54,F
32FE:  MOVF   00,W
3300:  MOVWF  x54
3302:  MOVLW  2D
3304:  MOVWF  x5C
3306:  MOVLB  0
3308:  CALL   13BC
330C:  MOVLB  6
330E:  MOVF   x54,W
3310:  MOVWF  00
3312:  CLRF   x54
3314:  MOVF   x53,W
3316:  SUBWF  x56,W
3318:  BNZ   3334
331A:  MOVF   00,W
331C:  MOVWF  x54
331E:  MOVLW  2E
3320:  MOVWF  x5C
3322:  MOVLB  0
3324:  CALL   13BC
3328:  MOVLB  6
332A:  MOVF   x54,W
332C:  MOVWF  00
332E:  MOVLW  20
3330:  ANDWF  x54,F
3332:  MOVLW  00
3334:  MOVLW  30
3336:  BTFSS  x54.5
3338:  BRA    335A
333A:  BCF    x54.5
333C:  MOVF   x53,W
333E:  BTFSS  FD8.2
3340:  DECF   x54,F
3342:  MOVF   00,W
3344:  MOVWF  x54
3346:  MOVLW  2D
3348:  MOVWF  x5C
334A:  MOVLB  0
334C:  CALL   13BC
3350:  MOVLB  6
3352:  MOVF   x54,W
3354:  MOVWF  00
3356:  CLRF   x54
3358:  MOVLW  30
335A:  ADDWF  00,F
335C:  MOVFF  00,65C
3360:  MOVLB  0
3362:  CALL   13BC
3366:  MOVLB  6
3368:  BCF    FD8.1
336A:  MOVFF  65B,65F
336E:  MOVFF  65A,65E
3372:  MOVFF  659,65D
3376:  MOVFF  658,65C
337A:  CLRF   x63
337C:  CLRF   x62
337E:  CLRF   x61
3380:  MOVLW  0A
3382:  MOVWF  x60
3384:  MOVLB  0
3386:  RCALL  315E
3388:  MOVFF  03,65B
338C:  MOVFF  02,65A
3390:  MOVFF  01,659
3394:  MOVFF  00,658
3398:  MOVLB  6
339A:  DECFSZ x56,F
339C:  BRA    3292
339E:  MOVLB  0
33A0:  GOTO   33CA (RETURN)
....................  
.................... #list 
....................  
.................... #device adc=10 
.................... #fuses XTPLL,NOWDT,NOPROTECT,NOLVP,NODEBUG,USBDIV,PLL1,CPUDIV1,VREGEN,NOMCLR 
.................... #use delay(clock=48000000) 
*
0B76:  MOVLW  06
0B78:  MOVWF  FEA
0B7A:  MOVLW  45
0B7C:  MOVWF  FE9
0B7E:  MOVF   FEF,W
0B80:  BZ    0B9E
0B82:  MOVLW  0F
0B84:  MOVWF  01
0B86:  CLRF   00
0B88:  DECFSZ 00,F
0B8A:  BRA    0B88
0B8C:  DECFSZ 01,F
0B8E:  BRA    0B86
0B90:  MOVLW  8F
0B92:  MOVWF  00
0B94:  DECFSZ 00,F
0B96:  BRA    0B94
0B98:  NOP   
0B9A:  DECFSZ FEF,F
0B9C:  BRA    0B82
0B9E:  RETURN 0
.................... #include "HDM64GS12.c" 
.................... ///////////////////////////////////////////////////////////////////////// 
.................... ////                           HDM64GS12.c                           //// 
.................... ////                                                                 //// 
.................... //// This file contains drivers for using a Hantronix HDM64GS12 with //// 
.................... //// a KS0108 display controller. The HDM64GS12 is 128 by 64 pixels. //// 
.................... //// The driver treats the upper left pixel as (0,0).                //// 
.................... ////                                                                 //// 
.................... //// Use #define FAST_GLCD if the target chip has at least 1k of RAM //// 
.................... //// to decrease the time it takes to update the display.            //// 
.................... //// glcd_update() must then be called to update the display after   //// 
.................... //// changing the pixel information.                                 //// 
.................... //// See ex_glcd.c for suggested usage.                              //// 
.................... //// See KS0108.c for controlling a single 64 by 64 display          //// 
.................... ///////////////////////////////////////////////////////////////////////// 
.................... ////                                                                 //// 
.................... //// LCD Pin connections:                                            //// 
.................... //// (These can be changed as needed in the following defines).      //// 
.................... ////  * 1: VSS is connected to GND                                   //// 
.................... ////  * 2: VDD is connected to +5V                                   //// 
.................... ////  * 3: V0  - LCD operating voltage (Constrast adjustment)        //// 
.................... ////  * 4: D/I - Data or Instruction is connected to B2              //// 
.................... ////  * 5: R/W - Read or Write is connected to B4                    //// 
.................... ////  * 6: Enable is connected to B5                                 //// 
.................... ////  *7-14: Data Bus 0 to 7 is connected to port d                  //// 
.................... ////  *15: Chip Select 1 is connected to B0                          //// 
.................... ////  *16: Chip Select 2 is connected to B1                          //// 
.................... ////  *17: Reset is connected to C0                                  //// 
.................... ////  *18: Negative voltage is also connected to the 20k Ohm POT     //// 
.................... ////  *19: Positive voltage for LED backlight is connected to +5V    //// 
.................... ////  *20: Negavtive voltage for LED backlight is connected to GND   //// 
.................... ////                                                                 //// 
.................... ///////////////////////////////////////////////////////////////////////// 
.................... ////                                                                 //// 
.................... ////  glcd_init(mode)                                                //// 
.................... ////     * Must be called before any other function.                 //// 
.................... ////       - mode can be ON or OFF to turn the LCD on or off         //// 
.................... ////                                                                 //// 
.................... ////  glcd_pixel(x,y,color)                                          //// 
.................... ////     * Sets the pixel to the given color.                        //// 
.................... ////       - color can be ON or OFF                                  //// 
.................... ////                                                                 //// 
.................... ////  glcd_fillScreen(color)                                         //// 
.................... ////     * Fills the entire LCD with the given color.                //// 
.................... ////       - color can be ON or OFF                                  //// 
.................... ////                                                                 //// 
.................... ////  glcd_update()                                                  //// 
.................... ////     * Write the display data stored in RAM to the LCD           //// 
.................... ////     * Only available if FAST_GLCD is defined                    //// 
.................... ////                                                                 //// 
.................... ///////////////////////////////////////////////////////////////////////// 
.................... ////        (C) Copyright 1996, 2004 Custom Computer Services        //// 
.................... //// This source code may only be used by licensed users of the CCS  //// 
.................... //// C compiler.  This source code may only be distributed to other  //// 
.................... //// licensed users of the CCS C compiler.  No other use,            //// 
.................... //// reproduction or distribution is permitted without written       //// 
.................... //// permission.  Derivative programs created using this software    //// 
.................... //// in object code form are not restricted in any way.              //// 
.................... ///////////////////////////////////////////////////////////////////////// 
....................  
....................  
....................  
.................... #ifndef HDM64GS12 
.................... #define HDM64GS12 
....................  
.................... #ifndef FAST_GLCD 
.................... #define FAST_GLCD 
....................  
.................... #ifndef GLCD_WIDTH 
.................... #define GLCD_WIDTH   128 
.................... #endif 
....................  
.................... #ifndef GLCD_CS1 
.................... #define GLCD_CS1     PIN_B0   // Chip Selection 1 
.................... #endif 
....................  
.................... #ifndef GLCD_CS2 
.................... #define GLCD_CS2     PIN_B1   // Chip Selection 2 
.................... #endif 
....................  
.................... #ifndef GLCD_DI 
.................... #define GLCD_DI      PIN_B5   // Data or Instruction input 
.................... #endif 
....................  
.................... #ifndef GLCD_RW 
.................... #define GLCD_RW      PIN_B4   // Read/Write 
.................... #endif 
....................  
.................... #ifndef GLCD_E 
.................... #define GLCD_E       PIN_B3   // Enable 
.................... #endif 
....................  
.................... #ifndef GLCD_RST 
.................... #define GLCD_RST     PIN_B2   // Reset 
.................... #endif 
....................  
.................... #define GLCD_LEFT    0 
.................... #define GLCD_RIGHT   1 
....................  
.................... #ifndef ON 
.................... #define ON           1 
.................... #endif 
....................  
.................... #ifndef OFF 
.................... #define OFF          0 
.................... #endif 
....................  
.................... ///////////////////////////////////////////////////////////////////////// 
.................... // Function Prototypes 
.................... ///////////////////////////////////////////////////////////////////////// 
.................... void glcd_init(int1 mode); 
.................... void glcd_pixel(int8 x, int8 y, int1 color); 
.................... void glcd_fillScreen(int1 color); 
.................... void glcd_writeByte(int1 side, BYTE data); 
.................... BYTE glcd_readByte(int1 side); 
.................... void glcd_update(); 
.................... ///////////////////////////////////////////////////////////////////////// 
....................  
.................... #ifdef FAST_GLCD 
.................... struct 
.................... { 
....................    int8 left[512]; 
....................    int8 right[512]; 
.................... } displayData; 
.................... #endif 
....................  
....................  
.................... // Purpose:       Initialize the LCD. 
.................... //                Call before using any other LCD function. 
.................... // Inputs:        OFF - Turns the LCD off 
.................... //                ON  - Turns the LCD on 
.................... void glcd_init(int1 mode) 
.................... { 
....................    // Initialze some pins 
....................    output_high(GLCD_RST); 
*
0D9A:  BCF    F93.2
0D9C:  BSF    F8A.2
....................    output_low(GLCD_E); 
0D9E:  BCF    F93.3
0DA0:  BCF    F8A.3
....................    output_low(GLCD_CS1); 
0DA2:  BCF    F93.0
0DA4:  BCF    F8A.0
....................    output_low(GLCD_CS2); 
0DA6:  BCF    F93.1
0DA8:  BCF    F8A.1
....................  
....................    output_low(GLCD_DI);                 // Set for instruction 
0DAA:  BCF    F93.5
0DAC:  BCF    F8A.5
....................    glcd_writeByte(GLCD_LEFT,  0xC0);    // Specify first RAM line at the top 
0DAE:  MOVLB  6
0DB0:  CLRF   x57
0DB2:  MOVLW  C0
0DB4:  MOVWF  x58
0DB6:  MOVLB  0
0DB8:  RCALL  0C50
....................    glcd_writeByte(GLCD_RIGHT, 0xC0);    //   of the screen 
0DBA:  MOVLW  01
0DBC:  MOVLB  6
0DBE:  MOVWF  x57
0DC0:  MOVLW  C0
0DC2:  MOVWF  x58
0DC4:  MOVLB  0
0DC6:  RCALL  0C50
....................    glcd_writeByte(GLCD_LEFT,  0x40);    // Set the column address to 0 
0DC8:  MOVLB  6
0DCA:  CLRF   x57
0DCC:  MOVLW  40
0DCE:  MOVWF  x58
0DD0:  MOVLB  0
0DD2:  RCALL  0C50
....................    glcd_writeByte(GLCD_RIGHT, 0x40); 
0DD4:  MOVLW  01
0DD6:  MOVLB  6
0DD8:  MOVWF  x57
0DDA:  MOVLW  40
0DDC:  MOVWF  x58
0DDE:  MOVLB  0
0DE0:  RCALL  0C50
....................    glcd_writeByte(GLCD_LEFT,  0xB8);    // Set the page address to 0 
0DE2:  MOVLB  6
0DE4:  CLRF   x57
0DE6:  MOVLW  B8
0DE8:  MOVWF  x58
0DEA:  MOVLB  0
0DEC:  RCALL  0C50
....................    glcd_writeByte(GLCD_RIGHT, 0xB8); 
0DEE:  MOVLW  01
0DF0:  MOVLB  6
0DF2:  MOVWF  x57
0DF4:  MOVLW  B8
0DF6:  MOVWF  x58
0DF8:  MOVLB  0
0DFA:  RCALL  0C50
....................  
....................    if(mode == ON) 
0DFC:  MOVLB  6
0DFE:  DECFSZ x3F,W
0E00:  BRA    0E1E
....................    { 
....................       glcd_writeByte(GLCD_LEFT,  0x3F); // Turn the display on 
0E02:  CLRF   x57
0E04:  MOVLW  3F
0E06:  MOVWF  x58
0E08:  MOVLB  0
0E0A:  RCALL  0C50
....................       glcd_writeByte(GLCD_RIGHT, 0x3F); 
0E0C:  MOVLW  01
0E0E:  MOVLB  6
0E10:  MOVWF  x57
0E12:  MOVLW  3F
0E14:  MOVWF  x58
0E16:  MOVLB  0
0E18:  RCALL  0C50
....................    } 
0E1A:  BRA    0E36
0E1C:  MOVLB  6
....................    else 
....................    { 
....................       glcd_writeByte(GLCD_LEFT,  0x3E); // Turn the display off 
0E1E:  CLRF   x57
0E20:  MOVLW  3E
0E22:  MOVWF  x58
0E24:  MOVLB  0
0E26:  RCALL  0C50
....................       glcd_writeByte(GLCD_RIGHT, 0x3E); 
0E28:  MOVLW  01
0E2A:  MOVLB  6
0E2C:  MOVWF  x57
0E2E:  MOVLW  3E
0E30:  MOVWF  x58
0E32:  MOVLB  0
0E34:  RCALL  0C50
....................    } 
....................  
....................    glcd_fillScreen(OFF);                // Clear the display 
0E36:  MOVLB  6
0E38:  CLRF   x40
0E3A:  MOVLB  0
0E3C:  RCALL  0C90
....................  
....................    #ifdef FAST_GLCD 
....................    glcd_update(); 
0E3E:  RCALL  0CEA
....................    #endif 
0E40:  RETURN 0
.................... } 
....................  
....................  
.................... // Purpose:    Update the LCD with data from the display arrays 
.................... #ifdef FAST_GLCD 
.................... void glcd_update() 
.................... { 
....................    int8 i, j; 
....................    int8 *p1, *p2; 
....................  
....................    p1 = displayData.left; 
*
0CEA:  MOVLB  6
0CEC:  CLRF   x53
0CEE:  MOVLW  19
0CF0:  MOVWF  x52
....................    p2 = displayData.right; 
0CF2:  MOVLW  02
0CF4:  MOVWF  x55
0CF6:  MOVLW  19
0CF8:  MOVWF  x54
....................  
....................    // Loop through the vertical pages 
....................    for(i = 0; i < 8; ++i) 
0CFA:  CLRF   x50
0CFC:  MOVF   x50,W
0CFE:  SUBLW  07
0D00:  BNC   0D96
....................    { 
....................       output_low(GLCD_DI);                      // Set for instruction 
0D02:  BCF    F93.5
0D04:  BCF    F8A.5
....................       glcd_writeByte(GLCD_LEFT, 0x40);          // Set horizontal address to 0 
0D06:  CLRF   x57
0D08:  MOVLW  40
0D0A:  MOVWF  x58
0D0C:  MOVLB  0
0D0E:  RCALL  0C50
....................       glcd_writeByte(GLCD_RIGHT, 0x40); 
0D10:  MOVLW  01
0D12:  MOVLB  6
0D14:  MOVWF  x57
0D16:  MOVLW  40
0D18:  MOVWF  x58
0D1A:  MOVLB  0
0D1C:  RCALL  0C50
....................       glcd_writeByte(GLCD_LEFT, i | 0xB8);      // Set page address 
0D1E:  MOVLB  6
0D20:  MOVF   x50,W
0D22:  IORLW  B8
0D24:  MOVWF  x56
0D26:  CLRF   x57
0D28:  MOVWF  x58
0D2A:  MOVLB  0
0D2C:  RCALL  0C50
....................       glcd_writeByte(GLCD_RIGHT, i | 0xB8); 
0D2E:  MOVLB  6
0D30:  MOVF   x50,W
0D32:  IORLW  B8
0D34:  MOVWF  x56
0D36:  MOVLW  01
0D38:  MOVWF  x57
0D3A:  MOVFF  656,658
0D3E:  MOVLB  0
0D40:  RCALL  0C50
....................       output_high(GLCD_DI);                     // Set for data 
0D42:  BCF    F93.5
0D44:  BSF    F8A.5
....................  
....................       // Loop through the horizontal sections 
....................       for(j = 0; j < 64; ++j) 
0D46:  MOVLB  6
0D48:  CLRF   x51
0D4A:  MOVF   x51,W
0D4C:  SUBLW  3F
0D4E:  BNC   0D92
....................       { 
....................          glcd_writeByte(GLCD_LEFT, *p1++);      // Turn pixels on or off 
0D50:  MOVFF  653,03
0D54:  MOVF   x52,W
0D56:  INCF   x52,F
0D58:  BTFSC  FD8.2
0D5A:  INCF   x53,F
0D5C:  MOVWF  FE9
0D5E:  MOVFF  03,FEA
0D62:  MOVFF  FEF,658
0D66:  CLRF   x57
0D68:  MOVLB  0
0D6A:  RCALL  0C50
....................          glcd_writeByte(GLCD_RIGHT, *p2++);     // Turn pixels on or off 
0D6C:  MOVLB  6
0D6E:  MOVFF  655,03
0D72:  MOVF   x54,W
0D74:  INCF   x54,F
0D76:  BTFSC  FD8.2
0D78:  INCF   x55,F
0D7A:  MOVWF  FE9
0D7C:  MOVFF  03,FEA
0D80:  MOVFF  FEF,658
0D84:  MOVLW  01
0D86:  MOVWF  x57
0D88:  MOVLB  0
0D8A:  RCALL  0C50
0D8C:  MOVLB  6
0D8E:  INCF   x51,F
0D90:  BRA    0D4A
....................       } 
0D92:  INCF   x50,F
0D94:  BRA    0CFC
....................    } 
0D96:  MOVLB  0
0D98:  RETURN 0
.................... } 
.................... #endif 
....................  
....................  
.................... // Purpose:    Turn a pixel on a graphic LCD on or off 
.................... // Inputs:     1) x - the x coordinate of the pixel 
.................... //             2) y - the y coordinate of the pixel 
.................... //             3) color - ON or OFF 
.................... void glcd_pixel(int8 x, int8 y, int1 color) 
.................... #ifdef FAST_GLCD 
.................... { 
....................    int8* p; 
....................    int16 temp; 
....................    temp =  y/8; 
*
0E42:  MOVLB  6
0E44:  CLRF   x73
0E46:  RRCF   x6E,W
0E48:  MOVWF  x72
0E4A:  RRCF   x72,F
0E4C:  RRCF   x72,F
0E4E:  MOVLW  1F
0E50:  ANDWF  x72,F
....................    temp *= 64; 
0E52:  RLCF   x72,F
0E54:  RLCF   x73,F
0E56:  RLCF   x72,F
0E58:  RLCF   x73,F
0E5A:  RLCF   x72,F
0E5C:  RLCF   x73,F
0E5E:  RLCF   x72,F
0E60:  RLCF   x73,F
0E62:  RLCF   x72,F
0E64:  RLCF   x73,F
0E66:  RLCF   x72,F
0E68:  RLCF   x73,F
0E6A:  MOVLW  C0
0E6C:  ANDWF  x72,F
....................    temp += x; 
0E6E:  MOVF   x6D,W
0E70:  ADDWF  x72,F
0E72:  MOVLW  00
0E74:  ADDWFC x73,F
....................  
....................    if(x > 63) 
0E76:  MOVF   x6D,W
0E78:  SUBLW  3F
0E7A:  BC    0E96
....................    { 
....................       p = displayData.right + temp - 64; 
0E7C:  MOVLW  19
0E7E:  ADDWF  x72,W
0E80:  MOVWF  x74
0E82:  MOVLW  02
0E84:  ADDWFC x73,W
0E86:  MOVWF  x75
0E88:  MOVLW  40
0E8A:  SUBWF  x74,W
0E8C:  MOVWF  x70
0E8E:  MOVLW  00
0E90:  SUBWFB x75,W
0E92:  MOVWF  x71
....................    } 
0E94:  BRA    0EA2
....................    else 
....................    { 
....................       p = displayData.left + temp; 
0E96:  MOVLW  19
0E98:  ADDWF  x72,W
0E9A:  MOVWF  x70
0E9C:  MOVLW  00
0E9E:  ADDWFC x73,W
0EA0:  MOVWF  x71
....................    } 
....................  
....................    if(color) 
0EA2:  MOVF   x6F,F
0EA4:  BZ    0ED0
....................    { 
....................       bit_set(*p, y%8); 
0EA6:  MOVFF  671,03
0EAA:  MOVFF  670,FE9
0EAE:  MOVFF  671,FEA
0EB2:  MOVF   x6E,W
0EB4:  ANDLW  07
0EB6:  MOVWF  x74
0EB8:  MOVLW  01
0EBA:  MOVWF  00
0EBC:  MOVF   x74,W
0EBE:  MOVWF  01
0EC0:  BZ    0ECA
0EC2:  BCF    FD8.0
0EC4:  RLCF   00,F
0EC6:  DECFSZ 01,F
0EC8:  BRA    0EC2
0ECA:  MOVF   00,W
0ECC:  IORWF  FEF,F
....................    } 
0ECE:  BRA    0EFA
....................    else 
....................    { 
....................       bit_clear(*p, y%8); 
0ED0:  MOVFF  671,03
0ED4:  MOVFF  670,FE9
0ED8:  MOVFF  671,FEA
0EDC:  MOVF   x6E,W
0EDE:  ANDLW  07
0EE0:  MOVWF  x74
0EE2:  MOVLW  01
0EE4:  MOVWF  00
0EE6:  MOVF   x74,W
0EE8:  MOVWF  01
0EEA:  BZ    0EF4
0EEC:  BCF    FD8.0
0EEE:  RLCF   00,F
0EF0:  DECFSZ 01,F
0EF2:  BRA    0EEC
0EF4:  MOVF   00,W
0EF6:  XORLW  FF
0EF8:  ANDWF  FEF,F
....................    } 
0EFA:  MOVLB  0
0EFC:  RETURN 0
.................... } 
.................... #else 
.................... { 
....................    BYTE data; 
....................    int1 side = GLCD_LEFT;  // Stores which chip to use on the LCD 
....................  
....................    if(x > 63)              // Check for first or second display area 
....................    { 
....................       x -= 64; 
....................       side = GLCD_RIGHT; 
....................    } 
....................  
....................    output_low(GLCD_DI);                         // Set for instruction 
....................    bit_clear(x,7);                              // Clear the MSB. Part of an instruction code 
....................    bit_set(x,6);                                // Set bit 6. Also part of an instruction code 
....................    glcd_writeByte(side, x);                     // Set the horizontal address 
....................    glcd_writeByte(side, (y/8 & 0xBF) | 0xB8);   // Set the vertical page address 
....................    output_high(GLCD_DI);                        // Set for data 
....................    glcd_readByte(side);                         // Need two reads to get data 
....................    data = glcd_readByte(side);                  //  at new address 
....................  
....................    if(color == ON) 
....................       bit_set(data, y%8);        // Turn the pixel on 
....................    else                          // or 
....................       bit_clear(data, y%8);      // turn the pixel off 
....................  
....................    output_low(GLCD_DI);          // Set for instruction 
....................    glcd_writeByte(side, x);      // Set the horizontal address 
....................    output_high(GLCD_DI);         // Set for data 
....................    glcd_writeByte(side, data);   // Write the pixel data 
.................... } 
.................... #endif 
....................  
....................  
.................... // Purpose:    Fill the LCD screen with the passed in color 
.................... // Inputs:     ON  - turn all the pixels on 
.................... //             OFF - turn all the pixels off 
.................... void glcd_fillScreen(int1 color) 
.................... #ifdef FAST_GLCD 
.................... { 
....................    int8  data; 
....................    int8  *p1, *p2; 
....................    int16 i; 
....................  
....................    p1 = displayData.left; 
*
0C90:  MOVLB  6
0C92:  CLRF   x43
0C94:  MOVLW  19
0C96:  MOVWF  x42
....................    p2 = displayData.right; 
0C98:  MOVLW  02
0C9A:  MOVWF  x45
0C9C:  MOVLW  19
0C9E:  MOVWF  x44
....................    data = 0xFF * color; 
0CA0:  MOVF   x40,W
0CA2:  MULLW  FF
0CA4:  MOVFF  FF3,641
....................  
....................    for(i=0; i<512; ++i) 
0CA8:  CLRF   x47
0CAA:  CLRF   x46
0CAC:  MOVF   x47,W
0CAE:  SUBLW  01
0CB0:  BNC   0CE6
....................    { 
....................       *p1++ = data; 
0CB2:  MOVFF  643,03
0CB6:  MOVF   x42,W
0CB8:  INCF   x42,F
0CBA:  BTFSC  FD8.2
0CBC:  INCF   x43,F
0CBE:  MOVWF  FE9
0CC0:  MOVFF  03,FEA
0CC4:  MOVFF  641,FEF
....................       *p2++ = data; 
0CC8:  MOVFF  645,03
0CCC:  MOVF   x44,W
0CCE:  INCF   x44,F
0CD0:  BTFSC  FD8.2
0CD2:  INCF   x45,F
0CD4:  MOVWF  FE9
0CD6:  MOVFF  03,FEA
0CDA:  MOVFF  641,FEF
0CDE:  INCF   x46,F
0CE0:  BTFSC  FD8.2
0CE2:  INCF   x47,F
0CE4:  BRA    0CAC
....................    } 
0CE6:  MOVLB  0
0CE8:  RETURN 0
.................... } 
.................... #else 
.................... { 
....................    int8 i, j; 
....................  
....................    // Loop through the vertical pages 
....................    for(i = 0; i < 8; ++i) 
....................    { 
....................       output_low(GLCD_DI);                      // Set for instruction 
....................       glcd_writeByte(GLCD_LEFT, 0b01000000);    // Set horizontal address to 0 
....................       glcd_writeByte(GLCD_RIGHT, 0b01000000); 
....................       glcd_writeByte(GLCD_LEFT, i | 0b10111000);// Set page address 
....................       glcd_writeByte(GLCD_RIGHT, i | 0b10111000); 
....................       output_high(GLCD_DI);                     // Set for data 
....................  
....................       // Loop through the horizontal sections 
....................       for(j = 0; j < 64; ++j) 
....................       { 
....................          glcd_writeByte(GLCD_LEFT, 0xFF*color);  // Turn pixels on or off 
....................          glcd_writeByte(GLCD_RIGHT, 0xFF*color); // Turn pixels on or off 
....................       } 
....................    } 
.................... } 
.................... #endif 
....................  
....................  
.................... // Purpose:    Write a byte of data to the specified chip 
.................... // Inputs:     1) chipSelect - which chip to write the data to 
.................... //             2) data - the byte of data to write 
.................... void glcd_writeByte(int1 side, BYTE data) 
.................... { 
....................    if(side)                   // Choose which side to write to 
*
0C50:  MOVLB  6
0C52:  MOVF   x57,F
0C54:  BZ    0C5C
....................       output_high(GLCD_CS2); 
0C56:  BCF    F93.1
0C58:  BSF    F8A.1
0C5A:  BRA    0C60
....................    else 
....................       output_high(GLCD_CS1); 
0C5C:  BCF    F93.0
0C5E:  BSF    F8A.0
....................  
....................    output_low(GLCD_RW);       // Set for writing 
0C60:  BCF    F93.4
0C62:  BCF    F8A.4
....................    output_d(data);            // Put the data on the port 
0C64:  CLRF   F95
0C66:  MOVFF  658,F8C
....................    delay_cycles(50); 
0C6A:  MOVLW  10
0C6C:  MOVWF  00
0C6E:  DECFSZ 00,F
0C70:  BRA    0C6E
0C72:  NOP   
....................    output_high(GLCD_E);       // Pulse the enable pin 
0C74:  BCF    F93.3
0C76:  BSF    F8A.3
....................    delay_cycles(250); 
0C78:  MOVLW  53
0C7A:  MOVWF  00
0C7C:  DECFSZ 00,F
0C7E:  BRA    0C7C
....................    output_low(GLCD_E); 
0C80:  BCF    F93.3
0C82:  BCF    F8A.3
....................  
....................    output_low(GLCD_CS1);      // Reset the chip select lines 
0C84:  BCF    F93.0
0C86:  BCF    F8A.0
....................    output_low(GLCD_CS2); 
0C88:  BCF    F93.1
0C8A:  BCF    F8A.1
0C8C:  MOVLB  0
0C8E:  RETURN 0
.................... } 
....................  
....................  
.................... // Purpose:    Reads a byte of data from the specified chip 
.................... // Ouputs:     A byte of data read from the chip 
.................... BYTE glcd_readByte(int1 side) 
.................... { 
....................    BYTE data;                 // Stores the data read from the LCD 
....................  
....................    set_tris_d(0xFF);          // Set port d to input 
....................    output_high(GLCD_RW);      // Set for reading 
....................  
....................    if(side)                   // Choose which side to write to 
....................       output_high(GLCD_CS2); 
....................    else 
....................       output_high(GLCD_CS1); 
....................  
....................    delay_cycles(50); 
....................    output_high(GLCD_E);       // Pulse the enable pin 
....................    delay_cycles(200); 
....................    data = input_d();          // Get the data from the display's output register 
....................    output_low(GLCD_E); 
....................  
....................    output_low(GLCD_CS1);      // Reset the chip select lines 
....................    output_low(GLCD_CS2); 
....................    return data;               // Return the read data 
.................... } 
....................  
.................... #endif 
....................  
.................... #include "GRAPHICS.c" 
.................... ///////////////////////////////////////////////////////////////////////// 
.................... ////                          graphics.c                             //// 
.................... ////                                                                 //// 
.................... ////   This file contains functions to draw lines, rectangles, bars, //// 
.................... ////   circles and text to a display. A function which draws a       //// 
.................... ////   single pixel must be defined before calling the functions in  //// 
.................... ////   this file. Call it glcd_pixel(x, y, color) where x is the     //// 
.................... ////   horizontal coordinate, y is the vertical coordinate, and      //// 
.................... ////   color is 1 bit to turn the pixel on or off.                   //// 
.................... ////                                                                 //// 
.................... ////   * Note: (0, 0) is treated as the upper left corner            //// 
.................... ////                                                                 //// 
.................... ///////////////////////////////////////////////////////////////////////// 
.................... ////                                                                 //// 
.................... ////  glcd_line(x1, y1, x2, y2, color)                               //// 
.................... ////     * Draws a line from the first point to the second point     //// 
.................... ////       with the given color                                      //// 
.................... ////       - color can be ON or OFF                                  //// 
.................... ////                                                                 //// 
.................... ////  glcd_rect(x1, y1, x2, y2, fill, color)                         //// 
.................... ////     * Draws a rectangle with one corner at point (x1,y1) and    //// 
.................... ////       the other corner at point (x2,y2)                         //// 
.................... ////       - fill can be YES or NO                                   //// 
.................... ////       - color can be ON or OFF                                  //// 
.................... ////                                                                 //// 
.................... ////  glcd_bar(x1, y1, x2, y2, width, color)                         //// 
.................... ////     * Draws a bar (wide line) from the first point to the       //// 
.................... ////       second point                                              //// 
.................... ////       - width is the number of pixels wide                      //// 
.................... ////       - color is ON or OFF                                      //// 
.................... ////                                                                 //// 
.................... ////  glcd_circle(x, y, radius, fill, color)                         //// 
.................... ////     * Draws a circle with center at (x,y)                       //// 
.................... ////       - fill can be YES or NO                                   //// 
.................... ////       - color can be ON or OFF                                  //// 
.................... ////                                                                 //// 
.................... ////  glcd_text57(x, y, textptr, size, color)                        //// 
.................... ////     * Write the null terminated text pointed to by textptr with //// 
.................... ////       the upper left coordinate of the first character at (x,y) //// 
.................... ////       Characters are 5 pixels wide and 7 pixels tall            //// 
.................... ////       - size is an integer that scales the size of the text     //// 
.................... ////       - color is ON or OFF                                      //// 
.................... ////     * Note - This function wraps characters to the next line    //// 
.................... ////              use #define GLCD_WIDTH to specify a display width  //// 
.................... ////                                                                 //// 
.................... ///////////////////////////////////////////////////////////////////////// 
.................... ////        (C) Copyright 1996, 2004 Custom Computer Services        //// 
.................... //// This source code may only be used by licensed users of the CCS  //// 
.................... //// C compiler.  This source code may only be distributed to other  //// 
.................... //// licensed users of the CCS C compiler.  No other use,            //// 
.................... //// reproduction or distribution is permitted without written       //// 
.................... //// permission.  Derivative programs created using this software    //// 
.................... //// in object code form are not restricted in any way.              //// 
.................... ///////////////////////////////////////////////////////////////////////// 
....................  
....................  
.................... ///////////////////////////////////////////////////////////////////////// 
.................... #ifndef GRAPHICS_DRAWING_FUNCTIONS 
.................... #define GRAPHICS_DRAWING_FUNCTIONS 
.................... ///////////////////////////////////////////////////////////////////////// 
....................  
....................  
.................... ///////////////////////////////////////////////////////////////////////// 
.................... #ifndef ON 
.................... #define ON  1 
.................... #endif 
....................  
.................... #ifndef OFF 
.................... #define OFF 0 
.................... #endif 
....................  
.................... #ifndef YES 
.................... #define YES 1 
.................... #endif 
....................  
.................... #ifndef NO 
.................... #define NO  0 
.................... #endif 
.................... ///////////////////////////////////////////////////////////////////////// 
....................  
....................  
.................... ///////////////////////////////////////////////////////////////////////// 
.................... //// Defines a 5x7 font 
.................... ///////////////////////////////////////////////////////////////////////// 
.................... const int8 FONT[51][5] ={0x00, 0x00, 0x00, 0x00, 0x00, // SPACE 
....................                          0x00, 0x00, 0x5F, 0x00, 0x00, // ! 
....................                          0x00, 0x03, 0x00, 0x03, 0x00, // " 
....................                          0x14, 0x3E, 0x14, 0x3E, 0x14, // # 
....................                          0x24, 0x2A, 0x7F, 0x2A, 0x12, // $ 
....................                          0x43, 0x33, 0x08, 0x66, 0x61, // % 
....................                          0x36, 0x49, 0x55, 0x22, 0x50, // & 
....................                          0x00, 0x05, 0x03, 0x00, 0x00, // ' 
....................                          0x00, 0x1C, 0x22, 0x41, 0x00, // ( 
....................                          0x00, 0x41, 0x22, 0x1C, 0x00, // ) 
....................                          0x14, 0x08, 0x3E, 0x08, 0x14, // * 
....................                          0x08, 0x08, 0x3E, 0x08, 0x08, // + 
....................                          0x00, 0x50, 0x30, 0x00, 0x00, // , 
....................                          0x08, 0x08, 0x08, 0x08, 0x08, // - 
....................                          0x00, 0x60, 0x60, 0x00, 0x00, // . 
....................                          0x20, 0x10, 0x08, 0x04, 0x02, // / 
....................                          0x3E, 0x51, 0x49, 0x45, 0x3E, // 0 
....................                          0x00, 0x04, 0x02, 0x7F, 0x00, // 1 
....................                          0x42, 0x61, 0x51, 0x49, 0x46, // 2 
....................                          0x22, 0x41, 0x49, 0x49, 0x36, // 3 
....................                          0x18, 0x14, 0x12, 0x7F, 0x10, // 4 
....................                          0x27, 0x45, 0x45, 0x45, 0x39, // 5 
....................                          0x3E, 0x49, 0x49, 0x49, 0x32, // 6 
....................                          0x01, 0x01, 0x71, 0x09, 0x07, // 7 
....................                          0x36, 0x49, 0x49, 0x49, 0x36, // 8 
....................                          0x26, 0x49, 0x49, 0x49, 0x3E, // 9 
....................                          0x00, 0x36, 0x36, 0x00, 0x00, // : 
....................                          0x00, 0x56, 0x36, 0x00, 0x00, // ; 
....................                          0x08, 0x14, 0x22, 0x41, 0x00, // < 
....................                          0x14, 0x14, 0x14, 0x14, 0x14, // = 
....................                          0x00, 0x41, 0x22, 0x14, 0x08, // > 
....................                          0x02, 0x01, 0x51, 0x09, 0x06, // ? 
....................                          0x3E, 0x41, 0x59, 0x55, 0x5E, // @ 
....................                          0x7E, 0x09, 0x09, 0x09, 0x7E, // A 
....................                          0x7F, 0x49, 0x49, 0x49, 0x36, // B 
....................                          0x3E, 0x41, 0x41, 0x41, 0x22, // C 
....................                          0x7F, 0x41, 0x41, 0x41, 0x3E, // D 
....................                          0x7F, 0x49, 0x49, 0x49, 0x41, // E 
....................                          0x7F, 0x09, 0x09, 0x09, 0x01, // F 
....................                          0x3E, 0x41, 0x41, 0x49, 0x3A, // G 
....................                          0x7F, 0x08, 0x08, 0x08, 0x7F, // H 
....................                          0x00, 0x41, 0x7F, 0x41, 0x00, // I 
....................                          0x30, 0x40, 0x40, 0x40, 0x3F, // J 
....................                          0x7F, 0x08, 0x14, 0x22, 0x41, // K 
....................                          0x7F, 0x40, 0x40, 0x40, 0x40, // L 
....................                          0x7F, 0x02, 0x0C, 0x02, 0x7F, // M 
....................                          0x7F, 0x02, 0x04, 0x08, 0x7F, // N 
....................                          0x3E, 0x41, 0x41, 0x41, 0x3E, // O 
....................                          0x7F, 0x09, 0x09, 0x09, 0x06, // P 
....................                          0x1E, 0x21, 0x21, 0x21, 0x5E, // Q 
....................                          0x7F, 0x09, 0x09, 0x09, 0x76};// R 
....................  
.................... const int8 FONT2[44][5]={0x26, 0x49, 0x49, 0x49, 0x32, // S 
....................                          0x01, 0x01, 0x7F, 0x01, 0x01, // T 
....................                          0x3F, 0x40, 0x40, 0x40, 0x3F, // U 
....................                          0x1F, 0x20, 0x40, 0x20, 0x1F, // V 
....................                          0x7F, 0x20, 0x10, 0x20, 0x7F, // W 
....................                          0x41, 0x22, 0x1C, 0x22, 0x41, // X 
....................                          0x07, 0x08, 0x70, 0x08, 0x07, // Y 
....................                          0x61, 0x51, 0x49, 0x45, 0x43, // Z 
....................                          0x00, 0x7F, 0x41, 0x00, 0x00, // [ 
....................                          0x02, 0x04, 0x08, 0x10, 0x20, // \ 
....................                          0x00, 0x00, 0x41, 0x7F, 0x00, // ] 
....................                          0x04, 0x02, 0x01, 0x02, 0x04, // ^ 
....................                          0x40, 0x40, 0x40, 0x40, 0x40, // _ 
....................                          0x00, 0x01, 0x02, 0x04, 0x00, // ` 
....................                          0x20, 0x54, 0x54, 0x54, 0x78, // a 
....................                          0x7F, 0x44, 0x44, 0x44, 0x38, // b 
....................                          0x38, 0x44, 0x44, 0x44, 0x44, // c 
....................                          0x38, 0x44, 0x44, 0x44, 0x7F, // d 
....................                          0x38, 0x54, 0x54, 0x54, 0x18, // e 
....................                          0x04, 0x04, 0x7E, 0x05, 0x05, // f 
....................                          0x08, 0x54, 0x54, 0x54, 0x3C, // g 
....................                          0x7F, 0x08, 0x04, 0x04, 0x78, // h 
....................                          0x00, 0x44, 0x7D, 0x40, 0x00, // i 
....................                          0x20, 0x40, 0x44, 0x3D, 0x00, // j 
....................                          0x7F, 0x10, 0x28, 0x44, 0x00, // k 
....................                          0x00, 0x41, 0x7F, 0x40, 0x00, // l 
....................                          0x7C, 0x04, 0x78, 0x04, 0x78, // m 
....................                          0x7C, 0x08, 0x04, 0x04, 0x78, // n 
....................                          0x38, 0x44, 0x44, 0x44, 0x38, // o 
....................                          0x7C, 0x14, 0x14, 0x14, 0x08, // p 
....................                          0x08, 0x14, 0x14, 0x14, 0x7C, // q 
....................                          0x00, 0x7C, 0x08, 0x04, 0x04, // r 
....................                          0x48, 0x54, 0x54, 0x54, 0x20, // s 
....................                          0x04, 0x04, 0x3F, 0x44, 0x44, // t 
....................                          0x3C, 0x40, 0x40, 0x20, 0x7C, // u 
....................                          0x1C, 0x20, 0x40, 0x20, 0x1C, // v 
....................                          0x3C, 0x40, 0x30, 0x40, 0x3C, // w 
....................                          0x44, 0x28, 0x10, 0x28, 0x44, // x 
....................                          0x0C, 0x50, 0x50, 0x50, 0x3C, // y 
....................                          0x44, 0x64, 0x54, 0x4C, 0x44, // z 
....................                          0x00, 0x08, 0x36, 0x41, 0x41, // { 
....................                          0x00, 0x00, 0x7F, 0x00, 0x00, // | 
....................                          0x41, 0x41, 0x36, 0x08, 0x00, // } 
....................                          0x02, 0x01, 0x02, 0x04, 0x02};// ~ 
.................... ///////////////////////////////////////////////////////////////////////// 
....................  
....................  
.................... ///////////////////////////////////////////////////////////////////////// 
.................... // Purpose:       Draw a line on a graphic LCD using Bresenham's 
.................... //                line drawing algorithm 
.................... // Inputs:        (x1, y1) - the start coordinate 
.................... //                (x2, y2) - the end coordinate 
.................... //                color - ON or OFF 
.................... // Dependencies:  glcd_pixel() 
.................... ///////////////////////////////////////////////////////////////////////// 
.................... #ifdef LARGE_LCD 
.................... void glcd_line(int16 x1, int16 y1, int16 x2, int16 y2, int1 color) 
.................... #else 
.................... void glcd_line(int8 x1, int8 y1, int8 x2, int8 y2, int1 color) 
.................... #endif 
*
109C:  MOVLW  01
109E:  MOVLB  6
10A0:  MOVWF  x66
10A2:  MOVWF  x67
10A4:  CLRF   x6C
.................... { 
....................    int16        dy, dx; 
....................    signed int8  addx=1, addy=1; 
....................    signed int16 P, diff; 
....................  
....................    #ifdef LARGE_LCD 
....................    int16 i=0; 
....................    dx = abs((signed int16)(x2 - x1)); 
....................    dy = abs((signed int16)(y2 - y1)); 
....................    #else 
....................    int8 i=0; 
....................    dx = abs((signed int8)(x2 - x1)); 
10A6:  MOVF   x5D,W
10A8:  SUBWF  x5F,W
10AA:  MOVWF  x6D
10AC:  MOVF   x6D,W
10AE:  BTFSS  x6D.7
10B0:  BRA    10B8
10B2:  MOVLW  00
10B4:  BSF    FD8.0
10B6:  SUBFWB x6D,W
10B8:  CLRF   03
10BA:  MOVWF  x64
10BC:  MOVFF  03,665
....................    dy = abs((signed int8)(y2 - y1)); 
10C0:  MOVF   x5E,W
10C2:  SUBWF  x60,W
10C4:  MOVWF  x6D
10C6:  MOVF   x6D,W
10C8:  BTFSS  x6D.7
10CA:  BRA    10D2
10CC:  MOVLW  00
10CE:  BSF    FD8.0
10D0:  SUBFWB x6D,W
10D2:  CLRF   03
10D4:  MOVWF  x62
10D6:  MOVFF  03,663
....................    #endif 
....................  
....................    if(x1 > x2) 
10DA:  MOVF   x5D,W
10DC:  SUBWF  x5F,W
10DE:  BC    10E2
....................       addx = -1; 
10E0:  SETF   x66
....................    if(y1 > y2) 
10E2:  MOVF   x5E,W
10E4:  SUBWF  x60,W
10E6:  BC    10EA
....................       addy = -1; 
10E8:  SETF   x67
....................  
....................    if(dx >= dy) 
10EA:  MOVF   x63,W
10EC:  SUBWF  x65,W
10EE:  BNC   1164
10F0:  BNZ   10F8
10F2:  MOVF   x62,W
10F4:  SUBWF  x64,W
10F6:  BNC   1164
....................    { 
....................       dy *= 2; 
10F8:  BCF    FD8.0
10FA:  RLCF   x62,F
10FC:  RLCF   x63,F
....................       P = dy - dx; 
10FE:  MOVF   x64,W
1100:  SUBWF  x62,W
1102:  MOVWF  00
1104:  MOVF   x65,W
1106:  SUBWFB x63,W
1108:  MOVFF  00,668
110C:  MOVWF  x69
....................       diff = P - dx; 
110E:  MOVF   x64,W
1110:  SUBWF  x68,W
1112:  MOVWF  x6A
1114:  MOVF   x65,W
1116:  SUBWFB x69,W
1118:  MOVWF  x6B
....................  
....................       for(; i<=dx; ++i) 
111A:  MOVF   x65,F
111C:  BNZ   1124
111E:  MOVF   x6C,W
1120:  SUBWF  x64,W
1122:  BNC   1162
....................       { 
....................          glcd_pixel(x1, y1, color); 
1124:  MOVFF  65D,66D
1128:  MOVFF  65E,66E
112C:  MOVFF  661,66F
1130:  MOVLB  0
1132:  RCALL  0E42
....................  
....................          if(P < 0) 
1134:  MOVLB  6
1136:  BTFSS  x69.7
1138:  BRA    114A
....................          { 
....................             P  += dy; 
113A:  MOVF   x62,W
113C:  ADDWF  x68,F
113E:  MOVF   x63,W
1140:  ADDWFC x69,F
....................             x1 += addx; 
1142:  MOVF   x66,W
1144:  ADDWF  x5D,W
1146:  MOVWF  x5D
....................          } 
1148:  BRA    115E
....................          else 
....................          { 
....................             P  += diff; 
114A:  MOVF   x6A,W
114C:  ADDWF  x68,F
114E:  MOVF   x6B,W
1150:  ADDWFC x69,F
....................             x1 += addx; 
1152:  MOVF   x66,W
1154:  ADDWF  x5D,W
1156:  MOVWF  x5D
....................             y1 += addy; 
1158:  MOVF   x67,W
115A:  ADDWF  x5E,W
115C:  MOVWF  x5E
....................          } 
115E:  INCF   x6C,F
1160:  BRA    111A
....................       } 
....................    } 
1162:  BRA    11CE
....................    else 
....................    { 
....................       dx *= 2; 
1164:  BCF    FD8.0
1166:  RLCF   x64,F
1168:  RLCF   x65,F
....................       P = dx - dy; 
116A:  MOVF   x62,W
116C:  SUBWF  x64,W
116E:  MOVWF  00
1170:  MOVF   x63,W
1172:  SUBWFB x65,W
1174:  MOVFF  00,668
1178:  MOVWF  x69
....................       diff = P - dy; 
117A:  MOVF   x62,W
117C:  SUBWF  x68,W
117E:  MOVWF  x6A
1180:  MOVF   x63,W
1182:  SUBWFB x69,W
1184:  MOVWF  x6B
....................  
....................       for(; i<=dy; ++i) 
1186:  MOVF   x63,F
1188:  BNZ   1190
118A:  MOVF   x6C,W
118C:  SUBWF  x62,W
118E:  BNC   11CE
....................       { 
....................          glcd_pixel(x1, y1, color); 
1190:  MOVFF  65D,66D
1194:  MOVFF  65E,66E
1198:  MOVFF  661,66F
119C:  MOVLB  0
119E:  RCALL  0E42
....................  
....................          if(P < 0) 
11A0:  MOVLB  6
11A2:  BTFSS  x69.7
11A4:  BRA    11B6
....................          { 
....................             P  += dx; 
11A6:  MOVF   x64,W
11A8:  ADDWF  x68,F
11AA:  MOVF   x65,W
11AC:  ADDWFC x69,F
....................             y1 += addy; 
11AE:  MOVF   x67,W
11B0:  ADDWF  x5E,W
11B2:  MOVWF  x5E
....................          } 
11B4:  BRA    11CA
....................          else 
....................          { 
....................             P  += diff; 
11B6:  MOVF   x6A,W
11B8:  ADDWF  x68,F
11BA:  MOVF   x6B,W
11BC:  ADDWFC x69,F
....................             x1 += addx; 
11BE:  MOVF   x66,W
11C0:  ADDWF  x5D,W
11C2:  MOVWF  x5D
....................             y1 += addy; 
11C4:  MOVF   x67,W
11C6:  ADDWF  x5E,W
11C8:  MOVWF  x5E
....................          } 
11CA:  INCF   x6C,F
11CC:  BRA    1186
....................       } 
....................    } 
11CE:  MOVLB  0
11D0:  RETURN 0
.................... } 
....................  
....................  
.................... ///////////////////////////////////////////////////////////////////////// 
.................... // Purpose:       Draw a rectangle on a graphic LCD 
.................... // Inputs:        (x1, y1) - the start coordinate 
.................... //                (x2, y2) - the end coordinate 
.................... //                fill  - YES or NO 
.................... //                color - ON or OFF 
.................... // Dependencies:  glcd_pixel(), glcd_line() 
.................... ///////////////////////////////////////////////////////////////////////// 
.................... #ifdef LARGE_LCD 
.................... void glcd_rect(int16 x1, int16 y1, int16 x2, int16 y2, int1 fill, int1 color) 
.................... #else 
.................... void glcd_rect(int8 x1, int8 y1, int8 x2, int8 y2, int1 fill, int1 color) 
.................... #endif 
.................... { 
....................    if(fill) 
11D2:  MOVLB  6
11D4:  MOVF   x56,F
11D6:  BZ    1234
....................    { 
....................       #ifdef LARGE_LCD 
....................       int16 i, xmin, xmax, ymin, ymax; 
....................       #else 
....................       int8  i, xmin, xmax, ymin, ymax; 
....................       #endif 
....................  
....................       if(x1 < x2)                            //  Find x min and max 
11D8:  MOVF   x54,W
11DA:  SUBWF  x52,W
11DC:  BC    11E8
....................       { 
....................          xmin = x1; 
11DE:  MOVFF  652,659
....................          xmax = x2; 
11E2:  MOVFF  654,65A
....................       } 
11E6:  BRA    11F0
....................       else 
....................       { 
....................          xmin = x2; 
11E8:  MOVFF  654,659
....................          xmax = x1; 
11EC:  MOVFF  652,65A
....................       } 
....................  
....................       if(y1 < y2)                            // Find the y min and max 
11F0:  MOVF   x55,W
11F2:  SUBWF  x53,W
11F4:  BC    1200
....................       { 
....................          ymin = y1; 
11F6:  MOVFF  653,65B
....................          ymax = y2; 
11FA:  MOVFF  655,65C
....................       } 
11FE:  BRA    1208
....................       else 
....................       { 
....................          ymin = y2; 
1200:  MOVFF  655,65B
....................          ymax = y1; 
1204:  MOVFF  653,65C
....................       } 
....................  
....................       for(; xmin <= xmax; ++xmin) 
1208:  MOVF   x59,W
120A:  SUBWF  x5A,W
120C:  BNC   1232
....................       { 
....................          for(i=ymin; i<=ymax; ++i) 
120E:  MOVFF  65B,658
1212:  MOVF   x58,W
1214:  SUBWF  x5C,W
1216:  BNC   122E
....................          { 
....................             glcd_pixel(xmin, i, color); 
1218:  MOVFF  659,66D
121C:  MOVFF  658,66E
1220:  MOVFF  657,66F
1224:  MOVLB  0
1226:  RCALL  0E42
1228:  MOVLB  6
122A:  INCF   x58,F
122C:  BRA    1212
....................          } 
122E:  INCF   x59,F
1230:  BRA    1208
....................       } 
....................    } 
1232:  BRA    1290
....................    else 
....................    { 
....................       glcd_line(x1, y1, x2, y1, color);      // Draw the 4 sides 
1234:  MOVFF  652,65D
1238:  MOVFF  653,65E
123C:  MOVFF  654,65F
1240:  MOVFF  653,660
1244:  MOVFF  657,661
1248:  MOVLB  0
124A:  RCALL  109C
....................       glcd_line(x1, y2, x2, y2, color); 
124C:  MOVFF  652,65D
1250:  MOVFF  655,65E
1254:  MOVFF  654,65F
1258:  MOVFF  655,660
125C:  MOVFF  657,661
1260:  RCALL  109C
....................       glcd_line(x1, y1, x1, y2, color); 
1262:  MOVFF  652,65D
1266:  MOVFF  653,65E
126A:  MOVFF  652,65F
126E:  MOVFF  655,660
1272:  MOVFF  657,661
1276:  RCALL  109C
....................       glcd_line(x2, y1, x2, y2, color); 
1278:  MOVFF  654,65D
127C:  MOVFF  653,65E
1280:  MOVFF  654,65F
1284:  MOVFF  655,660
1288:  MOVFF  657,661
128C:  RCALL  109C
128E:  MOVLB  6
....................    } 
1290:  MOVLB  0
1292:  RETURN 0
.................... } 
....................  
.................... ///////////////////////////////////////////////////////////////////////// 
.................... // Purpose:       Draw a bar (wide line) on a graphic LCD 
.................... // Inputs:        (x1, y1) - the start coordinate 
.................... //                (x2, y2) - the end coordinate 
.................... //                width  - The number of pixels wide 
.................... //                color - ON or OFF 
.................... ///////////////////////////////////////////////////////////////////////// 
.................... #ifdef LARGE_LCD 
.................... void glcd_bar(int16 x1, int16 y1, int16 x2, int16 y2, int8 width, int1 color) 
.................... #else 
.................... void glcd_bar(int8 x1, int8 y1, int8 x2, int8 y2, int8 width, int1 color) 
.................... #endif 
.................... { 
....................    int8         half_width; 
....................    signed int16 dy, dx; 
....................    signed int8  addx=1, addy=1, j; 
....................    signed int16 P, diff, c1, c2; 
....................  
....................    #ifdef LARGE_LCD 
....................    int16 i=0; 
....................    dx = abs((signed int16)(x2 - x1)); 
....................    dy = abs((signed int16)(y2 - y1)); 
....................    #else 
....................    int8 i=0; 
....................    dx = abs((signed int8)(x2 - x1)); 
....................    dy = abs((signed int8)(y2 - y1)); 
....................    #endif 
....................  
....................    half_width = width/2; 
....................    c1 = -(dx*x1 + dy*y1); 
....................    c2 = -(dx*x2 + dy*y2); 
....................  
....................    if(x1 > x2) 
....................    { 
....................       signed int16 temp; 
....................       temp = c1; 
....................       c1 = c2; 
....................       c2 = temp; 
....................       addx = -1; 
....................    } 
....................    if(y1 > y2) 
....................    { 
....................       signed int16 temp; 
....................       temp = c1; 
....................       c1 = c2; 
....................       c2 = temp; 
....................       addy = -1; 
....................    } 
....................  
....................    if(dx >= dy) 
....................    { 
....................       P = 2*dy - dx; 
....................       diff = P - dx; 
....................  
....................       for(i=0; i<=dx; ++i) 
....................       { 
....................          for(j=-half_width; j<half_width+width%2; ++j) 
....................          { 
....................             #ifdef LARGE_LCD 
....................             int16 temp; 
....................             #else 
....................             int8 temp; 
....................             #endif 
....................  
....................             temp = dx*x1+dy*(y1+j);    // Use more RAM to increase speed 
....................             if(temp+c1 >= 0 && temp+c2 <=0) 
....................                glcd_pixel(x1, y1+j, color); 
....................          } 
....................          if(P < 0) 
....................          { 
....................             P  += 2*dy; 
....................             x1 += addx; 
....................          } 
....................          else 
....................          { 
....................             P  += diff; 
....................             x1 += addx; 
....................             y1 += addy; 
....................          } 
....................       } 
....................    } 
....................    else 
....................    { 
....................       P = 2*dx - dy; 
....................       diff = P - dy; 
....................  
....................       for(i=0; i<=dy; ++i) 
....................       { 
....................          if(P < 0) 
....................          { 
....................             P  += 2*dx; 
....................             y1 += addy; 
....................          } 
....................          else 
....................          { 
....................             P  += diff; 
....................             x1 += addx; 
....................             y1 += addy; 
....................          } 
....................          for(j=-half_width; j<half_width+width%2; ++j) 
....................          { 
....................             #ifdef LARGE_LCD 
....................             int16 temp; 
....................             #else 
....................             int8 temp; 
....................             #endif 
....................  
....................             temp = dx*x1+dy*(y1+j);    // Use more RAM to increase speed 
....................             if(temp+c1 >= 0 && temp+c2 <=0) 
....................                glcd_pixel(x1+j, y1, color); 
....................          } 
....................       } 
....................    } 
.................... } 
....................  
....................  
.................... ///////////////////////////////////////////////////////////////////////// 
.................... // Purpose:       Draw a circle on a graphic LCD 
.................... // Inputs:        (x,y) - the center of the circle 
.................... //                radius - the radius of the circle 
.................... //                fill - YES or NO 
.................... //                color - ON or OFF 
.................... ///////////////////////////////////////////////////////////////////////// 
.................... #ifdef LARGE_LCD 
.................... void glcd_circle(int16 x, int16 y, int16 radius, int1 fill, int1 color) 
.................... #else 
.................... void glcd_circle(int8 x, int8 y, int8 radius, int1 fill, int1 color) 
.................... #endif 
.................... { 
....................    #ifdef LARGE_LCD 
....................    signed int16 a, b, P; 
....................    #else 
....................    signed int8  a, b, P; 
....................    #endif 
....................  
....................    a = 0; 
*
1E88:  MOVLB  6
1E8A:  CLRF   x44
....................    b = radius; 
1E8C:  MOVFF  641,645
....................    P = 1 - radius; 
1E90:  MOVLW  01
1E92:  BSF    FD8.0
1E94:  SUBFWB x41,W
1E96:  MOVWF  x46
....................  
....................    do 
....................    { 
....................       if(fill) 
1E98:  MOVF   x42,F
1E9A:  BZ    1F66
....................       { 
....................          glcd_line(x-a, y+b, x+a, y+b, color); 
1E9C:  MOVF   x44,W
1E9E:  SUBWF  x3F,W
1EA0:  MOVWF  x47
1EA2:  MOVF   x45,W
1EA4:  ADDWF  x40,W
1EA6:  MOVWF  x48
1EA8:  MOVF   x44,W
1EAA:  ADDWF  x3F,W
1EAC:  MOVWF  x49
1EAE:  MOVF   x45,W
1EB0:  ADDWF  x40,W
1EB2:  MOVWF  x4A
1EB4:  MOVFF  647,65D
1EB8:  MOVFF  648,65E
1EBC:  MOVFF  649,65F
1EC0:  MOVWF  x60
1EC2:  MOVFF  643,661
1EC6:  MOVLB  0
1EC8:  CALL   109C
....................          glcd_line(x-a, y-b, x+a, y-b, color); 
1ECC:  MOVLB  6
1ECE:  MOVF   x44,W
1ED0:  SUBWF  x3F,W
1ED2:  MOVWF  x47
1ED4:  MOVF   x45,W
1ED6:  SUBWF  x40,W
1ED8:  MOVWF  x48
1EDA:  MOVF   x44,W
1EDC:  ADDWF  x3F,W
1EDE:  MOVWF  x49
1EE0:  MOVF   x45,W
1EE2:  SUBWF  x40,W
1EE4:  MOVWF  x4A
1EE6:  MOVFF  647,65D
1EEA:  MOVFF  648,65E
1EEE:  MOVFF  649,65F
1EF2:  MOVWF  x60
1EF4:  MOVFF  643,661
1EF8:  MOVLB  0
1EFA:  CALL   109C
....................          glcd_line(x-b, y+a, x+b, y+a, color); 
1EFE:  MOVLB  6
1F00:  MOVF   x45,W
1F02:  SUBWF  x3F,W
1F04:  MOVWF  x47
1F06:  MOVF   x44,W
1F08:  ADDWF  x40,W
1F0A:  MOVWF  x48
1F0C:  MOVF   x45,W
1F0E:  ADDWF  x3F,W
1F10:  MOVWF  x49
1F12:  MOVF   x44,W
1F14:  ADDWF  x40,W
1F16:  MOVWF  x4A
1F18:  MOVFF  647,65D
1F1C:  MOVFF  648,65E
1F20:  MOVFF  649,65F
1F24:  MOVWF  x60
1F26:  MOVFF  643,661
1F2A:  MOVLB  0
1F2C:  CALL   109C
....................          glcd_line(x-b, y-a, x+b, y-a, color); 
1F30:  MOVLB  6
1F32:  MOVF   x45,W
1F34:  SUBWF  x3F,W
1F36:  MOVWF  x47
1F38:  MOVF   x44,W
1F3A:  SUBWF  x40,W
1F3C:  MOVWF  x48
1F3E:  MOVF   x45,W
1F40:  ADDWF  x3F,W
1F42:  MOVWF  x49
1F44:  MOVF   x44,W
1F46:  SUBWF  x40,W
1F48:  MOVWF  x4A
1F4A:  MOVFF  647,65D
1F4E:  MOVFF  648,65E
1F52:  MOVFF  649,65F
1F56:  MOVWF  x60
1F58:  MOVFF  643,661
1F5C:  MOVLB  0
1F5E:  CALL   109C
....................       } 
1F62:  BRA    2054
1F64:  MOVLB  6
....................       else 
....................       { 
....................          glcd_pixel(a+x, b+y, color); 
1F66:  MOVF   x3F,W
1F68:  ADDWF  x44,W
1F6A:  MOVWF  x47
1F6C:  MOVF   x40,W
1F6E:  ADDWF  x45,W
1F70:  MOVWF  x48
1F72:  MOVFF  647,66D
1F76:  MOVWF  x6E
1F78:  MOVFF  643,66F
1F7C:  MOVLB  0
1F7E:  CALL   0E42
....................          glcd_pixel(b+x, a+y, color); 
1F82:  MOVLB  6
1F84:  MOVF   x3F,W
1F86:  ADDWF  x45,W
1F88:  MOVWF  x47
1F8A:  MOVF   x40,W
1F8C:  ADDWF  x44,W
1F8E:  MOVWF  x48
1F90:  MOVFF  647,66D
1F94:  MOVWF  x6E
1F96:  MOVFF  643,66F
1F9A:  MOVLB  0
1F9C:  CALL   0E42
....................          glcd_pixel(x-a, b+y, color); 
1FA0:  MOVLB  6
1FA2:  MOVF   x44,W
1FA4:  SUBWF  x3F,W
1FA6:  MOVWF  x47
1FA8:  MOVF   x40,W
1FAA:  ADDWF  x45,W
1FAC:  MOVWF  x48
1FAE:  MOVFF  647,66D
1FB2:  MOVWF  x6E
1FB4:  MOVFF  643,66F
1FB8:  MOVLB  0
1FBA:  CALL   0E42
....................          glcd_pixel(x-b, a+y, color); 
1FBE:  MOVLB  6
1FC0:  MOVF   x45,W
1FC2:  SUBWF  x3F,W
1FC4:  MOVWF  x47
1FC6:  MOVF   x40,W
1FC8:  ADDWF  x44,W
1FCA:  MOVWF  x48
1FCC:  MOVFF  647,66D
1FD0:  MOVWF  x6E
1FD2:  MOVFF  643,66F
1FD6:  MOVLB  0
1FD8:  CALL   0E42
....................          glcd_pixel(b+x, y-a, color); 
1FDC:  MOVLB  6
1FDE:  MOVF   x3F,W
1FE0:  ADDWF  x45,W
1FE2:  MOVWF  x47
1FE4:  MOVF   x44,W
1FE6:  SUBWF  x40,W
1FE8:  MOVWF  x48
1FEA:  MOVFF  647,66D
1FEE:  MOVWF  x6E
1FF0:  MOVFF  643,66F
1FF4:  MOVLB  0
1FF6:  CALL   0E42
....................          glcd_pixel(a+x, y-b, color); 
1FFA:  MOVLB  6
1FFC:  MOVF   x3F,W
1FFE:  ADDWF  x44,W
2000:  MOVWF  x47
2002:  MOVF   x45,W
2004:  SUBWF  x40,W
2006:  MOVWF  x48
2008:  MOVFF  647,66D
200C:  MOVWF  x6E
200E:  MOVFF  643,66F
2012:  MOVLB  0
2014:  CALL   0E42
....................          glcd_pixel(x-a, y-b, color); 
2018:  MOVLB  6
201A:  MOVF   x44,W
201C:  SUBWF  x3F,W
201E:  MOVWF  x47
2020:  MOVF   x45,W
2022:  SUBWF  x40,W
2024:  MOVWF  x48
2026:  MOVFF  647,66D
202A:  MOVWF  x6E
202C:  MOVFF  643,66F
2030:  MOVLB  0
2032:  CALL   0E42
....................          glcd_pixel(x-b, y-a, color); 
2036:  MOVLB  6
2038:  MOVF   x45,W
203A:  SUBWF  x3F,W
203C:  MOVWF  x47
203E:  MOVF   x44,W
2040:  SUBWF  x40,W
2042:  MOVWF  x48
2044:  MOVFF  647,66D
2048:  MOVWF  x6E
204A:  MOVFF  643,66F
204E:  MOVLB  0
2050:  CALL   0E42
....................       } 
....................  
....................       if(P < 0) 
2054:  MOVLB  6
2056:  BTFSS  x46.7
2058:  BRA    2076
....................          P += 3 + 2 * a++; 
205A:  MOVF   x44,W
205C:  INCF   x44,F
205E:  MOVWF  x47
2060:  MOVLW  02
2062:  MOVWF  x48
2064:  MOVFF  647,649
2068:  MOVLB  0
206A:  RCALL  1E3A
206C:  MOVF   01,W
206E:  ADDLW  03
2070:  MOVLB  6
2072:  ADDWF  x46,F
2074:  BRA    2098
....................       else 
....................          P += 5 + 2 * (a++ - b--); 
2076:  MOVF   x44,W
2078:  INCF   x44,F
207A:  MOVWF  x47
207C:  MOVF   x45,W
207E:  DECF   x45,F
2080:  SUBWF  x47,W
2082:  MOVWF  x47
2084:  MOVLW  02
2086:  MOVWF  x48
2088:  MOVFF  647,649
208C:  MOVLB  0
208E:  RCALL  1E3A
2090:  MOVF   01,W
2092:  ADDLW  05
2094:  MOVLB  6
2096:  ADDWF  x46,F
....................     } while(a <= b); 
2098:  MOVF   x44,W
209A:  XORLW  80
209C:  MOVWF  00
209E:  MOVF   x45,W
20A0:  XORLW  80
20A2:  SUBWF  00,W
20A4:  BTFSC  FD8.2
20A6:  BRA    1E98
20A8:  BTFSS  FD8.0
20AA:  BRA    1E98
20AC:  MOVLB  0
20AE:  RETURN 0
.................... } 
....................  
....................  
.................... ///////////////////////////////////////////////////////////////////////// 
.................... // Purpose:       Write text on a graphic LCD 
.................... // Inputs:        (x,y) - The upper left coordinate of the first letter 
.................... //                textptr - A pointer to an array of text to display 
.................... //                size - The size of the text: 1 = 5x7, 2 = 10x14, ... 
.................... //                color - ON or OFF 
.................... ///////////////////////////////////////////////////////////////////////// 
.................... #ifdef LARGE_LCD 
.................... void glcd_text57(int16 x, int16 y, char* textptr, int8 size, int1 color) 
.................... #else 
.................... void glcd_text57(int8 x, int8 y, char* textptr, int8 size, int1 color) 
.................... #endif 
.................... { 
....................    int8 j, k, l, m;                       // Loop counters 
....................    int8 pixelData[5];                     // Stores character data 
....................  
....................    for(; *textptr != '\0'; ++textptr, ++x)// Loop through the passed string 
*
0EFE:  MOVFF  655,03
0F02:  MOVLB  6
0F04:  MOVFF  654,FE9
0F08:  MOVFF  655,FEA
0F0C:  MOVF   FEF,F
0F0E:  BTFSC  FD8.2
0F10:  BRA    1098
....................    { 
....................       if(*textptr < 'S') // Checks if the letter is in the first font array 
0F12:  MOVFF  655,03
0F16:  MOVFF  654,FE9
0F1A:  MOVFF  655,FEA
0F1E:  MOVF   FEF,W
0F20:  SUBLW  52
0F22:  BNC   0F64
....................          memcpy(pixelData, FONT[*textptr - ' '], 5); 
0F24:  MOVFF  654,FE9
0F28:  MOVFF  655,FEA
0F2C:  MOVLW  20
0F2E:  SUBWF  FEF,W
0F30:  MULLW  05
0F32:  MOVF   FF3,W
0F34:  CLRF   03
0F36:  MOVWF  x61
0F38:  MOVLW  06
0F3A:  MOVWF  FEA
0F3C:  MOVLW  5C
0F3E:  MOVWF  FE9
0F40:  CLRF   x65
0F42:  MOVFF  661,664
0F46:  MOVLW  05
0F48:  MOVWF  01
0F4A:  CLRF   FF7
0F4C:  MOVF   x61,W
0F4E:  MOVLB  0
0F50:  CALL   00AE
0F54:  TBLRD*-
0F56:  TBLRD*+
0F58:  MOVFF  FF5,FEE
0F5C:  DECFSZ 01,F
0F5E:  BRA    0F56
0F60:  BRA    0FC2
0F62:  MOVLB  6
....................       else if(*textptr <= '~') // Check if the letter is in the second font array 
0F64:  MOVFF  655,03
0F68:  MOVFF  654,FE9
0F6C:  MOVFF  655,FEA
0F70:  MOVF   FEF,W
0F72:  SUBLW  7E
0F74:  BNC   0FB6
....................          memcpy(pixelData, FONT2[*textptr - 'S'], 5); 
0F76:  MOVFF  654,FE9
0F7A:  MOVFF  655,FEA
0F7E:  MOVLW  53
0F80:  SUBWF  FEF,W
0F82:  MULLW  05
0F84:  MOVF   FF3,W
0F86:  CLRF   03
0F88:  MOVWF  x61
0F8A:  MOVLW  06
0F8C:  MOVWF  FEA
0F8E:  MOVLW  5C
0F90:  MOVWF  FE9
0F92:  CLRF   x65
0F94:  MOVFF  661,664
0F98:  MOVLW  05
0F9A:  MOVWF  01
0F9C:  CLRF   FF7
0F9E:  MOVF   x61,W
0FA0:  MOVLB  0
0FA2:  CALL   01BE
0FA6:  TBLRD*-
0FA8:  TBLRD*+
0FAA:  MOVFF  FF5,FEE
0FAE:  DECFSZ 01,F
0FB0:  BRA    0FA8
0FB2:  BRA    0FC2
0FB4:  MOVLB  6
....................       else 
....................          memcpy(pixelData, FONT[0], 5);   // Default to space 
0FB6:  CLRF   x5C
0FB8:  CLRF   x5D
0FBA:  CLRF   x5E
0FBC:  CLRF   x5F
0FBE:  CLRF   x60
0FC0:  MOVLB  0
....................  
....................       // Handles newline and carriage returns 
....................       switch(*textptr) 
0FC2:  MOVFF  655,03
0FC6:  MOVLB  6
0FC8:  MOVF   x54,W
0FCA:  MOVWF  FE9
0FCC:  MOVFF  03,FEA
0FD0:  MOVF   FEF,W
0FD2:  XORLW  0A
0FD4:  MOVLB  0
0FD6:  BZ    0FDE
0FD8:  XORLW  07
0FDA:  BZ    0FEE
0FDC:  BRA    0FF6
....................       { 
....................          case '\n': 
....................             y += 7*size + 1; 
0FDE:  MOVLB  6
0FE0:  MOVF   x56,W
0FE2:  MULLW  07
0FE4:  MOVF   FF3,W
0FE6:  ADDLW  01
0FE8:  ADDWF  x53,F
....................             continue; 
0FEA:  BRA    108A
0FEC:  MOVLB  0
....................          case '\r': 
....................             x = 0; 
0FEE:  MOVLB  6
0FF0:  CLRF   x52
....................             continue; 
0FF2:  BRA    108A
0FF4:  MOVLB  0
....................       } 
....................  
....................       if(x+5*size >= GLCD_WIDTH)          // Performs character wrapping 
0FF6:  MOVLB  6
0FF8:  MOVF   x56,W
0FFA:  MULLW  05
0FFC:  MOVF   FF3,W
0FFE:  ADDWF  x52,W
1000:  SUBLW  7F
1002:  BC    1010
....................       { 
....................          x = 0;                           // Set x at far left position 
1004:  CLRF   x52
....................          y += 7*size + 1;                 // Set y at next position down 
1006:  MOVF   x56,W
1008:  MULLW  07
100A:  MOVF   FF3,W
100C:  ADDLW  01
100E:  ADDWF  x53,F
....................       } 
....................       for(j=0; j<5; ++j, x+=size)         // Loop through character byte data 
1010:  CLRF   x58
1012:  MOVF   x58,W
1014:  SUBLW  04
1016:  BNC   108A
....................       { 
....................          for(k=0; k < 7; ++k)             // Loop through the vertical pixels 
1018:  CLRF   x59
101A:  MOVF   x59,W
101C:  SUBLW  06
101E:  BNC   1082
....................          { 
....................             if(bit_test(pixelData[j], k)) // Check if the pixel should be set 
1020:  CLRF   03
1022:  MOVF   x58,W
1024:  ADDLW  5C
1026:  MOVWF  FE9
1028:  MOVLW  06
102A:  ADDWFC 03,W
102C:  MOVWF  FEA
102E:  MOVFF  FEF,00
1032:  MOVF   x59,W
1034:  MOVWF  01
1036:  BZ    1040
1038:  BCF    FD8.0
103A:  RRCF   00,F
103C:  DECFSZ 01,F
103E:  BRA    1038
1040:  BTFSS  00.0
1042:  BRA    107E
....................             { 
....................                for(l=0; l < size; ++l)    // These two loops change the 
1044:  CLRF   x5A
1046:  MOVF   x56,W
1048:  SUBWF  x5A,W
104A:  BC    107E
....................                {                          // character's size 
....................                   for(m=0; m < size; ++m) 
104C:  CLRF   x5B
104E:  MOVF   x56,W
1050:  SUBWF  x5B,W
1052:  BC    107A
....................                   { 
....................                      glcd_pixel(x+m, y+k*size+l, color); // Draws the pixel 
1054:  MOVF   x5B,W
1056:  ADDWF  x52,W
1058:  MOVWF  x61
105A:  MOVF   x59,W
105C:  MULWF  x56
105E:  MOVF   FF3,W
1060:  ADDWF  x53,W
1062:  ADDWF  x5A,W
1064:  MOVWF  x62
1066:  MOVFF  661,66D
106A:  MOVWF  x6E
106C:  MOVFF  657,66F
1070:  MOVLB  0
1072:  RCALL  0E42
1074:  MOVLB  6
1076:  INCF   x5B,F
1078:  BRA    104E
....................                   } 
107A:  INCF   x5A,F
107C:  BRA    1046
....................                } 
....................             } 
107E:  INCF   x59,F
1080:  BRA    101A
....................          } 
1082:  INCF   x58,F
1084:  MOVF   x56,W
1086:  ADDWF  x52,F
1088:  BRA    1012
....................       } 
108A:  INCF   x54,F
108C:  BTFSC  FD8.2
108E:  INCF   x55,F
1090:  INCF   x52,F
1092:  MOVLB  0
1094:  BRA    0EFE
1096:  MOVLB  6
....................    } 
1098:  MOVLB  0
109A:  RETURN 0
.................... } 
....................  
.................... #endif 
....................  
.................... #include "imagen.h" 
.................... const int8 Horno [64][16] = { 
.................... 0x00, 0x00, 0x00, 0x00, 0x00, 0x00, 0x00, 0x00, 0x00, 0x00, 0x00, 0x1F, 0xFF, 0xFF, 0xFF, 0xFE, 
.................... 0x00, 0x00, 0x00, 0x00, 0x00, 0x00, 0x00, 0x00, 0x00, 0x00, 0x00, 0x1F, 0xFF, 0xFF, 0xFF, 0xFE, 
.................... 0x01, 0xC0, 0x00, 0x00, 0x00, 0x00, 0x00, 0x00, 0x00, 0x00, 0x00, 0x1C, 0x00, 0x00, 0x00, 0x0E, 
.................... 0x07, 0xF0, 0x00, 0x00, 0x00, 0x00, 0x00, 0x00, 0x00, 0x00, 0x00, 0x1C, 0x00, 0x00, 0x00, 0x0E, 
.................... 0x1C, 0x9C, 0x00, 0x00, 0x00, 0x00, 0x00, 0x00, 0x00, 0x00, 0x00, 0x1C, 0x7F, 0x00, 0x00, 0x0E, 
.................... 0x18, 0x0C, 0x00, 0x00, 0x00, 0x00, 0x00, 0x00, 0x00, 0x00, 0x00, 0x1C, 0x41, 0x00, 0x00, 0x0E, 
.................... 0x30, 0x86, 0x00, 0x00, 0x00, 0x00, 0x00, 0x00, 0x00, 0x00, 0x00, 0x1C, 0x41, 0x00, 0x00, 0x0E, 
.................... 0x20, 0x82, 0x00, 0x00, 0x00, 0x00, 0x00, 0x00, 0x00, 0x00, 0x00, 0x1C, 0x41, 0x02, 0x00, 0x0E, 
.................... 0x60, 0x83, 0x00, 0x00, 0x00, 0x00, 0x00, 0x00, 0x00, 0x00, 0x00, 0x1C, 0x7F, 0x05, 0x00, 0x0E, 
.................... 0x70, 0x87, 0x00, 0x00, 0x00, 0x00, 0x00, 0x00, 0x00, 0x00, 0x00, 0x1C, 0x00, 0x02, 0x00, 0x0E, 
.................... 0x60, 0xC3, 0x00, 0x00, 0x00, 0x00, 0x00, 0x00, 0x00, 0x00, 0x00, 0x1C, 0x00, 0x00, 0x00, 0x0E, 
.................... 0x20, 0x62, 0x00, 0x00, 0x00, 0x00, 0x00, 0x00, 0x00, 0x00, 0x00, 0x1C, 0x00, 0x00, 0x00, 0x0E, 
.................... 0x30, 0x26, 0x00, 0x00, 0x00, 0x00, 0x00, 0x00, 0x00, 0x00, 0x00, 0x1F, 0xFF, 0xFF, 0xFF, 0xFE, 
.................... 0x18, 0x0C, 0x00, 0x00, 0x00, 0x00, 0x00, 0x00, 0x00, 0x00, 0x00, 0x1C, 0x00, 0x00, 0x00, 0x0E, 
.................... 0x1C, 0x9C, 0x00, 0x00, 0x00, 0x00, 0x00, 0x00, 0x00, 0x00, 0x00, 0x1C, 0x00, 0x00, 0x00, 0x0E, 
.................... 0x07, 0xF0, 0x00, 0x00, 0x00, 0x00, 0x00, 0x00, 0x00, 0x00, 0x00, 0x1C, 0x00, 0x00, 0x00, 0x0E, 
.................... 0x01, 0xC0, 0x00, 0x00, 0x00, 0x00, 0x00, 0x00, 0x00, 0x00, 0x00, 0x1C, 0x00, 0x00, 0x00, 0x0E, 
.................... 0x00, 0x00, 0x00, 0x00, 0x00, 0x00, 0x00, 0x00, 0x00, 0x00, 0x00, 0x1C, 0x00, 0x00, 0x00, 0x0E, 
.................... 0x00, 0x00, 0x00, 0x00, 0x00, 0x00, 0x00, 0x00, 0x00, 0x00, 0x00, 0x1C, 0x00, 0x00, 0x00, 0x0E, 
.................... 0x00, 0x00, 0x00, 0x00, 0x00, 0x00, 0x00, 0x00, 0x00, 0x00, 0x00, 0x1C, 0x00, 0x00, 0x00, 0x0E, 
.................... 0x00, 0x00, 0x00, 0x00, 0x00, 0x00, 0x00, 0x00, 0x00, 0x00, 0x00, 0x1C, 0x00, 0x00, 0x00, 0x0E, 
.................... 0x00, 0x00, 0x00, 0x00, 0x00, 0x00, 0x00, 0x00, 0x00, 0x00, 0x00, 0x1C, 0x00, 0x1E, 0x00, 0x0E, 
.................... 0x00, 0x00, 0x00, 0x00, 0x00, 0x00, 0x00, 0x00, 0x00, 0x00, 0x00, 0x1C, 0x00, 0xE1, 0xC0, 0x0E, 
.................... 0x00, 0x00, 0x00, 0x00, 0x00, 0x00, 0x00, 0x00, 0x00, 0x00, 0x00, 0x1C, 0x01, 0x80, 0x60, 0x0E, 
.................... 0x00, 0x00, 0x00, 0x00, 0x00, 0x00, 0x00, 0x00, 0x00, 0x00, 0x00, 0x1C, 0x02, 0x78, 0x10, 0x0E, 
.................... 0x00, 0x00, 0x00, 0x00, 0x00, 0x00, 0x00, 0x00, 0x00, 0x00, 0x00, 0x1C, 0x06, 0x7C, 0x18, 0x0E, 
.................... 0x00, 0x00, 0x00, 0x00, 0x00, 0x00, 0x00, 0x00, 0x00, 0x00, 0x00, 0x1C, 0x04, 0x7C, 0x08, 0x0E, 
.................... 0x00, 0x00, 0x00, 0x00, 0x00, 0x00, 0x00, 0x00, 0x00, 0x00, 0x00, 0x1C, 0x08, 0x3C, 0x04, 0x0E, 
.................... 0x00, 0x00, 0x00, 0x00, 0x00, 0x00, 0x00, 0x00, 0x00, 0x00, 0x00, 0x1C, 0x08, 0x10, 0x04, 0x0E, 
.................... 0x01, 0x80, 0x00, 0x00, 0x00, 0x00, 0x00, 0x00, 0x00, 0x00, 0x00, 0x1C, 0x08, 0x0C, 0xE4, 0x0E, 
.................... 0x02, 0x40, 0x00, 0x00, 0x00, 0x00, 0x00, 0x00, 0x00, 0x00, 0x00, 0x1C, 0x08, 0x2D, 0xF4, 0x0E, 
.................... 0x02, 0x70, 0x00, 0x00, 0x00, 0x00, 0x00, 0x00, 0x00, 0x00, 0x00, 0x1C, 0x08, 0x63, 0xF4, 0x0E, 
.................... 0x02, 0x40, 0x00, 0x00, 0x00, 0x00, 0x00, 0x00, 0x00, 0x00, 0x00, 0x1C, 0x08, 0xF1, 0xE4, 0x0E, 
.................... 0x03, 0xC0, 0x00, 0x00, 0x00, 0x00, 0x00, 0x00, 0x00, 0x00, 0x00, 0x1C, 0x04, 0xF0, 0x08, 0x0E, 
.................... 0x03, 0xF0, 0x00, 0x00, 0x00, 0x00, 0x00, 0x00, 0x00, 0x00, 0x00, 0x1C, 0x04, 0xF0, 0x08, 0x0E, 
.................... 0x03, 0xC0, 0x00, 0x00, 0x00, 0x00, 0x00, 0x00, 0x00, 0x00, 0x00, 0x1C, 0x02, 0x70, 0x10, 0x0E, 
.................... 0x03, 0xC0, 0x00, 0x00, 0x00, 0x00, 0x00, 0x00, 0x00, 0x00, 0x00, 0x1C, 0x03, 0x00, 0x30, 0x0E, 
.................... 0x07, 0xE0, 0x00, 0x00, 0x00, 0x00, 0x00, 0x00, 0x00, 0x00, 0x00, 0x1C, 0x00, 0xC0, 0xC0, 0x0E, 
.................... 0x0F, 0xF0, 0x00, 0x00, 0x00, 0x00, 0x00, 0x00, 0x00, 0x00, 0x00, 0x1C, 0x00, 0x7F, 0x80, 0x0E, 
.................... 0x0B, 0xF0, 0x00, 0x00, 0x00, 0x00, 0x00, 0x00, 0x00, 0x00, 0x00, 0x1C, 0x00, 0x00, 0x00, 0x0E, 
.................... 0x0B, 0xF0, 0x00, 0x00, 0x00, 0x00, 0x00, 0x00, 0x00, 0x00, 0x00, 0x1C, 0x00, 0x00, 0x00, 0x0E, 
.................... 0x0F, 0xF0, 0x00, 0x00, 0x00, 0x00, 0x00, 0x00, 0x00, 0x00, 0x00, 0x1C, 0x00, 0x00, 0x00, 0x0E, 
.................... 0x0F, 0xF0, 0x00, 0x00, 0x00, 0x00, 0x00, 0x00, 0x00, 0x00, 0x00, 0x1C, 0x00, 0x00, 0x00, 0x0E, 
.................... 0x07, 0xE0, 0x00, 0x00, 0x00, 0x00, 0x00, 0x00, 0x00, 0x00, 0x00, 0x1C, 0x00, 0x00, 0x00, 0x0E, 
.................... 0x03, 0xC0, 0x00, 0x00, 0x00, 0x00, 0x00, 0x00, 0x00, 0x00, 0x00, 0x1C, 0x00, 0x00, 0x00, 0x0E, 
.................... 0x00, 0x00, 0x00, 0x00, 0x00, 0x00, 0x00, 0x00, 0x00, 0x00, 0x00, 0x1C, 0x00, 0x00, 0x00, 0x0E, 
.................... 0x00, 0x00, 0x00, 0x00, 0x00, 0x00, 0x00, 0x00, 0x00, 0x00, 0x00, 0x1C, 0x00, 0x00, 0x00, 0x0E, 
.................... 0x00, 0x00, 0x00, 0x00, 0x00, 0x00, 0x00, 0x00, 0x00, 0x00, 0x00, 0x1C, 0x00, 0x00, 0x00, 0x0E, 
.................... 0x00, 0x00, 0x00, 0x00, 0x00, 0x00, 0x00, 0x00, 0x00, 0x00, 0x00, 0x1C, 0x00, 0x00, 0x00, 0x0E, 
.................... 0x00, 0x00, 0x00, 0x00, 0x00, 0x00, 0x00, 0x00, 0x00, 0x00, 0x00, 0x1C, 0x00, 0x00, 0x00, 0x0E, 
.................... 0x00, 0x00, 0x00, 0x00, 0x00, 0x00, 0x00, 0x00, 0x00, 0x00, 0x00, 0x1C, 0x00, 0x00, 0x00, 0x0E, 
.................... 0x00, 0x00, 0x00, 0x00, 0x00, 0x00, 0x00, 0x00, 0x00, 0x00, 0x00, 0x1C, 0x00, 0x00, 0x00, 0x0E, 
.................... 0x00, 0x00, 0x00, 0x00, 0x00, 0x00, 0x00, 0x00, 0x00, 0x00, 0x00, 0x1F, 0xFF, 0xFF, 0xFF, 0xFE, 
.................... 0x00, 0x00, 0x00, 0x00, 0x00, 0x00, 0x00, 0x00, 0x00, 0x00, 0x00, 0x1F, 0xFF, 0xFF, 0xFF, 0xFE, 
.................... 0x00, 0x00, 0x00, 0x00, 0x00, 0x00, 0x00, 0x00, 0x00, 0x00, 0x00, 0x1F, 0xFF, 0xFF, 0xFF, 0xFE, 
.................... 0x00, 0x00, 0x00, 0x00, 0x00, 0x00, 0x00, 0x00, 0x00, 0x00, 0x00, 0x00, 0x00, 0x00, 0x00, 0x00, 
.................... 0x00, 0x00, 0x00, 0x00, 0x00, 0x00, 0x00, 0x00, 0x00, 0x00, 0x00, 0x00, 0x00, 0x00, 0x00, 0x00, 
.................... 0x00, 0x00, 0x00, 0x00, 0x00, 0x00, 0x00, 0x00, 0x00, 0x00, 0x00, 0x00, 0x00, 0x00, 0x00, 0x00, 
.................... 0x00, 0x00, 0x00, 0x00, 0x00, 0x00, 0x00, 0x00, 0x00, 0x00, 0x00, 0x00, 0x00, 0x00, 0x00, 0x00, 
.................... 0x00, 0x00, 0x00, 0x00, 0x00, 0x00, 0x00, 0x00, 0x00, 0x00, 0x00, 0x00, 0x00, 0x00, 0x00, 0x00, 
.................... 0x00, 0x00, 0x00, 0x00, 0x00, 0x00, 0x00, 0x00, 0x00, 0x00, 0x00, 0x00, 0x00, 0x00, 0x00, 0x00, 
.................... 0x00, 0x00, 0x00, 0x00, 0x00, 0x00, 0x00, 0x00, 0x00, 0x00, 0x00, 0x00, 0x00, 0x00, 0x00, 0x00, 
.................... 0x00, 0x00, 0x00, 0x00, 0x00, 0x00, 0x00, 0x00, 0x00, 0x00, 0x00, 0x00, 0x00, 0x00, 0x00, 0x00, 
.................... 0x00, 0x00, 0x00, 0x00, 0x00, 0x00, 0x00, 0x00, 0x00, 0x00, 0x00, 0x00, 0x00, 0x00, 0x00, 0x00 
.................... }; 
....................  
....................  
....................  
.................... // Definicin de teclado - NO 
.................... #define   UP            input(PIN_A5) 
.................... #define   DOWN          input(PIN_E0) 
.................... #define   RIGHT         input(PIN_E1) 
.................... #define   LEFT          input(PIN_E2) 
....................  
.................... #define   DOOR          input(PIN_A4) 
.................... #define   TERM          input(PIN_A3) 
....................  
.................... // Definicin de Salidas 
.................... #define   Resistencia_on     output_bit(PIN_C0,1) 
.................... #define   Resistencia_off    output_bit(PIN_C0,0) 
.................... #define   Peltierp_on        output_bit(PIN_C2,1) 
.................... #define   Peltierp_off       output_bit(PIN_C2,0) 
.................... #define   Peltiern_on        output_bit(PIN_C1,1) 
.................... #define   Peltiern_off       output_bit(PIN_C1,0) 
.................... #define   Buzzer_on          output_bit(PIN_C6,1) 
.................... #define   Buzzer_off         output_bit(PIN_C6,0) 
.................... #define   Vent_on            output_bit(PIN_C7,1) 
.................... #define   Vent_off           output_bit(PIN_C7,0) 
....................  
....................  
.................... float promedio[90]={0.0,0.0,0.0,0.0,0.0,0.0,0.0,0.0,0.0,0.0,0.0,0.0,0.0,0.0,0.0,0.0,0.0,0.0,0.0,0.0,0.0,0.0,0.0,0.0,0.0,0.0,0.0,0.0,0.0,0.0,0.0,0.0,0.0,0.0,0.0,0.0,0.0,0.0,0.0,0.0,0.0,0.0,0.0,0.0,0.0,0.0,0.0,0.0,0.0,0.0,0.0,0.0,0.0,0.0,0.0,0.0,0.0,0.0,0.0,0.0,0.0,0.0,0.0,0.0,0.0,0.0,0.0,0.0,0.0,0.0,0.0,0.0,0.0,0.0}; 
.................... float X[2]={0.0,0.0}; 
.................... int8 h=0,l=0,Ajuste=0,Ajusten=0,MediaMovil=10,tiemporecta=0,flag_ganancia=0,saturado=0,Sentido=0,Controlando=0; 
.................... short Flanco=0,Flanco1=0,Flanco2=0,visual=1,Lectura=0,LecturaTemperatura=0,flag_ajuste=0,flag_ajuste2=0; 
.................... short flag_clear=0,flag_clear2=0,flag_clear3=0,flag_clear4=0,flag_tiempocalentamiento=0,flag_display=0,flag_setpoint=0,flag_control=0; 
.................... int8 y=0,tiemporeset=0,Enfria=0; 
.................... int8 Menu=0, unidad=1,i=0,Pausa=0,Pausa_ant=0,TiempoControl=0; 
.................... int8 Opcion=1,tiempo_esterilizacion=0,tiempo_secado=0; 
.................... int16 tiempos=0,tiempos3=0,tiempoctrl=0,tinicio=0,tiempocalentamiento=0,tiemposetpoint=0,Setpoint=0,Tp=0,Tc=0; 
.................... float Potencia=0.0,Tpulsomin=0.0,Gananciamax=0.0; 
.................... signed int  Testerilizacion[4]={0,0,0,0};   // Tiempo transcurrido 
.................... signed int  Testerilizacionp[4]={0,0,0,0};   // Tiempo transcurrido 
.................... signed int  Contrasena[4]={0,0,0,0};      // Contrasena de 4 digitos 
.................... signed int  Password[4]={0,0,0,0};        // Contrasena Almacenada de 4 digitos 
.................... float V0=0.0,R1=6210.0,Pt,Tciclo=10.0,Tpulso=0.0,error=0.0,Prom=0.0,Temperature=0.0,tmp=0.0,Ganancia=25.0,Ganancia2=20.0,desvio=1.0,Coeficiente=150.0; 
.................... float Aumento=0.0,Temperatura=0.0,Saturacion=10.0,Tpulsomax=0.0; 
.................... float a=0.0011,b=2.3302,c=-244.0723; 
....................  
.................... typedef struct{ 
....................    char Letra[30]; 
.................... }MENUU; 
....................  
.................... MENUU Menus; 
....................  
.................... void ActualizaRecta(){ 
....................    X[y]=Temperatura; 
*
2628:  MOVLB  5
262A:  MOVF   x95,W
262C:  MULLW  04
262E:  MOVF   FF3,W
2630:  CLRF   03
2632:  ADDLW  81
2634:  MOVWF  FE9
2636:  MOVLW  05
2638:  ADDWFC 03,W
263A:  MOVWF  FEA
263C:  MOVFF  607,FEF
2640:  MOVFF  608,FEC
2644:  MOVFF  609,FEC
2648:  MOVFF  60A,FEC
....................    y++; 
264C:  INCF   x95,F
....................    if(y>=2) 
264E:  MOVF   x95,W
2650:  SUBLW  01
2652:  BC    2690
....................    { 
....................       y=0; 
2654:  CLRF   x95
....................       Aumento=X[1]-X[0]; 
2656:  BSF    FD8.1
2658:  MOVFF  588,647
265C:  MOVFF  587,646
2660:  MOVFF  586,645
2664:  MOVFF  585,644
2668:  MOVFF  584,64B
266C:  MOVFF  583,64A
2670:  MOVFF  582,649
2674:  MOVFF  581,648
2678:  MOVLB  0
267A:  CALL   1708
267E:  MOVFF  03,606
2682:  MOVFF  02,605
2686:  MOVFF  01,604
268A:  MOVFF  00,603
268E:  MOVLB  5
....................    } 
2690:  MOVLB  0
2692:  GOTO   26DE (RETURN)
.................... } 
....................  
.................... // Funcion para conversor analogo-digital 
.................... float sensores(int x){ 
.................... float y;set_adc_channel(x);delay_ms(1);y=read_adc();return (y); 
*
1550:  MOVLB  6
1552:  RLCF   x40,W
1554:  MOVWF  00
1556:  RLCF   00,F
1558:  MOVLW  FC
155A:  ANDWF  00,F
155C:  MOVFF  00,01
1560:  MOVF   FC2,W
1562:  ANDLW  C3
1564:  IORWF  00,W
1566:  MOVWF  FC2
1568:  MOVLW  01
156A:  MOVWF  x45
156C:  MOVLB  0
156E:  CALL   0B76
1572:  BSF    FC2.1
1574:  BTFSC  FC2.1
1576:  BRA    1574
1578:  MOVFF  FC4,646
157C:  MOVFF  FC3,645
1580:  MOVLB  0
1582:  CALL   0BA0
1586:  MOVFF  03,644
158A:  MOVFF  02,643
158E:  MOVFF  01,642
1592:  MOVFF  00,641
1596:  MOVFF  641,00
159A:  MOVFF  642,01
159E:  MOVFF  643,02
15A2:  MOVFF  644,03
15A6:  GOTO   1AAA (RETURN)
.................... } 
.................... float Leer_Sensor(int media) 
.................... { 
....................    Prom=0.0; 
*
1A98:  MOVLB  5
1A9A:  CLRF   xEA
1A9C:  CLRF   xE9
1A9E:  CLRF   xE8
1AA0:  CLRF   xE7
....................    V0 = sensores(0);   //Lectura de Divisor de Voltaje de PT100 con resistencia de 6.18k (+-2%) 
1AA2:  MOVLB  6
1AA4:  CLRF   x40
1AA6:  MOVLB  0
1AA8:  BRA    1550
1AAA:  MOVFF  03,5D2
1AAE:  MOVFF  02,5D1
1AB2:  MOVFF  01,5D0
1AB6:  MOVFF  00,5CF
....................    V0 = V0/41.62; // Se elimina la ganancia 
1ABA:  MOVFF  5D2,643
1ABE:  MOVFF  5D1,642
1AC2:  MOVFF  5D0,641
1AC6:  MOVFF  5CF,640
1ACA:  MOVLW  E1
1ACC:  MOVLB  6
1ACE:  MOVWF  x47
1AD0:  MOVLW  7A
1AD2:  MOVWF  x46
1AD4:  MOVLW  26
1AD6:  MOVWF  x45
1AD8:  MOVLW  84
1ADA:  MOVWF  x44
1ADC:  MOVLB  0
1ADE:  RCALL  15AA
1AE0:  MOVFF  03,5D2
1AE4:  MOVFF  02,5D1
1AE8:  MOVFF  01,5D0
1AEC:  MOVFF  00,5CF
....................    Pt=(R1)/((1023.0/V0)-1.0); // Se calcula el valor de la PT100 
1AF0:  MOVLB  6
1AF2:  CLRF   x43
1AF4:  MOVLW  C0
1AF6:  MOVWF  x42
1AF8:  MOVLW  7F
1AFA:  MOVWF  x41
1AFC:  MOVLW  88
1AFE:  MOVWF  x40
1B00:  MOVFF  5D2,647
1B04:  MOVFF  5D1,646
1B08:  MOVFF  5D0,645
1B0C:  MOVFF  5CF,644
1B10:  MOVLB  0
1B12:  RCALL  15AA
1B14:  MOVFF  03,643
1B18:  MOVFF  02,642
1B1C:  MOVFF  01,641
1B20:  MOVFF  00,640
1B24:  BSF    FD8.1
1B26:  MOVFF  03,647
1B2A:  MOVFF  02,646
1B2E:  MOVFF  01,645
1B32:  MOVFF  00,644
1B36:  MOVLB  6
1B38:  CLRF   x4B
1B3A:  CLRF   x4A
1B3C:  CLRF   x49
1B3E:  MOVLW  7F
1B40:  MOVWF  x48
1B42:  MOVLB  0
1B44:  RCALL  1708
1B46:  MOVFF  5D6,643
1B4A:  MOVFF  5D5,642
1B4E:  MOVFF  5D4,641
1B52:  MOVFF  5D3,640
1B56:  MOVFF  03,647
1B5A:  MOVFF  02,646
1B5E:  MOVFF  01,645
1B62:  MOVFF  00,644
1B66:  RCALL  15AA
1B68:  MOVFF  03,5DA
1B6C:  MOVFF  02,5D9
1B70:  MOVFF  01,5D8
1B74:  MOVFF  00,5D7
....................    //Pt=R1/((1023.0/V0)-1.0); // Se calcula el valor de la PT100 
....................    Pt=Pt-0.4; 
1B78:  BSF    FD8.1
1B7A:  MOVFF  5DA,647
1B7E:  MOVFF  5D9,646
1B82:  MOVFF  5D8,645
1B86:  MOVFF  5D7,644
1B8A:  MOVLW  CD
1B8C:  MOVLB  6
1B8E:  MOVWF  x4B
1B90:  MOVLW  CC
1B92:  MOVWF  x4A
1B94:  MOVLW  4C
1B96:  MOVWF  x49
1B98:  MOVLW  7D
1B9A:  MOVWF  x48
1B9C:  MOVLB  0
1B9E:  RCALL  1708
1BA0:  MOVFF  03,5DA
1BA4:  MOVFF  02,5D9
1BA8:  MOVFF  01,5D8
1BAC:  MOVFF  00,5D7
....................     
....................              
....................    if(l>(media-1)) 
1BB0:  MOVLW  01
1BB2:  MOVLB  6
1BB4:  SUBWF  x3F,W
1BB6:  MOVLB  5
1BB8:  SUBWF  x8A,W
1BBA:  BZ    1BC0
1BBC:  BNC   1BC0
....................    {l=0;} 
1BBE:  CLRF   x8A
....................    //promedio[l]=Temperature;l++; 
....................    promedio[l]=Pt;l++; 
1BC0:  MOVLB  6
1BC2:  CLRF   x44
1BC4:  MOVFF  58A,643
1BC8:  CLRF   x46
1BCA:  MOVLW  04
1BCC:  MOVWF  x45
1BCE:  MOVLB  0
1BD0:  RCALL  1980
1BD2:  MOVF   01,W
1BD4:  ADDLW  19
1BD6:  MOVWF  FE9
1BD8:  MOVLW  04
1BDA:  ADDWFC 02,W
1BDC:  MOVWF  FEA
1BDE:  MOVFF  5D7,FEF
1BE2:  MOVFF  5D8,FEC
1BE6:  MOVFF  5D9,FEC
1BEA:  MOVFF  5DA,FEC
1BEE:  MOVLB  5
1BF0:  INCF   x8A,F
....................           
....................    for(h=0;h<media;h++) 
1BF2:  CLRF   x89
1BF4:  MOVLB  6
1BF6:  MOVF   x3F,W
1BF8:  MOVLB  5
1BFA:  SUBWF  x89,W
1BFC:  BC    1C76
....................    { 
....................       Prom+=promedio[h]; 
1BFE:  MOVLB  6
1C00:  CLRF   x44
1C02:  MOVFF  589,643
1C06:  CLRF   x46
1C08:  MOVLW  04
1C0A:  MOVWF  x45
1C0C:  MOVLB  0
1C0E:  RCALL  1980
1C10:  MOVFF  02,03
1C14:  MOVF   01,W
1C16:  ADDLW  19
1C18:  MOVWF  FE9
1C1A:  MOVLW  04
1C1C:  ADDWFC 02,W
1C1E:  MOVWF  FEA
1C20:  MOVFF  FEF,648
1C24:  MOVFF  FEC,01
1C28:  MOVFF  FEC,02
1C2C:  MOVFF  FEC,03
1C30:  MOVFF  FEA,641
1C34:  MOVFF  FE9,640
1C38:  BCF    FD8.1
1C3A:  MOVFF  5EA,647
1C3E:  MOVFF  5E9,646
1C42:  MOVFF  5E8,645
1C46:  MOVFF  5E7,644
1C4A:  MOVFF  03,64B
1C4E:  MOVFF  02,64A
1C52:  MOVFF  01,649
1C56:  RCALL  1708
1C58:  MOVFF  641,FEA
1C5C:  MOVFF  640,FE9
1C60:  MOVFF  03,5EA
1C64:  MOVFF  02,5E9
1C68:  MOVFF  01,5E8
1C6C:  MOVFF  00,5E7
1C70:  MOVLB  5
1C72:  INCF   x89,F
1C74:  BRA    1BF4
....................    }  
....................    Prom=Prom/media;    
1C76:  MOVLB  6
1C78:  CLRF   x46
1C7A:  MOVFF  63F,645
1C7E:  MOVLB  0
1C80:  CALL   0BA0
1C84:  MOVFF  5EA,643
1C88:  MOVFF  5E9,642
1C8C:  MOVFF  5E8,641
1C90:  MOVFF  5E7,640
1C94:  MOVFF  03,647
1C98:  MOVFF  02,646
1C9C:  MOVFF  01,645
1CA0:  MOVFF  00,644
1CA4:  RCALL  15AA
1CA6:  MOVFF  03,5EA
1CAA:  MOVFF  02,5E9
1CAE:  MOVFF  01,5E8
1CB2:  MOVFF  00,5E7
....................    //Temperature=(Prom-100.0)/(0.385);  // Ecuacin determinada por linealizacin en Matlab. Revisar este polinomio.   
....................    Temperature=((Prom*Prom)*a)+(Prom*b)+c;  // Ecuacin determinada por linealizacin en Matlab. Revisar este polinomio. 
1CB6:  MOVFF  5EA,65F
1CBA:  MOVFF  5E9,65E
1CBE:  MOVFF  5E8,65D
1CC2:  MOVFF  5E7,65C
1CC6:  MOVFF  5EA,663
1CCA:  MOVFF  5E9,662
1CCE:  MOVFF  5E8,661
1CD2:  MOVFF  5E7,660
1CD6:  RCALL  19A2
1CD8:  MOVFF  03,643
1CDC:  MOVFF  02,642
1CE0:  MOVFF  01,641
1CE4:  MOVFF  00,640
1CE8:  MOVFF  03,65F
1CEC:  MOVFF  02,65E
1CF0:  MOVFF  01,65D
1CF4:  MOVFF  00,65C
1CF8:  MOVFF  616,663
1CFC:  MOVFF  615,662
1D00:  MOVFF  614,661
1D04:  MOVFF  613,660
1D08:  RCALL  19A2
1D0A:  MOVFF  03,643
1D0E:  MOVFF  02,642
1D12:  MOVFF  01,641
1D16:  MOVFF  00,640
1D1A:  MOVFF  5EA,65F
1D1E:  MOVFF  5E9,65E
1D22:  MOVFF  5E8,65D
1D26:  MOVFF  5E7,65C
1D2A:  MOVFF  61A,663
1D2E:  MOVFF  619,662
1D32:  MOVFF  618,661
1D36:  MOVFF  617,660
1D3A:  RCALL  19A2
1D3C:  BCF    FD8.1
1D3E:  MOVFF  643,647
1D42:  MOVFF  642,646
1D46:  MOVFF  641,645
1D4A:  MOVFF  640,644
1D4E:  MOVFF  03,64B
1D52:  MOVFF  02,64A
1D56:  MOVFF  01,649
1D5A:  MOVFF  00,648
1D5E:  RCALL  1708
1D60:  MOVFF  03,643
1D64:  MOVFF  02,642
1D68:  MOVFF  01,641
1D6C:  MOVFF  00,640
1D70:  BCF    FD8.1
1D72:  MOVFF  03,647
1D76:  MOVFF  02,646
1D7A:  MOVFF  01,645
1D7E:  MOVFF  00,644
1D82:  MOVFF  61E,64B
1D86:  MOVFF  61D,64A
1D8A:  MOVFF  61C,649
1D8E:  MOVFF  61B,648
1D92:  RCALL  1708
1D94:  MOVFF  03,5EE
1D98:  MOVFF  02,5ED
1D9C:  MOVFF  01,5EC
1DA0:  MOVFF  00,5EB
....................     
....................    Temperature+=((float)Ajuste-(float)Ajusten); 
1DA4:  MOVLB  6
1DA6:  CLRF   x46
1DA8:  MOVFF  58B,645
1DAC:  MOVLB  0
1DAE:  CALL   0BA0
1DB2:  MOVFF  03,643
1DB6:  MOVFF  02,642
1DBA:  MOVFF  01,641
1DBE:  MOVFF  00,640
1DC2:  MOVLB  6
1DC4:  CLRF   x46
1DC6:  MOVFF  58C,645
1DCA:  MOVLB  0
1DCC:  CALL   0BA0
1DD0:  BSF    FD8.1
1DD2:  MOVFF  643,647
1DD6:  MOVFF  642,646
1DDA:  MOVFF  641,645
1DDE:  MOVFF  640,644
1DE2:  MOVFF  03,64B
1DE6:  MOVFF  02,64A
1DEA:  MOVFF  01,649
1DEE:  MOVFF  00,648
1DF2:  RCALL  1708
1DF4:  BCF    FD8.1
1DF6:  MOVFF  5EE,647
1DFA:  MOVFF  5ED,646
1DFE:  MOVFF  5EC,645
1E02:  MOVFF  5EB,644
1E06:  MOVFF  03,64B
1E0A:  MOVFF  02,64A
1E0E:  MOVFF  01,649
1E12:  MOVFF  00,648
1E16:  RCALL  1708
1E18:  MOVFF  03,5EE
1E1C:  MOVFF  02,5ED
1E20:  MOVFF  01,5EC
1E24:  MOVFF  00,5EB
....................     
....................    //return Prom; 
....................    return Temperature; 
1E28:  MOVFF  5EB,00
1E2C:  MOVFF  5EC,01
1E30:  MOVFF  5ED,02
1E34:  MOVFF  5EE,03
1E38:  RETURN 0
.................... } 
....................  
.................... void Controla(){ 
.................... //-------------------------------Control de Calentamiento------------------------------------------------------------//          
....................    if(tiemporecta>=40) 
*
26D2:  MOVLB  5
26D4:  MOVF   x8E,W
26D6:  SUBLW  27
26D8:  BC    26E2
....................    { 
....................       ActualizaRecta(); 
26DA:  MOVLB  0
26DC:  BRA    2628
....................       tiemporecta=0; 
26DE:  MOVLB  5
26E0:  CLRF   x8E
....................    }  
....................    
....................    if(Enfria==1) 
26E2:  DECFSZ x97,W
26E4:  BRA    2ABE
....................    { 
....................       error=Setpoint-desvio-Temperatura;      // Clculo del error ****** 
26E6:  MOVFF  5AE,646
26EA:  MOVFF  5AD,645
26EE:  MOVLB  0
26F0:  CALL   0BA0
26F4:  BSF    FD8.1
26F6:  MOVFF  03,647
26FA:  MOVFF  02,646
26FE:  MOVFF  01,645
2702:  MOVFF  00,644
2706:  MOVFF  5FE,64B
270A:  MOVFF  5FD,64A
270E:  MOVFF  5FC,649
2712:  MOVFF  5FB,648
2716:  CALL   1708
271A:  MOVFF  03,642
271E:  MOVFF  02,641
2722:  MOVFF  01,640
2726:  MOVFF  00,63F
272A:  BSF    FD8.1
272C:  MOVFF  03,647
2730:  MOVFF  02,646
2734:  MOVFF  01,645
2738:  MOVFF  00,644
273C:  MOVFF  60A,64B
2740:  MOVFF  609,64A
2744:  MOVFF  608,649
2748:  MOVFF  607,648
274C:  CALL   1708
2750:  MOVFF  03,5E6
2754:  MOVFF  02,5E5
2758:  MOVFF  01,5E4
275C:  MOVFF  00,5E3
....................        
....................       if(error>-1.0 && Aumento>-0.2) 
2760:  MOVLB  6
2762:  CLRF   x42
2764:  CLRF   x41
2766:  MOVLW  80
2768:  MOVWF  x40
276A:  MOVLW  7F
276C:  MOVWF  x3F
276E:  MOVFF  5E6,646
2772:  MOVFF  5E5,645
2776:  MOVFF  5E4,644
277A:  MOVFF  5E3,643
277E:  MOVLB  0
2780:  CALL   0BD6
2784:  BNC   2812
2786:  MOVLW  CD
2788:  MOVLB  6
278A:  MOVWF  x42
278C:  MOVLW  CC
278E:  MOVWF  x41
2790:  MOVWF  x40
2792:  MOVLW  7C
2794:  MOVWF  x3F
2796:  MOVFF  606,646
279A:  MOVFF  605,645
279E:  MOVFF  604,644
27A2:  MOVFF  603,643
27A6:  MOVLB  0
27A8:  CALL   0BD6
27AC:  BNC   2812
....................       { 
....................          if(Potencia<90.0) 
27AE:  MOVFF  5B6,642
27B2:  MOVFF  5B5,641
27B6:  MOVFF  5B4,640
27BA:  MOVFF  5B3,63F
27BE:  MOVLB  6
27C0:  CLRF   x46
27C2:  CLRF   x45
27C4:  MOVLW  34
27C6:  MOVWF  x44
27C8:  MOVLW  85
27CA:  MOVWF  x43
27CC:  MOVLB  0
27CE:  CALL   0BD6
27D2:  BNC   2812
....................          { 
....................             if(TiempoControl>=80) 
27D4:  MOVLB  5
27D6:  MOVF   x9D,W
27D8:  SUBLW  4F
27DA:  BC    2814
....................             { 
....................                TiempoControl=0; 
27DC:  CLRF   x9D
....................                Ganancia+=0.5; 
27DE:  BCF    FD8.1
27E0:  MOVFF  5F6,647
27E4:  MOVFF  5F5,646
27E8:  MOVFF  5F4,645
27EC:  MOVFF  5F3,644
27F0:  MOVLB  6
27F2:  CLRF   x4B
27F4:  CLRF   x4A
27F6:  CLRF   x49
27F8:  MOVLW  7E
27FA:  MOVWF  x48
27FC:  MOVLB  0
27FE:  CALL   1708
2802:  MOVFF  03,5F6
2806:  MOVFF  02,5F5
280A:  MOVFF  01,5F4
280E:  MOVFF  00,5F3
2812:  MOVLB  5
....................             } 
....................          } 
....................       } 
....................     
....................       if(error>0.0)     // Anti Wind_DOWN 
2814:  MOVLB  6
2816:  CLRF   x42
2818:  CLRF   x41
281A:  CLRF   x40
281C:  CLRF   x3F
281E:  MOVFF  5E6,646
2822:  MOVFF  5E5,645
2826:  MOVFF  5E4,644
282A:  MOVFF  5E3,643
282E:  MOVLB  0
2830:  CALL   0BD6
2834:  BNC   2842
....................       { 
....................          error=0.0; 
2836:  MOVLB  5
2838:  CLRF   xE6
283A:  CLRF   xE5
283C:  CLRF   xE4
283E:  CLRF   xE3
2840:  MOVLB  0
....................       } 
....................       error=error*-1.0; 
2842:  MOVFF  5E6,65F
2846:  MOVFF  5E5,65E
284A:  MOVFF  5E4,65D
284E:  MOVFF  5E3,65C
2852:  MOVLB  6
2854:  CLRF   x63
2856:  CLRF   x62
2858:  MOVLW  80
285A:  MOVWF  x61
285C:  MOVLW  7F
285E:  MOVWF  x60
2860:  MOVLB  0
2862:  CALL   19A2
2866:  MOVFF  03,5E6
286A:  MOVFF  02,5E5
286E:  MOVFF  01,5E4
2872:  MOVFF  00,5E3
....................        
....................       if(Ganancia<0.5) 
2876:  MOVFF  5F6,642
287A:  MOVFF  5F5,641
287E:  MOVFF  5F4,640
2882:  MOVFF  5F3,63F
2886:  MOVLB  6
2888:  CLRF   x46
288A:  CLRF   x45
288C:  CLRF   x44
288E:  MOVLW  7E
2890:  MOVWF  x43
2892:  MOVLB  0
2894:  CALL   0BD6
2898:  BNC   28A8
....................       { 
....................          Ganancia=0.5; 
289A:  MOVLB  5
289C:  CLRF   xF6
289E:  CLRF   xF5
28A0:  CLRF   xF4
28A2:  MOVLW  7E
28A4:  MOVWF  xF3
28A6:  MOVLB  0
....................       } 
....................       if(Ganancia>Gananciamax) 
28A8:  MOVFF  5BE,642
28AC:  MOVFF  5BD,641
28B0:  MOVFF  5BC,640
28B4:  MOVFF  5BB,63F
28B8:  MOVFF  5F6,646
28BC:  MOVFF  5F5,645
28C0:  MOVFF  5F4,644
28C4:  MOVFF  5F3,643
28C8:  CALL   0BD6
28CC:  BNC   28DE
....................       { 
....................          Ganancia=Gananciamax; 
28CE:  MOVFF  5BE,5F6
28D2:  MOVFF  5BD,5F5
28D6:  MOVFF  5BC,5F4
28DA:  MOVFF  5BB,5F3
....................       } 
....................     
....................       tmp=error*Ganancia;  // Control Proporcional. 
28DE:  MOVFF  5E6,65F
28E2:  MOVFF  5E5,65E
28E6:  MOVFF  5E4,65D
28EA:  MOVFF  5E3,65C
28EE:  MOVFF  5F6,663
28F2:  MOVFF  5F5,662
28F6:  MOVFF  5F4,661
28FA:  MOVFF  5F3,660
28FE:  CALL   19A2
2902:  MOVFF  03,5F2
2906:  MOVFF  02,5F1
290A:  MOVFF  01,5F0
290E:  MOVFF  00,5EF
....................              
....................       if(tmp>Setpoint)   // Anti Wind-UP       
2912:  MOVFF  5AE,646
2916:  MOVFF  5AD,645
291A:  CALL   0BA0
291E:  MOVFF  03,642
2922:  MOVFF  02,641
2926:  MOVFF  01,640
292A:  MOVFF  00,63F
292E:  MOVFF  5F2,646
2932:  MOVFF  5F1,645
2936:  MOVFF  5F0,644
293A:  MOVFF  5EF,643
293E:  CALL   0BD6
2942:  BNC   2960
....................       { 
....................          tmp=Setpoint; 
2944:  MOVFF  5AE,646
2948:  MOVFF  5AD,645
294C:  CALL   0BA0
2950:  MOVFF  03,5F2
2954:  MOVFF  02,5F1
2958:  MOVFF  01,5F0
295C:  MOVFF  00,5EF
....................       } 
....................                    
....................       if(tmp<0.0)     // Anti Wind_DOWN     
2960:  MOVFF  5F2,642
2964:  MOVFF  5F1,641
2968:  MOVFF  5F0,640
296C:  MOVFF  5EF,63F
2970:  MOVLB  6
2972:  CLRF   x46
2974:  CLRF   x45
2976:  CLRF   x44
2978:  CLRF   x43
297A:  MOVLB  0
297C:  CALL   0BD6
2980:  BNC   298E
....................       { 
....................          tmp=0.0; 
2982:  MOVLB  5
2984:  CLRF   xF2
2986:  CLRF   xF1
2988:  CLRF   xF0
298A:  CLRF   xEF
298C:  MOVLB  0
....................       } 
....................        
....................       // Tpulso(t)= Tciclo*(y(t)-ymin)/(ymax - ymin); calculo de ciclo util para control de resistencia.ymax=140.ymin=0; 
....................       // Tpulso es float, hay que pasar ese ciclo a una salida de un puerto usando el TMR1. 
....................       Tpulso=(tmp/Setpoint)*Tciclo;   
298E:  MOVFF  5AE,646
2992:  MOVFF  5AD,645
2996:  CALL   0BA0
299A:  MOVFF  5F2,643
299E:  MOVFF  5F1,642
29A2:  MOVFF  5F0,641
29A6:  MOVFF  5EF,640
29AA:  MOVFF  03,647
29AE:  MOVFF  02,646
29B2:  MOVFF  01,645
29B6:  MOVFF  00,644
29BA:  CALL   15AA
29BE:  MOVFF  03,642
29C2:  MOVFF  02,641
29C6:  MOVFF  01,640
29CA:  MOVFF  00,63F
29CE:  MOVFF  03,65F
29D2:  MOVFF  02,65E
29D6:  MOVFF  01,65D
29DA:  MOVFF  00,65C
29DE:  MOVFF  5DE,663
29E2:  MOVFF  5DD,662
29E6:  MOVFF  5DC,661
29EA:  MOVFF  5DB,660
29EE:  CALL   19A2
29F2:  MOVFF  03,5E2
29F6:  MOVFF  02,5E1
29FA:  MOVFF  01,5E0
29FE:  MOVFF  00,5DF
....................        
....................       if(tiempoctrl>=(int16)(Tciclo/0.005)) // Si el tiempo de control es mayor al tiempo de ciclo se reinicia tiempo de control 
2A02:  MOVFF  5DE,643
2A06:  MOVFF  5DD,642
2A0A:  MOVFF  5DC,641
2A0E:  MOVFF  5DB,640
2A12:  MOVLW  0A
2A14:  MOVLB  6
2A16:  MOVWF  x47
2A18:  MOVLW  D7
2A1A:  MOVWF  x46
2A1C:  MOVLW  23
2A1E:  MOVWF  x45
2A20:  MOVLW  77
2A22:  MOVWF  x44
2A24:  MOVLB  0
2A26:  CALL   15AA
2A2A:  MOVFF  03,642
2A2E:  MOVFF  02,641
2A32:  MOVFF  01,640
2A36:  MOVFF  00,63F
2A3A:  RCALL  2696
2A3C:  MOVF   02,W
2A3E:  MOVWF  03
2A40:  MOVLB  5
2A42:  SUBWF  xA6,W
2A44:  BNC   2A52
2A46:  BNZ   2A4E
2A48:  MOVF   01,W
2A4A:  SUBWF  xA5,W
2A4C:  BNC   2A52
....................       { 
....................          tiempoctrl=0; 
2A4E:  CLRF   xA6
2A50:  CLRF   xA5
....................       } // tiempoctrl incrementa una unidad cada 5ms, por eso se dividen los tiempos por 0.005. 
....................        
....................       if(tiempoctrl<=(int16)(Tpulso/0.005)) // Si el tiempo es menor o igual al tiempo de control se enciende la resistencia de lo contrario se apaga. 
2A52:  MOVFF  5E2,643
2A56:  MOVFF  5E1,642
2A5A:  MOVFF  5E0,641
2A5E:  MOVFF  5DF,640
2A62:  MOVLW  0A
2A64:  MOVLB  6
2A66:  MOVWF  x47
2A68:  MOVLW  D7
2A6A:  MOVWF  x46
2A6C:  MOVLW  23
2A6E:  MOVWF  x45
2A70:  MOVLW  77
2A72:  MOVWF  x44
2A74:  MOVLB  0
2A76:  CALL   15AA
2A7A:  MOVFF  03,642
2A7E:  MOVFF  02,641
2A82:  MOVFF  01,640
2A86:  MOVFF  00,63F
2A8A:  RCALL  2696
2A8C:  MOVFF  02,03
2A90:  MOVF   01,W
2A92:  MOVLB  5
2A94:  MOVF   xA6,W
2A96:  SUBWF  02,W
2A98:  BNC   2AB0
2A9A:  BNZ   2AA2
2A9C:  MOVF   xA5,W
2A9E:  SUBWF  01,W
2AA0:  BNC   2AB0
....................       { 
....................          Resistencia_on; 
2AA2:  BSF    F8B.0
2AA4:  BCF    F94.0
....................          Peltiern_off; 
2AA6:  BCF    F8B.1
2AA8:  BCF    F94.1
....................          Peltierp_on; 
2AAA:  BSF    F8B.2
2AAC:  BCF    F94.2
....................       } 
2AAE:  BRA    2ABC
....................       else          
....................       { 
....................          Resistencia_off; 
2AB0:  BCF    F8B.0
2AB2:  BCF    F94.0
....................          Peltiern_off; 
2AB4:  BCF    F8B.1
2AB6:  BCF    F94.1
....................          Peltierp_off; 
2AB8:  BCF    F8B.2
2ABA:  BCF    F94.2
....................       } 
....................              
....................    } 
2ABC:  BRA    3116
....................    else 
....................    { 
....................       error=desvio+Setpoint-Temperatura;      // Clculo del error ****** 
2ABE:  MOVFF  5AE,646
2AC2:  MOVFF  5AD,645
2AC6:  MOVLB  0
2AC8:  CALL   0BA0
2ACC:  BCF    FD8.1
2ACE:  MOVFF  5FE,647
2AD2:  MOVFF  5FD,646
2AD6:  MOVFF  5FC,645
2ADA:  MOVFF  5FB,644
2ADE:  MOVFF  03,64B
2AE2:  MOVFF  02,64A
2AE6:  MOVFF  01,649
2AEA:  MOVFF  00,648
2AEE:  CALL   1708
2AF2:  MOVFF  03,642
2AF6:  MOVFF  02,641
2AFA:  MOVFF  01,640
2AFE:  MOVFF  00,63F
2B02:  BSF    FD8.1
2B04:  MOVFF  03,647
2B08:  MOVFF  02,646
2B0C:  MOVFF  01,645
2B10:  MOVFF  00,644
2B14:  MOVFF  60A,64B
2B18:  MOVFF  609,64A
2B1C:  MOVFF  608,649
2B20:  MOVFF  607,648
2B24:  CALL   1708
2B28:  MOVFF  03,5E6
2B2C:  MOVFF  02,5E5
2B30:  MOVFF  01,5E4
2B34:  MOVFF  00,5E3
....................     
....................       if(error>1.6 && error<30 && Aumento<0.3) 
2B38:  MOVLW  CD
2B3A:  MOVLB  6
2B3C:  MOVWF  x42
2B3E:  MOVLW  CC
2B40:  MOVWF  x41
2B42:  MOVLW  4C
2B44:  MOVWF  x40
2B46:  MOVLW  7F
2B48:  MOVWF  x3F
2B4A:  MOVFF  5E6,646
2B4E:  MOVFF  5E5,645
2B52:  MOVFF  5E4,644
2B56:  MOVFF  5E3,643
2B5A:  MOVLB  0
2B5C:  CALL   0BD6
2B60:  BTFSS  FD8.0
2B62:  BRA    2CE0
2B64:  MOVFF  5E6,642
2B68:  MOVFF  5E5,641
2B6C:  MOVFF  5E4,640
2B70:  MOVFF  5E3,63F
2B74:  MOVLB  6
2B76:  CLRF   x46
2B78:  CLRF   x45
2B7A:  MOVLW  70
2B7C:  MOVWF  x44
2B7E:  MOVLW  83
2B80:  MOVWF  x43
2B82:  MOVLB  0
2B84:  CALL   0BD6
2B88:  BTFSS  FD8.0
2B8A:  BRA    2CE0
2B8C:  MOVFF  606,642
2B90:  MOVFF  605,641
2B94:  MOVFF  604,640
2B98:  MOVFF  603,63F
2B9C:  MOVLW  9A
2B9E:  MOVLB  6
2BA0:  MOVWF  x46
2BA2:  MOVLW  99
2BA4:  MOVWF  x45
2BA6:  MOVLW  19
2BA8:  MOVWF  x44
2BAA:  MOVLW  7D
2BAC:  MOVWF  x43
2BAE:  MOVLB  0
2BB0:  CALL   0BD6
2BB4:  BTFSS  FD8.0
2BB6:  BRA    2CE0
....................       { 
....................          flag_ajuste=0; 
2BB8:  MOVLB  5
2BBA:  BCF    x93.6
....................          flag_ajuste2=0; 
2BBC:  BCF    x93.7
....................          if(Potencia<90.0) 
2BBE:  MOVFF  5B6,642
2BC2:  MOVFF  5B5,641
2BC6:  MOVFF  5B4,640
2BCA:  MOVFF  5B3,63F
2BCE:  MOVLB  6
2BD0:  CLRF   x46
2BD2:  CLRF   x45
2BD4:  MOVLW  34
2BD6:  MOVWF  x44
2BD8:  MOVLW  85
2BDA:  MOVWF  x43
2BDC:  MOVLB  0
2BDE:  CALL   0BD6
2BE2:  BTFSS  FD8.0
2BE4:  BRA    2CE0
....................          { 
....................             if(TiempoControl>=80) 
2BE6:  MOVLB  5
2BE8:  MOVF   x9D,W
2BEA:  SUBLW  4F
2BEC:  BTFSC  FD8.0
2BEE:  BRA    2CE2
....................             { 
....................                TiempoControl=0; 
2BF0:  CLRF   x9D
....................                if(Aumento<-0.5) 
2BF2:  MOVFF  606,642
2BF6:  MOVFF  605,641
2BFA:  MOVFF  604,640
2BFE:  MOVFF  603,63F
2C02:  MOVLB  6
2C04:  CLRF   x46
2C06:  CLRF   x45
2C08:  MOVLW  80
2C0A:  MOVWF  x44
2C0C:  MOVLW  7E
2C0E:  MOVWF  x43
2C10:  MOVLB  0
2C12:  CALL   0BD6
2C16:  BNC   2C4E
....................                { 
....................                   Ganancia+=2; 
2C18:  BCF    FD8.1
2C1A:  MOVFF  5F6,647
2C1E:  MOVFF  5F5,646
2C22:  MOVFF  5F4,645
2C26:  MOVFF  5F3,644
2C2A:  MOVLB  6
2C2C:  CLRF   x4B
2C2E:  CLRF   x4A
2C30:  CLRF   x49
2C32:  MOVLW  80
2C34:  MOVWF  x48
2C36:  MOVLB  0
2C38:  CALL   1708
2C3C:  MOVFF  03,5F6
2C40:  MOVFF  02,5F5
2C44:  MOVFF  01,5F4
2C48:  MOVFF  00,5F3
....................                } 
2C4C:  BRA    2CE0
....................                else 
....................                { 
....................                   if(Aumento<-0.1) 
2C4E:  MOVFF  606,642
2C52:  MOVFF  605,641
2C56:  MOVFF  604,640
2C5A:  MOVFF  603,63F
2C5E:  MOVLW  CD
2C60:  MOVLB  6
2C62:  MOVWF  x46
2C64:  MOVLW  CC
2C66:  MOVWF  x45
2C68:  MOVWF  x44
2C6A:  MOVLW  7B
2C6C:  MOVWF  x43
2C6E:  MOVLB  0
2C70:  CALL   0BD6
2C74:  BNC   2CAC
....................                   { 
....................                      Ganancia+=1; 
2C76:  BCF    FD8.1
2C78:  MOVFF  5F6,647
2C7C:  MOVFF  5F5,646
2C80:  MOVFF  5F4,645
2C84:  MOVFF  5F3,644
2C88:  MOVLB  6
2C8A:  CLRF   x4B
2C8C:  CLRF   x4A
2C8E:  CLRF   x49
2C90:  MOVLW  7F
2C92:  MOVWF  x48
2C94:  MOVLB  0
2C96:  CALL   1708
2C9A:  MOVFF  03,5F6
2C9E:  MOVFF  02,5F5
2CA2:  MOVFF  01,5F4
2CA6:  MOVFF  00,5F3
....................                   }    
2CAA:  BRA    2CE0
....................                   else 
....................                   { 
....................                      Ganancia+=0.5; 
2CAC:  BCF    FD8.1
2CAE:  MOVFF  5F6,647
2CB2:  MOVFF  5F5,646
2CB6:  MOVFF  5F4,645
2CBA:  MOVFF  5F3,644
2CBE:  MOVLB  6
2CC0:  CLRF   x4B
2CC2:  CLRF   x4A
2CC4:  CLRF   x49
2CC6:  MOVLW  7E
2CC8:  MOVWF  x48
2CCA:  MOVLB  0
2CCC:  CALL   1708
2CD0:  MOVFF  03,5F6
2CD4:  MOVFF  02,5F5
2CD8:  MOVFF  01,5F4
2CDC:  MOVFF  00,5F3
2CE0:  MOVLB  5
....................                   } 
....................                } 
....................             } 
....................          } 
....................       } 
....................        
....................       if(error<0.0) 
2CE2:  MOVFF  5E6,642
2CE6:  MOVFF  5E5,641
2CEA:  MOVFF  5E4,640
2CEE:  MOVFF  5E3,63F
2CF2:  MOVLB  6
2CF4:  CLRF   x46
2CF6:  CLRF   x45
2CF8:  CLRF   x44
2CFA:  CLRF   x43
2CFC:  MOVLB  0
2CFE:  CALL   0BD6
2D02:  BNC   2D6E
....................       { 
....................          Ganancia=2*(Setpoint/37.0); 
2D04:  MOVFF  5AE,646
2D08:  MOVFF  5AD,645
2D0C:  CALL   0BA0
2D10:  MOVFF  03,643
2D14:  MOVFF  02,642
2D18:  MOVFF  01,641
2D1C:  MOVFF  00,640
2D20:  MOVLB  6
2D22:  CLRF   x47
2D24:  CLRF   x46
2D26:  MOVLW  14
2D28:  MOVWF  x45
2D2A:  MOVLW  84
2D2C:  MOVWF  x44
2D2E:  MOVLB  0
2D30:  CALL   15AA
2D34:  MOVLB  6
2D36:  CLRF   x5F
2D38:  CLRF   x5E
2D3A:  CLRF   x5D
2D3C:  MOVLW  80
2D3E:  MOVWF  x5C
2D40:  MOVFF  03,663
2D44:  MOVFF  02,662
2D48:  MOVFF  01,661
2D4C:  MOVFF  00,660
2D50:  MOVLB  0
2D52:  CALL   19A2
2D56:  MOVFF  03,5F6
2D5A:  MOVFF  02,5F5
2D5E:  MOVFF  01,5F4
2D62:  MOVFF  00,5F3
....................          flag_ajuste=0; 
2D66:  MOVLB  5
2D68:  BCF    x93.6
....................          flag_ajuste2=0; 
2D6A:  BCF    x93.7
2D6C:  MOVLB  0
....................       } 
....................        
....................       if(Ganancia<0.5) 
2D6E:  MOVFF  5F6,642
2D72:  MOVFF  5F5,641
2D76:  MOVFF  5F4,640
2D7A:  MOVFF  5F3,63F
2D7E:  MOVLB  6
2D80:  CLRF   x46
2D82:  CLRF   x45
2D84:  CLRF   x44
2D86:  MOVLW  7E
2D88:  MOVWF  x43
2D8A:  MOVLB  0
2D8C:  CALL   0BD6
2D90:  BNC   2DA0
....................       { 
....................          Ganancia=0.5; 
2D92:  MOVLB  5
2D94:  CLRF   xF6
2D96:  CLRF   xF5
2D98:  CLRF   xF4
2D9A:  MOVLW  7E
2D9C:  MOVWF  xF3
2D9E:  MOVLB  0
....................       } 
....................       if(Ganancia>Gananciamax) 
2DA0:  MOVFF  5BE,642
2DA4:  MOVFF  5BD,641
2DA8:  MOVFF  5BC,640
2DAC:  MOVFF  5BB,63F
2DB0:  MOVFF  5F6,646
2DB4:  MOVFF  5F5,645
2DB8:  MOVFF  5F4,644
2DBC:  MOVFF  5F3,643
2DC0:  CALL   0BD6
2DC4:  BNC   2DD6
....................       { 
....................          Ganancia=Gananciamax; 
2DC6:  MOVFF  5BE,5F6
2DCA:  MOVFF  5BD,5F5
2DCE:  MOVFF  5BC,5F4
2DD2:  MOVFF  5BB,5F3
....................       } 
....................     
....................       if(error<0.0)     // Anti Wind_DOWN     
2DD6:  MOVFF  5E6,642
2DDA:  MOVFF  5E5,641
2DDE:  MOVFF  5E4,640
2DE2:  MOVFF  5E3,63F
2DE6:  MOVLB  6
2DE8:  CLRF   x46
2DEA:  CLRF   x45
2DEC:  CLRF   x44
2DEE:  CLRF   x43
2DF0:  MOVLB  0
2DF2:  CALL   0BD6
2DF6:  BNC   2E04
....................       { 
....................          error=0.0; 
2DF8:  MOVLB  5
2DFA:  CLRF   xE6
2DFC:  CLRF   xE5
2DFE:  CLRF   xE4
2E00:  CLRF   xE3
2E02:  MOVLB  0
....................       } 
....................       //tmp=(Setpoint-Prom)*Ganancia;  // Control Proporcional. 
....................       tmp=error*Ganancia;  // Control Proporcional. 
2E04:  MOVFF  5E6,65F
2E08:  MOVFF  5E5,65E
2E0C:  MOVFF  5E4,65D
2E10:  MOVFF  5E3,65C
2E14:  MOVFF  5F6,663
2E18:  MOVFF  5F5,662
2E1C:  MOVFF  5F4,661
2E20:  MOVFF  5F3,660
2E24:  CALL   19A2
2E28:  MOVFF  03,5F2
2E2C:  MOVFF  02,5F1
2E30:  MOVFF  01,5F0
2E34:  MOVFF  00,5EF
....................              
....................       if(tmp>Setpoint)   // Anti Wind-UP       
2E38:  MOVFF  5AE,646
2E3C:  MOVFF  5AD,645
2E40:  CALL   0BA0
2E44:  MOVFF  03,642
2E48:  MOVFF  02,641
2E4C:  MOVFF  01,640
2E50:  MOVFF  00,63F
2E54:  MOVFF  5F2,646
2E58:  MOVFF  5F1,645
2E5C:  MOVFF  5F0,644
2E60:  MOVFF  5EF,643
2E64:  CALL   0BD6
2E68:  BNC   2E86
....................       { 
....................          tmp=Setpoint; 
2E6A:  MOVFF  5AE,646
2E6E:  MOVFF  5AD,645
2E72:  CALL   0BA0
2E76:  MOVFF  03,5F2
2E7A:  MOVFF  02,5F1
2E7E:  MOVFF  01,5F0
2E82:  MOVFF  00,5EF
....................       } 
....................                    
....................       if(tmp<0.0)     // Anti Wind_DOWN     
2E86:  MOVFF  5F2,642
2E8A:  MOVFF  5F1,641
2E8E:  MOVFF  5F0,640
2E92:  MOVFF  5EF,63F
2E96:  MOVLB  6
2E98:  CLRF   x46
2E9A:  CLRF   x45
2E9C:  CLRF   x44
2E9E:  CLRF   x43
2EA0:  MOVLB  0
2EA2:  CALL   0BD6
2EA6:  BNC   2EB4
....................       { 
....................          tmp=0.0; 
2EA8:  MOVLB  5
2EAA:  CLRF   xF2
2EAC:  CLRF   xF1
2EAE:  CLRF   xF0
2EB0:  CLRF   xEF
2EB2:  MOVLB  0
....................       } 
....................     
....................       Tpulso=(tmp/Setpoint)*Tciclo; 
2EB4:  MOVFF  5AE,646
2EB8:  MOVFF  5AD,645
2EBC:  CALL   0BA0
2EC0:  MOVFF  5F2,643
2EC4:  MOVFF  5F1,642
2EC8:  MOVFF  5F0,641
2ECC:  MOVFF  5EF,640
2ED0:  MOVFF  03,647
2ED4:  MOVFF  02,646
2ED8:  MOVFF  01,645
2EDC:  MOVFF  00,644
2EE0:  CALL   15AA
2EE4:  MOVFF  03,642
2EE8:  MOVFF  02,641
2EEC:  MOVFF  01,640
2EF0:  MOVFF  00,63F
2EF4:  MOVFF  03,65F
2EF8:  MOVFF  02,65E
2EFC:  MOVFF  01,65D
2F00:  MOVFF  00,65C
2F04:  MOVFF  5DE,663
2F08:  MOVFF  5DD,662
2F0C:  MOVFF  5DC,661
2F10:  MOVFF  5DB,660
2F14:  CALL   19A2
2F18:  MOVFF  03,5E2
2F1C:  MOVFF  02,5E1
2F20:  MOVFF  01,5E0
2F24:  MOVFF  00,5DF
....................        
....................       if(error<1.6) 
2F28:  MOVFF  5E6,642
2F2C:  MOVFF  5E5,641
2F30:  MOVFF  5E4,640
2F34:  MOVFF  5E3,63F
2F38:  MOVLW  CD
2F3A:  MOVLB  6
2F3C:  MOVWF  x46
2F3E:  MOVLW  CC
2F40:  MOVWF  x45
2F42:  MOVLW  4C
2F44:  MOVWF  x44
2F46:  MOVLW  7F
2F48:  MOVWF  x43
2F4A:  MOVLB  0
2F4C:  CALL   0BD6
2F50:  BTFSS  FD8.0
2F52:  BRA    3056
....................       { 
....................          if(error<=1.3){    
2F54:  MOVFF  5E6,642
2F58:  MOVFF  5E5,641
2F5C:  MOVFF  5E4,640
2F60:  MOVFF  5E3,63F
2F64:  MOVLW  66
2F66:  MOVLB  6
2F68:  MOVWF  x46
2F6A:  MOVWF  x45
2F6C:  MOVLW  26
2F6E:  MOVWF  x44
2F70:  MOVLW  7F
2F72:  MOVWF  x43
2F74:  MOVLB  0
2F76:  CALL   0BD6
2F7A:  BC    2F7E
2F7C:  BNZ   2F98
....................             if(flag_ajuste==0){ 
2F7E:  MOVLB  5
2F80:  BTFSC  x93.6
2F82:  BRA    2F96
....................                TpulsoMax=Tpulso; 
2F84:  MOVFF  5E2,612
2F88:  MOVFF  5E1,611
2F8C:  MOVFF  5E0,610
2F90:  MOVFF  5DF,60F
....................                flag_ajuste=1;   
2F94:  BSF    x93.6
2F96:  MOVLB  0
....................             } 
....................          } 
....................           
....................          if(error<=0.9){    
2F98:  MOVFF  5E6,642
2F9C:  MOVFF  5E5,641
2FA0:  MOVFF  5E4,640
2FA4:  MOVFF  5E3,63F
2FA8:  MOVLW  66
2FAA:  MOVLB  6
2FAC:  MOVWF  x46
2FAE:  MOVWF  x45
2FB0:  MOVWF  x44
2FB2:  MOVLW  7E
2FB4:  MOVWF  x43
2FB6:  MOVLB  0
2FB8:  CALL   0BD6
2FBC:  BC    2FC0
2FBE:  BNZ   2FDA
....................             if(flag_ajuste2==0){ 
2FC0:  MOVLB  5
2FC2:  BTFSC  x93.7
2FC4:  BRA    2FD8
....................                Tpulsomin=Tpulso; 
2FC6:  MOVFF  5E2,5BA
2FCA:  MOVFF  5E1,5B9
2FCE:  MOVFF  5E0,5B8
2FD2:  MOVFF  5DF,5B7
....................                flag_ajuste2=1;            
2FD6:  BSF    x93.7
2FD8:  MOVLB  0
....................             } 
....................          } 
....................           
....................          if(flag_ajuste2==1){ 
2FDA:  MOVLB  5
2FDC:  BTFSS  x93.7
2FDE:  BRA    301A
....................             if(Tpulso<Tpulsomin){ 
2FE0:  MOVFF  5E2,642
2FE4:  MOVFF  5E1,641
2FE8:  MOVFF  5E0,640
2FEC:  MOVFF  5DF,63F
2FF0:  MOVFF  5BA,646
2FF4:  MOVFF  5B9,645
2FF8:  MOVFF  5B8,644
2FFC:  MOVFF  5B7,643
3000:  MOVLB  0
3002:  CALL   0BD6
3006:  BNC   3018
....................                Tpulso=Tpulsomin; 
3008:  MOVFF  5BA,5E2
300C:  MOVFF  5B9,5E1
3010:  MOVFF  5B8,5E0
3014:  MOVFF  5B7,5DF
3018:  MOVLB  5
....................             } 
....................          } 
....................          if(flag_ajuste==1){    
301A:  BTFSS  x93.6
301C:  BRA    3058
....................             if(Tpulso>TpulsoMax){ 
301E:  MOVFF  612,642
3022:  MOVFF  611,641
3026:  MOVFF  610,640
302A:  MOVFF  60F,63F
302E:  MOVFF  5E2,646
3032:  MOVFF  5E1,645
3036:  MOVFF  5E0,644
303A:  MOVFF  5DF,643
303E:  MOVLB  0
3040:  CALL   0BD6
3044:  BNC   3056
....................                Tpulso=TpulsoMax; 
3046:  MOVFF  612,5E2
304A:  MOVFF  611,5E1
304E:  MOVFF  610,5E0
3052:  MOVFF  60F,5DF
3056:  MOVLB  5
....................             }  
....................          } 
....................       } 
....................        
....................        
....................       if(tiempoctrl>=(int16)(Tciclo/0.005)) // Si el tiempo de control es mayor al tiempo de ciclo se reinicia tiempo de control 
3058:  MOVFF  5DE,643
305C:  MOVFF  5DD,642
3060:  MOVFF  5DC,641
3064:  MOVFF  5DB,640
3068:  MOVLW  0A
306A:  MOVLB  6
306C:  MOVWF  x47
306E:  MOVLW  D7
3070:  MOVWF  x46
3072:  MOVLW  23
3074:  MOVWF  x45
3076:  MOVLW  77
3078:  MOVWF  x44
307A:  MOVLB  0
307C:  CALL   15AA
3080:  MOVFF  03,642
3084:  MOVFF  02,641
3088:  MOVFF  01,640
308C:  MOVFF  00,63F
3090:  CALL   2696
3094:  MOVF   02,W
3096:  MOVWF  03
3098:  MOVLB  5
309A:  SUBWF  xA6,W
309C:  BNC   30AA
309E:  BNZ   30A6
30A0:  MOVF   01,W
30A2:  SUBWF  xA5,W
30A4:  BNC   30AA
....................       { 
....................          tiempoctrl=0; 
30A6:  CLRF   xA6
30A8:  CLRF   xA5
....................       } // tiempoctrl incrementa una unidad cada 5ms, por eso se dividen los tiempos por 0.005. 
....................        
....................       if(tiempoctrl<=(int16)(Tpulso/0.005)) // Si el tiempo es menor o igual al tiempo de control se enciende la resistencia de lo contrario se apaga. 
30AA:  MOVFF  5E2,643
30AE:  MOVFF  5E1,642
30B2:  MOVFF  5E0,641
30B6:  MOVFF  5DF,640
30BA:  MOVLW  0A
30BC:  MOVLB  6
30BE:  MOVWF  x47
30C0:  MOVLW  D7
30C2:  MOVWF  x46
30C4:  MOVLW  23
30C6:  MOVWF  x45
30C8:  MOVLW  77
30CA:  MOVWF  x44
30CC:  MOVLB  0
30CE:  CALL   15AA
30D2:  MOVFF  03,642
30D6:  MOVFF  02,641
30DA:  MOVFF  01,640
30DE:  MOVFF  00,63F
30E2:  CALL   2696
30E6:  MOVFF  02,03
30EA:  MOVF   01,W
30EC:  MOVLB  5
30EE:  MOVF   xA6,W
30F0:  SUBWF  02,W
30F2:  BNC   310A
30F4:  BNZ   30FC
30F6:  MOVF   xA5,W
30F8:  SUBWF  01,W
30FA:  BNC   310A
....................       { 
....................          Resistencia_on; 
30FC:  BSF    F8B.0
30FE:  BCF    F94.0
....................          Peltiern_on; 
3100:  BSF    F8B.1
3102:  BCF    F94.1
....................          Peltierp_off; 
3104:  BCF    F8B.2
3106:  BCF    F94.2
....................       } 
3108:  BRA    3116
....................       else          
....................       { 
....................          Resistencia_off; 
310A:  BCF    F8B.0
310C:  BCF    F94.0
....................          Peltiern_off; 
310E:  BCF    F8B.1
3110:  BCF    F94.1
....................          Peltierp_off; 
3112:  BCF    F8B.2
3114:  BCF    F94.2
....................       } 
....................       /*Tp=(Tpulso/0.005); 
....................       Tc=(Tciclo/0.005); 
....................       Controlando=1;     */ 
....................    } 
3116:  MOVLB  0
3118:  RETURN 0
....................     
.................... //--------------------------------------------------------------------------------------------------------------------//    
....................    
.................... } 
....................  
.................... void displayMenu(char palabra[30], int x, int y, int sombreado, int tamano) 
.................... { 
....................    strcpy(Menus.Letra,palabra); 
*
1294:  MOVLB  6
1296:  MOVFF  63F,01
129A:  MOVFF  640,03
129E:  MOVFF  63F,645
12A2:  MOVFF  640,646
12A6:  MOVLW  06
12A8:  MOVWF  FEA
12AA:  MOVLW  1F
12AC:  MOVWF  FE9
12AE:  MOVFF  640,FE2
12B2:  MOVFF  63F,FE1
12B6:  MOVF   FE7,F
12B8:  MOVFF  FE6,FEE
12BC:  BNZ   12B6
....................    if(sombreado==2) 
12BE:  MOVF   x43,W
12C0:  SUBLW  02
12C2:  BNZ   12EC
....................       {glcd_text57(x+1, y+1, Menus.Letra, tamano, ON);} 
12C4:  MOVLW  01
12C6:  ADDWF  x41,W
12C8:  MOVWF  x45
12CA:  MOVLW  01
12CC:  ADDWF  x42,W
12CE:  MOVWF  x46
12D0:  MOVFF  645,652
12D4:  MOVWF  x53
12D6:  MOVLW  06
12D8:  MOVWF  x55
12DA:  MOVLW  1F
12DC:  MOVWF  x54
12DE:  MOVFF  644,656
12E2:  MOVLW  01
12E4:  MOVWF  x57
12E6:  MOVLB  0
12E8:  RCALL  0EFE
12EA:  MOVLB  6
....................    if(sombreado==1) 
12EC:  DECFSZ x43,W
12EE:  BRA    133A
....................       {glcd_rect(0, y, 127, y+(tamano*8), YES, ON);glcd_text57(x+1, y+1, Menus.Letra, tamano, OFF);} 
12F0:  MOVF   x44,W
12F2:  MULLW  08
12F4:  MOVF   FF3,W
12F6:  ADDWF  x42,W
12F8:  MOVWF  x45
12FA:  CLRF   x52
12FC:  MOVFF  642,653
1300:  MOVLW  7F
1302:  MOVWF  x54
1304:  MOVFF  645,655
1308:  MOVLW  01
130A:  MOVWF  x56
130C:  MOVWF  x57
130E:  MOVLB  0
1310:  RCALL  11D2
1312:  MOVLW  01
1314:  MOVLB  6
1316:  ADDWF  x41,W
1318:  MOVWF  x45
131A:  MOVLW  01
131C:  ADDWF  x42,W
131E:  MOVWF  x46
1320:  MOVFF  645,652
1324:  MOVWF  x53
1326:  MOVLW  06
1328:  MOVWF  x55
132A:  MOVLW  1F
132C:  MOVWF  x54
132E:  MOVFF  644,656
1332:  CLRF   x57
1334:  MOVLB  0
1336:  RCALL  0EFE
1338:  MOVLB  6
....................    if(sombreado==0) 
133A:  MOVF   x43,F
133C:  BNZ   138A
....................       {glcd_rect(0, y, 127, y+(tamano*8), YES, OFF);glcd_text57(x+1, y+1, Menus.Letra, tamano, ON);} 
133E:  MOVF   x44,W
1340:  MULLW  08
1342:  MOVF   FF3,W
1344:  ADDWF  x42,W
1346:  MOVWF  x45
1348:  CLRF   x52
134A:  MOVFF  642,653
134E:  MOVLW  7F
1350:  MOVWF  x54
1352:  MOVFF  645,655
1356:  MOVLW  01
1358:  MOVWF  x56
135A:  CLRF   x57
135C:  MOVLB  0
135E:  RCALL  11D2
1360:  MOVLW  01
1362:  MOVLB  6
1364:  ADDWF  x41,W
1366:  MOVWF  x45
1368:  MOVLW  01
136A:  ADDWF  x42,W
136C:  MOVWF  x46
136E:  MOVFF  645,652
1372:  MOVWF  x53
1374:  MOVLW  06
1376:  MOVWF  x55
1378:  MOVLW  1F
137A:  MOVWF  x54
137C:  MOVFF  644,656
1380:  MOVLW  01
1382:  MOVWF  x57
1384:  MOVLB  0
1386:  RCALL  0EFE
1388:  MOVLB  6
....................    glcd_update(); 
138A:  MOVLB  0
138C:  RCALL  0CEA
138E:  RETURN 0
.................... } 
....................  
.................... void displayTiempo(int digito, int x, int y, int sombreado, int tamano) 
.................... { 
....................    char voltage[9]; 
....................     
....................    if(sombreado==2) 
*
23B8:  MOVLB  6
23BA:  MOVF   x43,W
23BC:  SUBLW  02
23BE:  BNZ   2430
....................    { 
....................       sprintf(voltage, "%03u", digito); 
23C0:  MOVLW  06
23C2:  MOVWF  x3E
23C4:  MOVLW  45
23C6:  MOVWF  x3D
23C8:  MOVFF  640,64E
23CC:  MOVLW  03
23CE:  MOVWF  x4F
23D0:  MOVLB  0
23D2:  RCALL  2332
....................       glcd_rect(x, y, x+(tamano*18), y+(tamano*8), YES, ON); 
23D4:  MOVLB  6
23D6:  MOVF   x44,W
23D8:  MULLW  12
23DA:  MOVF   FF3,W
23DC:  ADDWF  x41,W
23DE:  MOVWF  x4E
23E0:  MOVF   x44,W
23E2:  MULLW  08
23E4:  MOVF   FF3,W
23E6:  ADDWF  x42,W
23E8:  MOVWF  x4F
23EA:  MOVFF  641,652
23EE:  MOVFF  642,653
23F2:  MOVFF  64E,654
23F6:  MOVWF  x55
23F8:  MOVLW  01
23FA:  MOVWF  x56
23FC:  MOVWF  x57
23FE:  MOVLB  0
2400:  CALL   11D2
....................       glcd_text57(x+1, y+1, voltage, tamano, OFF); 
2404:  MOVLW  01
2406:  MOVLB  6
2408:  ADDWF  x41,W
240A:  MOVWF  x4E
240C:  MOVLW  01
240E:  ADDWF  x42,W
2410:  MOVWF  x4F
2412:  MOVFF  64E,652
2416:  MOVWF  x53
2418:  MOVLW  06
241A:  MOVWF  x55
241C:  MOVLW  45
241E:  MOVWF  x54
2420:  MOVFF  644,656
2424:  CLRF   x57
2426:  MOVLB  0
2428:  CALL   0EFE
....................    } 
242C:  BRA    257A
242E:  MOVLB  6
....................    else 
....................    { 
....................       if(sombreado==3) 
2430:  MOVF   x43,W
2432:  SUBLW  03
2434:  BNZ   24A6
....................       { 
....................          sprintf(voltage, "%03u", digito); 
2436:  MOVLW  06
2438:  MOVWF  x3E
243A:  MOVLW  45
243C:  MOVWF  x3D
243E:  MOVFF  640,64E
2442:  MOVLW  03
2444:  MOVWF  x4F
2446:  MOVLB  0
2448:  RCALL  2332
....................          glcd_rect(x, y, x+(tamano*18), y+(tamano*8), YES, OFF); 
244A:  MOVLB  6
244C:  MOVF   x44,W
244E:  MULLW  12
2450:  MOVF   FF3,W
2452:  ADDWF  x41,W
2454:  MOVWF  x4E
2456:  MOVF   x44,W
2458:  MULLW  08
245A:  MOVF   FF3,W
245C:  ADDWF  x42,W
245E:  MOVWF  x4F
2460:  MOVFF  641,652
2464:  MOVFF  642,653
2468:  MOVFF  64E,654
246C:  MOVWF  x55
246E:  MOVLW  01
2470:  MOVWF  x56
2472:  CLRF   x57
2474:  MOVLB  0
2476:  CALL   11D2
....................          glcd_text57(x+1, y+1, voltage, tamano, ON); 
247A:  MOVLW  01
247C:  MOVLB  6
247E:  ADDWF  x41,W
2480:  MOVWF  x4E
2482:  MOVLW  01
2484:  ADDWF  x42,W
2486:  MOVWF  x4F
2488:  MOVFF  64E,652
248C:  MOVWF  x53
248E:  MOVLW  06
2490:  MOVWF  x55
2492:  MOVLW  45
2494:  MOVWF  x54
2496:  MOVFF  644,656
249A:  MOVLW  01
249C:  MOVWF  x57
249E:  MOVLB  0
24A0:  CALL   0EFE
24A4:  MOVLB  6
....................       } 
....................       sprintf(voltage, "%u", digito); 
24A6:  MOVLW  06
24A8:  MOVWF  x3E
24AA:  MOVLW  45
24AC:  MOVWF  x3D
24AE:  MOVFF  640,64E
24B2:  MOVLW  1B
24B4:  MOVWF  x4F
24B6:  MOVLB  0
24B8:  RCALL  2332
....................       if(sombreado==1) 
24BA:  MOVLB  6
24BC:  DECFSZ x43,W
24BE:  BRA    2518
....................          {glcd_rect(x, y, x+(tamano*5), y+(tamano*8), YES, ON);glcd_text57(x+1, y+1, voltage, tamano, OFF);} 
24C0:  MOVF   x44,W
24C2:  MULLW  05
24C4:  MOVF   FF3,W
24C6:  ADDWF  x41,W
24C8:  MOVWF  x4E
24CA:  MOVF   x44,W
24CC:  MULLW  08
24CE:  MOVF   FF3,W
24D0:  ADDWF  x42,W
24D2:  MOVWF  x4F
24D4:  MOVFF  641,652
24D8:  MOVFF  642,653
24DC:  MOVFF  64E,654
24E0:  MOVWF  x55
24E2:  MOVLW  01
24E4:  MOVWF  x56
24E6:  MOVWF  x57
24E8:  MOVLB  0
24EA:  CALL   11D2
24EE:  MOVLW  01
24F0:  MOVLB  6
24F2:  ADDWF  x41,W
24F4:  MOVWF  x4E
24F6:  MOVLW  01
24F8:  ADDWF  x42,W
24FA:  MOVWF  x4F
24FC:  MOVFF  64E,652
2500:  MOVWF  x53
2502:  MOVLW  06
2504:  MOVWF  x55
2506:  MOVLW  45
2508:  MOVWF  x54
250A:  MOVFF  644,656
250E:  CLRF   x57
2510:  MOVLB  0
2512:  CALL   0EFE
2516:  MOVLB  6
....................       if(sombreado==0) 
2518:  MOVF   x43,F
251A:  BTFSS  FD8.2
251C:  BRA    2578
....................          {glcd_rect(x, y, x+(tamano*5), y+(tamano*8), YES, OFF);glcd_text57(x+1, y+1, voltage, tamano, ON);} 
251E:  MOVF   x44,W
2520:  MULLW  05
2522:  MOVF   FF3,W
2524:  ADDWF  x41,W
2526:  MOVWF  x4E
2528:  MOVF   x44,W
252A:  MULLW  08
252C:  MOVF   FF3,W
252E:  ADDWF  x42,W
2530:  MOVWF  x4F
2532:  MOVFF  641,652
2536:  MOVFF  642,653
253A:  MOVFF  64E,654
253E:  MOVWF  x55
2540:  MOVLW  01
2542:  MOVWF  x56
2544:  CLRF   x57
2546:  MOVLB  0
2548:  CALL   11D2
254C:  MOVLW  01
254E:  MOVLB  6
2550:  ADDWF  x41,W
2552:  MOVWF  x4E
2554:  MOVLW  01
2556:  ADDWF  x42,W
2558:  MOVWF  x4F
255A:  MOVFF  64E,652
255E:  MOVWF  x53
2560:  MOVLW  06
2562:  MOVWF  x55
2564:  MOVLW  45
2566:  MOVWF  x54
2568:  MOVFF  644,656
256C:  MOVLW  01
256E:  MOVWF  x57
2570:  MOVLB  0
2572:  CALL   0EFE
2576:  MOVLB  6
2578:  MOVLB  0
....................    } 
....................    glcd_update(); 
257A:  CALL   0CEA
257E:  RETURN 0
.................... } 
....................  
.................... void displayTemperatura(int16 digito, int x, int y, int sombreado, int tamano) 
.................... { 
....................    char voltage[9]; 
....................     
....................    if(sombreado==2) 
*
2178:  MOVLB  6
217A:  MOVF   x45,W
217C:  SUBLW  02
217E:  BNZ   21F4
....................    { 
....................       sprintf(voltage, "%03Lu", digito); 
2180:  MOVLW  06
2182:  MOVWF  x3E
2184:  MOVLW  47
2186:  MOVWF  x3D
2188:  MOVLW  0A
218A:  MOVWF  FE9
218C:  MOVFF  642,651
2190:  MOVFF  641,650
2194:  MOVLB  0
2196:  RCALL  20B0
....................       glcd_rect(x, y, x+(tamano*18), y+(tamano*8), YES, ON); 
2198:  MOVLB  6
219A:  MOVF   x46,W
219C:  MULLW  12
219E:  MOVF   FF3,W
21A0:  ADDWF  x43,W
21A2:  MOVWF  x50
21A4:  MOVF   x46,W
21A6:  MULLW  08
21A8:  MOVF   FF3,W
21AA:  ADDWF  x44,W
21AC:  MOVWF  x51
21AE:  MOVFF  643,652
21B2:  MOVFF  644,653
21B6:  MOVFF  650,654
21BA:  MOVWF  x55
21BC:  MOVLW  01
21BE:  MOVWF  x56
21C0:  MOVWF  x57
21C2:  MOVLB  0
21C4:  CALL   11D2
....................       glcd_text57(x+1, y+1, voltage, tamano, OFF); 
21C8:  MOVLW  01
21CA:  MOVLB  6
21CC:  ADDWF  x43,W
21CE:  MOVWF  x50
21D0:  MOVLW  01
21D2:  ADDWF  x44,W
21D4:  MOVWF  x51
21D6:  MOVFF  650,652
21DA:  MOVWF  x53
21DC:  MOVLW  06
21DE:  MOVWF  x55
21E0:  MOVLW  47
21E2:  MOVWF  x54
21E4:  MOVFF  646,656
21E8:  CLRF   x57
21EA:  MOVLB  0
21EC:  CALL   0EFE
....................    } 
21F0:  BRA    232C
21F2:  MOVLB  6
....................    else 
....................    { 
....................       sprintf(voltage, "%03Lu", digito); 
21F4:  MOVLW  06
21F6:  MOVWF  x3E
21F8:  MOVLW  47
21FA:  MOVWF  x3D
21FC:  MOVLW  0A
21FE:  MOVWF  FE9
2200:  MOVFF  642,651
2204:  MOVFF  641,650
2208:  MOVLB  0
220A:  RCALL  20B0
....................     
....................       if(sombreado==4) 
220C:  MOVLB  6
220E:  MOVF   x45,W
2210:  SUBLW  04
2212:  BNZ   226E
....................       { 
....................          glcd_rect(x, y, x+(tamano*16), y+(tamano*8), YES, OFF); 
2214:  MOVF   x46,W
2216:  MULLW  10
2218:  MOVF   FF3,W
221A:  ADDWF  x43,W
221C:  MOVWF  x50
221E:  MOVF   x46,W
2220:  MULLW  08
2222:  MOVF   FF3,W
2224:  ADDWF  x44,W
2226:  MOVWF  x51
2228:  MOVFF  643,652
222C:  MOVFF  644,653
2230:  MOVFF  650,654
2234:  MOVWF  x55
2236:  MOVLW  01
2238:  MOVWF  x56
223A:  CLRF   x57
223C:  MOVLB  0
223E:  CALL   11D2
....................          glcd_text57(x+1, y+1, voltage, tamano, ON); 
2242:  MOVLW  01
2244:  MOVLB  6
2246:  ADDWF  x43,W
2248:  MOVWF  x50
224A:  MOVLW  01
224C:  ADDWF  x44,W
224E:  MOVWF  x51
2250:  MOVFF  650,652
2254:  MOVWF  x53
2256:  MOVLW  06
2258:  MOVWF  x55
225A:  MOVLW  47
225C:  MOVWF  x54
225E:  MOVFF  646,656
2262:  MOVLW  01
2264:  MOVWF  x57
2266:  MOVLB  0
2268:  CALL   0EFE
226C:  MOVLB  6
....................       } 
....................       if(sombreado==1) 
226E:  DECFSZ x45,W
2270:  BRA    22CA
....................          {glcd_rect(x, y, x+(tamano*5), y+(tamano*8), YES, ON);glcd_text57(x+1, y+1, voltage, tamano, OFF);} 
2272:  MOVF   x46,W
2274:  MULLW  05
2276:  MOVF   FF3,W
2278:  ADDWF  x43,W
227A:  MOVWF  x50
227C:  MOVF   x46,W
227E:  MULLW  08
2280:  MOVF   FF3,W
2282:  ADDWF  x44,W
2284:  MOVWF  x51
2286:  MOVFF  643,652
228A:  MOVFF  644,653
228E:  MOVFF  650,654
2292:  MOVWF  x55
2294:  MOVLW  01
2296:  MOVWF  x56
2298:  MOVWF  x57
229A:  MOVLB  0
229C:  CALL   11D2
22A0:  MOVLW  01
22A2:  MOVLB  6
22A4:  ADDWF  x43,W
22A6:  MOVWF  x50
22A8:  MOVLW  01
22AA:  ADDWF  x44,W
22AC:  MOVWF  x51
22AE:  MOVFF  650,652
22B2:  MOVWF  x53
22B4:  MOVLW  06
22B6:  MOVWF  x55
22B8:  MOVLW  47
22BA:  MOVWF  x54
22BC:  MOVFF  646,656
22C0:  CLRF   x57
22C2:  MOVLB  0
22C4:  CALL   0EFE
22C8:  MOVLB  6
....................       if(sombreado==0) 
22CA:  MOVF   x45,F
22CC:  BTFSS  FD8.2
22CE:  BRA    232A
....................          {glcd_rect(x, y, x+(tamano*5), y+(tamano*8), YES, OFF);glcd_text57(x+1, y+1, voltage, tamano, ON);} 
22D0:  MOVF   x46,W
22D2:  MULLW  05
22D4:  MOVF   FF3,W
22D6:  ADDWF  x43,W
22D8:  MOVWF  x50
22DA:  MOVF   x46,W
22DC:  MULLW  08
22DE:  MOVF   FF3,W
22E0:  ADDWF  x44,W
22E2:  MOVWF  x51
22E4:  MOVFF  643,652
22E8:  MOVFF  644,653
22EC:  MOVFF  650,654
22F0:  MOVWF  x55
22F2:  MOVLW  01
22F4:  MOVWF  x56
22F6:  CLRF   x57
22F8:  MOVLB  0
22FA:  CALL   11D2
22FE:  MOVLW  01
2300:  MOVLB  6
2302:  ADDWF  x43,W
2304:  MOVWF  x50
2306:  MOVLW  01
2308:  ADDWF  x44,W
230A:  MOVWF  x51
230C:  MOVFF  650,652
2310:  MOVWF  x53
2312:  MOVLW  06
2314:  MOVWF  x55
2316:  MOVLW  47
2318:  MOVWF  x54
231A:  MOVFF  646,656
231E:  MOVLW  01
2320:  MOVWF  x57
2322:  MOVLB  0
2324:  CALL   0EFE
2328:  MOVLB  6
232A:  MOVLB  0
....................    } 
....................    glcd_update(); 
232C:  CALL   0CEA
2330:  RETURN 0
.................... } 
....................  
.................... void glcd_imagen(int8 x) 
.................... { 
....................    char i,j; 
....................    signed char k;  
....................     
....................    if(x==5){ 
*
2580:  MOVLB  6
2582:  MOVF   x3F,W
2584:  SUBLW  05
2586:  BNZ   2622
....................    for( i = 0 ; i < 64 ; i ++ ) 
2588:  CLRF   x40
258A:  MOVF   x40,W
258C:  SUBLW  3F
258E:  BNC   2622
....................    {   
....................       for( j = 0 ; j < 16 ; j ++) 
2590:  CLRF   x41
2592:  MOVF   x41,W
2594:  SUBLW  0F
2596:  BNC   261E
....................       {     
....................          for(k=7;k>-1;k--) 
2598:  MOVLW  07
259A:  MOVWF  x42
259C:  MOVF   x42,W
259E:  XORLW  80
25A0:  SUBLW  7F
25A2:  BC    261A
....................          {       
....................             if( bit_test(Horno[i][j] ,7-k ))  
25A4:  CLRF   x44
25A6:  MOVFF  640,643
25AA:  CLRF   x46
25AC:  MOVLW  10
25AE:  MOVWF  x45
25B0:  MOVLB  0
25B2:  CALL   1980
25B6:  MOVFF  02,644
25BA:  MOVFF  01,643
25BE:  MOVLB  6
25C0:  MOVF   x41,W
25C2:  ADDWF  01,W
25C4:  MOVWF  01
25C6:  MOVLW  00
25C8:  ADDWFC 02,W
25CA:  MOVWF  03
25CC:  MOVF   01,W
25CE:  MOVFF  03,FF7
25D2:  MOVLB  0
25D4:  CALL   02AA
25D8:  MOVLB  6
25DA:  MOVWF  x43
25DC:  MOVLW  07
25DE:  BSF    FD8.0
25E0:  SUBFWB x42,W
25E2:  MOVWF  x44
25E4:  MOVFF  643,00
25E8:  MOVF   x44,W
25EA:  MOVWF  01
25EC:  BZ    25F6
25EE:  BCF    FD8.0
25F0:  RRCF   00,F
25F2:  DECFSZ 01,F
25F4:  BRA    25EE
25F6:  BTFSS  00.0
25F8:  BRA    2616
....................                glcd_pixel( j*8+k,i, ON ); 
25FA:  MOVF   x41,W
25FC:  MULLW  08
25FE:  MOVF   FF3,W
2600:  ADDWF  x42,W
2602:  MOVWF  x43
2604:  MOVWF  x6D
2606:  MOVFF  640,66E
260A:  MOVLW  01
260C:  MOVWF  x6F
260E:  MOVLB  0
2610:  CALL   0E42
2614:  MOVLB  6
2616:  DECF   x42,F
2618:  BRA    259C
....................          }   
261A:  INCF   x41,F
261C:  BRA    2592
....................       } 
261E:  INCF   x40,F
2620:  BRA    258A
....................    } 
....................    } 
2622:  MOVLB  0
2624:  GOTO   53B0 (RETURN)
....................     
.................... } 
....................  
.................... #int_TIMER1 
.................... void temp1s(void){ 
....................    //set_timer1(45612);  // 5 ms 5536 , Posiblemente cargar con 22144 debido a F=12MHz 
....................    set_timer1(5536); 
*
0ADE:  MOVLW  15
0AE0:  MOVWF  FCF
0AE2:  MOVLW  A0
0AE4:  MOVWF  FCE
....................    tiempos++; 
0AE6:  MOVLB  5
0AE8:  INCF   xA1,F
0AEA:  BTFSC  FD8.2
0AEC:  INCF   xA2,F
....................    tiempos3++; 
0AEE:  INCF   xA3,F
0AF0:  BTFSC  FD8.2
0AF2:  INCF   xA4,F
....................    tiempoctrl++; 
0AF4:  INCF   xA5,F
0AF6:  BTFSC  FD8.2
0AF8:  INCF   xA6,F
....................      
....................    if(tiempos>=200)  // 12000 para que incremente cada minuto, 200para que incremente cada segundo. 
0AFA:  MOVF   xA2,F
0AFC:  BNZ   0B04
0AFE:  MOVF   xA1,W
0B00:  SUBLW  C7
0B02:  BC    0B30
....................    {tiempos=0;Lectura=1;tiemporeset++;TiempoControl++;tiemporecta++;LecturaTemperatura=1; 
0B04:  CLRF   xA2
0B06:  CLRF   xA1
0B08:  BSF    x93.4
0B0A:  INCF   x96,F
0B0C:  INCF   x9D,F
0B0E:  INCF   x8E,F
0B10:  BSF    x93.5
....................     
....................       if(flag_setpoint==1) 
0B12:  BTFSS  x94.6
0B14:  BRA    0B1C
....................          tiemposetpoint++; 
0B16:  INCF   xAB,F
0B18:  BTFSC  FD8.2
0B1A:  INCF   xAC,F
....................           
....................       if(tiempo_esterilizacion==1) 
0B1C:  DECFSZ x9F,W
0B1E:  BRA    0B26
....................       {                
....................          tinicio++; 
0B20:  INCF   xA7,F
0B22:  BTFSC  FD8.2
0B24:  INCF   xA8,F
....................       } 
....................        
....................       if(flag_tiempocalentamiento==1) 
0B26:  BTFSS  x94.4
0B28:  BRA    0B30
....................       { 
....................          tiempocalentamiento++; 
0B2A:  INCF   xA9,F
0B2C:  BTFSC  FD8.2
0B2E:  INCF   xAA,F
....................       } 
....................    }         
....................     
....................    if(Controlando>0){ 
0B30:  MOVF   x92,F
0B32:  BZ    0B6E
....................       if(tiempoctrl<Tp) // Si el tiempo es menor o igual al tiempo de control se enciende la resistencia de lo contrario se apaga. 
0B34:  MOVF   xA6,W
0B36:  SUBWF  xB0,W
0B38:  BNC   0B50
0B3A:  BNZ   0B42
0B3C:  MOVF   xAF,W
0B3E:  SUBWF  xA5,W
0B40:  BC    0B50
....................       { 
....................          Resistencia_on; 
0B42:  BSF    F8B.0
0B44:  BCF    F94.0
....................          Peltiern_on; 
0B46:  BSF    F8B.1
0B48:  BCF    F94.1
....................          Peltierp_off; 
0B4A:  BCF    F8B.2
0B4C:  BCF    F94.2
....................       } 
0B4E:  BRA    0B5C
....................       else          
....................       { 
....................          Resistencia_off; 
0B50:  BCF    F8B.0
0B52:  BCF    F94.0
....................          Peltiern_off; 
0B54:  BCF    F8B.1
0B56:  BCF    F94.1
....................          Peltierp_off; 
0B58:  BCF    F8B.2
0B5A:  BCF    F94.2
....................       } 
....................        
....................       if(tiempoctrl>=Tc) // Si el tiempo de control es mayor al tiempo de ciclo se reinicia tiempo de control 
0B5C:  MOVF   xB2,W
0B5E:  SUBWF  xA6,W
0B60:  BNC   0B6E
0B62:  BNZ   0B6A
0B64:  MOVF   xB1,W
0B66:  SUBWF  xA5,W
0B68:  BNC   0B6E
....................       { 
....................          tiempoctrl=0; 
0B6A:  CLRF   xA6
0B6C:  CLRF   xA5
....................       } // tiempoctrl incrementa una unidad cada 5ms, por eso se dividen los tiempos por 0.005. 
....................    } 
0B6E:  BCF    F9E.0
0B70:  MOVLB  0
0B72:  GOTO   0060
.................... } 
....................     
.................... void Limpia(int x1,int x2,int y){ 
....................    glcd_rect(x1, y, x2, y+7, YES, OFF); 
.................... } 
....................  
.................... void displayT(float adc,int x,int y,int w) { 
....................    char voltage[9];     
....................    sprintf(voltage, "%03.1f",adc); // Converts adc to text 
*
33A4:  MOVLW  06
33A6:  MOVLB  6
33A8:  MOVWF  x3E
33AA:  MOVLW  46
33AC:  MOVWF  x3D
33AE:  MOVLW  42
33B0:  MOVWF  FE9
33B2:  MOVFF  642,652
33B6:  MOVFF  641,651
33BA:  MOVFF  640,650
33BE:  MOVFF  63F,64F
33C2:  MOVLW  01
33C4:  MOVWF  x53
33C6:  MOVLB  0
33C8:  BRA    31F2
....................    glcd_rect(x, y, x+(w*27), y+(w*8), YES, OFF); 
33CA:  MOVLB  6
33CC:  MOVF   x45,W
33CE:  MULLW  1B
33D0:  MOVF   FF3,W
33D2:  ADDWF  x43,W
33D4:  MOVWF  x4F
33D6:  MOVF   x45,W
33D8:  MULLW  08
33DA:  MOVF   FF3,W
33DC:  ADDWF  x44,W
33DE:  MOVWF  x50
33E0:  MOVFF  643,652
33E4:  MOVFF  644,653
33E8:  MOVFF  64F,654
33EC:  MOVWF  x55
33EE:  MOVLW  01
33F0:  MOVWF  x56
33F2:  CLRF   x57
33F4:  MOVLB  0
33F6:  CALL   11D2
....................    glcd_text57(x, y, voltage, w, ON); 
33FA:  MOVFF  643,652
33FE:  MOVFF  644,653
3402:  MOVLW  06
3404:  MOVLB  6
3406:  MOVWF  x55
3408:  MOVLW  46
340A:  MOVWF  x54
340C:  MOVFF  645,656
3410:  MOVLW  01
3412:  MOVWF  x57
3414:  MOVLB  0
3416:  CALL   0EFE
341A:  RETURN 0
.................... } 
....................  
.................... void displayContrasena(int digito, int x, int y, int sombreado) 
.................... { 
....................    char voltage[9]; 
....................    sprintf(voltage, "%i", digito); 
*
149A:  MOVLW  06
149C:  MOVLB  6
149E:  MOVWF  x3E
14A0:  MOVLW  45
14A2:  MOVWF  x3D
14A4:  MOVFF  641,64E
14A8:  MOVLW  18
14AA:  MOVWF  x4F
14AC:  MOVLB  0
14AE:  BRA    13DC
....................     
....................    if(sombreado==1) 
14B0:  MOVLB  6
14B2:  DECFSZ x44,W
14B4:  BRA    1504
....................       {glcd_rect(x, y, x+18, y+24, YES, ON);glcd_text57(x+2, y+1, voltage, 2, OFF);} 
14B6:  MOVLW  12
14B8:  ADDWF  x42,W
14BA:  MOVWF  x4E
14BC:  MOVLW  18
14BE:  ADDWF  x43,W
14C0:  MOVWF  x4F
14C2:  MOVFF  642,652
14C6:  MOVFF  643,653
14CA:  MOVFF  64E,654
14CE:  MOVWF  x55
14D0:  MOVLW  01
14D2:  MOVWF  x56
14D4:  MOVWF  x57
14D6:  MOVLB  0
14D8:  RCALL  11D2
14DA:  MOVLW  02
14DC:  MOVLB  6
14DE:  ADDWF  x42,W
14E0:  MOVWF  x4E
14E2:  MOVLW  01
14E4:  ADDWF  x43,W
14E6:  MOVWF  x4F
14E8:  MOVFF  64E,652
14EC:  MOVWF  x53
14EE:  MOVLW  06
14F0:  MOVWF  x55
14F2:  MOVLW  45
14F4:  MOVWF  x54
14F6:  MOVLW  02
14F8:  MOVWF  x56
14FA:  CLRF   x57
14FC:  MOVLB  0
14FE:  RCALL  0EFE
1500:  BRA    154E
1502:  MOVLB  6
....................    else    
....................       {glcd_rect(x, y, x+18, y+24, NO, OFF);glcd_text57(x+2, y+1, voltage, 2, ON);} 
1504:  MOVLW  12
1506:  ADDWF  x42,W
1508:  MOVWF  x4E
150A:  MOVLW  18
150C:  ADDWF  x43,W
150E:  MOVWF  x4F
1510:  MOVFF  642,652
1514:  MOVFF  643,653
1518:  MOVFF  64E,654
151C:  MOVWF  x55
151E:  CLRF   x56
1520:  CLRF   x57
1522:  MOVLB  0
1524:  RCALL  11D2
1526:  MOVLW  02
1528:  MOVLB  6
152A:  ADDWF  x42,W
152C:  MOVWF  x4E
152E:  MOVLW  01
1530:  ADDWF  x43,W
1532:  MOVWF  x4F
1534:  MOVFF  64E,652
1538:  MOVWF  x53
153A:  MOVLW  06
153C:  MOVWF  x55
153E:  MOVLW  45
1540:  MOVWF  x54
1542:  MOVLW  02
1544:  MOVWF  x56
1546:  MOVLW  01
1548:  MOVWF  x57
154A:  MOVLB  0
154C:  RCALL  0EFE
154E:  RETURN 0
....................  
.................... } 
....................  
....................  
.................... void main() 
*
341C:  CLRF   FF8
341E:  BCF    FD0.7
3420:  BSF    07.7
3422:  MOVLB  5
3424:  CLRF   x89
3426:  CLRF   x8A
3428:  CLRF   x8B
342A:  CLRF   x8C
342C:  MOVLW  0A
342E:  MOVWF  x8D
3430:  CLRF   x8E
3432:  CLRF   x8F
3434:  CLRF   x90
3436:  CLRF   x91
3438:  CLRF   x92
343A:  BCF    x93.0
343C:  BCF    x93.1
343E:  BCF    x93.2
3440:  BSF    x93.3
3442:  BCF    x93.4
3444:  BCF    x93.5
3446:  BCF    x93.6
3448:  BCF    x93.7
344A:  BCF    x94.0
344C:  BCF    x94.1
344E:  BCF    x94.2
3450:  BCF    x94.3
3452:  BCF    x94.4
3454:  BCF    x94.5
3456:  BCF    x94.6
3458:  BCF    x94.7
345A:  CLRF   x95
345C:  CLRF   x96
345E:  CLRF   x97
3460:  CLRF   x98
3462:  MOVLW  01
3464:  MOVWF  x99
3466:  CLRF   x9A
3468:  CLRF   x9B
346A:  CLRF   x9C
346C:  CLRF   x9D
346E:  MOVWF  x9E
3470:  CLRF   x9F
3472:  CLRF   xA0
3474:  CLRF   xA2
3476:  CLRF   xA1
3478:  CLRF   xA4
347A:  CLRF   xA3
347C:  CLRF   xA6
347E:  CLRF   xA5
3480:  CLRF   xA8
3482:  CLRF   xA7
3484:  CLRF   xAA
3486:  CLRF   xA9
3488:  CLRF   xAC
348A:  CLRF   xAB
348C:  CLRF   xAE
348E:  CLRF   xAD
3490:  CLRF   xB0
3492:  CLRF   xAF
3494:  CLRF   xB2
3496:  CLRF   xB1
3498:  CLRF   xB6
349A:  CLRF   xB5
349C:  CLRF   xB4
349E:  CLRF   xB3
34A0:  CLRF   xBA
34A2:  CLRF   xB9
34A4:  CLRF   xB8
34A6:  CLRF   xB7
34A8:  CLRF   xBE
34AA:  CLRF   xBD
34AC:  CLRF   xBC
34AE:  CLRF   xBB
34B0:  CLRF   xD2
34B2:  CLRF   xD1
34B4:  CLRF   xD0
34B6:  CLRF   xCF
34B8:  CLRF   xD6
34BA:  MOVLW  10
34BC:  MOVWF  xD5
34BE:  MOVLW  42
34C0:  MOVWF  xD4
34C2:  MOVLW  8B
34C4:  MOVWF  xD3
34C6:  CLRF   xDE
34C8:  CLRF   xDD
34CA:  MOVLW  20
34CC:  MOVWF  xDC
34CE:  MOVLW  82
34D0:  MOVWF  xDB
34D2:  CLRF   xE2
34D4:  CLRF   xE1
34D6:  CLRF   xE0
34D8:  CLRF   xDF
34DA:  CLRF   xE6
34DC:  CLRF   xE5
34DE:  CLRF   xE4
34E0:  CLRF   xE3
34E2:  CLRF   xEA
34E4:  CLRF   xE9
34E6:  CLRF   xE8
34E8:  CLRF   xE7
34EA:  CLRF   xEE
34EC:  CLRF   xED
34EE:  CLRF   xEC
34F0:  CLRF   xEB
34F2:  CLRF   xF2
34F4:  CLRF   xF1
34F6:  CLRF   xF0
34F8:  CLRF   xEF
34FA:  CLRF   xF6
34FC:  CLRF   xF5
34FE:  MOVLW  48
3500:  MOVWF  xF4
3502:  MOVLW  83
3504:  MOVWF  xF3
3506:  CLRF   xFA
3508:  CLRF   xF9
350A:  MOVLW  20
350C:  MOVWF  xF8
350E:  MOVLW  83
3510:  MOVWF  xF7
3512:  CLRF   xFE
3514:  CLRF   xFD
3516:  CLRF   xFC
3518:  MOVLW  7F
351A:  MOVWF  xFB
351C:  MOVLB  6
351E:  CLRF   x02
3520:  CLRF   x01
3522:  MOVLW  16
3524:  MOVWF  x00
3526:  MOVLW  86
3528:  MOVLB  5
352A:  MOVWF  xFF
352C:  MOVLB  6
352E:  CLRF   x06
3530:  CLRF   x05
3532:  CLRF   x04
3534:  CLRF   x03
3536:  CLRF   x0A
3538:  CLRF   x09
353A:  CLRF   x08
353C:  CLRF   x07
353E:  CLRF   x0E
3540:  CLRF   x0D
3542:  MOVLW  20
3544:  MOVWF  x0C
3546:  MOVLW  82
3548:  MOVWF  x0B
354A:  CLRF   x12
354C:  CLRF   x11
354E:  CLRF   x10
3550:  CLRF   x0F
3552:  MOVLW  E0
3554:  MOVWF  x16
3556:  MOVLW  2D
3558:  MOVWF  x15
355A:  MOVLW  10
355C:  MOVWF  x14
355E:  MOVLW  75
3560:  MOVWF  x13
3562:  SETF   x1A
3564:  MOVLW  21
3566:  MOVWF  x19
3568:  MOVLW  15
356A:  MOVWF  x18
356C:  MOVLW  80
356E:  MOVWF  x17
3570:  MOVLW  82
3572:  MOVWF  x1E
3574:  MOVLW  12
3576:  MOVWF  x1D
3578:  MOVLW  F4
357A:  MOVWF  x1C
357C:  MOVLW  86
357E:  MOVWF  x1B
3580:  CLRF   x3E
3582:  CLRF   x3D
3584:  MOVF   FC1,W
3586:  ANDLW  C0
3588:  IORLW  0F
358A:  MOVWF  FC1
358C:  MOVLW  07
358E:  MOVWF  FB4
3590:  BRA    359E
3592:  DATA FF,44
3594:  DATA 19,00
3596:  DATA 71,C0
3598:  DATA 00,10
359A:  DATA 45,BF
359C:  DATA 00,00
359E:  MOVLW  00
35A0:  MOVWF  FF8
35A2:  MOVLW  35
35A4:  MOVWF  FF7
35A6:  MOVLW  92
35A8:  MOVWF  FF6
35AA:  TBLRD*+
35AC:  MOVF   FF5,W
35AE:  MOVWF  00
35B0:  XORLW  00
35B2:  BZ    35DA
35B4:  TBLRD*+
35B6:  MOVF   FF5,W
35B8:  MOVWF  01
35BA:  BTFSC  FE8.7
35BC:  BRA    35C8
35BE:  ANDLW  0F
35C0:  MOVWF  FEA
35C2:  TBLRD*+
35C4:  MOVFF  FF5,FE9
35C8:  BTFSC  01.6
35CA:  TBLRD*+
35CC:  BTFSS  01.6
35CE:  TBLRD*+
35D0:  MOVFF  FF5,FEE
35D4:  DCFSNZ 00,F
35D6:  BRA    35AA
35D8:  BRA    35CC
35DA:  CLRF   FF8
.................... { 
....................    delay_ms(1000);    
35DC:  MOVLW  04
35DE:  MOVWF  x3F
35E0:  MOVLW  FA
35E2:  MOVWF  x45
35E4:  MOVLB  0
35E6:  CALL   0B76
35EA:  MOVLB  6
35EC:  DECFSZ x3F,F
35EE:  BRA    35E0
....................    Resistencia_off;Peltierp_off;Peltiern_off;Buzzer_off; 
35F0:  BCF    F8B.0
35F2:  BCF    F94.0
35F4:  BCF    F8B.2
35F6:  BCF    F94.2
35F8:  BCF    F8B.1
35FA:  BCF    F94.1
35FC:  BCF    F8B.6
35FE:  BCF    F94.6
....................    setup_timer_1(T1_INTERNAL|T1_DIV_BY_1); 
3600:  MOVLW  85
3602:  MOVWF  FCD
....................    enable_interrupts(INT_TIMER1); 
3604:  BSF    F9D.0
....................    setup_adc_ports(AN0); 
3606:  MOVF   FC1,W
3608:  ANDLW  C0
360A:  IORLW  0E
360C:  MOVWF  FC1
....................    setup_adc(ADC_CLOCK_DIV_64); 
360E:  MOVF   FC0,W
3610:  ANDLW  C0
3612:  IORLW  06
3614:  MOVWF  FC0
3616:  BSF    FC0.7
3618:  BSF    FC2.0
....................    /*setup_ccp1 (CCP_PWM); 
....................    setup_ccp2 (CCP_PWM); 
....................    setup_timer_2(T2_DIV_BY_4, 255, 1);    
....................    set_pwm1_duty(0); 
....................    set_pwm2_duty(0);*/ 
....................    enable_interrupts(global); 
361A:  MOVLW  C0
361C:  IORWF  FF2,F
....................    Testerilizacionp[0]=read_eeprom(0); 
361E:  MOVFF  FF2,63F
3622:  BCF    FF2.7
3624:  CLRF   FA9
3626:  BCF    FA6.6
3628:  BCF    FA6.7
362A:  BSF    FA6.0
362C:  MOVF   FA8,W
362E:  BTFSC  x3F.7
3630:  BSF    FF2.7
3632:  MOVLB  5
3634:  MOVWF  xC3
....................    delay_ms(50);    
3636:  MOVLW  32
3638:  MOVLB  6
363A:  MOVWF  x45
363C:  MOVLB  0
363E:  CALL   0B76
....................    Testerilizacionp[1]=read_eeprom(1); 
3642:  MOVFF  FF2,63F
3646:  BCF    FF2.7
3648:  MOVLW  01
364A:  MOVWF  FA9
364C:  BCF    FA6.6
364E:  BCF    FA6.7
3650:  BSF    FA6.0
3652:  MOVF   FA8,W
3654:  MOVLB  6
3656:  BTFSC  x3F.7
3658:  BSF    FF2.7
365A:  MOVLB  5
365C:  MOVWF  xC4
....................    delay_ms(50);    
365E:  MOVLW  32
3660:  MOVLB  6
3662:  MOVWF  x45
3664:  MOVLB  0
3666:  CALL   0B76
....................    Testerilizacionp[2]=read_eeprom(2); 
366A:  MOVFF  FF2,63F
366E:  BCF    FF2.7
3670:  MOVLW  02
3672:  MOVWF  FA9
3674:  BCF    FA6.6
3676:  BCF    FA6.7
3678:  BSF    FA6.0
367A:  MOVF   FA8,W
367C:  MOVLB  6
367E:  BTFSC  x3F.7
3680:  BSF    FF2.7
3682:  MOVLB  5
3684:  MOVWF  xC5
....................    delay_ms(50); 
3686:  MOVLW  32
3688:  MOVLB  6
368A:  MOVWF  x45
368C:  MOVLB  0
368E:  CALL   0B76
....................    Testerilizacionp[3]=read_eeprom(3); 
3692:  MOVFF  FF2,63F
3696:  BCF    FF2.7
3698:  MOVLW  03
369A:  MOVWF  FA9
369C:  BCF    FA6.6
369E:  BCF    FA6.7
36A0:  BSF    FA6.0
36A2:  MOVF   FA8,W
36A4:  MOVLB  6
36A6:  BTFSC  x3F.7
36A8:  BSF    FF2.7
36AA:  MOVLB  5
36AC:  MOVWF  xC6
....................    delay_ms(50);    
36AE:  MOVLW  32
36B0:  MOVLB  6
36B2:  MOVWF  x45
36B4:  MOVLB  0
36B6:  CALL   0B76
....................    Setpoint=make16(read_eeprom(81),read_eeprom(80)); 
36BA:  MOVFF  FF2,63F
36BE:  BCF    FF2.7
36C0:  MOVLW  51
36C2:  MOVWF  FA9
36C4:  BCF    FA6.6
36C6:  BCF    FA6.7
36C8:  BSF    FA6.0
36CA:  MOVF   FA8,W
36CC:  MOVLB  6
36CE:  BTFSC  x3F.7
36D0:  BSF    FF2.7
36D2:  MOVWF  x40
36D4:  MOVFF  FF2,641
36D8:  BCF    FF2.7
36DA:  MOVLW  50
36DC:  MOVWF  FA9
36DE:  BCF    FA6.6
36E0:  BCF    FA6.7
36E2:  BSF    FA6.0
36E4:  MOVF   FA8,W
36E6:  BTFSC  x41.7
36E8:  BSF    FF2.7
36EA:  MOVWF  x42
36EC:  MOVFF  640,5AE
36F0:  MOVFF  642,5AD
....................    delay_ms(50);    
36F4:  MOVLW  32
36F6:  MOVWF  x45
36F8:  MOVLB  0
36FA:  CALL   0B76
....................    Password[0]=read_eeprom(10); 
36FE:  MOVFF  FF2,63F
3702:  BCF    FF2.7
3704:  MOVLW  0A
3706:  MOVWF  FA9
3708:  BCF    FA6.6
370A:  BCF    FA6.7
370C:  BSF    FA6.0
370E:  MOVF   FA8,W
3710:  MOVLB  6
3712:  BTFSC  x3F.7
3714:  BSF    FF2.7
3716:  MOVLB  5
3718:  MOVWF  xCB
....................    delay_ms(50);    
371A:  MOVLW  32
371C:  MOVLB  6
371E:  MOVWF  x45
3720:  MOVLB  0
3722:  CALL   0B76
....................    Password[1]=read_eeprom(11); 
3726:  MOVFF  FF2,63F
372A:  BCF    FF2.7
372C:  MOVLW  0B
372E:  MOVWF  FA9
3730:  BCF    FA6.6
3732:  BCF    FA6.7
3734:  BSF    FA6.0
3736:  MOVF   FA8,W
3738:  MOVLB  6
373A:  BTFSC  x3F.7
373C:  BSF    FF2.7
373E:  MOVLB  5
3740:  MOVWF  xCC
....................    delay_ms(50);    
3742:  MOVLW  32
3744:  MOVLB  6
3746:  MOVWF  x45
3748:  MOVLB  0
374A:  CALL   0B76
....................    Password[2]=read_eeprom(12); 
374E:  MOVFF  FF2,63F
3752:  BCF    FF2.7
3754:  MOVLW  0C
3756:  MOVWF  FA9
3758:  BCF    FA6.6
375A:  BCF    FA6.7
375C:  BSF    FA6.0
375E:  MOVF   FA8,W
3760:  MOVLB  6
3762:  BTFSC  x3F.7
3764:  BSF    FF2.7
3766:  MOVLB  5
3768:  MOVWF  xCD
....................    delay_ms(50);    
376A:  MOVLW  32
376C:  MOVLB  6
376E:  MOVWF  x45
3770:  MOVLB  0
3772:  CALL   0B76
....................    Password[3]=read_eeprom(13); 
3776:  MOVFF  FF2,63F
377A:  BCF    FF2.7
377C:  MOVLW  0D
377E:  MOVWF  FA9
3780:  BCF    FA6.6
3782:  BCF    FA6.7
3784:  BSF    FA6.0
3786:  MOVF   FA8,W
3788:  MOVLB  6
378A:  BTFSC  x3F.7
378C:  BSF    FF2.7
378E:  MOVLB  5
3790:  MOVWF  xCE
....................    delay_ms(50);    
3792:  MOVLW  32
3794:  MOVLB  6
3796:  MOVWF  x45
3798:  MOVLB  0
379A:  CALL   0B76
....................    Ganancia=read_eeprom(90); 
379E:  MOVFF  FF2,63F
37A2:  BCF    FF2.7
37A4:  MOVLW  5A
37A6:  MOVWF  FA9
37A8:  BCF    FA6.6
37AA:  BCF    FA6.7
37AC:  BSF    FA6.0
37AE:  MOVF   FA8,W
37B0:  MOVLB  6
37B2:  BTFSC  x3F.7
37B4:  BSF    FF2.7
37B6:  CLRF   x46
37B8:  MOVWF  x45
37BA:  MOVLB  0
37BC:  CALL   0BA0
37C0:  MOVFF  03,5F6
37C4:  MOVFF  02,5F5
37C8:  MOVFF  01,5F4
37CC:  MOVFF  00,5F3
....................    delay_ms(50);    
37D0:  MOVLW  32
37D2:  MOVLB  6
37D4:  MOVWF  x45
37D6:  MOVLB  0
37D8:  CALL   0B76
....................    Tciclo=read_eeprom(30); 
37DC:  MOVFF  FF2,63F
37E0:  BCF    FF2.7
37E2:  MOVLW  1E
37E4:  MOVWF  FA9
37E6:  BCF    FA6.6
37E8:  BCF    FA6.7
37EA:  BSF    FA6.0
37EC:  MOVF   FA8,W
37EE:  MOVLB  6
37F0:  BTFSC  x3F.7
37F2:  BSF    FF2.7
37F4:  CLRF   x46
37F6:  MOVWF  x45
37F8:  MOVLB  0
37FA:  CALL   0BA0
37FE:  MOVFF  03,5DE
3802:  MOVFF  02,5DD
3806:  MOVFF  01,5DC
380A:  MOVFF  00,5DB
....................    delay_ms(50);    
380E:  MOVLW  32
3810:  MOVLB  6
3812:  MOVWF  x45
3814:  MOVLB  0
3816:  CALL   0B76
....................    Ajuste=read_eeprom(40); 
381A:  MOVFF  FF2,63F
381E:  BCF    FF2.7
3820:  MOVLW  28
3822:  MOVWF  FA9
3824:  BCF    FA6.6
3826:  BCF    FA6.7
3828:  BSF    FA6.0
382A:  MOVF   FA8,W
382C:  MOVLB  6
382E:  BTFSC  x3F.7
3830:  BSF    FF2.7
3832:  MOVLB  5
3834:  MOVWF  x8B
....................    delay_ms(50);    
3836:  MOVLW  32
3838:  MOVLB  6
383A:  MOVWF  x45
383C:  MOVLB  0
383E:  CALL   0B76
....................    Ajusten=read_eeprom(50); 
3842:  MOVFF  FF2,63F
3846:  BCF    FF2.7
3848:  MOVLW  32
384A:  MOVWF  FA9
384C:  BCF    FA6.6
384E:  BCF    FA6.7
3850:  BSF    FA6.0
3852:  MOVF   FA8,W
3854:  MOVLB  6
3856:  BTFSC  x3F.7
3858:  BSF    FF2.7
385A:  MOVLB  5
385C:  MOVWF  x8C
....................    delay_ms(50);    
385E:  MOVLW  32
3860:  MOVLB  6
3862:  MOVWF  x45
3864:  MOVLB  0
3866:  CALL   0B76
....................    MediaMovil=read_eeprom(60); 
386A:  MOVFF  FF2,63F
386E:  BCF    FF2.7
3870:  MOVLW  3C
3872:  MOVWF  FA9
3874:  BCF    FA6.6
3876:  BCF    FA6.7
3878:  BSF    FA6.0
387A:  MOVF   FA8,W
387C:  MOVLB  6
387E:  BTFSC  x3F.7
3880:  BSF    FF2.7
3882:  MOVLB  5
3884:  MOVWF  x8D
....................    delay_ms(50);    
3886:  MOVLW  32
3888:  MOVLB  6
388A:  MOVWF  x45
388C:  MOVLB  0
388E:  CALL   0B76
....................    Coeficiente=read_eeprom(70); 
3892:  MOVFF  FF2,63F
3896:  BCF    FF2.7
3898:  MOVLW  46
389A:  MOVWF  FA9
389C:  BCF    FA6.6
389E:  BCF    FA6.7
38A0:  BSF    FA6.0
38A2:  MOVF   FA8,W
38A4:  MOVLB  6
38A6:  BTFSC  x3F.7
38A8:  BSF    FF2.7
38AA:  CLRF   x46
38AC:  MOVWF  x45
38AE:  MOVLB  0
38B0:  CALL   0BA0
38B4:  MOVFF  03,602
38B8:  MOVFF  02,601
38BC:  MOVFF  01,600
38C0:  MOVFF  00,5FF
....................    delay_ms(50);    
38C4:  MOVLW  32
38C6:  MOVLB  6
38C8:  MOVWF  x45
38CA:  MOVLB  0
38CC:  CALL   0B76
....................    Saturacion=read_eeprom(100); 
38D0:  MOVFF  FF2,63F
38D4:  BCF    FF2.7
38D6:  MOVLW  64
38D8:  MOVWF  FA9
38DA:  BCF    FA6.6
38DC:  BCF    FA6.7
38DE:  BSF    FA6.0
38E0:  MOVF   FA8,W
38E2:  MOVLB  6
38E4:  BTFSC  x3F.7
38E6:  BSF    FF2.7
38E8:  CLRF   x46
38EA:  MOVWF  x45
38EC:  MOVLB  0
38EE:  CALL   0BA0
38F2:  MOVFF  03,60E
38F6:  MOVFF  02,60D
38FA:  MOVFF  01,60C
38FE:  MOVFF  00,60B
....................     
....................    if(Ganancia>20.0) 
3902:  MOVLB  6
3904:  CLRF   x42
3906:  CLRF   x41
3908:  MOVLW  20
390A:  MOVWF  x40
390C:  MOVLW  83
390E:  MOVWF  x3F
3910:  MOVFF  5F6,646
3914:  MOVFF  5F5,645
3918:  MOVFF  5F4,644
391C:  MOVFF  5F3,643
3920:  MOVLB  0
3922:  CALL   0BD6
3926:  BNC   3938
....................    { 
....................       Ganancia=10.0; 
3928:  MOVLB  5
392A:  CLRF   xF6
392C:  CLRF   xF5
392E:  MOVLW  20
3930:  MOVWF  xF4
3932:  MOVLW  82
3934:  MOVWF  xF3
3936:  MOVLB  0
....................    } 
....................    Resistencia_on; 
3938:  BSF    F8B.0
393A:  BCF    F94.0
....................          Peltiern_on; 
393C:  BSF    F8B.1
393E:  BCF    F94.1
....................          Peltierp_off; 
3940:  BCF    F8B.2
3942:  BCF    F94.2
....................     
....................    glcd_init(ON);             //Inicializa la glcd 
3944:  MOVLW  01
3946:  MOVLB  6
3948:  MOVWF  x3F
394A:  MOVLB  0
394C:  CALL   0D9A
....................    glcd_fillScreen(OFF);      //Limpia la pantalla 
3950:  MOVLB  6
3952:  CLRF   x40
3954:  MOVLB  0
3956:  CALL   0C90
....................    strcpy(Menus.Letra,"JP Inglobal"); 
395A:  MOVLW  06
395C:  MOVWF  FEA
395E:  MOVLW  1F
3960:  MOVWF  FE9
3962:  MOVLW  00
3964:  CALL   06B8
3968:  TBLRD*-
396A:  TBLRD*+
396C:  MOVF   FF5,W
396E:  MOVWF  FEE
3970:  IORLW  00
3972:  BNZ   396A
....................    displayMenu(Menus.Letra,0,0,0,2);      
3974:  MOVLW  06
3976:  MOVLB  6
3978:  MOVWF  x40
397A:  MOVLW  1F
397C:  MOVWF  x3F
397E:  CLRF   x41
3980:  CLRF   x42
3982:  CLRF   x43
3984:  MOVLW  02
3986:  MOVWF  x44
3988:  MOVLB  0
398A:  CALL   1294
....................    strcpy(Menus.Letra,"    Incubadora"); 
398E:  MOVLW  06
3990:  MOVWF  FEA
3992:  MOVLW  1F
3994:  MOVWF  FE9
3996:  MOVLW  00
3998:  CALL   06D4
399C:  TBLRD*-
399E:  TBLRD*+
39A0:  MOVF   FF5,W
39A2:  MOVWF  FEE
39A4:  IORLW  00
39A6:  BNZ   399E
....................    displayMenu(Menus.Letra,0,20,0,1);        
39A8:  MOVLW  06
39AA:  MOVLB  6
39AC:  MOVWF  x40
39AE:  MOVLW  1F
39B0:  MOVWF  x3F
39B2:  CLRF   x41
39B4:  MOVLW  14
39B6:  MOVWF  x42
39B8:  CLRF   x43
39BA:  MOVLW  01
39BC:  MOVWF  x44
39BE:  MOVLB  0
39C0:  CALL   1294
....................    strcpy(Menus.Letra,"    Refrigerada"); 
39C4:  MOVLW  06
39C6:  MOVWF  FEA
39C8:  MOVLW  1F
39CA:  MOVWF  FE9
39CC:  MOVLW  00
39CE:  CALL   06F4
39D2:  TBLRD*-
39D4:  TBLRD*+
39D6:  MOVF   FF5,W
39D8:  MOVWF  FEE
39DA:  IORLW  00
39DC:  BNZ   39D4
....................    displayMenu(Menus.Letra,0,30,0,1); 
39DE:  MOVLW  06
39E0:  MOVLB  6
39E2:  MOVWF  x40
39E4:  MOVLW  1F
39E6:  MOVWF  x3F
39E8:  CLRF   x41
39EA:  MOVLW  1E
39EC:  MOVWF  x42
39EE:  CLRF   x43
39F0:  MOVLW  01
39F2:  MOVWF  x44
39F4:  MOVLB  0
39F6:  CALL   1294
....................    strcpy(Menus.Letra,"   22 Lts"); 
39FA:  MOVLW  06
39FC:  MOVWF  FEA
39FE:  MOVLW  1F
3A00:  MOVWF  FE9
3A02:  MOVLW  00
3A04:  CALL   0714
3A08:  TBLRD*-
3A0A:  TBLRD*+
3A0C:  MOVF   FF5,W
3A0E:  MOVWF  FEE
3A10:  IORLW  00
3A12:  BNZ   3A0A
....................    displayMenu(Menus.Letra,0,45,0,2); 
3A14:  MOVLW  06
3A16:  MOVLB  6
3A18:  MOVWF  x40
3A1A:  MOVLW  1F
3A1C:  MOVWF  x3F
3A1E:  CLRF   x41
3A20:  MOVLW  2D
3A22:  MOVWF  x42
3A24:  CLRF   x43
3A26:  MOVLW  02
3A28:  MOVWF  x44
3A2A:  MOVLB  0
3A2C:  CALL   1294
....................    delay_ms(1000); 
3A30:  MOVLW  04
3A32:  MOVLB  6
3A34:  MOVWF  x3F
3A36:  MOVLW  FA
3A38:  MOVWF  x45
3A3A:  MOVLB  0
3A3C:  CALL   0B76
3A40:  MOVLB  6
3A42:  DECFSZ x3F,F
3A44:  BRA    3A36
....................     
....................    glcd_fillScreen(OFF);      //Limpia la pantalla 
3A46:  CLRF   x40
3A48:  MOVLB  0
3A4A:  CALL   0C90
....................    displayContrasena(Contrasena[0],20,30,1); 
3A4E:  MOVFF  5C7,641
3A52:  MOVLW  14
3A54:  MOVLB  6
3A56:  MOVWF  x42
3A58:  MOVLW  1E
3A5A:  MOVWF  x43
3A5C:  MOVLW  01
3A5E:  MOVWF  x44
3A60:  MOVLB  0
3A62:  CALL   149A
....................    displayContrasena(Contrasena[1],40,30,0); 
3A66:  MOVFF  5C8,641
3A6A:  MOVLW  28
3A6C:  MOVLB  6
3A6E:  MOVWF  x42
3A70:  MOVLW  1E
3A72:  MOVWF  x43
3A74:  CLRF   x44
3A76:  MOVLB  0
3A78:  CALL   149A
....................    displayContrasena(Contrasena[2],60,30,0); 
3A7C:  MOVFF  5C9,641
3A80:  MOVLW  3C
3A82:  MOVLB  6
3A84:  MOVWF  x42
3A86:  MOVLW  1E
3A88:  MOVWF  x43
3A8A:  CLRF   x44
3A8C:  MOVLB  0
3A8E:  CALL   149A
....................    displayContrasena(Contrasena[3],80,30,0); 
3A92:  MOVFF  5CA,641
3A96:  MOVLW  50
3A98:  MOVLB  6
3A9A:  MOVWF  x42
3A9C:  MOVLW  1E
3A9E:  MOVWF  x43
3AA0:  CLRF   x44
3AA2:  MOVLB  0
3AA4:  CALL   149A
....................     
....................    for(i=0;i<80;i++) 
3AA8:  MOVLB  5
3AAA:  CLRF   x9A
3AAC:  MOVF   x9A,W
3AAE:  SUBLW  4F
3AB0:  BNC   3AD2
....................    { 
....................       Temperatura=Leer_Sensor(MediaMovil); 
3AB2:  MOVFF  58D,63F
3AB6:  MOVLB  0
3AB8:  CALL   1A98
3ABC:  MOVFF  03,60A
3AC0:  MOVFF  02,609
3AC4:  MOVFF  01,608
3AC8:  MOVFF  00,607
3ACC:  MOVLB  5
3ACE:  INCF   x9A,F
3AD0:  BRA    3AAC
....................    } 
....................    while(true) 
....................    { 
....................     
....................       if(UP && DOWN && RIGHT && LEFT) 
3AD2:  BSF    F92.5
3AD4:  BTFSS  F80.5
3AD6:  BRA    3B60
3AD8:  BSF    F96.0
3ADA:  BTFSS  F84.0
3ADC:  BRA    3B60
3ADE:  BSF    F96.1
3AE0:  BTFSS  F84.1
3AE2:  BRA    3B60
3AE4:  BSF    F96.2
3AE6:  BTFSS  F84.2
3AE8:  BRA    3B60
....................       { 
....................          delay_ms(500); 
3AEA:  MOVLW  02
3AEC:  MOVLB  6
3AEE:  MOVWF  x3F
3AF0:  MOVLW  FA
3AF2:  MOVWF  x45
3AF4:  MOVLB  0
3AF6:  CALL   0B76
3AFA:  MOVLB  6
3AFC:  DECFSZ x3F,F
3AFE:  BRA    3AF0
....................          strcpy(Menus.Letra,"Cargando.."); 
3B00:  MOVLW  06
3B02:  MOVWF  FEA
3B04:  MOVLW  1F
3B06:  MOVWF  FE9
3B08:  MOVLW  00
3B0A:  MOVLB  0
3B0C:  CALL   072E
3B10:  TBLRD*-
3B12:  TBLRD*+
3B14:  MOVF   FF5,W
3B16:  MOVWF  FEE
3B18:  IORLW  00
3B1A:  BNZ   3B12
....................          displayMenu(Menus.Letra,0,30,1,1); 
3B1C:  MOVLW  06
3B1E:  MOVLB  6
3B20:  MOVWF  x40
3B22:  MOVLW  1F
3B24:  MOVWF  x3F
3B26:  CLRF   x41
3B28:  MOVLW  1E
3B2A:  MOVWF  x42
3B2C:  MOVLW  01
3B2E:  MOVWF  x43
3B30:  MOVWF  x44
3B32:  MOVLB  0
3B34:  CALL   1294
....................          delay_ms(2000); 
3B38:  MOVLW  08
3B3A:  MOVLB  6
3B3C:  MOVWF  x3F
3B3E:  MOVLW  FA
3B40:  MOVWF  x45
3B42:  MOVLB  0
3B44:  CALL   0B76
3B48:  MOVLB  6
3B4A:  DECFSZ x3F,F
3B4C:  BRA    3B3E
....................          Menu=100; 
3B4E:  MOVLW  64
3B50:  MOVLB  5
3B52:  MOVWF  x98
....................          glcd_fillScreen(OFF); 
3B54:  MOVLB  6
3B56:  CLRF   x40
3B58:  MOVLB  0
3B5A:  CALL   0C90
3B5E:  MOVLB  5
....................       } 
....................     
....................       glcd_update();             
3B60:  MOVLB  0
3B62:  CALL   0CEA
.................... //_-------------------------------------------------------------------------------------------------------------------------------------------------------- 
....................       if(Menu==0){ //Menu de Contrasea. 
3B66:  MOVLB  5
3B68:  MOVF   x98,F
3B6A:  BTFSS  FD8.2
3B6C:  BRA    40A0
....................        
....................       strcpy(Menus.Letra,"Clave"); 
3B6E:  MOVLW  06
3B70:  MOVWF  FEA
3B72:  MOVLW  1F
3B74:  MOVWF  FE9
3B76:  MOVLW  00
3B78:  MOVLB  0
3B7A:  CALL   074A
3B7E:  TBLRD*-
3B80:  TBLRD*+
3B82:  MOVF   FF5,W
3B84:  MOVWF  FEE
3B86:  IORLW  00
3B88:  BNZ   3B80
....................       displayMenu(Menus.Letra,30,0,1,2);      
3B8A:  MOVLW  06
3B8C:  MOVLB  6
3B8E:  MOVWF  x40
3B90:  MOVLW  1F
3B92:  MOVWF  x3F
3B94:  MOVLW  1E
3B96:  MOVWF  x41
3B98:  CLRF   x42
3B9A:  MOVLW  01
3B9C:  MOVWF  x43
3B9E:  MOVLW  02
3BA0:  MOVWF  x44
3BA2:  MOVLB  0
3BA4:  CALL   1294
....................        
....................        
....................        
....................       if(UP)//Si oprime hacia arriba 
3BA8:  BSF    F92.5
3BAA:  BTFSS  F80.5
3BAC:  BRA    3C76
....................       { 
....................          if(Flanco == 0) 
3BAE:  MOVLB  5
3BB0:  BTFSC  x93.0
3BB2:  BRA    3C72
....................          { 
....................             Flanco = 1;delay_ms(30); 
3BB4:  BSF    x93.0
3BB6:  MOVLW  1E
3BB8:  MOVLB  6
3BBA:  MOVWF  x45
3BBC:  MOVLB  0
3BBE:  CALL   0B76
....................             for(i=1;i<=4;i++) 
3BC2:  MOVLW  01
3BC4:  MOVLB  5
3BC6:  MOVWF  x9A
3BC8:  MOVF   x9A,W
3BCA:  SUBLW  04
3BCC:  BNC   3C72
....................             { 
....................                if(unidad==i) 
3BCE:  MOVF   x9A,W
3BD0:  SUBWF  x99,W
3BD2:  BNZ   3C42
....................                { 
....................                   Contrasena[i-1]++; 
3BD4:  MOVLW  01
3BD6:  SUBWF  x9A,W
3BD8:  CLRF   03
3BDA:  ADDLW  C7
3BDC:  MOVWF  FE9
3BDE:  MOVLW  05
3BE0:  ADDWFC 03,W
3BE2:  MOVWF  FEA
3BE4:  INCF   FEF,F
....................                   if(Contrasena[i-1]>9)    
3BE6:  MOVLW  01
3BE8:  SUBWF  x9A,W
3BEA:  CLRF   03
3BEC:  ADDLW  C7
3BEE:  MOVWF  FE9
3BF0:  MOVLW  05
3BF2:  ADDWFC 03,W
3BF4:  MOVWF  FEA
3BF6:  BTFSC  FEF.7
3BF8:  BRA    3C12
3BFA:  MOVF   FEF,W
3BFC:  SUBLW  09
3BFE:  BC    3C12
....................                   { 
....................                      Contrasena[i-1]=0; 
3C00:  MOVLW  01
3C02:  SUBWF  x9A,W
3C04:  CLRF   03
3C06:  ADDLW  C7
3C08:  MOVWF  FE9
3C0A:  MOVLW  05
3C0C:  ADDWFC 03,W
3C0E:  MOVWF  FEA
3C10:  CLRF   FEF
....................                   } 
....................                   displayContrasena(Contrasena[i-1],i*20,30,1); 
3C12:  MOVLW  01
3C14:  SUBWF  x9A,W
3C16:  CLRF   03
3C18:  ADDLW  C7
3C1A:  MOVWF  FE9
3C1C:  MOVLW  05
3C1E:  ADDWFC 03,W
3C20:  MOVWF  FEA
3C22:  MOVFF  FEF,641
3C26:  MOVF   x9A,W
3C28:  MULLW  14
3C2A:  MOVFF  FF3,642
3C2E:  MOVLB  6
3C30:  MOVLW  1E
3C32:  MOVWF  x43
3C34:  MOVLW  01
3C36:  MOVWF  x44
3C38:  MOVLB  0
3C3A:  CALL   149A
....................                } 
3C3E:  BRA    3C6C
3C40:  MOVLB  5
....................                else 
....................                { 
....................                   displayContrasena(Contrasena[i-1],i*20,30,0); 
3C42:  MOVLW  01
3C44:  SUBWF  x9A,W
3C46:  CLRF   03
3C48:  ADDLW  C7
3C4A:  MOVWF  FE9
3C4C:  MOVLW  05
3C4E:  ADDWFC 03,W
3C50:  MOVWF  FEA
3C52:  MOVFF  FEF,641
3C56:  MOVF   x9A,W
3C58:  MULLW  14
3C5A:  MOVFF  FF3,642
3C5E:  MOVLB  6
3C60:  MOVLW  1E
3C62:  MOVWF  x43
3C64:  CLRF   x44
3C66:  MOVLB  0
3C68:  CALL   149A
....................                } 
3C6C:  MOVLB  5
3C6E:  INCF   x9A,F
3C70:  BRA    3BC8
....................             } 
....................          } 
....................       } 
3C72:  BRA    3C7A
3C74:  MOVLB  0
....................          else 
....................             {Flanco = 0;} 
3C76:  MOVLB  5
3C78:  BCF    x93.0
....................              
....................       if(DOWN)//Si oprime hacia abajo 
3C7A:  BSF    F96.0
3C7C:  BTFSS  F84.0
3C7E:  BRA    3D40
....................       { 
....................          if(Flanco2 == 0) 
3C80:  BTFSC  x93.2
3C82:  BRA    3D3E
....................             {Flanco2 = 1;delay_ms(30); 
3C84:  BSF    x93.2
3C86:  MOVLW  1E
3C88:  MOVLB  6
3C8A:  MOVWF  x45
3C8C:  MOVLB  0
3C8E:  CALL   0B76
....................                for(i=1;i<=4;i++) 
3C92:  MOVLW  01
3C94:  MOVLB  5
3C96:  MOVWF  x9A
3C98:  MOVF   x9A,W
3C9A:  SUBLW  04
3C9C:  BNC   3D3E
....................                { 
....................                   if(unidad==i) 
3C9E:  MOVF   x9A,W
3CA0:  SUBWF  x99,W
3CA2:  BNZ   3D0E
....................                   {Contrasena[i-1]--;  
3CA4:  MOVLW  01
3CA6:  SUBWF  x9A,W
3CA8:  CLRF   03
3CAA:  ADDLW  C7
3CAC:  MOVWF  FE9
3CAE:  MOVLW  05
3CB0:  ADDWFC 03,W
3CB2:  MOVWF  FEA
3CB4:  DECF   FEF,F
....................                      if(Contrasena[i-1]<0) 
3CB6:  MOVLW  01
3CB8:  SUBWF  x9A,W
3CBA:  CLRF   03
3CBC:  ADDLW  C7
3CBE:  MOVWF  FE9
3CC0:  MOVLW  05
3CC2:  ADDWFC 03,W
3CC4:  MOVWF  FEA
3CC6:  BTFSS  FEF.7
3CC8:  BRA    3CDE
....................                         {Contrasena[i-1]=9;} 
3CCA:  MOVLW  01
3CCC:  SUBWF  x9A,W
3CCE:  CLRF   03
3CD0:  ADDLW  C7
3CD2:  MOVWF  FE9
3CD4:  MOVLW  05
3CD6:  ADDWFC 03,W
3CD8:  MOVWF  FEA
3CDA:  MOVLW  09
3CDC:  MOVWF  FEF
....................                    displayContrasena(Contrasena[i-1],i*20,30,1);} 
3CDE:  MOVLW  01
3CE0:  SUBWF  x9A,W
3CE2:  CLRF   03
3CE4:  ADDLW  C7
3CE6:  MOVWF  FE9
3CE8:  MOVLW  05
3CEA:  ADDWFC 03,W
3CEC:  MOVWF  FEA
3CEE:  MOVFF  FEF,641
3CF2:  MOVF   x9A,W
3CF4:  MULLW  14
3CF6:  MOVFF  FF3,642
3CFA:  MOVLB  6
3CFC:  MOVLW  1E
3CFE:  MOVWF  x43
3D00:  MOVLW  01
3D02:  MOVWF  x44
3D04:  MOVLB  0
3D06:  CALL   149A
3D0A:  BRA    3D38
3D0C:  MOVLB  5
....................                   else 
....................                   {displayContrasena(Contrasena[i-1],i*20,30,0);} 
3D0E:  MOVLW  01
3D10:  SUBWF  x9A,W
3D12:  CLRF   03
3D14:  ADDLW  C7
3D16:  MOVWF  FE9
3D18:  MOVLW  05
3D1A:  ADDWFC 03,W
3D1C:  MOVWF  FEA
3D1E:  MOVFF  FEF,641
3D22:  MOVF   x9A,W
3D24:  MULLW  14
3D26:  MOVFF  FF3,642
3D2A:  MOVLB  6
3D2C:  MOVLW  1E
3D2E:  MOVWF  x43
3D30:  CLRF   x44
3D32:  MOVLB  0
3D34:  CALL   149A
3D38:  MOVLB  5
3D3A:  INCF   x9A,F
3D3C:  BRA    3C98
....................                }       
....................             }      
....................       } 
3D3E:  BRA    3D42
....................          else 
....................             {Flanco2 = 0;}   
3D40:  BCF    x93.2
....................              
....................       if(RIGHT)//Si oprime RIGHT 
3D42:  BSF    F96.1
3D44:  BTFSS  F84.1
3D46:  BRA    3DD0
....................       { 
....................          if(Flanco1 == 0) 
3D48:  BTFSC  x93.1
3D4A:  BRA    3DCE
....................             {Flanco1 = 1;delay_ms(30);unidad++; 
3D4C:  BSF    x93.1
3D4E:  MOVLW  1E
3D50:  MOVLB  6
3D52:  MOVWF  x45
3D54:  MOVLB  0
3D56:  CALL   0B76
3D5A:  MOVLB  5
3D5C:  INCF   x99,F
....................                for(i=1;i<=4;i++) 
3D5E:  MOVLW  01
3D60:  MOVWF  x9A
3D62:  MOVF   x9A,W
3D64:  SUBLW  04
3D66:  BNC   3DCE
....................                { 
....................                   if(unidad==i) 
3D68:  MOVF   x9A,W
3D6A:  SUBWF  x99,W
3D6C:  BNZ   3D9E
....................                   {displayContrasena(Contrasena[i-1],i*20,30,1);} 
3D6E:  MOVLW  01
3D70:  SUBWF  x9A,W
3D72:  CLRF   03
3D74:  ADDLW  C7
3D76:  MOVWF  FE9
3D78:  MOVLW  05
3D7A:  ADDWFC 03,W
3D7C:  MOVWF  FEA
3D7E:  MOVFF  FEF,641
3D82:  MOVF   x9A,W
3D84:  MULLW  14
3D86:  MOVFF  FF3,642
3D8A:  MOVLB  6
3D8C:  MOVLW  1E
3D8E:  MOVWF  x43
3D90:  MOVLW  01
3D92:  MOVWF  x44
3D94:  MOVLB  0
3D96:  CALL   149A
3D9A:  BRA    3DC8
3D9C:  MOVLB  5
....................                   else 
....................                   {displayContrasena(Contrasena[i-1],i*20,30,0);} 
3D9E:  MOVLW  01
3DA0:  SUBWF  x9A,W
3DA2:  CLRF   03
3DA4:  ADDLW  C7
3DA6:  MOVWF  FE9
3DA8:  MOVLW  05
3DAA:  ADDWFC 03,W
3DAC:  MOVWF  FEA
3DAE:  MOVFF  FEF,641
3DB2:  MOVF   x9A,W
3DB4:  MULLW  14
3DB6:  MOVFF  FF3,642
3DBA:  MOVLB  6
3DBC:  MOVLW  1E
3DBE:  MOVWF  x43
3DC0:  CLRF   x44
3DC2:  MOVLB  0
3DC4:  CALL   149A
3DC8:  MOVLB  5
3DCA:  INCF   x9A,F
3DCC:  BRA    3D62
....................                } 
....................             } 
....................       } 
3DCE:  BRA    3DD2
....................          else 
....................             {Flanco1 = 0;}   
3DD0:  BCF    x93.1
....................      
....................       if(unidad>4) 
3DD2:  MOVF   x99,W
3DD4:  SUBLW  04
3DD6:  BTFSC  FD8.0
3DD8:  BRA    40A0
....................       {glcd_fillScreen(OFF);unidad=4; 
3DDA:  MOVLB  6
3DDC:  CLRF   x40
3DDE:  MOVLB  0
3DE0:  CALL   0C90
3DE4:  MOVLW  04
3DE6:  MOVLB  5
3DE8:  MOVWF  x99
....................          if(Contrasena[0]==3&&Contrasena[1]==8&&Contrasena[2]==9&&Contrasena[3]==2) // Si Ingresa clave para reset general del sistema. 
3DEA:  MOVF   xC7,W
3DEC:  SUBLW  03
3DEE:  BNZ   3ED6
3DF0:  MOVF   xC8,W
3DF2:  SUBLW  08
3DF4:  BNZ   3ED6
3DF6:  MOVF   xC9,W
3DF8:  SUBLW  09
3DFA:  BNZ   3ED6
3DFC:  MOVF   xCA,W
3DFE:  SUBLW  02
3E00:  BNZ   3ED6
....................             {write_eeprom(10,0);delay_ms(20);write_eeprom(11,0);delay_ms(20);// Reestablece a contrasea de Fabrica y reinicia Programa. 
3E02:  MOVF   FF2,W
3E04:  MOVWF  00
3E06:  BCF    FF2.7
3E08:  MOVLW  0A
3E0A:  MOVWF  FA9
3E0C:  CLRF   FA8
3E0E:  BCF    FA6.6
3E10:  BCF    FA6.7
3E12:  BSF    FA6.2
3E14:  MOVLB  F
3E16:  MOVLW  55
3E18:  MOVWF  FA7
3E1A:  MOVLW  AA
3E1C:  MOVWF  FA7
3E1E:  BSF    FA6.1
3E20:  BTFSC  FA6.1
3E22:  BRA    3E20
3E24:  BCF    FA6.2
3E26:  MOVF   00,W
3E28:  IORWF  FF2,F
3E2A:  MOVLW  14
3E2C:  MOVLB  6
3E2E:  MOVWF  x45
3E30:  MOVLB  0
3E32:  CALL   0B76
3E36:  MOVF   FF2,W
3E38:  MOVWF  00
3E3A:  BCF    FF2.7
3E3C:  MOVLW  0B
3E3E:  MOVWF  FA9
3E40:  CLRF   FA8
3E42:  BCF    FA6.6
3E44:  BCF    FA6.7
3E46:  BSF    FA6.2
3E48:  MOVLB  F
3E4A:  MOVLW  55
3E4C:  MOVWF  FA7
3E4E:  MOVLW  AA
3E50:  MOVWF  FA7
3E52:  BSF    FA6.1
3E54:  BTFSC  FA6.1
3E56:  BRA    3E54
3E58:  BCF    FA6.2
3E5A:  MOVF   00,W
3E5C:  IORWF  FF2,F
3E5E:  MOVLW  14
3E60:  MOVLB  6
3E62:  MOVWF  x45
3E64:  MOVLB  0
3E66:  CALL   0B76
....................              write_eeprom(12,0);delay_ms(20);write_eeprom(13,0);delay_ms(20); 
3E6A:  MOVF   FF2,W
3E6C:  MOVWF  00
3E6E:  BCF    FF2.7
3E70:  MOVLW  0C
3E72:  MOVWF  FA9
3E74:  CLRF   FA8
3E76:  BCF    FA6.6
3E78:  BCF    FA6.7
3E7A:  BSF    FA6.2
3E7C:  MOVLB  F
3E7E:  MOVLW  55
3E80:  MOVWF  FA7
3E82:  MOVLW  AA
3E84:  MOVWF  FA7
3E86:  BSF    FA6.1
3E88:  BTFSC  FA6.1
3E8A:  BRA    3E88
3E8C:  BCF    FA6.2
3E8E:  MOVF   00,W
3E90:  IORWF  FF2,F
3E92:  MOVLW  14
3E94:  MOVLB  6
3E96:  MOVWF  x45
3E98:  MOVLB  0
3E9A:  CALL   0B76
3E9E:  MOVF   FF2,W
3EA0:  MOVWF  00
3EA2:  BCF    FF2.7
3EA4:  MOVLW  0D
3EA6:  MOVWF  FA9
3EA8:  CLRF   FA8
3EAA:  BCF    FA6.6
3EAC:  BCF    FA6.7
3EAE:  BSF    FA6.2
3EB0:  MOVLB  F
3EB2:  MOVLW  55
3EB4:  MOVWF  FA7
3EB6:  MOVLW  AA
3EB8:  MOVWF  FA7
3EBA:  BSF    FA6.1
3EBC:  BTFSC  FA6.1
3EBE:  BRA    3EBC
3EC0:  BCF    FA6.2
3EC2:  MOVF   00,W
3EC4:  IORWF  FF2,F
3EC6:  MOVLW  14
3EC8:  MOVLB  6
3ECA:  MOVWF  x45
3ECC:  MOVLB  0
3ECE:  CALL   0B76
....................              reset_cpu();}         
3ED2:  RESET
3ED4:  MOVLB  5
....................           
....................          if((Contrasena[0]==Password[0])&&(Contrasena[1]==Password[1])&&(Contrasena[2]==Password[2])&&(Contrasena[3]==Password[3])) 
3ED6:  MOVF   xCB,W
3ED8:  SUBWF  xC7,W
3EDA:  BNZ   3F98
3EDC:  MOVF   xCC,W
3EDE:  SUBWF  xC8,W
3EE0:  BNZ   3F98
3EE2:  MOVF   xCD,W
3EE4:  SUBWF  xC9,W
3EE6:  BNZ   3F98
3EE8:  MOVF   xCE,W
3EEA:  SUBWF  xCA,W
3EEC:  BNZ   3F98
....................          { 
....................             glcd_fillScreen(OFF); 
3EEE:  MOVLB  6
3EF0:  CLRF   x40
3EF2:  MOVLB  0
3EF4:  CALL   0C90
....................             strcpy(Menus.Letra,"Clave"); 
3EF8:  MOVLW  06
3EFA:  MOVWF  FEA
3EFC:  MOVLW  1F
3EFE:  MOVWF  FE9
3F00:  MOVLW  00
3F02:  CALL   074A
3F06:  TBLRD*-
3F08:  TBLRD*+
3F0A:  MOVF   FF5,W
3F0C:  MOVWF  FEE
3F0E:  IORLW  00
3F10:  BNZ   3F08
....................             displayMenu(Menus.Letra,30,0,0,2); 
3F12:  MOVLW  06
3F14:  MOVLB  6
3F16:  MOVWF  x40
3F18:  MOVLW  1F
3F1A:  MOVWF  x3F
3F1C:  MOVLW  1E
3F1E:  MOVWF  x41
3F20:  CLRF   x42
3F22:  CLRF   x43
3F24:  MOVLW  02
3F26:  MOVWF  x44
3F28:  MOVLB  0
3F2A:  CALL   1294
....................             strcpy(Menus.Letra,"Correcta"); 
3F2E:  MOVLW  06
3F30:  MOVWF  FEA
3F32:  MOVLW  1F
3F34:  MOVWF  FE9
3F36:  MOVLW  00
3F38:  CALL   0760
3F3C:  TBLRD*-
3F3E:  TBLRD*+
3F40:  MOVF   FF5,W
3F42:  MOVWF  FEE
3F44:  IORLW  00
3F46:  BNZ   3F3E
....................             displayMenu(Menus.Letra,15,30,0,2); 
3F48:  MOVLW  06
3F4A:  MOVLB  6
3F4C:  MOVWF  x40
3F4E:  MOVLW  1F
3F50:  MOVWF  x3F
3F52:  MOVLW  0F
3F54:  MOVWF  x41
3F56:  MOVLW  1E
3F58:  MOVWF  x42
3F5A:  CLRF   x43
3F5C:  MOVLW  02
3F5E:  MOVWF  x44
3F60:  MOVLB  0
3F62:  CALL   1294
....................             Menu=1;glcd_update();delay_ms(1000); 
3F66:  MOVLW  01
3F68:  MOVLB  5
3F6A:  MOVWF  x98
3F6C:  MOVLB  0
3F6E:  CALL   0CEA
3F72:  MOVLW  04
3F74:  MOVLB  6
3F76:  MOVWF  x3F
3F78:  MOVLW  FA
3F7A:  MOVWF  x45
3F7C:  MOVLB  0
3F7E:  CALL   0B76
3F82:  MOVLB  6
3F84:  DECFSZ x3F,F
3F86:  BRA    3F78
....................             glcd_fillScreen(OFF);unidad=1; 
3F88:  CLRF   x40
3F8A:  MOVLB  0
3F8C:  CALL   0C90
3F90:  MOVLW  01
3F92:  MOVLB  5
3F94:  MOVWF  x99
....................          }// Esta parte se puede agregar en el Menu 1 dependiendo de la ubicacin del vidrio. 
3F96:  BRA    40A0
....................          else 
....................          { 
....................             glcd_fillScreen(OFF); 
3F98:  MOVLB  6
3F9A:  CLRF   x40
3F9C:  MOVLB  0
3F9E:  CALL   0C90
....................             strcpy(Menus.Letra,"Clave"); 
3FA2:  MOVLW  06
3FA4:  MOVWF  FEA
3FA6:  MOVLW  1F
3FA8:  MOVWF  FE9
3FAA:  MOVLW  00
3FAC:  CALL   074A
3FB0:  TBLRD*-
3FB2:  TBLRD*+
3FB4:  MOVF   FF5,W
3FB6:  MOVWF  FEE
3FB8:  IORLW  00
3FBA:  BNZ   3FB2
....................             displayMenu(Menus.Letra,30,0,0,2); 
3FBC:  MOVLW  06
3FBE:  MOVLB  6
3FC0:  MOVWF  x40
3FC2:  MOVLW  1F
3FC4:  MOVWF  x3F
3FC6:  MOVLW  1E
3FC8:  MOVWF  x41
3FCA:  CLRF   x42
3FCC:  CLRF   x43
3FCE:  MOVLW  02
3FD0:  MOVWF  x44
3FD2:  MOVLB  0
3FD4:  CALL   1294
....................             strcpy(Menus.Letra,"Incorrecta"); 
3FD8:  MOVLW  06
3FDA:  MOVWF  FEA
3FDC:  MOVLW  1F
3FDE:  MOVWF  FE9
3FE0:  MOVLW  00
3FE2:  CALL   077A
3FE6:  TBLRD*-
3FE8:  TBLRD*+
3FEA:  MOVF   FF5,W
3FEC:  MOVWF  FEE
3FEE:  IORLW  00
3FF0:  BNZ   3FE8
....................             displayMenu(Menus.Letra,0,30,0,2); 
3FF2:  MOVLW  06
3FF4:  MOVLB  6
3FF6:  MOVWF  x40
3FF8:  MOVLW  1F
3FFA:  MOVWF  x3F
3FFC:  CLRF   x41
3FFE:  MOVLW  1E
4000:  MOVWF  x42
4002:  CLRF   x43
4004:  MOVLW  02
4006:  MOVWF  x44
4008:  MOVLB  0
400A:  CALL   1294
....................             Menu=0;glcd_update();delay_ms(1000); 
400E:  MOVLB  5
4010:  CLRF   x98
4012:  MOVLB  0
4014:  CALL   0CEA
4018:  MOVLW  04
401A:  MOVLB  6
401C:  MOVWF  x3F
401E:  MOVLW  FA
4020:  MOVWF  x45
4022:  MOVLB  0
4024:  CALL   0B76
4028:  MOVLB  6
402A:  DECFSZ x3F,F
402C:  BRA    401E
....................             glcd_fillScreen(OFF);unidad=1; 
402E:  CLRF   x40
4030:  MOVLB  0
4032:  CALL   0C90
4036:  MOVLW  01
4038:  MOVLB  5
403A:  MOVWF  x99
....................             Contrasena[0]=0;Contrasena[1]=0;Contrasena[2]=0;Contrasena[3]=0; 
403C:  CLRF   xC7
403E:  CLRF   xC8
4040:  CLRF   xC9
4042:  CLRF   xCA
....................             displayContrasena(Contrasena[0],20,30,1); 
4044:  MOVFF  5C7,641
4048:  MOVLW  14
404A:  MOVLB  6
404C:  MOVWF  x42
404E:  MOVLW  1E
4050:  MOVWF  x43
4052:  MOVLW  01
4054:  MOVWF  x44
4056:  MOVLB  0
4058:  CALL   149A
....................             displayContrasena(Contrasena[1],40,30,0); 
405C:  MOVFF  5C8,641
4060:  MOVLW  28
4062:  MOVLB  6
4064:  MOVWF  x42
4066:  MOVLW  1E
4068:  MOVWF  x43
406A:  CLRF   x44
406C:  MOVLB  0
406E:  CALL   149A
....................             displayContrasena(Contrasena[2],60,30,0); 
4072:  MOVFF  5C9,641
4076:  MOVLW  3C
4078:  MOVLB  6
407A:  MOVWF  x42
407C:  MOVLW  1E
407E:  MOVWF  x43
4080:  CLRF   x44
4082:  MOVLB  0
4084:  CALL   149A
....................             displayContrasena(Contrasena[3],80,30,0); 
4088:  MOVFF  5CA,641
408C:  MOVLW  50
408E:  MOVLB  6
4090:  MOVWF  x42
4092:  MOVLW  1E
4094:  MOVWF  x43
4096:  CLRF   x44
4098:  MOVLB  0
409A:  CALL   149A
409E:  MOVLB  5
....................          } 
....................       } 
....................     } 
.................... //_--------------------------------------------------------------------------------------------------------------------------------------------------------        
....................  
....................  
.................... //_-------------------------------------------------------------------------------------------------------------------------------------------------------- 
....................       if(Menu==1){ //Menu Principal.       
40A0:  DECFSZ x98,W
40A2:  BRA    4368
....................        
....................          if(Opcion>4) 
40A4:  MOVF   x9E,W
40A6:  SUBLW  04
40A8:  BC    40AE
....................          {Opcion=1;} 
40AA:  MOVLW  01
40AC:  MOVWF  x9E
....................          if(Opcion<1) 
40AE:  MOVF   x9E,F
40B0:  BNZ   40B6
....................          {Opcion=4;} 
40B2:  MOVLW  04
40B4:  MOVWF  x9E
....................           
....................          strcpy(Menus.Letra,"Menu"); 
40B6:  MOVLW  06
40B8:  MOVWF  FEA
40BA:  MOVLW  1F
40BC:  MOVWF  FE9
40BE:  MOVLW  00
40C0:  MOVLB  0
40C2:  CALL   0796
40C6:  TBLRD*-
40C8:  TBLRD*+
40CA:  MOVF   FF5,W
40CC:  MOVWF  FEE
40CE:  IORLW  00
40D0:  BNZ   40C8
....................          displayMenu(Menus.Letra,30,0,1,2); 
40D2:  MOVLW  06
40D4:  MOVLB  6
40D6:  MOVWF  x40
40D8:  MOVLW  1F
40DA:  MOVWF  x3F
40DC:  MOVLW  1E
40DE:  MOVWF  x41
40E0:  CLRF   x42
40E2:  MOVLW  01
40E4:  MOVWF  x43
40E6:  MOVLW  02
40E8:  MOVWF  x44
40EA:  MOVLB  0
40EC:  CALL   1294
....................        
....................          if(Opcion==1)    
40F0:  MOVLB  5
40F2:  DECFSZ x9E,W
40F4:  BRA    4132
....................             {strcpy(Menus.Letra,"Iniciar Proceso"); 
40F6:  MOVLW  06
40F8:  MOVWF  FEA
40FA:  MOVLW  1F
40FC:  MOVWF  FE9
40FE:  MOVLW  00
4100:  MOVLB  0
4102:  CALL   07AC
4106:  TBLRD*-
4108:  TBLRD*+
410A:  MOVF   FF5,W
410C:  MOVWF  FEE
410E:  IORLW  00
4110:  BNZ   4108
....................             displayMenu(Menus.Letra,0,20,1,1);} 
4112:  MOVLW  06
4114:  MOVLB  6
4116:  MOVWF  x40
4118:  MOVLW  1F
411A:  MOVWF  x3F
411C:  CLRF   x41
411E:  MOVLW  14
4120:  MOVWF  x42
4122:  MOVLW  01
4124:  MOVWF  x43
4126:  MOVWF  x44
4128:  MOVLB  0
412A:  CALL   1294
412E:  BRA    416A
4130:  MOVLB  5
....................          else 
....................             {strcpy(Menus.Letra,"Iniciar Proceso"); 
4132:  MOVLW  06
4134:  MOVWF  FEA
4136:  MOVLW  1F
4138:  MOVWF  FE9
413A:  MOVLW  00
413C:  MOVLB  0
413E:  CALL   07AC
4142:  TBLRD*-
4144:  TBLRD*+
4146:  MOVF   FF5,W
4148:  MOVWF  FEE
414A:  IORLW  00
414C:  BNZ   4144
....................             displayMenu(Menus.Letra,0,20,0,1);} 
414E:  MOVLW  06
4150:  MOVLB  6
4152:  MOVWF  x40
4154:  MOVLW  1F
4156:  MOVWF  x3F
4158:  CLRF   x41
415A:  MOVLW  14
415C:  MOVWF  x42
415E:  CLRF   x43
4160:  MOVLW  01
4162:  MOVWF  x44
4164:  MOVLB  0
4166:  CALL   1294
....................           
....................          if(Opcion==2)    
416A:  MOVLB  5
416C:  MOVF   x9E,W
416E:  SUBLW  02
4170:  BNZ   41AE
....................             {strcpy(Menus.Letra,"Temperatura"); 
4172:  MOVLW  06
4174:  MOVWF  FEA
4176:  MOVLW  1F
4178:  MOVWF  FE9
417A:  MOVLW  00
417C:  MOVLB  0
417E:  CALL   07CC
4182:  TBLRD*-
4184:  TBLRD*+
4186:  MOVF   FF5,W
4188:  MOVWF  FEE
418A:  IORLW  00
418C:  BNZ   4184
....................             displayMenu(Menus.Letra,0,30,1,1);} 
418E:  MOVLW  06
4190:  MOVLB  6
4192:  MOVWF  x40
4194:  MOVLW  1F
4196:  MOVWF  x3F
4198:  CLRF   x41
419A:  MOVLW  1E
419C:  MOVWF  x42
419E:  MOVLW  01
41A0:  MOVWF  x43
41A2:  MOVWF  x44
41A4:  MOVLB  0
41A6:  CALL   1294
41AA:  BRA    41E6
41AC:  MOVLB  5
....................          else 
....................             {strcpy(Menus.Letra,"Temperatura"); 
41AE:  MOVLW  06
41B0:  MOVWF  FEA
41B2:  MOVLW  1F
41B4:  MOVWF  FE9
41B6:  MOVLW  00
41B8:  MOVLB  0
41BA:  CALL   07CC
41BE:  TBLRD*-
41C0:  TBLRD*+
41C2:  MOVF   FF5,W
41C4:  MOVWF  FEE
41C6:  IORLW  00
41C8:  BNZ   41C0
....................             displayMenu(Menus.Letra,0,30,0,1);} 
41CA:  MOVLW  06
41CC:  MOVLB  6
41CE:  MOVWF  x40
41D0:  MOVLW  1F
41D2:  MOVWF  x3F
41D4:  CLRF   x41
41D6:  MOVLW  1E
41D8:  MOVWF  x42
41DA:  CLRF   x43
41DC:  MOVLW  01
41DE:  MOVWF  x44
41E0:  MOVLB  0
41E2:  CALL   1294
....................              
....................          if(Opcion==3)    
41E6:  MOVLB  5
41E8:  MOVF   x9E,W
41EA:  SUBLW  03
41EC:  BNZ   422A
....................             {strcpy(Menus.Letra,"Temporizador"); 
41EE:  MOVLW  06
41F0:  MOVWF  FEA
41F2:  MOVLW  1F
41F4:  MOVWF  FE9
41F6:  MOVLW  00
41F8:  MOVLB  0
41FA:  CALL   07E8
41FE:  TBLRD*-
4200:  TBLRD*+
4202:  MOVF   FF5,W
4204:  MOVWF  FEE
4206:  IORLW  00
4208:  BNZ   4200
....................             displayMenu(Menus.Letra,0,40,1,1);} 
420A:  MOVLW  06
420C:  MOVLB  6
420E:  MOVWF  x40
4210:  MOVLW  1F
4212:  MOVWF  x3F
4214:  CLRF   x41
4216:  MOVLW  28
4218:  MOVWF  x42
421A:  MOVLW  01
421C:  MOVWF  x43
421E:  MOVWF  x44
4220:  MOVLB  0
4222:  CALL   1294
4226:  BRA    4262
4228:  MOVLB  5
....................          else 
....................             {strcpy(Menus.Letra,"Temporizador"); 
422A:  MOVLW  06
422C:  MOVWF  FEA
422E:  MOVLW  1F
4230:  MOVWF  FE9
4232:  MOVLW  00
4234:  MOVLB  0
4236:  CALL   07E8
423A:  TBLRD*-
423C:  TBLRD*+
423E:  MOVF   FF5,W
4240:  MOVWF  FEE
4242:  IORLW  00
4244:  BNZ   423C
....................             displayMenu(Menus.Letra,0,40,0,1);}    
4246:  MOVLW  06
4248:  MOVLB  6
424A:  MOVWF  x40
424C:  MOVLW  1F
424E:  MOVWF  x3F
4250:  CLRF   x41
4252:  MOVLW  28
4254:  MOVWF  x42
4256:  CLRF   x43
4258:  MOVLW  01
425A:  MOVWF  x44
425C:  MOVLB  0
425E:  CALL   1294
....................                          
....................          if(Opcion==4)    
4262:  MOVLB  5
4264:  MOVF   x9E,W
4266:  SUBLW  04
4268:  BNZ   42A6
....................             {strcpy(Menus.Letra,"Cambio Clave"); 
426A:  MOVLW  06
426C:  MOVWF  FEA
426E:  MOVLW  1F
4270:  MOVWF  FE9
4272:  MOVLW  00
4274:  MOVLB  0
4276:  CALL   0806
427A:  TBLRD*-
427C:  TBLRD*+
427E:  MOVF   FF5,W
4280:  MOVWF  FEE
4282:  IORLW  00
4284:  BNZ   427C
....................             displayMenu(Menus.Letra,0,50,1,1);} 
4286:  MOVLW  06
4288:  MOVLB  6
428A:  MOVWF  x40
428C:  MOVLW  1F
428E:  MOVWF  x3F
4290:  CLRF   x41
4292:  MOVLW  32
4294:  MOVWF  x42
4296:  MOVLW  01
4298:  MOVWF  x43
429A:  MOVWF  x44
429C:  MOVLB  0
429E:  CALL   1294
42A2:  BRA    42DE
42A4:  MOVLB  5
....................          else 
....................             {strcpy(Menus.Letra,"Cambio Clave"); 
42A6:  MOVLW  06
42A8:  MOVWF  FEA
42AA:  MOVLW  1F
42AC:  MOVWF  FE9
42AE:  MOVLW  00
42B0:  MOVLB  0
42B2:  CALL   0806
42B6:  TBLRD*-
42B8:  TBLRD*+
42BA:  MOVF   FF5,W
42BC:  MOVWF  FEE
42BE:  IORLW  00
42C0:  BNZ   42B8
....................             displayMenu(Menus.Letra,0,50,0,1);}      
42C2:  MOVLW  06
42C4:  MOVLB  6
42C6:  MOVWF  x40
42C8:  MOVLW  1F
42CA:  MOVWF  x3F
42CC:  CLRF   x41
42CE:  MOVLW  32
42D0:  MOVWF  x42
42D2:  CLRF   x43
42D4:  MOVLW  01
42D6:  MOVWF  x44
42D8:  MOVLB  0
42DA:  CALL   1294
....................              
....................       if(UP)//Si oprime hacia arriba 
42DE:  BSF    F92.5
42E0:  BTFSS  F80.5
42E2:  BRA    4302
....................          {  if(Flanco == 0)  
42E4:  MOVLB  5
42E6:  BTFSC  x93.0
42E8:  BRA    42FE
....................                {Flanco = 1;delay_ms(30);Opcion--;visual=1; 
42EA:  BSF    x93.0
42EC:  MOVLW  1E
42EE:  MOVLB  6
42F0:  MOVWF  x45
42F2:  MOVLB  0
42F4:  CALL   0B76
42F8:  MOVLB  5
42FA:  DECF   x9E,F
42FC:  BSF    x93.3
....................                } 
....................          } 
42FE:  BRA    4306
4300:  MOVLB  0
....................             else 
....................                {Flanco = 0;} 
4302:  MOVLB  5
4304:  BCF    x93.0
....................                    
....................          if(DOWN)//Si oprime hacia abajo 
4306:  BSF    F96.0
4308:  BTFSS  F84.0
430A:  BRA    4326
....................          {  if(Flanco2 == 0)  
430C:  BTFSC  x93.2
430E:  BRA    4324
....................                {Flanco2 = 1;delay_ms(30);Opcion++;visual=1; 
4310:  BSF    x93.2
4312:  MOVLW  1E
4314:  MOVLB  6
4316:  MOVWF  x45
4318:  MOVLB  0
431A:  CALL   0B76
431E:  MOVLB  5
4320:  INCF   x9E,F
4322:  BSF    x93.3
....................                }      
....................          } 
4324:  BRA    4328
....................             else 
....................                {Flanco2 = 0;}   
4326:  BCF    x93.2
....................                 
....................        if(RIGHT)//Si oprime SET 
4328:  BSF    F96.1
432A:  BTFSS  F84.1
432C:  BRA    4366
....................          {  if(Flanco1 == 0)  
432E:  BTFSC  x93.1
4330:  BRA    4364
....................                {Flanco1 = 1;delay_ms(500);Menu=Opcion+3;Opcion=1;glcd_fillscreen(OFF);visual=1; 
4332:  BSF    x93.1
4334:  MOVLW  02
4336:  MOVLB  6
4338:  MOVWF  x3F
433A:  MOVLW  FA
433C:  MOVWF  x45
433E:  MOVLB  0
4340:  CALL   0B76
4344:  MOVLB  6
4346:  DECFSZ x3F,F
4348:  BRA    433A
434A:  MOVLW  03
434C:  MOVLB  5
434E:  ADDWF  x9E,W
4350:  MOVWF  x98
4352:  MOVLW  01
4354:  MOVWF  x9E
4356:  MOVLB  6
4358:  CLRF   x40
435A:  MOVLB  0
435C:  CALL   0C90
4360:  MOVLB  5
4362:  BSF    x93.3
....................                } 
....................          } 
4364:  BRA    4368
....................             else 
....................                {Flanco1 = 0;}   
4366:  BCF    x93.1
....................  
....................    } 
.................... //_--------------------------------------------------------------------------------------------------------------------------------------------------------        
.................... //-Sub-Menus de seleccin de proceso. 
....................  
.................... //_-------------------------------------------------------------------------------------------------------------------------------------------------------- 
....................       if(Menu==4){ //Menu de Continuar 
4368:  MOVF   x98,W
436A:  SUBLW  04
436C:  BTFSS  FD8.2
436E:  BRA    45D6
....................        
....................       if(Opcion>2) 
4370:  MOVF   x9E,W
4372:  SUBLW  02
4374:  BC    437A
....................          Opcion=1; 
4376:  MOVLW  01
4378:  MOVWF  x9E
....................           
....................       if(Opcion<1) 
437A:  MOVF   x9E,F
437C:  BNZ   4382
....................          Opcion=2; 
437E:  MOVLW  02
4380:  MOVWF  x9E
....................        
....................          strcpy(Menus.Letra,"Continuar"); 
4382:  MOVLW  06
4384:  MOVWF  FEA
4386:  MOVLW  1F
4388:  MOVWF  FE9
438A:  MOVLW  00
438C:  MOVLB  0
438E:  CALL   0824
4392:  TBLRD*-
4394:  TBLRD*+
4396:  MOVF   FF5,W
4398:  MOVWF  FEE
439A:  IORLW  00
439C:  BNZ   4394
....................          displayMenu(Menus.Letra,0,0,1,2); 
439E:  MOVLW  06
43A0:  MOVLB  6
43A2:  MOVWF  x40
43A4:  MOVLW  1F
43A6:  MOVWF  x3F
43A8:  CLRF   x41
43AA:  CLRF   x42
43AC:  MOVLW  01
43AE:  MOVWF  x43
43B0:  MOVLW  02
43B2:  MOVWF  x44
43B4:  MOVLB  0
43B6:  CALL   1294
....................           
....................          if(Opcion==2) 
43BA:  MOVLB  5
43BC:  MOVF   x9E,W
43BE:  SUBLW  02
43C0:  BNZ   4438
....................          {strcpy(Menus.Letra,"SI"); 
43C2:  MOVLW  06
43C4:  MOVWF  FEA
43C6:  MOVLW  1F
43C8:  MOVWF  FE9
43CA:  MOVLW  00
43CC:  MOVLB  0
43CE:  CALL   083E
43D2:  TBLRD*-
43D4:  TBLRD*+
43D6:  MOVF   FF5,W
43D8:  MOVWF  FEE
43DA:  IORLW  00
43DC:  BNZ   43D4
....................          displayMenu(Menus.Letra,50,25,1,2); 
43DE:  MOVLW  06
43E0:  MOVLB  6
43E2:  MOVWF  x40
43E4:  MOVLW  1F
43E6:  MOVWF  x3F
43E8:  MOVLW  32
43EA:  MOVWF  x41
43EC:  MOVLW  19
43EE:  MOVWF  x42
43F0:  MOVLW  01
43F2:  MOVWF  x43
43F4:  MOVLW  02
43F6:  MOVWF  x44
43F8:  MOVLB  0
43FA:  CALL   1294
....................          strcpy(Menus.Letra,"NO"); 
43FE:  MOVLW  06
4400:  MOVWF  FEA
4402:  MOVLW  1F
4404:  MOVWF  FE9
4406:  MOVLW  00
4408:  CALL   0852
440C:  TBLRD*-
440E:  TBLRD*+
4410:  MOVF   FF5,W
4412:  MOVWF  FEE
4414:  IORLW  00
4416:  BNZ   440E
....................          displayMenu(Menus.Letra,50,45,0,2); 
4418:  MOVLW  06
441A:  MOVLB  6
441C:  MOVWF  x40
441E:  MOVLW  1F
4420:  MOVWF  x3F
4422:  MOVLW  32
4424:  MOVWF  x41
4426:  MOVLW  2D
4428:  MOVWF  x42
442A:  CLRF   x43
442C:  MOVLW  02
442E:  MOVWF  x44
4430:  MOVLB  0
4432:  CALL   1294
4436:  MOVLB  5
....................          } 
....................          if(Opcion==1) 
4438:  DECFSZ x9E,W
443A:  BRA    44B2
....................          {strcpy(Menus.Letra,"SI"); 
443C:  MOVLW  06
443E:  MOVWF  FEA
4440:  MOVLW  1F
4442:  MOVWF  FE9
4444:  MOVLW  00
4446:  MOVLB  0
4448:  CALL   083E
444C:  TBLRD*-
444E:  TBLRD*+
4450:  MOVF   FF5,W
4452:  MOVWF  FEE
4454:  IORLW  00
4456:  BNZ   444E
....................          displayMenu(Menus.Letra,50,25,0,2); 
4458:  MOVLW  06
445A:  MOVLB  6
445C:  MOVWF  x40
445E:  MOVLW  1F
4460:  MOVWF  x3F
4462:  MOVLW  32
4464:  MOVWF  x41
4466:  MOVLW  19
4468:  MOVWF  x42
446A:  CLRF   x43
446C:  MOVLW  02
446E:  MOVWF  x44
4470:  MOVLB  0
4472:  CALL   1294
....................          strcpy(Menus.Letra,"NO"); 
4476:  MOVLW  06
4478:  MOVWF  FEA
447A:  MOVLW  1F
447C:  MOVWF  FE9
447E:  MOVLW  00
4480:  CALL   0852
4484:  TBLRD*-
4486:  TBLRD*+
4488:  MOVF   FF5,W
448A:  MOVWF  FEE
448C:  IORLW  00
448E:  BNZ   4486
....................          displayMenu(Menus.Letra,50,45,1,2); 
4490:  MOVLW  06
4492:  MOVLB  6
4494:  MOVWF  x40
4496:  MOVLW  1F
4498:  MOVWF  x3F
449A:  MOVLW  32
449C:  MOVWF  x41
449E:  MOVLW  2D
44A0:  MOVWF  x42
44A2:  MOVLW  01
44A4:  MOVWF  x43
44A6:  MOVLW  02
44A8:  MOVWF  x44
44AA:  MOVLB  0
44AC:  CALL   1294
44B0:  MOVLB  5
....................          } 
....................         
....................        
....................          
....................       if(UP)//Si oprime hacia arriba 
44B2:  BSF    F92.5
44B4:  BTFSS  F80.5
44B6:  BRA    44C0
....................       { 
....................          if(Opcion<2) 
44B8:  MOVF   x9E,W
44BA:  SUBLW  01
44BC:  BNC   44C0
....................          { 
....................             Opcion++; 
44BE:  INCF   x9E,F
....................          } 
....................       } 
....................              
....................       if(DOWN)//Si oprime hacia abajo 
44C0:  BSF    F96.0
44C2:  BTFSS  F84.0
44C4:  BRA    44CE
....................       {   
....................          if(Opcion>1) 
44C6:  MOVF   x9E,W
44C8:  SUBLW  01
44CA:  BC    44CE
....................          { 
....................             Opcion--; 
44CC:  DECF   x9E,F
....................          }   
....................       } 
....................              
....................       if(RIGHT)//Si oprime SET 
44CE:  BSF    F96.1
44D0:  BTFSS  F84.1
44D2:  BRA    45A0
....................       {   
....................          if(Opcion==2) 
44D4:  MOVF   x9E,W
44D6:  SUBLW  02
44D8:  BNZ   4572
....................          { 
....................             if(Setpoint<Temperatura) 
44DA:  MOVFF  5AE,646
44DE:  MOVFF  5AD,645
44E2:  MOVLB  0
44E4:  CALL   0BA0
44E8:  MOVFF  03,642
44EC:  MOVFF  02,641
44F0:  MOVFF  01,640
44F4:  MOVFF  00,63F
44F8:  MOVFF  60A,646
44FC:  MOVFF  609,645
4500:  MOVFF  608,644
4504:  MOVFF  607,643
4508:  CALL   0BD6
450C:  BNC   4518
....................             { 
....................                Enfria=1; 
450E:  MOVLW  01
4510:  MOVLB  5
4512:  MOVWF  x97
....................             } 
4514:  BRA    451C
4516:  MOVLB  0
....................             else 
....................             { 
....................                Enfria=0; 
4518:  MOVLB  5
451A:  CLRF   x97
....................             } 
....................             Menu=20;glcd_rect(15, 18, 30, 53, NO, ON);tiempo_secado=0;glcd_fillScreen(OFF);pausa=0; 
451C:  MOVLW  14
451E:  MOVWF  x98
4520:  MOVLW  0F
4522:  MOVLB  6
4524:  MOVWF  x52
4526:  MOVLW  12
4528:  MOVWF  x53
452A:  MOVLW  1E
452C:  MOVWF  x54
452E:  MOVLW  35
4530:  MOVWF  x55
4532:  CLRF   x56
4534:  MOVLW  01
4536:  MOVWF  x57
4538:  MOVLB  0
453A:  CALL   11D2
453E:  MOVLB  5
4540:  CLRF   xA0
4542:  MOVLB  6
4544:  CLRF   x40
4546:  MOVLB  0
4548:  CALL   0C90
454C:  MOVLB  5
454E:  CLRF   x9B
....................             /*Ganancia=Setpoint*(Ganancia/Coeficiente); 
....................             Tpulsomin=(Setpoint/150.0);*/ 
....................             Gananciamax=Setpoint; 
4550:  MOVFF  5AE,646
4554:  MOVFF  5AD,645
4558:  MOVLB  0
455A:  CALL   0BA0
455E:  MOVFF  03,5BE
4562:  MOVFF  02,5BD
4566:  MOVFF  01,5BC
456A:  MOVFF  00,5BB
....................             //Gananciamax=(0.27)*Setpoint; 
....................          } 
456E:  BRA    45A2
4570:  MOVLB  5
....................          else 
....................          { 
....................             delay_ms(700);Menu=1;glcd_fillscreen(OFF);Opcion=1;visual=1; 
4572:  MOVLW  04
4574:  MOVLB  6
4576:  MOVWF  x3F
4578:  MOVLW  AF
457A:  MOVWF  x45
457C:  MOVLB  0
457E:  CALL   0B76
4582:  MOVLB  6
4584:  DECFSZ x3F,F
4586:  BRA    4578
4588:  MOVLW  01
458A:  MOVLB  5
458C:  MOVWF  x98
458E:  MOVLB  6
4590:  CLRF   x40
4592:  MOVLB  0
4594:  CALL   0C90
4598:  MOVLW  01
459A:  MOVLB  5
459C:  MOVWF  x9E
459E:  BSF    x93.3
45A0:  MOVLB  0
....................          } 
....................       }  
....................                    
....................       if(LEFT)//Si oprime boton de Toma. 
45A2:  BSF    F96.2
45A4:  BTFSS  F84.2
45A6:  BRA    45D8
....................       { 
....................          delay_ms(700);Menu=1;glcd_fillscreen(OFF);Opcion=1;visual=1; 
45A8:  MOVLW  04
45AA:  MOVLB  6
45AC:  MOVWF  x3F
45AE:  MOVLW  AF
45B0:  MOVWF  x45
45B2:  MOVLB  0
45B4:  CALL   0B76
45B8:  MOVLB  6
45BA:  DECFSZ x3F,F
45BC:  BRA    45AE
45BE:  MOVLW  01
45C0:  MOVLB  5
45C2:  MOVWF  x98
45C4:  MOVLB  6
45C6:  CLRF   x40
45C8:  MOVLB  0
45CA:  CALL   0C90
45CE:  MOVLW  01
45D0:  MOVLB  5
45D2:  MOVWF  x9E
45D4:  BSF    x93.3
45D6:  MOVLB  0
....................       } 
....................      
....................      
....................     } 
.................... //_--------------------------------------------------------------------------------------------------------------------------------------------------------        
....................  
.................... //_--------------------------------------------------------------------------------------------------------------------------------------------------------       
....................       if(Menu==5){ // Menu de Temperatura 
45D8:  MOVLB  5
45DA:  MOVF   x98,W
45DC:  SUBLW  05
45DE:  BTFSS  FD8.2
45E0:  BRA    47DE
....................       if(Setpoint>70) 
45E2:  MOVF   xAE,F
45E4:  BNZ   45EC
45E6:  MOVF   xAD,W
45E8:  SUBLW  46
45EA:  BC    45F2
....................          Setpoint=70; 
45EC:  CLRF   xAE
45EE:  MOVLW  46
45F0:  MOVWF  xAD
....................           
....................       if(Setpoint<1) 
45F2:  MOVF   xAD,F
45F4:  BNZ   4600
45F6:  MOVF   xAE,F
45F8:  BNZ   4600
....................          Setpoint=1;   
45FA:  CLRF   xAE
45FC:  MOVLW  01
45FE:  MOVWF  xAD
....................        
....................       glcd_circle(85,30,3,NO,ON); 
4600:  MOVLW  55
4602:  MOVLB  6
4604:  MOVWF  x3F
4606:  MOVLW  1E
4608:  MOVWF  x40
460A:  MOVLW  03
460C:  MOVWF  x41
460E:  CLRF   x42
4610:  MOVLW  01
4612:  MOVWF  x43
4614:  MOVLB  0
4616:  CALL   1E88
....................       strcpy(Menus.Letra,"C");displayMenu(Menus.Letra,92,30,2,3); 
461A:  MOVLW  06
461C:  MOVWF  FEA
461E:  MOVLW  1F
4620:  MOVWF  FE9
4622:  MOVLW  00
4624:  CALL   0866
4628:  TBLRD*-
462A:  TBLRD*+
462C:  MOVF   FF5,W
462E:  MOVWF  FEE
4630:  IORLW  00
4632:  BNZ   462A
4634:  MOVLW  06
4636:  MOVLB  6
4638:  MOVWF  x40
463A:  MOVLW  1F
463C:  MOVWF  x3F
463E:  MOVLW  5C
4640:  MOVWF  x41
4642:  MOVLW  1E
4644:  MOVWF  x42
4646:  MOVLW  02
4648:  MOVWF  x43
464A:  MOVLW  03
464C:  MOVWF  x44
464E:  MOVLB  0
4650:  CALL   1294
....................        
....................          //glcd_fillScreen(OFF); 
....................          strcpy(Menus.Letra,"Temperatura"); 
4654:  MOVLW  06
4656:  MOVWF  FEA
4658:  MOVLW  1F
465A:  MOVWF  FE9
465C:  MOVLW  00
465E:  CALL   07CC
4662:  TBLRD*-
4664:  TBLRD*+
4666:  MOVF   FF5,W
4668:  MOVWF  FEE
466A:  IORLW  00
466C:  BNZ   4664
....................          displayMenu(Menus.Letra,0,0,1,2); 
466E:  MOVLW  06
4670:  MOVLB  6
4672:  MOVWF  x40
4674:  MOVLW  1F
4676:  MOVWF  x3F
4678:  CLRF   x41
467A:  CLRF   x42
467C:  MOVLW  01
467E:  MOVWF  x43
4680:  MOVLW  02
4682:  MOVWF  x44
4684:  MOVLB  0
4686:  CALL   1294
....................           
....................          displayTemperatura(Setpoint,30,30,0,3); 
468A:  MOVFF  5AE,642
468E:  MOVFF  5AD,641
4692:  MOVLW  1E
4694:  MOVLB  6
4696:  MOVWF  x43
4698:  MOVWF  x44
469A:  CLRF   x45
469C:  MOVLW  03
469E:  MOVWF  x46
46A0:  MOVLB  0
46A2:  CALL   2178
....................        
....................          if(UP)//Si oprime hacia arriba 
46A6:  BSF    F92.5
46A8:  BTFSS  F80.5
46AA:  BRA    46E0
....................          {   
....................             //glcd_fillScreen(OFF); 
....................             glcd_rect(30, 30, 80, 55, YES, OFF); 
46AC:  MOVLW  1E
46AE:  MOVLB  6
46B0:  MOVWF  x52
46B2:  MOVWF  x53
46B4:  MOVLW  50
46B6:  MOVWF  x54
46B8:  MOVLW  37
46BA:  MOVWF  x55
46BC:  MOVLW  01
46BE:  MOVWF  x56
46C0:  CLRF   x57
46C2:  MOVLB  0
46C4:  CALL   11D2
....................             delay_ms(30);Setpoint++;visual=1; 
46C8:  MOVLW  1E
46CA:  MOVLB  6
46CC:  MOVWF  x45
46CE:  MOVLB  0
46D0:  CALL   0B76
46D4:  MOVLB  5
46D6:  INCF   xAD,F
46D8:  BTFSC  FD8.2
46DA:  INCF   xAE,F
46DC:  BSF    x93.3
46DE:  MOVLB  0
....................              
....................          } 
....................                 
....................          if(DOWN)//Si oprime hacia abajo 
46E0:  BSF    F96.0
46E2:  BTFSS  F84.0
46E4:  BRA    471C
....................          {   
....................             //glcd_fillScreen(OFF); 
....................             glcd_rect(30, 30, 80, 55, YES, OFF); 
46E6:  MOVLW  1E
46E8:  MOVLB  6
46EA:  MOVWF  x52
46EC:  MOVWF  x53
46EE:  MOVLW  50
46F0:  MOVWF  x54
46F2:  MOVLW  37
46F4:  MOVWF  x55
46F6:  MOVLW  01
46F8:  MOVWF  x56
46FA:  CLRF   x57
46FC:  MOVLB  0
46FE:  CALL   11D2
....................             delay_ms(30);Setpoint--;visual=1;      
4702:  MOVLW  1E
4704:  MOVLB  6
4706:  MOVWF  x45
4708:  MOVLB  0
470A:  CALL   0B76
470E:  MOVLB  5
4710:  MOVF   xAD,W
4712:  BTFSC  FD8.2
4714:  DECF   xAE,F
4716:  DECF   xAD,F
4718:  BSF    x93.3
471A:  MOVLB  0
....................          } 
....................                 
....................          if(RIGHT)//Si oprime SET 
471C:  BSF    F96.1
471E:  BTFSS  F84.1
4720:  BRA    4734
....................          {   
....................             delay_ms(30);visual=1; 
4722:  MOVLW  1E
4724:  MOVLB  6
4726:  MOVWF  x45
4728:  MOVLB  0
472A:  CALL   0B76
472E:  MOVLB  5
4730:  BSF    x93.3
4732:  MOVLB  0
....................          }  
....................                    
....................          if(LEFT)//Si oprime boton de Toma. 
4734:  BSF    F96.2
4736:  BTFSS  F84.2
4738:  BRA    47DC
....................          { 
....................             delay_ms(700);Menu=1;glcd_fillscreen(OFF);Opcion=1;visual=1; 
473A:  MOVLW  04
473C:  MOVLB  6
473E:  MOVWF  x3F
4740:  MOVLW  AF
4742:  MOVWF  x45
4744:  MOVLB  0
4746:  CALL   0B76
474A:  MOVLB  6
474C:  DECFSZ x3F,F
474E:  BRA    4740
4750:  MOVLW  01
4752:  MOVLB  5
4754:  MOVWF  x98
4756:  MOVLB  6
4758:  CLRF   x40
475A:  MOVLB  0
475C:  CALL   0C90
4760:  MOVLW  01
4762:  MOVLB  5
4764:  MOVWF  x9E
4766:  BSF    x93.3
....................             write_eeprom(80,make8(Setpoint,0)); 
4768:  MOVFF  5AD,63F
476C:  MOVF   FF2,W
476E:  MOVWF  00
4770:  BCF    FF2.7
4772:  MOVLW  50
4774:  MOVWF  FA9
4776:  MOVFF  63F,FA8
477A:  BCF    FA6.6
477C:  BCF    FA6.7
477E:  BSF    FA6.2
4780:  MOVLB  F
4782:  MOVLW  55
4784:  MOVWF  FA7
4786:  MOVLW  AA
4788:  MOVWF  FA7
478A:  BSF    FA6.1
478C:  BTFSC  FA6.1
478E:  BRA    478C
4790:  BCF    FA6.2
4792:  MOVF   00,W
4794:  IORWF  FF2,F
....................             delay_ms(50);    
4796:  MOVLW  32
4798:  MOVLB  6
479A:  MOVWF  x45
479C:  MOVLB  0
479E:  CALL   0B76
....................             write_eeprom(81,make8(Setpoint,1));//Guardar valor de Setpoint en eeprom 
47A2:  MOVFF  5AE,63F
47A6:  MOVF   FF2,W
47A8:  MOVWF  00
47AA:  BCF    FF2.7
47AC:  MOVLW  51
47AE:  MOVWF  FA9
47B0:  MOVFF  63F,FA8
47B4:  BCF    FA6.6
47B6:  BCF    FA6.7
47B8:  BSF    FA6.2
47BA:  MOVLB  F
47BC:  MOVLW  55
47BE:  MOVWF  FA7
47C0:  MOVLW  AA
47C2:  MOVWF  FA7
47C4:  BSF    FA6.1
47C6:  BTFSC  FA6.1
47C8:  BRA    47C6
47CA:  BCF    FA6.2
47CC:  MOVF   00,W
47CE:  IORWF  FF2,F
....................             delay_ms(50);    
47D0:  MOVLW  32
47D2:  MOVLB  6
47D4:  MOVWF  x45
47D6:  MOVLB  0
47D8:  CALL   0B76
47DC:  MOVLB  5
....................          } 
....................      } 
.................... //_--------------------------------------------------------------------------------------------------------------------------------------------------------     
....................  
....................  
.................... //_--------------------------------------------------------------------------------------------------------------------------------------------------------       
....................       if(Menu==6){ // Menu de Temporizador 
47DE:  MOVF   x98,W
47E0:  SUBLW  06
47E2:  BTFSS  FD8.2
47E4:  BRA    4B12
....................       
....................        
....................          if(unidad<1) 
47E6:  MOVF   x99,F
47E8:  BNZ   47EE
....................          {unidad=4;} 
47EA:  MOVLW  04
47EC:  MOVWF  x99
....................           
....................          strcpy(Menus.Letra,"Temporiza"); 
47EE:  MOVLW  06
47F0:  MOVWF  FEA
47F2:  MOVLW  1F
47F4:  MOVWF  FE9
47F6:  MOVLW  00
47F8:  MOVLB  0
47FA:  CALL   0878
47FE:  TBLRD*-
4800:  TBLRD*+
4802:  MOVF   FF5,W
4804:  MOVWF  FEE
4806:  IORLW  00
4808:  BNZ   4800
....................          displayMenu(Menus.Letra,0,0,1,2); 
480A:  MOVLW  06
480C:  MOVLB  6
480E:  MOVWF  x40
4810:  MOVLW  1F
4812:  MOVWF  x3F
4814:  CLRF   x41
4816:  CLRF   x42
4818:  MOVLW  01
481A:  MOVWF  x43
481C:  MOVLW  02
481E:  MOVWF  x44
4820:  MOVLB  0
4822:  CALL   1294
....................           
....................          if(unidad==4) 
4826:  MOVLB  5
4828:  MOVF   x99,W
482A:  SUBLW  04
482C:  BNZ   484E
....................          {displayTiempo(Testerilizacionp[3],20,40,1,2);} 
482E:  MOVFF  5C6,640
4832:  MOVLW  14
4834:  MOVLB  6
4836:  MOVWF  x41
4838:  MOVLW  28
483A:  MOVWF  x42
483C:  MOVLW  01
483E:  MOVWF  x43
4840:  MOVLW  02
4842:  MOVWF  x44
4844:  MOVLB  0
4846:  CALL   23B8
484A:  BRA    4868
484C:  MOVLB  5
....................          else 
....................          {displayTiempo(Testerilizacionp[3],20,40,0,2);} 
484E:  MOVFF  5C6,640
4852:  MOVLW  14
4854:  MOVLB  6
4856:  MOVWF  x41
4858:  MOVLW  28
485A:  MOVWF  x42
485C:  CLRF   x43
485E:  MOVLW  02
4860:  MOVWF  x44
4862:  MOVLB  0
4864:  CALL   23B8
....................           
....................          if(unidad==3) 
4868:  MOVLB  5
486A:  MOVF   x99,W
486C:  SUBLW  03
486E:  BNZ   488E
....................          {displayTiempo(Testerilizacionp[2],40,40,1,2);} 
4870:  MOVFF  5C5,640
4874:  MOVLW  28
4876:  MOVLB  6
4878:  MOVWF  x41
487A:  MOVWF  x42
487C:  MOVLW  01
487E:  MOVWF  x43
4880:  MOVLW  02
4882:  MOVWF  x44
4884:  MOVLB  0
4886:  CALL   23B8
488A:  BRA    48A6
488C:  MOVLB  5
....................          else 
....................          {displayTiempo(Testerilizacionp[2],40,40,0,2);} 
488E:  MOVFF  5C5,640
4892:  MOVLW  28
4894:  MOVLB  6
4896:  MOVWF  x41
4898:  MOVWF  x42
489A:  CLRF   x43
489C:  MOVLW  02
489E:  MOVWF  x44
48A0:  MOVLB  0
48A2:  CALL   23B8
....................           
....................          if(unidad==2) 
48A6:  MOVLB  5
48A8:  MOVF   x99,W
48AA:  SUBLW  02
48AC:  BNZ   48CE
....................          {displayTiempo(Testerilizacionp[1],70,40,1,2);} 
48AE:  MOVFF  5C4,640
48B2:  MOVLW  46
48B4:  MOVLB  6
48B6:  MOVWF  x41
48B8:  MOVLW  28
48BA:  MOVWF  x42
48BC:  MOVLW  01
48BE:  MOVWF  x43
48C0:  MOVLW  02
48C2:  MOVWF  x44
48C4:  MOVLB  0
48C6:  CALL   23B8
48CA:  BRA    48E8
48CC:  MOVLB  5
....................          else 
....................          {displayTiempo(Testerilizacionp[1],70,40,0,2);} 
48CE:  MOVFF  5C4,640
48D2:  MOVLW  46
48D4:  MOVLB  6
48D6:  MOVWF  x41
48D8:  MOVLW  28
48DA:  MOVWF  x42
48DC:  CLRF   x43
48DE:  MOVLW  02
48E0:  MOVWF  x44
48E2:  MOVLB  0
48E4:  CALL   23B8
....................           
....................          if(unidad==1) 
48E8:  MOVLB  5
48EA:  DECFSZ x99,W
48EC:  BRA    490E
....................          {displayTiempo(Testerilizacionp[0],90,40,1,2);} 
48EE:  MOVFF  5C3,640
48F2:  MOVLW  5A
48F4:  MOVLB  6
48F6:  MOVWF  x41
48F8:  MOVLW  28
48FA:  MOVWF  x42
48FC:  MOVLW  01
48FE:  MOVWF  x43
4900:  MOVLW  02
4902:  MOVWF  x44
4904:  MOVLB  0
4906:  CALL   23B8
490A:  BRA    4928
490C:  MOVLB  5
....................          else 
....................          {displayTiempo(Testerilizacionp[0],90,40,0,2);} 
490E:  MOVFF  5C3,640
4912:  MOVLW  5A
4914:  MOVLB  6
4916:  MOVWF  x41
4918:  MOVLW  28
491A:  MOVWF  x42
491C:  CLRF   x43
491E:  MOVLW  02
4920:  MOVWF  x44
4922:  MOVLB  0
4924:  CALL   23B8
....................           
....................          strcpy(Menus.Letra,":"); 
4928:  MOVLW  06
492A:  MOVWF  FEA
492C:  MOVLW  1F
492E:  MOVWF  FE9
4930:  MOVLW  00
4932:  CALL   0892
4936:  TBLRD*-
4938:  TBLRD*+
493A:  MOVF   FF5,W
493C:  MOVWF  FEE
493E:  IORLW  00
4940:  BNZ   4938
....................          displayMenu(Menus.Letra,60,42,2,2);            
4942:  MOVLW  06
4944:  MOVLB  6
4946:  MOVWF  x40
4948:  MOVLW  1F
494A:  MOVWF  x3F
494C:  MOVLW  3C
494E:  MOVWF  x41
4950:  MOVLW  2A
4952:  MOVWF  x42
4954:  MOVLW  02
4956:  MOVWF  x43
4958:  MOVWF  x44
495A:  MOVLB  0
495C:  CALL   1294
....................        
....................          if(UP)//Si oprime hacia arriba 
4960:  BSF    F92.5
4962:  BTFSS  F80.5
4964:  BRA    49A6
....................          {   
....................             if(Testerilizacionp[unidad-1]<9) 
4966:  MOVLW  01
4968:  MOVLB  5
496A:  SUBWF  x99,W
496C:  CLRF   03
496E:  ADDLW  C3
4970:  MOVWF  FE9
4972:  MOVLW  05
4974:  ADDWFC 03,W
4976:  MOVWF  FEA
4978:  BTFSC  FEF.7
497A:  BRA    4982
497C:  MOVF   FEF,W
497E:  SUBLW  08
4980:  BNC   49A4
....................             { 
....................                delay_ms(30);Testerilizacionp[unidad-1]++;visual=1; 
4982:  MOVLW  1E
4984:  MOVLB  6
4986:  MOVWF  x45
4988:  MOVLB  0
498A:  CALL   0B76
498E:  MOVLW  01
4990:  MOVLB  5
4992:  SUBWF  x99,W
4994:  CLRF   03
4996:  ADDLW  C3
4998:  MOVWF  FE9
499A:  MOVLW  05
499C:  ADDWFC 03,W
499E:  MOVWF  FEA
49A0:  INCF   FEF,F
49A2:  BSF    x93.3
49A4:  MOVLB  0
....................             } 
....................          } 
....................                 
....................          if(DOWN)//Si oprime hacia abajo 
49A6:  BSF    F96.0
49A8:  BTFSS  F84.0
49AA:  BRA    49EC
....................          {   
....................             if(Testerilizacionp[unidad-1]>0) 
49AC:  MOVLW  01
49AE:  MOVLB  5
49B0:  SUBWF  x99,W
49B2:  CLRF   03
49B4:  ADDLW  C3
49B6:  MOVWF  FE9
49B8:  MOVLW  05
49BA:  ADDWFC 03,W
49BC:  MOVWF  FEA
49BE:  BTFSC  FEF.7
49C0:  BRA    49EA
49C2:  MOVF   FEF,W
49C4:  SUBLW  00
49C6:  BC    49EA
....................             { 
....................                delay_ms(30);Testerilizacionp[unidad-1]--;visual=1;      
49C8:  MOVLW  1E
49CA:  MOVLB  6
49CC:  MOVWF  x45
49CE:  MOVLB  0
49D0:  CALL   0B76
49D4:  MOVLW  01
49D6:  MOVLB  5
49D8:  SUBWF  x99,W
49DA:  CLRF   03
49DC:  ADDLW  C3
49DE:  MOVWF  FE9
49E0:  MOVLW  05
49E2:  ADDWFC 03,W
49E4:  MOVWF  FEA
49E6:  DECF   FEF,F
49E8:  BSF    x93.3
49EA:  MOVLB  0
....................             } 
....................          } 
....................                 
....................          if(RIGHT)//Si oprime SET 
49EC:  BSF    F96.1
49EE:  BTFSS  F84.1
49F0:  BRA    4A06
....................          {   
....................             delay_ms(30);unidad--;visual=1; 
49F2:  MOVLW  1E
49F4:  MOVLB  6
49F6:  MOVWF  x45
49F8:  MOVLB  0
49FA:  CALL   0B76
49FE:  MOVLB  5
4A00:  DECF   x99,F
4A02:  BSF    x93.3
4A04:  MOVLB  0
....................          }  
....................                    
....................          if(LEFT)//Si oprime boton de Toma. 
4A06:  BSF    F96.2
4A08:  BTFSS  F84.2
4A0A:  BRA    4B10
....................          { 
....................             delay_ms(700);Menu=1;glcd_fillscreen(OFF);Opcion=1;visual=1; 
4A0C:  MOVLW  04
4A0E:  MOVLB  6
4A10:  MOVWF  x3F
4A12:  MOVLW  AF
4A14:  MOVWF  x45
4A16:  MOVLB  0
4A18:  CALL   0B76
4A1C:  MOVLB  6
4A1E:  DECFSZ x3F,F
4A20:  BRA    4A12
4A22:  MOVLW  01
4A24:  MOVLB  5
4A26:  MOVWF  x98
4A28:  MOVLB  6
4A2A:  CLRF   x40
4A2C:  MOVLB  0
4A2E:  CALL   0C90
4A32:  MOVLW  01
4A34:  MOVLB  5
4A36:  MOVWF  x9E
4A38:  BSF    x93.3
....................             write_eeprom(0,Testerilizacionp[0]); 
4A3A:  MOVF   FF2,W
4A3C:  MOVWF  00
4A3E:  BCF    FF2.7
4A40:  CLRF   FA9
4A42:  MOVFF  5C3,FA8
4A46:  BCF    FA6.6
4A48:  BCF    FA6.7
4A4A:  BSF    FA6.2
4A4C:  MOVLB  F
4A4E:  MOVLW  55
4A50:  MOVWF  FA7
4A52:  MOVLW  AA
4A54:  MOVWF  FA7
4A56:  BSF    FA6.1
4A58:  BTFSC  FA6.1
4A5A:  BRA    4A58
4A5C:  BCF    FA6.2
4A5E:  MOVF   00,W
4A60:  IORWF  FF2,F
....................             delay_ms(50);    
4A62:  MOVLW  32
4A64:  MOVLB  6
4A66:  MOVWF  x45
4A68:  MOVLB  0
4A6A:  CALL   0B76
....................             write_eeprom(1,Testerilizacionp[1]); 
4A6E:  MOVF   FF2,W
4A70:  MOVWF  00
4A72:  BCF    FF2.7
4A74:  MOVLW  01
4A76:  MOVWF  FA9
4A78:  MOVFF  5C4,FA8
4A7C:  BCF    FA6.6
4A7E:  BCF    FA6.7
4A80:  BSF    FA6.2
4A82:  MOVLB  F
4A84:  MOVLW  55
4A86:  MOVWF  FA7
4A88:  MOVLW  AA
4A8A:  MOVWF  FA7
4A8C:  BSF    FA6.1
4A8E:  BTFSC  FA6.1
4A90:  BRA    4A8E
4A92:  BCF    FA6.2
4A94:  MOVF   00,W
4A96:  IORWF  FF2,F
....................             delay_ms(50);    
4A98:  MOVLW  32
4A9A:  MOVLB  6
4A9C:  MOVWF  x45
4A9E:  MOVLB  0
4AA0:  CALL   0B76
....................             write_eeprom(2,Testerilizacionp[2]); 
4AA4:  MOVF   FF2,W
4AA6:  MOVWF  00
4AA8:  BCF    FF2.7
4AAA:  MOVLW  02
4AAC:  MOVWF  FA9
4AAE:  MOVFF  5C5,FA8
4AB2:  BCF    FA6.6
4AB4:  BCF    FA6.7
4AB6:  BSF    FA6.2
4AB8:  MOVLB  F
4ABA:  MOVLW  55
4ABC:  MOVWF  FA7
4ABE:  MOVLW  AA
4AC0:  MOVWF  FA7
4AC2:  BSF    FA6.1
4AC4:  BTFSC  FA6.1
4AC6:  BRA    4AC4
4AC8:  BCF    FA6.2
4ACA:  MOVF   00,W
4ACC:  IORWF  FF2,F
....................             delay_ms(50);    
4ACE:  MOVLW  32
4AD0:  MOVLB  6
4AD2:  MOVWF  x45
4AD4:  MOVLB  0
4AD6:  CALL   0B76
....................             write_eeprom(3,Testerilizacionp[3]); 
4ADA:  MOVF   FF2,W
4ADC:  MOVWF  00
4ADE:  BCF    FF2.7
4AE0:  MOVLW  03
4AE2:  MOVWF  FA9
4AE4:  MOVFF  5C6,FA8
4AE8:  BCF    FA6.6
4AEA:  BCF    FA6.7
4AEC:  BSF    FA6.2
4AEE:  MOVLB  F
4AF0:  MOVLW  55
4AF2:  MOVWF  FA7
4AF4:  MOVLW  AA
4AF6:  MOVWF  FA7
4AF8:  BSF    FA6.1
4AFA:  BTFSC  FA6.1
4AFC:  BRA    4AFA
4AFE:  BCF    FA6.2
4B00:  MOVF   00,W
4B02:  IORWF  FF2,F
....................             delay_ms(50);    
4B04:  MOVLW  32
4B06:  MOVLB  6
4B08:  MOVWF  x45
4B0A:  MOVLB  0
4B0C:  CALL   0B76
4B10:  MOVLB  5
....................          } 
....................      } 
.................... //_--------------------------------------------------------------------------------------------------------------------------------------------------------     
....................  
....................  
.................... //_--------------------------------------------------------------------------------------------------------------------------------------------------------       
....................       if(Menu==7){ // Menu de Cambio de Contrasea 
4B12:  MOVF   x98,W
4B14:  SUBLW  07
4B16:  BTFSS  FD8.2
4B18:  BRA    4F9A
....................          
....................       strcpy(Menus.Letra,"Clave"); 
4B1A:  MOVLW  06
4B1C:  MOVWF  FEA
4B1E:  MOVLW  1F
4B20:  MOVWF  FE9
4B22:  MOVLW  00
4B24:  MOVLB  0
4B26:  CALL   074A
4B2A:  TBLRD*-
4B2C:  TBLRD*+
4B2E:  MOVF   FF5,W
4B30:  MOVWF  FEE
4B32:  IORLW  00
4B34:  BNZ   4B2C
....................       displayMenu(Menus.Letra,30,0,1,2);      
4B36:  MOVLW  06
4B38:  MOVLB  6
4B3A:  MOVWF  x40
4B3C:  MOVLW  1F
4B3E:  MOVWF  x3F
4B40:  MOVLW  1E
4B42:  MOVWF  x41
4B44:  CLRF   x42
4B46:  MOVLW  01
4B48:  MOVWF  x43
4B4A:  MOVLW  02
4B4C:  MOVWF  x44
4B4E:  MOVLB  0
4B50:  CALL   1294
....................        
....................       if(unidad==1) 
4B54:  MOVLB  5
4B56:  DECFSZ x99,W
4B58:  BRA    4BB8
....................       { 
....................          displayContrasena(Contrasena[0],20,30,1); 
4B5A:  MOVFF  5C7,641
4B5E:  MOVLW  14
4B60:  MOVLB  6
4B62:  MOVWF  x42
4B64:  MOVLW  1E
4B66:  MOVWF  x43
4B68:  MOVLW  01
4B6A:  MOVWF  x44
4B6C:  MOVLB  0
4B6E:  CALL   149A
....................          displayContrasena(Contrasena[1],40,30,0); 
4B72:  MOVFF  5C8,641
4B76:  MOVLW  28
4B78:  MOVLB  6
4B7A:  MOVWF  x42
4B7C:  MOVLW  1E
4B7E:  MOVWF  x43
4B80:  CLRF   x44
4B82:  MOVLB  0
4B84:  CALL   149A
....................          displayContrasena(Contrasena[2],60,30,0); 
4B88:  MOVFF  5C9,641
4B8C:  MOVLW  3C
4B8E:  MOVLB  6
4B90:  MOVWF  x42
4B92:  MOVLW  1E
4B94:  MOVWF  x43
4B96:  CLRF   x44
4B98:  MOVLB  0
4B9A:  CALL   149A
....................          displayContrasena(Contrasena[3],80,30,0); 
4B9E:  MOVFF  5CA,641
4BA2:  MOVLW  50
4BA4:  MOVLB  6
4BA6:  MOVWF  x42
4BA8:  MOVLW  1E
4BAA:  MOVWF  x43
4BAC:  CLRF   x44
4BAE:  MOVLB  0
4BB0:  CALL   149A
....................       } 
4BB4:  BRA    4CE0
4BB6:  MOVLB  5
....................       else 
....................       { 
....................          if(unidad==2) 
4BB8:  MOVF   x99,W
4BBA:  SUBLW  02
4BBC:  BNZ   4C1C
....................          { 
....................             displayContrasena(Contrasena[0],20,30,0); 
4BBE:  MOVFF  5C7,641
4BC2:  MOVLW  14
4BC4:  MOVLB  6
4BC6:  MOVWF  x42
4BC8:  MOVLW  1E
4BCA:  MOVWF  x43
4BCC:  CLRF   x44
4BCE:  MOVLB  0
4BD0:  CALL   149A
....................             displayContrasena(Contrasena[1],40,30,1); 
4BD4:  MOVFF  5C8,641
4BD8:  MOVLW  28
4BDA:  MOVLB  6
4BDC:  MOVWF  x42
4BDE:  MOVLW  1E
4BE0:  MOVWF  x43
4BE2:  MOVLW  01
4BE4:  MOVWF  x44
4BE6:  MOVLB  0
4BE8:  CALL   149A
....................             displayContrasena(Contrasena[2],60,30,0); 
4BEC:  MOVFF  5C9,641
4BF0:  MOVLW  3C
4BF2:  MOVLB  6
4BF4:  MOVWF  x42
4BF6:  MOVLW  1E
4BF8:  MOVWF  x43
4BFA:  CLRF   x44
4BFC:  MOVLB  0
4BFE:  CALL   149A
....................             displayContrasena(Contrasena[3],80,30,0); 
4C02:  MOVFF  5CA,641
4C06:  MOVLW  50
4C08:  MOVLB  6
4C0A:  MOVWF  x42
4C0C:  MOVLW  1E
4C0E:  MOVWF  x43
4C10:  CLRF   x44
4C12:  MOVLB  0
4C14:  CALL   149A
....................          } 
4C18:  BRA    4CE0
4C1A:  MOVLB  5
....................          else 
....................          { 
....................             if(unidad==3) 
4C1C:  MOVF   x99,W
4C1E:  SUBLW  03
4C20:  BNZ   4C80
....................             { 
....................                displayContrasena(Contrasena[0],20,30,0); 
4C22:  MOVFF  5C7,641
4C26:  MOVLW  14
4C28:  MOVLB  6
4C2A:  MOVWF  x42
4C2C:  MOVLW  1E
4C2E:  MOVWF  x43
4C30:  CLRF   x44
4C32:  MOVLB  0
4C34:  CALL   149A
....................                displayContrasena(Contrasena[1],40,30,0); 
4C38:  MOVFF  5C8,641
4C3C:  MOVLW  28
4C3E:  MOVLB  6
4C40:  MOVWF  x42
4C42:  MOVLW  1E
4C44:  MOVWF  x43
4C46:  CLRF   x44
4C48:  MOVLB  0
4C4A:  CALL   149A
....................                displayContrasena(Contrasena[2],60,30,1); 
4C4E:  MOVFF  5C9,641
4C52:  MOVLW  3C
4C54:  MOVLB  6
4C56:  MOVWF  x42
4C58:  MOVLW  1E
4C5A:  MOVWF  x43
4C5C:  MOVLW  01
4C5E:  MOVWF  x44
4C60:  MOVLB  0
4C62:  CALL   149A
....................                displayContrasena(Contrasena[3],80,30,0); 
4C66:  MOVFF  5CA,641
4C6A:  MOVLW  50
4C6C:  MOVLB  6
4C6E:  MOVWF  x42
4C70:  MOVLW  1E
4C72:  MOVWF  x43
4C74:  CLRF   x44
4C76:  MOVLB  0
4C78:  CALL   149A
....................             } 
4C7C:  BRA    4CE0
4C7E:  MOVLB  5
....................             else 
....................             { 
....................                if(unidad==4) 
4C80:  MOVF   x99,W
4C82:  SUBLW  04
4C84:  BNZ   4CE2
....................                { 
....................                   displayContrasena(Contrasena[0],20,30,0); 
4C86:  MOVFF  5C7,641
4C8A:  MOVLW  14
4C8C:  MOVLB  6
4C8E:  MOVWF  x42
4C90:  MOVLW  1E
4C92:  MOVWF  x43
4C94:  CLRF   x44
4C96:  MOVLB  0
4C98:  CALL   149A
....................                   displayContrasena(Contrasena[1],40,30,0); 
4C9C:  MOVFF  5C8,641
4CA0:  MOVLW  28
4CA2:  MOVLB  6
4CA4:  MOVWF  x42
4CA6:  MOVLW  1E
4CA8:  MOVWF  x43
4CAA:  CLRF   x44
4CAC:  MOVLB  0
4CAE:  CALL   149A
....................                   displayContrasena(Contrasena[2],60,30,0); 
4CB2:  MOVFF  5C9,641
4CB6:  MOVLW  3C
4CB8:  MOVLB  6
4CBA:  MOVWF  x42
4CBC:  MOVLW  1E
4CBE:  MOVWF  x43
4CC0:  CLRF   x44
4CC2:  MOVLB  0
4CC4:  CALL   149A
....................                   displayContrasena(Contrasena[3],80,30,1); 
4CC8:  MOVFF  5CA,641
4CCC:  MOVLW  50
4CCE:  MOVLB  6
4CD0:  MOVWF  x42
4CD2:  MOVLW  1E
4CD4:  MOVWF  x43
4CD6:  MOVLW  01
4CD8:  MOVWF  x44
4CDA:  MOVLB  0
4CDC:  CALL   149A
4CE0:  MOVLB  5
....................                } 
....................             } 
....................          } 
....................       } 
....................        
....................       if(UP)//Si oprime hacia arriba 
4CE2:  BSF    F92.5
4CE4:  BTFSS  F80.5
4CE6:  BRA    4D50
....................       { 
....................          if(Flanco == 0) 
4CE8:  BTFSC  x93.0
4CEA:  BRA    4D4E
....................          { 
....................             Flanco = 1;delay_ms(30); 
4CEC:  BSF    x93.0
4CEE:  MOVLW  1E
4CF0:  MOVLB  6
4CF2:  MOVWF  x45
4CF4:  MOVLB  0
4CF6:  CALL   0B76
....................             for(i=1;i<=4;i++) 
4CFA:  MOVLW  01
4CFC:  MOVLB  5
4CFE:  MOVWF  x9A
4D00:  MOVF   x9A,W
4D02:  SUBLW  04
4D04:  BNC   4D4E
....................             { 
....................                if(unidad==i) 
4D06:  MOVF   x9A,W
4D08:  SUBWF  x99,W
4D0A:  BNZ   4D4A
....................                { 
....................                   Contrasena[i-1]++; 
4D0C:  MOVLW  01
4D0E:  SUBWF  x9A,W
4D10:  CLRF   03
4D12:  ADDLW  C7
4D14:  MOVWF  FE9
4D16:  MOVLW  05
4D18:  ADDWFC 03,W
4D1A:  MOVWF  FEA
4D1C:  INCF   FEF,F
....................                   if(Contrasena[i-1]>9)    
4D1E:  MOVLW  01
4D20:  SUBWF  x9A,W
4D22:  CLRF   03
4D24:  ADDLW  C7
4D26:  MOVWF  FE9
4D28:  MOVLW  05
4D2A:  ADDWFC 03,W
4D2C:  MOVWF  FEA
4D2E:  BTFSC  FEF.7
4D30:  BRA    4D4A
4D32:  MOVF   FEF,W
4D34:  SUBLW  09
4D36:  BC    4D4A
....................                   { 
....................                      Contrasena[i-1]=0; 
4D38:  MOVLW  01
4D3A:  SUBWF  x9A,W
4D3C:  CLRF   03
4D3E:  ADDLW  C7
4D40:  MOVWF  FE9
4D42:  MOVLW  05
4D44:  ADDWFC 03,W
4D46:  MOVWF  FEA
4D48:  CLRF   FEF
....................                   } 
....................                } 
4D4A:  INCF   x9A,F
4D4C:  BRA    4D00
....................             } 
....................          } 
....................       } 
4D4E:  BRA    4D52
....................       else 
....................       { 
....................          Flanco = 0; 
4D50:  BCF    x93.0
....................       } 
....................              
....................       if(DOWN)//Si oprime hacia abajo 
4D52:  BSF    F96.0
4D54:  BTFSS  F84.0
4D56:  BRA    4DBC
....................       { 
....................          if(Flanco2 == 0) 
4D58:  BTFSC  x93.2
4D5A:  BRA    4DBA
....................             {Flanco2 = 1;delay_ms(30); 
4D5C:  BSF    x93.2
4D5E:  MOVLW  1E
4D60:  MOVLB  6
4D62:  MOVWF  x45
4D64:  MOVLB  0
4D66:  CALL   0B76
....................                for(i=1;i<=4;i++) 
4D6A:  MOVLW  01
4D6C:  MOVLB  5
4D6E:  MOVWF  x9A
4D70:  MOVF   x9A,W
4D72:  SUBLW  04
4D74:  BNC   4DBA
....................                { 
....................                   if(unidad==i) 
4D76:  MOVF   x9A,W
4D78:  SUBWF  x99,W
4D7A:  BNZ   4DB6
....................                   {Contrasena[i-1]--;  
4D7C:  MOVLW  01
4D7E:  SUBWF  x9A,W
4D80:  CLRF   03
4D82:  ADDLW  C7
4D84:  MOVWF  FE9
4D86:  MOVLW  05
4D88:  ADDWFC 03,W
4D8A:  MOVWF  FEA
4D8C:  DECF   FEF,F
....................                      if(Contrasena[i-1]<0) 
4D8E:  MOVLW  01
4D90:  SUBWF  x9A,W
4D92:  CLRF   03
4D94:  ADDLW  C7
4D96:  MOVWF  FE9
4D98:  MOVLW  05
4D9A:  ADDWFC 03,W
4D9C:  MOVWF  FEA
4D9E:  BTFSS  FEF.7
4DA0:  BRA    4DB6
....................                         {Contrasena[i-1]=9;} 
4DA2:  MOVLW  01
4DA4:  SUBWF  x9A,W
4DA6:  CLRF   03
4DA8:  ADDLW  C7
4DAA:  MOVWF  FE9
4DAC:  MOVLW  05
4DAE:  ADDWFC 03,W
4DB0:  MOVWF  FEA
4DB2:  MOVLW  09
4DB4:  MOVWF  FEF
....................                   } 
4DB6:  INCF   x9A,F
4DB8:  BRA    4D70
....................                }       
....................             }      
....................       } 
4DBA:  BRA    4DBE
....................       else 
....................       { 
....................          Flanco2 = 0; 
4DBC:  BCF    x93.2
....................       } 
....................              
....................       if(RIGHT)//Si oprime RIGHT 
4DBE:  BSF    F96.1
4DC0:  BTFSS  F84.1
4DC2:  BRA    4DE6
....................       { 
....................          if(Flanco1 == 0) 
4DC4:  BTFSC  x93.1
4DC6:  BRA    4DE4
....................             {Flanco1 = 1;delay_ms(300);unidad++;} 
4DC8:  BSF    x93.1
4DCA:  MOVLW  02
4DCC:  MOVLB  6
4DCE:  MOVWF  x3F
4DD0:  MOVLW  96
4DD2:  MOVWF  x45
4DD4:  MOVLB  0
4DD6:  CALL   0B76
4DDA:  MOVLB  6
4DDC:  DECFSZ x3F,F
4DDE:  BRA    4DD0
4DE0:  MOVLB  5
4DE2:  INCF   x99,F
....................       } 
4DE4:  BRA    4DE8
....................       else 
....................       { 
....................          Flanco1 = 0; 
4DE6:  BCF    x93.1
....................       } 
....................        
....................       if(LEFT)//Si oprime Izquierda 
4DE8:  BSF    F96.2
4DEA:  BTFSS  F84.2
4DEC:  BRA    4E16
....................       { 
....................          delay_ms(700);Menu=1;glcd_fillscreen(OFF); 
4DEE:  MOVLW  04
4DF0:  MOVLB  6
4DF2:  MOVWF  x3F
4DF4:  MOVLW  AF
4DF6:  MOVWF  x45
4DF8:  MOVLB  0
4DFA:  CALL   0B76
4DFE:  MOVLB  6
4E00:  DECFSZ x3F,F
4E02:  BRA    4DF4
4E04:  MOVLW  01
4E06:  MOVLB  5
4E08:  MOVWF  x98
4E0A:  MOVLB  6
4E0C:  CLRF   x40
4E0E:  MOVLB  0
4E10:  CALL   0C90
4E14:  MOVLB  5
....................       } 
....................        
....................       if(unidad>4) 
4E16:  MOVF   x99,W
4E18:  SUBLW  04
4E1A:  BTFSC  FD8.0
4E1C:  BRA    4F9A
....................       {glcd_fillScreen(OFF); 
4E1E:  MOVLB  6
4E20:  CLRF   x40
4E22:  MOVLB  0
4E24:  CALL   0C90
....................           
....................          if((Contrasena[0]==Password[0])&&(Contrasena[1]==Password[1])&&(Contrasena[2]==Password[2])&&(Contrasena[3]==Password[3])) 
4E28:  MOVLB  5
4E2A:  MOVF   xCB,W
4E2C:  SUBWF  xC7,W
4E2E:  BNZ   4EEC
4E30:  MOVF   xCC,W
4E32:  SUBWF  xC8,W
4E34:  BNZ   4EEC
4E36:  MOVF   xCD,W
4E38:  SUBWF  xC9,W
4E3A:  BNZ   4EEC
4E3C:  MOVF   xCE,W
4E3E:  SUBWF  xCA,W
4E40:  BNZ   4EEC
....................          { 
....................             glcd_fillScreen(OFF); 
4E42:  MOVLB  6
4E44:  CLRF   x40
4E46:  MOVLB  0
4E48:  CALL   0C90
....................             strcpy(Menus.Letra,"Clave"); 
4E4C:  MOVLW  06
4E4E:  MOVWF  FEA
4E50:  MOVLW  1F
4E52:  MOVWF  FE9
4E54:  MOVLW  00
4E56:  CALL   074A
4E5A:  TBLRD*-
4E5C:  TBLRD*+
4E5E:  MOVF   FF5,W
4E60:  MOVWF  FEE
4E62:  IORLW  00
4E64:  BNZ   4E5C
....................             displayMenu(Menus.Letra,30,0,0,2); 
4E66:  MOVLW  06
4E68:  MOVLB  6
4E6A:  MOVWF  x40
4E6C:  MOVLW  1F
4E6E:  MOVWF  x3F
4E70:  MOVLW  1E
4E72:  MOVWF  x41
4E74:  CLRF   x42
4E76:  CLRF   x43
4E78:  MOVLW  02
4E7A:  MOVWF  x44
4E7C:  MOVLB  0
4E7E:  CALL   1294
....................             strcpy(Menus.Letra,"Correcta"); 
4E82:  MOVLW  06
4E84:  MOVWF  FEA
4E86:  MOVLW  1F
4E88:  MOVWF  FE9
4E8A:  MOVLW  00
4E8C:  CALL   0760
4E90:  TBLRD*-
4E92:  TBLRD*+
4E94:  MOVF   FF5,W
4E96:  MOVWF  FEE
4E98:  IORLW  00
4E9A:  BNZ   4E92
....................             displayMenu(Menus.Letra,15,30,0,2); 
4E9C:  MOVLW  06
4E9E:  MOVLB  6
4EA0:  MOVWF  x40
4EA2:  MOVLW  1F
4EA4:  MOVWF  x3F
4EA6:  MOVLW  0F
4EA8:  MOVWF  x41
4EAA:  MOVLW  1E
4EAC:  MOVWF  x42
4EAE:  CLRF   x43
4EB0:  MOVLW  02
4EB2:  MOVWF  x44
4EB4:  MOVLB  0
4EB6:  CALL   1294
....................             Menu=91;glcd_update();delay_ms(1000); 
4EBA:  MOVLW  5B
4EBC:  MOVLB  5
4EBE:  MOVWF  x98
4EC0:  MOVLB  0
4EC2:  CALL   0CEA
4EC6:  MOVLW  04
4EC8:  MOVLB  6
4ECA:  MOVWF  x3F
4ECC:  MOVLW  FA
4ECE:  MOVWF  x45
4ED0:  MOVLB  0
4ED2:  CALL   0B76
4ED6:  MOVLB  6
4ED8:  DECFSZ x3F,F
4EDA:  BRA    4ECC
....................             glcd_fillScreen(OFF);unidad=1; 
4EDC:  CLRF   x40
4EDE:  MOVLB  0
4EE0:  CALL   0C90
4EE4:  MOVLW  01
4EE6:  MOVLB  5
4EE8:  MOVWF  x99
....................          }// Esta parte se puede agregar en el Menu 1 dependiendo de la ubicacin del vidrio. 
4EEA:  BRA    4F9A
....................          else 
....................          { 
....................             glcd_fillScreen(OFF); 
4EEC:  MOVLB  6
4EEE:  CLRF   x40
4EF0:  MOVLB  0
4EF2:  CALL   0C90
....................             strcpy(Menus.Letra,"Clave"); 
4EF6:  MOVLW  06
4EF8:  MOVWF  FEA
4EFA:  MOVLW  1F
4EFC:  MOVWF  FE9
4EFE:  MOVLW  00
4F00:  CALL   074A
4F04:  TBLRD*-
4F06:  TBLRD*+
4F08:  MOVF   FF5,W
4F0A:  MOVWF  FEE
4F0C:  IORLW  00
4F0E:  BNZ   4F06
....................             displayMenu(Menus.Letra,30,0,0,2); 
4F10:  MOVLW  06
4F12:  MOVLB  6
4F14:  MOVWF  x40
4F16:  MOVLW  1F
4F18:  MOVWF  x3F
4F1A:  MOVLW  1E
4F1C:  MOVWF  x41
4F1E:  CLRF   x42
4F20:  CLRF   x43
4F22:  MOVLW  02
4F24:  MOVWF  x44
4F26:  MOVLB  0
4F28:  CALL   1294
....................             strcpy(Menus.Letra,"Incorrecta"); 
4F2C:  MOVLW  06
4F2E:  MOVWF  FEA
4F30:  MOVLW  1F
4F32:  MOVWF  FE9
4F34:  MOVLW  00
4F36:  CALL   077A
4F3A:  TBLRD*-
4F3C:  TBLRD*+
4F3E:  MOVF   FF5,W
4F40:  MOVWF  FEE
4F42:  IORLW  00
4F44:  BNZ   4F3C
....................             displayMenu(Menus.Letra,0,30,0,2); 
4F46:  MOVLW  06
4F48:  MOVLB  6
4F4A:  MOVWF  x40
4F4C:  MOVLW  1F
4F4E:  MOVWF  x3F
4F50:  CLRF   x41
4F52:  MOVLW  1E
4F54:  MOVWF  x42
4F56:  CLRF   x43
4F58:  MOVLW  02
4F5A:  MOVWF  x44
4F5C:  MOVLB  0
4F5E:  CALL   1294
....................             Menu=1;glcd_update();delay_ms(1000); 
4F62:  MOVLW  01
4F64:  MOVLB  5
4F66:  MOVWF  x98
4F68:  MOVLB  0
4F6A:  CALL   0CEA
4F6E:  MOVLW  04
4F70:  MOVLB  6
4F72:  MOVWF  x3F
4F74:  MOVLW  FA
4F76:  MOVWF  x45
4F78:  MOVLB  0
4F7A:  CALL   0B76
4F7E:  MOVLB  6
4F80:  DECFSZ x3F,F
4F82:  BRA    4F74
....................             glcd_fillScreen(OFF);unidad=1; 
4F84:  CLRF   x40
4F86:  MOVLB  0
4F88:  CALL   0C90
4F8C:  MOVLW  01
4F8E:  MOVLB  5
4F90:  MOVWF  x99
....................             Contrasena[0]=0;Contrasena[1]=0;Contrasena[2]=0;Contrasena[3]=0; 
4F92:  CLRF   xC7
4F94:  CLRF   xC8
4F96:  CLRF   xC9
4F98:  CLRF   xCA
....................          } 
....................       } 
....................     }     
.................... //_--------------------------------------------------------------------------------------------------------------------------------------------------------     
....................  
.................... //_--------------------------------------------------------------------------------------------------------------------------------------------------------       
....................       if(Menu==91){ // Menu de Cambio de Contrasea 
4F9A:  MOVF   x98,W
4F9C:  SUBLW  5B
4F9E:  BTFSS  FD8.2
4FA0:  BRA    539A
....................          
....................       strcpy(Menus.Letra,"Clave Nueva"); 
4FA2:  MOVLW  06
4FA4:  MOVWF  FEA
4FA6:  MOVLW  1F
4FA8:  MOVWF  FE9
4FAA:  MOVLW  00
4FAC:  MOVLB  0
4FAE:  CALL   08A4
4FB2:  TBLRD*-
4FB4:  TBLRD*+
4FB6:  MOVF   FF5,W
4FB8:  MOVWF  FEE
4FBA:  IORLW  00
4FBC:  BNZ   4FB4
....................       displayMenu(Menus.Letra,0,0,1,2);      
4FBE:  MOVLW  06
4FC0:  MOVLB  6
4FC2:  MOVWF  x40
4FC4:  MOVLW  1F
4FC6:  MOVWF  x3F
4FC8:  CLRF   x41
4FCA:  CLRF   x42
4FCC:  MOVLW  01
4FCE:  MOVWF  x43
4FD0:  MOVLW  02
4FD2:  MOVWF  x44
4FD4:  MOVLB  0
4FD6:  CALL   1294
....................        
....................       if(unidad==1) 
4FDA:  MOVLB  5
4FDC:  DECFSZ x99,W
4FDE:  BRA    503E
....................       { 
....................          displayContrasena(Password[0],20,30,1); 
4FE0:  MOVFF  5CB,641
4FE4:  MOVLW  14
4FE6:  MOVLB  6
4FE8:  MOVWF  x42
4FEA:  MOVLW  1E
4FEC:  MOVWF  x43
4FEE:  MOVLW  01
4FF0:  MOVWF  x44
4FF2:  MOVLB  0
4FF4:  CALL   149A
....................          displayContrasena(Password[1],40,30,0); 
4FF8:  MOVFF  5CC,641
4FFC:  MOVLW  28
4FFE:  MOVLB  6
5000:  MOVWF  x42
5002:  MOVLW  1E
5004:  MOVWF  x43
5006:  CLRF   x44
5008:  MOVLB  0
500A:  CALL   149A
....................          displayContrasena(Password[2],60,30,0); 
500E:  MOVFF  5CD,641
5012:  MOVLW  3C
5014:  MOVLB  6
5016:  MOVWF  x42
5018:  MOVLW  1E
501A:  MOVWF  x43
501C:  CLRF   x44
501E:  MOVLB  0
5020:  CALL   149A
....................          displayContrasena(Password[3],80,30,0); 
5024:  MOVFF  5CE,641
5028:  MOVLW  50
502A:  MOVLB  6
502C:  MOVWF  x42
502E:  MOVLW  1E
5030:  MOVWF  x43
5032:  CLRF   x44
5034:  MOVLB  0
5036:  CALL   149A
....................       } 
503A:  BRA    5166
503C:  MOVLB  5
....................       else 
....................       { 
....................          if(unidad==2) 
503E:  MOVF   x99,W
5040:  SUBLW  02
5042:  BNZ   50A2
....................          { 
....................             displayContrasena(Password[0],20,30,0); 
5044:  MOVFF  5CB,641
5048:  MOVLW  14
504A:  MOVLB  6
504C:  MOVWF  x42
504E:  MOVLW  1E
5050:  MOVWF  x43
5052:  CLRF   x44
5054:  MOVLB  0
5056:  CALL   149A
....................             displayContrasena(Password[1],40,30,1); 
505A:  MOVFF  5CC,641
505E:  MOVLW  28
5060:  MOVLB  6
5062:  MOVWF  x42
5064:  MOVLW  1E
5066:  MOVWF  x43
5068:  MOVLW  01
506A:  MOVWF  x44
506C:  MOVLB  0
506E:  CALL   149A
....................             displayContrasena(Password[2],60,30,0); 
5072:  MOVFF  5CD,641
5076:  MOVLW  3C
5078:  MOVLB  6
507A:  MOVWF  x42
507C:  MOVLW  1E
507E:  MOVWF  x43
5080:  CLRF   x44
5082:  MOVLB  0
5084:  CALL   149A
....................             displayContrasena(Password[3],80,30,0); 
5088:  MOVFF  5CE,641
508C:  MOVLW  50
508E:  MOVLB  6
5090:  MOVWF  x42
5092:  MOVLW  1E
5094:  MOVWF  x43
5096:  CLRF   x44
5098:  MOVLB  0
509A:  CALL   149A
....................          } 
509E:  BRA    5166
50A0:  MOVLB  5
....................          else 
....................          { 
....................             if(unidad==3) 
50A2:  MOVF   x99,W
50A4:  SUBLW  03
50A6:  BNZ   5106
....................             { 
....................                displayContrasena(Password[0],20,30,0); 
50A8:  MOVFF  5CB,641
50AC:  MOVLW  14
50AE:  MOVLB  6
50B0:  MOVWF  x42
50B2:  MOVLW  1E
50B4:  MOVWF  x43
50B6:  CLRF   x44
50B8:  MOVLB  0
50BA:  CALL   149A
....................                displayContrasena(Password[1],40,30,0); 
50BE:  MOVFF  5CC,641
50C2:  MOVLW  28
50C4:  MOVLB  6
50C6:  MOVWF  x42
50C8:  MOVLW  1E
50CA:  MOVWF  x43
50CC:  CLRF   x44
50CE:  MOVLB  0
50D0:  CALL   149A
....................                displayContrasena(Password[2],60,30,1); 
50D4:  MOVFF  5CD,641
50D8:  MOVLW  3C
50DA:  MOVLB  6
50DC:  MOVWF  x42
50DE:  MOVLW  1E
50E0:  MOVWF  x43
50E2:  MOVLW  01
50E4:  MOVWF  x44
50E6:  MOVLB  0
50E8:  CALL   149A
....................                displayContrasena(Password[3],80,30,0); 
50EC:  MOVFF  5CE,641
50F0:  MOVLW  50
50F2:  MOVLB  6
50F4:  MOVWF  x42
50F6:  MOVLW  1E
50F8:  MOVWF  x43
50FA:  CLRF   x44
50FC:  MOVLB  0
50FE:  CALL   149A
....................             } 
5102:  BRA    5166
5104:  MOVLB  5
....................             else 
....................             { 
....................                if(unidad==4) 
5106:  MOVF   x99,W
5108:  SUBLW  04
510A:  BNZ   5168
....................                { 
....................                   displayContrasena(Password[0],20,30,0); 
510C:  MOVFF  5CB,641
5110:  MOVLW  14
5112:  MOVLB  6
5114:  MOVWF  x42
5116:  MOVLW  1E
5118:  MOVWF  x43
511A:  CLRF   x44
511C:  MOVLB  0
511E:  CALL   149A
....................                   displayContrasena(Password[1],40,30,0); 
5122:  MOVFF  5CC,641
5126:  MOVLW  28
5128:  MOVLB  6
512A:  MOVWF  x42
512C:  MOVLW  1E
512E:  MOVWF  x43
5130:  CLRF   x44
5132:  MOVLB  0
5134:  CALL   149A
....................                   displayContrasena(Password[2],60,30,0); 
5138:  MOVFF  5CD,641
513C:  MOVLW  3C
513E:  MOVLB  6
5140:  MOVWF  x42
5142:  MOVLW  1E
5144:  MOVWF  x43
5146:  CLRF   x44
5148:  MOVLB  0
514A:  CALL   149A
....................                   displayContrasena(Password[3],80,30,1); 
514E:  MOVFF  5CE,641
5152:  MOVLW  50
5154:  MOVLB  6
5156:  MOVWF  x42
5158:  MOVLW  1E
515A:  MOVWF  x43
515C:  MOVLW  01
515E:  MOVWF  x44
5160:  MOVLB  0
5162:  CALL   149A
5166:  MOVLB  5
....................                } 
....................             } 
....................          } 
....................       } 
....................        
....................       if(UP)//Si oprime hacia arriba 
5168:  BSF    F92.5
516A:  BTFSS  F80.5
516C:  BRA    51D6
....................       { 
....................          if(Flanco == 0) 
516E:  BTFSC  x93.0
5170:  BRA    51D4
....................          { 
....................             Flanco = 1;delay_ms(30); 
5172:  BSF    x93.0
5174:  MOVLW  1E
5176:  MOVLB  6
5178:  MOVWF  x45
517A:  MOVLB  0
517C:  CALL   0B76
....................             for(i=1;i<=4;i++) 
5180:  MOVLW  01
5182:  MOVLB  5
5184:  MOVWF  x9A
5186:  MOVF   x9A,W
5188:  SUBLW  04
518A:  BNC   51D4
....................             { 
....................                if(unidad==i) 
518C:  MOVF   x9A,W
518E:  SUBWF  x99,W
5190:  BNZ   51D0
....................                { 
....................                   Password[i-1]++; 
5192:  MOVLW  01
5194:  SUBWF  x9A,W
5196:  CLRF   03
5198:  ADDLW  CB
519A:  MOVWF  FE9
519C:  MOVLW  05
519E:  ADDWFC 03,W
51A0:  MOVWF  FEA
51A2:  INCF   FEF,F
....................                   if(Password[i-1]>9)    
51A4:  MOVLW  01
51A6:  SUBWF  x9A,W
51A8:  CLRF   03
51AA:  ADDLW  CB
51AC:  MOVWF  FE9
51AE:  MOVLW  05
51B0:  ADDWFC 03,W
51B2:  MOVWF  FEA
51B4:  BTFSC  FEF.7
51B6:  BRA    51D0
51B8:  MOVF   FEF,W
51BA:  SUBLW  09
51BC:  BC    51D0
....................                   { 
....................                      Password[i-1]=0; 
51BE:  MOVLW  01
51C0:  SUBWF  x9A,W
51C2:  CLRF   03
51C4:  ADDLW  CB
51C6:  MOVWF  FE9
51C8:  MOVLW  05
51CA:  ADDWFC 03,W
51CC:  MOVWF  FEA
51CE:  CLRF   FEF
....................                   } 
....................                } 
51D0:  INCF   x9A,F
51D2:  BRA    5186
....................             } 
....................          } 
....................       } 
51D4:  BRA    51D8
....................       else 
....................       { 
....................          Flanco = 0; 
51D6:  BCF    x93.0
....................       } 
....................              
....................       if(DOWN)//Si oprime hacia abajo 
51D8:  BSF    F96.0
51DA:  BTFSS  F84.0
51DC:  BRA    5242
....................       { 
....................          if(Flanco2 == 0) 
51DE:  BTFSC  x93.2
51E0:  BRA    5240
....................             {Flanco2 = 1;delay_ms(30); 
51E2:  BSF    x93.2
51E4:  MOVLW  1E
51E6:  MOVLB  6
51E8:  MOVWF  x45
51EA:  MOVLB  0
51EC:  CALL   0B76
....................                for(i=1;i<=4;i++) 
51F0:  MOVLW  01
51F2:  MOVLB  5
51F4:  MOVWF  x9A
51F6:  MOVF   x9A,W
51F8:  SUBLW  04
51FA:  BNC   5240
....................                { 
....................                   if(unidad==i) 
51FC:  MOVF   x9A,W
51FE:  SUBWF  x99,W
5200:  BNZ   523C
....................                   { 
....................                      Password[i-1]--; 
5202:  MOVLW  01
5204:  SUBWF  x9A,W
5206:  CLRF   03
5208:  ADDLW  CB
520A:  MOVWF  FE9
520C:  MOVLW  05
520E:  ADDWFC 03,W
5210:  MOVWF  FEA
5212:  DECF   FEF,F
....................                      if(Password[i-1]<0) 
5214:  MOVLW  01
5216:  SUBWF  x9A,W
5218:  CLRF   03
521A:  ADDLW  CB
521C:  MOVWF  FE9
521E:  MOVLW  05
5220:  ADDWFC 03,W
5222:  MOVWF  FEA
5224:  BTFSS  FEF.7
5226:  BRA    523C
....................                      { 
....................                         Password[i-1]=9; 
5228:  MOVLW  01
522A:  SUBWF  x9A,W
522C:  CLRF   03
522E:  ADDLW  CB
5230:  MOVWF  FE9
5232:  MOVLW  05
5234:  ADDWFC 03,W
5236:  MOVWF  FEA
5238:  MOVLW  09
523A:  MOVWF  FEF
....................                      } 
....................                   } 
523C:  INCF   x9A,F
523E:  BRA    51F6
....................                }       
....................             }      
....................       } 
5240:  BRA    5244
....................       else 
....................       { 
....................          Flanco2 = 0; 
5242:  BCF    x93.2
....................       } 
....................              
....................       if(RIGHT)//Si oprime RIGHT 
5244:  BSF    F96.1
5246:  BTFSS  F84.1
5248:  BRA    526C
....................       { 
....................          if(Flanco1 == 0) 
524A:  BTFSC  x93.1
524C:  BRA    526A
....................             {Flanco1 = 1;delay_ms(300);unidad++;} 
524E:  BSF    x93.1
5250:  MOVLW  02
5252:  MOVLB  6
5254:  MOVWF  x3F
5256:  MOVLW  96
5258:  MOVWF  x45
525A:  MOVLB  0
525C:  CALL   0B76
5260:  MOVLB  6
5262:  DECFSZ x3F,F
5264:  BRA    5256
5266:  MOVLB  5
5268:  INCF   x99,F
....................       } 
526A:  BRA    526E
....................       else 
....................       { 
....................          Flanco1 = 0; 
526C:  BCF    x93.1
....................       } 
....................        
....................       if(LEFT)//Si oprime Izquierda 
526E:  BSF    F96.2
5270:  BTFSS  F84.2
5272:  BRA    529C
....................       { 
....................          delay_ms(700);Menu=1;glcd_fillscreen(OFF); 
5274:  MOVLW  04
5276:  MOVLB  6
5278:  MOVWF  x3F
527A:  MOVLW  AF
527C:  MOVWF  x45
527E:  MOVLB  0
5280:  CALL   0B76
5284:  MOVLB  6
5286:  DECFSZ x3F,F
5288:  BRA    527A
528A:  MOVLW  01
528C:  MOVLB  5
528E:  MOVWF  x98
5290:  MOVLB  6
5292:  CLRF   x40
5294:  MOVLB  0
5296:  CALL   0C90
529A:  MOVLB  5
....................       } 
....................        
....................       if(unidad>4) 
529C:  MOVF   x99,W
529E:  SUBLW  04
52A0:  BTFSC  FD8.0
52A2:  BRA    539A
....................       { 
....................          Opcion=1;unidad=1; 
52A4:  MOVLW  01
52A6:  MOVWF  x9E
52A8:  MOVWF  x99
....................          write_eeprom(10,Password[0]); 
52AA:  MOVF   FF2,W
52AC:  MOVWF  00
52AE:  BCF    FF2.7
52B0:  MOVLW  0A
52B2:  MOVWF  FA9
52B4:  MOVFF  5CB,FA8
52B8:  BCF    FA6.6
52BA:  BCF    FA6.7
52BC:  BSF    FA6.2
52BE:  MOVLB  F
52C0:  MOVLW  55
52C2:  MOVWF  FA7
52C4:  MOVLW  AA
52C6:  MOVWF  FA7
52C8:  BSF    FA6.1
52CA:  BTFSC  FA6.1
52CC:  BRA    52CA
52CE:  BCF    FA6.2
52D0:  MOVF   00,W
52D2:  IORWF  FF2,F
....................          delay_ms(50);    
52D4:  MOVLW  32
52D6:  MOVLB  6
52D8:  MOVWF  x45
52DA:  MOVLB  0
52DC:  CALL   0B76
....................          write_eeprom(11,Password[1]); 
52E0:  MOVF   FF2,W
52E2:  MOVWF  00
52E4:  BCF    FF2.7
52E6:  MOVLW  0B
52E8:  MOVWF  FA9
52EA:  MOVFF  5CC,FA8
52EE:  BCF    FA6.6
52F0:  BCF    FA6.7
52F2:  BSF    FA6.2
52F4:  MOVLB  F
52F6:  MOVLW  55
52F8:  MOVWF  FA7
52FA:  MOVLW  AA
52FC:  MOVWF  FA7
52FE:  BSF    FA6.1
5300:  BTFSC  FA6.1
5302:  BRA    5300
5304:  BCF    FA6.2
5306:  MOVF   00,W
5308:  IORWF  FF2,F
....................          delay_ms(50);    
530A:  MOVLW  32
530C:  MOVLB  6
530E:  MOVWF  x45
5310:  MOVLB  0
5312:  CALL   0B76
....................          write_eeprom(12,Password[2]); 
5316:  MOVF   FF2,W
5318:  MOVWF  00
531A:  BCF    FF2.7
531C:  MOVLW  0C
531E:  MOVWF  FA9
5320:  MOVFF  5CD,FA8
5324:  BCF    FA6.6
5326:  BCF    FA6.7
5328:  BSF    FA6.2
532A:  MOVLB  F
532C:  MOVLW  55
532E:  MOVWF  FA7
5330:  MOVLW  AA
5332:  MOVWF  FA7
5334:  BSF    FA6.1
5336:  BTFSC  FA6.1
5338:  BRA    5336
533A:  BCF    FA6.2
533C:  MOVF   00,W
533E:  IORWF  FF2,F
....................          delay_ms(50);    
5340:  MOVLW  32
5342:  MOVLB  6
5344:  MOVWF  x45
5346:  MOVLB  0
5348:  CALL   0B76
....................          write_eeprom(13,Password[3]); 
534C:  MOVF   FF2,W
534E:  MOVWF  00
5350:  BCF    FF2.7
5352:  MOVLW  0D
5354:  MOVWF  FA9
5356:  MOVFF  5CE,FA8
535A:  BCF    FA6.6
535C:  BCF    FA6.7
535E:  BSF    FA6.2
5360:  MOVLB  F
5362:  MOVLW  55
5364:  MOVWF  FA7
5366:  MOVLW  AA
5368:  MOVWF  FA7
536A:  BSF    FA6.1
536C:  BTFSC  FA6.1
536E:  BRA    536C
5370:  BCF    FA6.2
5372:  MOVF   00,W
5374:  IORWF  FF2,F
....................          delay_ms(1000);glcd_fillScreen(OFF);Menu=1; 
5376:  MOVLW  04
5378:  MOVLB  6
537A:  MOVWF  x3F
537C:  MOVLW  FA
537E:  MOVWF  x45
5380:  MOVLB  0
5382:  CALL   0B76
5386:  MOVLB  6
5388:  DECFSZ x3F,F
538A:  BRA    537C
538C:  CLRF   x40
538E:  MOVLB  0
5390:  CALL   0C90
5394:  MOVLW  01
5396:  MOVLB  5
5398:  MOVWF  x98
....................       } 
....................     }     
.................... //_--------------------------------------------------------------------------------------------------------------------------------------------------------     
....................  
....................  
....................  
.................... //_-------------------------------------------------------------------------------------------------------------------------------------------------------- 
....................       if(Menu==20){ //Menu de Funcionamiento 
539A:  MOVF   x98,W
539C:  SUBLW  14
539E:  BTFSS  FD8.2
53A0:  GOTO   5D5C
....................        
....................       // Muestra imagen de fondo en Display GLCD 
....................       glcd_imagen(5); 
53A4:  MOVLW  05
53A6:  MOVLB  6
53A8:  MOVWF  x3F
53AA:  MOVLB  0
53AC:  GOTO   2580
....................        
....................        
....................       if(Pausa==0 && !TERM) 
53B0:  MOVLB  5
53B2:  MOVF   x9B,F
53B4:  BTFSS  FD8.2
53B6:  BRA    5614
53B8:  BSF    F92.3
53BA:  BTFSC  F80.3
53BC:  BRA    5614
....................       { 
....................          Vent_on; 
53BE:  BSF    F8B.7
53C0:  BCF    F94.7
....................          if(Enfria==1) 
53C2:  DECFSZ x97,W
53C4:  BRA    54EE
....................          { 
....................             if(Temperatura<=Setpoint+1.0) 
53C6:  MOVFF  5AE,646
53CA:  MOVFF  5AD,645
53CE:  MOVLB  0
53D0:  CALL   0BA0
53D4:  BCF    FD8.1
53D6:  MOVFF  03,647
53DA:  MOVFF  02,646
53DE:  MOVFF  01,645
53E2:  MOVFF  00,644
53E6:  MOVLB  6
53E8:  CLRF   x4B
53EA:  CLRF   x4A
53EC:  CLRF   x49
53EE:  MOVLW  7F
53F0:  MOVWF  x48
53F2:  MOVLB  0
53F4:  CALL   1708
53F8:  MOVFF  60A,642
53FC:  MOVFF  609,641
5400:  MOVFF  608,640
5404:  MOVFF  607,63F
5408:  MOVFF  03,646
540C:  MOVFF  02,645
5410:  MOVFF  01,644
5414:  MOVFF  00,643
5418:  CALL   0BD6
541C:  BC    5420
541E:  BNZ   5488
....................             { 
....................                glcd_rect(0, 55, 127, 63, YES, OFF); 
5420:  MOVLB  6
5422:  CLRF   x52
5424:  MOVLW  37
5426:  MOVWF  x53
5428:  MOVLW  7F
542A:  MOVWF  x54
542C:  MOVLW  3F
542E:  MOVWF  x55
5430:  MOVLW  01
5432:  MOVWF  x56
5434:  CLRF   x57
5436:  MOVLB  0
5438:  CALL   11D2
....................                strcpy(Menus.Letra,"Status:Controlando"); 
543C:  MOVLW  06
543E:  MOVWF  FEA
5440:  MOVLW  1F
5442:  MOVWF  FE9
5444:  MOVLW  00
5446:  CALL   08C0
544A:  TBLRD*-
544C:  TBLRD*+
544E:  MOVF   FF5,W
5450:  MOVWF  FEE
5452:  IORLW  00
5454:  BNZ   544C
....................                displayMenu(Menus.Letra,0,55,2,1); 
5456:  MOVLW  06
5458:  MOVLB  6
545A:  MOVWF  x40
545C:  MOVLW  1F
545E:  MOVWF  x3F
5460:  CLRF   x41
5462:  MOVLW  37
5464:  MOVWF  x42
5466:  MOVLW  02
5468:  MOVWF  x43
546A:  MOVLW  01
546C:  MOVWF  x44
546E:  MOVLB  0
5470:  CALL   1294
....................                tiempo_esterilizacion=1; 
5474:  MOVLW  01
5476:  MOVLB  5
5478:  MOVWF  x9F
....................                Controla(); 
547A:  MOVLB  0
547C:  CALL   26D2
....................                flag_tiempocalentamiento=0; 
5480:  MOVLB  5
5482:  BCF    x94.4
....................             } 
5484:  BRA    54EC
5486:  MOVLB  0
....................             else 
....................             { 
....................                flag_tiempocalentamiento=0; 
5488:  MOVLB  5
548A:  BCF    x94.4
....................                glcd_rect(0, 55, 127, 63, YES, OFF); 
548C:  MOVLB  6
548E:  CLRF   x52
5490:  MOVLW  37
5492:  MOVWF  x53
5494:  MOVLW  7F
5496:  MOVWF  x54
5498:  MOVLW  3F
549A:  MOVWF  x55
549C:  MOVLW  01
549E:  MOVWF  x56
54A0:  CLRF   x57
54A2:  MOVLB  0
54A4:  CALL   11D2
....................                strcpy(Menus.Letra,"Status:Enfriando"); 
54A8:  MOVLW  06
54AA:  MOVWF  FEA
54AC:  MOVLW  1F
54AE:  MOVWF  FE9
54B0:  MOVLW  00
54B2:  CALL   08E4
54B6:  TBLRD*-
54B8:  TBLRD*+
54BA:  MOVF   FF5,W
54BC:  MOVWF  FEE
54BE:  IORLW  00
54C0:  BNZ   54B8
....................                displayMenu(Menus.Letra,0,55,2,1); 
54C2:  MOVLW  06
54C4:  MOVLB  6
54C6:  MOVWF  x40
54C8:  MOVLW  1F
54CA:  MOVWF  x3F
54CC:  CLRF   x41
54CE:  MOVLW  37
54D0:  MOVWF  x42
54D2:  MOVLW  02
54D4:  MOVWF  x43
54D6:  MOVLW  01
54D8:  MOVWF  x44
54DA:  MOVLB  0
54DC:  CALL   1294
....................                tiempo_esterilizacion=0; 
54E0:  MOVLB  5
54E2:  CLRF   x9F
....................                Controla(); 
54E4:  MOVLB  0
54E6:  CALL   26D2
54EA:  MOVLB  5
....................             } 
....................          } 
54EC:  BRA    5614
....................          else 
....................          { 
....................             if(Temperatura>=Setpoint-1.0) 
54EE:  MOVFF  5AE,646
54F2:  MOVFF  5AD,645
54F6:  MOVLB  0
54F8:  CALL   0BA0
54FC:  BSF    FD8.1
54FE:  MOVFF  03,647
5502:  MOVFF  02,646
5506:  MOVFF  01,645
550A:  MOVFF  00,644
550E:  MOVLB  6
5510:  CLRF   x4B
5512:  CLRF   x4A
5514:  CLRF   x49
5516:  MOVLW  7F
5518:  MOVWF  x48
551A:  MOVLB  0
551C:  CALL   1708
5520:  MOVFF  03,642
5524:  MOVFF  02,641
5528:  MOVFF  01,640
552C:  MOVFF  00,63F
5530:  MOVFF  60A,646
5534:  MOVFF  609,645
5538:  MOVFF  608,644
553C:  MOVFF  607,643
5540:  CALL   0BD6
5544:  BC    5548
5546:  BNZ   55B0
....................             { 
....................                glcd_rect(0, 55, 127, 63, YES, OFF); 
5548:  MOVLB  6
554A:  CLRF   x52
554C:  MOVLW  37
554E:  MOVWF  x53
5550:  MOVLW  7F
5552:  MOVWF  x54
5554:  MOVLW  3F
5556:  MOVWF  x55
5558:  MOVLW  01
555A:  MOVWF  x56
555C:  CLRF   x57
555E:  MOVLB  0
5560:  CALL   11D2
....................                strcpy(Menus.Letra,"Status:Controlando"); 
5564:  MOVLW  06
5566:  MOVWF  FEA
5568:  MOVLW  1F
556A:  MOVWF  FE9
556C:  MOVLW  00
556E:  CALL   08C0
5572:  TBLRD*-
5574:  TBLRD*+
5576:  MOVF   FF5,W
5578:  MOVWF  FEE
557A:  IORLW  00
557C:  BNZ   5574
....................                displayMenu(Menus.Letra,0,55,2,1); 
557E:  MOVLW  06
5580:  MOVLB  6
5582:  MOVWF  x40
5584:  MOVLW  1F
5586:  MOVWF  x3F
5588:  CLRF   x41
558A:  MOVLW  37
558C:  MOVWF  x42
558E:  MOVLW  02
5590:  MOVWF  x43
5592:  MOVLW  01
5594:  MOVWF  x44
5596:  MOVLB  0
5598:  CALL   1294
....................                tiempo_esterilizacion=1; 
559C:  MOVLW  01
559E:  MOVLB  5
55A0:  MOVWF  x9F
....................                Controla(); 
55A2:  MOVLB  0
55A4:  CALL   26D2
....................                flag_tiempocalentamiento=0; 
55A8:  MOVLB  5
55AA:  BCF    x94.4
....................             } 
55AC:  BRA    5614
55AE:  MOVLB  0
....................             else 
....................             { 
....................                flag_tiempocalentamiento=1; 
55B0:  MOVLB  5
55B2:  BSF    x94.4
....................                glcd_rect(0, 55, 127, 63, YES, OFF); 
55B4:  MOVLB  6
55B6:  CLRF   x52
55B8:  MOVLW  37
55BA:  MOVWF  x53
55BC:  MOVLW  7F
55BE:  MOVWF  x54
55C0:  MOVLW  3F
55C2:  MOVWF  x55
55C4:  MOVLW  01
55C6:  MOVWF  x56
55C8:  CLRF   x57
55CA:  MOVLB  0
55CC:  CALL   11D2
....................                strcpy(Menus.Letra,"Status:Calentando"); 
55D0:  MOVLW  06
55D2:  MOVWF  FEA
55D4:  MOVLW  1F
55D6:  MOVWF  FE9
55D8:  MOVLW  00
55DA:  CALL   0906
55DE:  TBLRD*-
55E0:  TBLRD*+
55E2:  MOVF   FF5,W
55E4:  MOVWF  FEE
55E6:  IORLW  00
55E8:  BNZ   55E0
....................                displayMenu(Menus.Letra,0,55,2,1); 
55EA:  MOVLW  06
55EC:  MOVLB  6
55EE:  MOVWF  x40
55F0:  MOVLW  1F
55F2:  MOVWF  x3F
55F4:  CLRF   x41
55F6:  MOVLW  37
55F8:  MOVWF  x42
55FA:  MOVLW  02
55FC:  MOVWF  x43
55FE:  MOVLW  01
5600:  MOVWF  x44
5602:  MOVLB  0
5604:  CALL   1294
....................                tiempo_esterilizacion=0; 
5608:  MOVLB  5
560A:  CLRF   x9F
....................                Controla(); 
560C:  MOVLB  0
560E:  CALL   26D2
5612:  MOVLB  5
....................             } 
....................          } 
....................       } 
....................        
....................       if(Pausa==1 && !TERM) 
5614:  DECFSZ x9B,W
5616:  BRA    5682
5618:  BSF    F92.3
561A:  BTFSC  F80.3
561C:  BRA    5682
....................       { 
....................          Vent_off; 
561E:  BCF    F8B.7
5620:  BCF    F94.7
....................          Controlando=0; 
5622:  CLRF   x92
....................          Ganancia=1; 
5624:  CLRF   xF6
5626:  CLRF   xF5
5628:  CLRF   xF4
562A:  MOVLW  7F
562C:  MOVWF  xF3
....................          flag_tiempocalentamiento=0; 
562E:  BCF    x94.4
....................          strcpy(Menus.Letra,"Status:Pausado"); 
5630:  MOVLW  06
5632:  MOVWF  FEA
5634:  MOVLW  1F
5636:  MOVWF  FE9
5638:  MOVLW  00
563A:  MOVLB  0
563C:  CALL   0928
5640:  TBLRD*-
5642:  TBLRD*+
5644:  MOVF   FF5,W
5646:  MOVWF  FEE
5648:  IORLW  00
564A:  BNZ   5642
....................          displayMenu(Menus.Letra,0,55,2,1); 
564C:  MOVLW  06
564E:  MOVLB  6
5650:  MOVWF  x40
5652:  MOVLW  1F
5654:  MOVWF  x3F
5656:  CLRF   x41
5658:  MOVLW  37
565A:  MOVWF  x42
565C:  MOVLW  02
565E:  MOVWF  x43
5660:  MOVLW  01
5662:  MOVWF  x44
5664:  MOVLB  0
5666:  CALL   1294
....................          tiempo_esterilizacion=0; 
566A:  MOVLB  5
566C:  CLRF   x9F
....................          Resistencia_off; 
566E:  BCF    F8B.0
5670:  BCF    F94.0
....................          Peltierp_off; 
5672:  BCF    F8B.2
5674:  BCF    F94.2
....................          Peltiern_off; 
5676:  BCF    F8B.1
5678:  BCF    F94.1
....................          Tpulso=0.0; 
567A:  CLRF   xE2
567C:  CLRF   xE1
567E:  CLRF   xE0
5680:  CLRF   xDF
....................       } 
....................        
....................       if(TERM) 
5682:  BSF    F92.3
5684:  BTFSS  F80.3
5686:  BRA    5742
....................       { 
....................          Vent_off; 
5688:  BCF    F8B.7
568A:  BCF    F94.7
....................          flag_tiempocalentamiento=0; 
568C:  BCF    x94.4
....................          Controlando=0; 
568E:  CLRF   x92
....................          if(flag_clear3==0) 
5690:  BTFSC  x94.2
5692:  BRA    56D2
....................          { 
....................             Pausa_ant=Pausa; 
5694:  MOVFF  59B,59C
....................             Pausa=0; 
5698:  CLRF   x9B
....................             //glcd_fillScreen(OFF); 
....................             glcd_rect(0, 55, 127, 63, YES, OFF); 
569A:  MOVLB  6
569C:  CLRF   x52
569E:  MOVLW  37
56A0:  MOVWF  x53
56A2:  MOVLW  7F
56A4:  MOVWF  x54
56A6:  MOVLW  3F
56A8:  MOVWF  x55
56AA:  MOVLW  01
56AC:  MOVWF  x56
56AE:  CLRF   x57
56B0:  MOVLB  0
56B2:  CALL   11D2
....................             tiempo_esterilizacion=0; 
56B6:  MOVLB  5
56B8:  CLRF   x9F
....................             Resistencia_off; 
56BA:  BCF    F8B.0
56BC:  BCF    F94.0
....................             Peltierp_off; 
56BE:  BCF    F8B.2
56C0:  BCF    F94.2
....................             Peltiern_off; 
56C2:  BCF    F8B.1
56C4:  BCF    F94.1
....................             Tpulso=0.0; 
56C6:  CLRF   xE2
56C8:  CLRF   xE1
56CA:  CLRF   xE0
56CC:  CLRF   xDF
....................             flag_clear3=1; 
56CE:  BSF    x94.2
....................             flag_ganancia=0; 
56D0:  CLRF   x8F
....................          } 
....................          strcpy(Menus.Letra,"Status:Alarma 01"); 
56D2:  MOVLW  06
56D4:  MOVWF  FEA
56D6:  MOVLW  1F
56D8:  MOVWF  FE9
56DA:  MOVLW  00
56DC:  MOVLB  0
56DE:  CALL   0948
56E2:  TBLRD*-
56E4:  TBLRD*+
56E6:  MOVF   FF5,W
56E8:  MOVWF  FEE
56EA:  IORLW  00
56EC:  BNZ   56E4
....................          displayMenu(Menus.Letra,0,55,2,1); 
56EE:  MOVLW  06
56F0:  MOVLB  6
56F2:  MOVWF  x40
56F4:  MOVLW  1F
56F6:  MOVWF  x3F
56F8:  CLRF   x41
56FA:  MOVLW  37
56FC:  MOVWF  x42
56FE:  MOVLW  02
5700:  MOVWF  x43
5702:  MOVLW  01
5704:  MOVWF  x44
5706:  MOVLB  0
5708:  CALL   1294
....................           
....................          Buzzer_on; 
570C:  BSF    F8B.6
570E:  BCF    F94.6
....................          delay_ms(1000); 
5710:  MOVLW  04
5712:  MOVLB  6
5714:  MOVWF  x3F
5716:  MOVLW  FA
5718:  MOVWF  x45
571A:  MOVLB  0
571C:  CALL   0B76
5720:  MOVLB  6
5722:  DECFSZ x3F,F
5724:  BRA    5716
....................          Buzzer_off; 
5726:  BCF    F8B.6
5728:  BCF    F94.6
....................          delay_ms(1000); 
572A:  MOVLW  04
572C:  MOVWF  x3F
572E:  MOVLW  FA
5730:  MOVWF  x45
5732:  MOVLB  0
5734:  CALL   0B76
5738:  MOVLB  6
573A:  DECFSZ x3F,F
573C:  BRA    572E
....................       } 
573E:  BRA    576C
5740:  MOVLB  5
....................       else 
....................       { 
....................          if(flag_clear3==1) 
5742:  BTFSS  x94.2
5744:  BRA    576A
....................          { 
....................             Pausa=Pausa_ant; 
5746:  MOVFF  59C,59B
....................             //glcd_fillScreen(OFF); 
....................             glcd_rect(0, 55, 127, 63, YES, OFF); 
574A:  MOVLB  6
574C:  CLRF   x52
574E:  MOVLW  37
5750:  MOVWF  x53
5752:  MOVLW  7F
5754:  MOVWF  x54
5756:  MOVLW  3F
5758:  MOVWF  x55
575A:  MOVLW  01
575C:  MOVWF  x56
575E:  CLRF   x57
5760:  MOVLB  0
5762:  CALL   11D2
....................             flag_clear3=0; 
5766:  MOVLB  5
5768:  BCF    x94.2
576A:  MOVLB  6
....................          } 
....................       }   
....................        
....................       if(UP)//Si oprime hacia arriba 
576C:  BSF    F92.5
576E:  BTFSS  F80.5
5770:  BRA    57AA
....................       { 
....................          if(Pausa!=2) 
5772:  MOVLB  5
5774:  MOVF   x9B,W
5776:  SUBLW  02
5778:  BZ    57A8
....................          { 
....................             delay_ms(200);Pausa=0; 
577A:  MOVLW  C8
577C:  MOVLB  6
577E:  MOVWF  x45
5780:  MOVLB  0
5782:  CALL   0B76
5786:  MOVLB  5
5788:  CLRF   x9B
....................             //glcd_fillScreen(OFF); 
....................             glcd_rect(0, 55, 127, 63, YES, OFF); 
578A:  MOVLB  6
578C:  CLRF   x52
578E:  MOVLW  37
5790:  MOVWF  x53
5792:  MOVLW  7F
5794:  MOVWF  x54
5796:  MOVLW  3F
5798:  MOVWF  x55
579A:  MOVLW  01
579C:  MOVWF  x56
579E:  CLRF   x57
57A0:  MOVLB  0
57A2:  CALL   11D2
57A6:  MOVLB  5
57A8:  MOVLB  6
....................          } 
....................       } 
....................              
....................       if(DOWN)//Si oprime hacia abajo 
57AA:  BSF    F96.0
57AC:  BTFSS  F84.0
57AE:  BRA    57EA
....................       {   
....................          if(Pausa!=2) 
57B0:  MOVLB  5
57B2:  MOVF   x9B,W
57B4:  SUBLW  02
57B6:  BZ    57E8
....................          { 
....................             delay_ms(200);Pausa=1; 
57B8:  MOVLW  C8
57BA:  MOVLB  6
57BC:  MOVWF  x45
57BE:  MOVLB  0
57C0:  CALL   0B76
57C4:  MOVLW  01
57C6:  MOVLB  5
57C8:  MOVWF  x9B
....................             //glcd_fillScreen(OFF); 
....................             glcd_rect(0, 55, 127, 63, YES, OFF); 
57CA:  MOVLB  6
57CC:  CLRF   x52
57CE:  MOVLW  37
57D0:  MOVWF  x53
57D2:  MOVLW  7F
57D4:  MOVWF  x54
57D6:  MOVLW  3F
57D8:  MOVWF  x55
57DA:  MOVLW  01
57DC:  MOVWF  x56
57DE:  CLRF   x57
57E0:  MOVLB  0
57E2:  CALL   11D2
57E6:  MOVLB  5
57E8:  MOVLB  6
....................          } 
....................       } 
....................              
....................       if(RIGHT)//Si oprime SET 
57EA:  BSF    F96.1
57EC:  BTFSS  F84.1
57EE:  BRA    5800
....................       {   
....................          glcd_init(ON);flag_display=!flag_display; 
57F0:  MOVLW  01
57F2:  MOVWF  x3F
57F4:  MOVLB  0
57F6:  CALL   0D9A
57FA:  MOVLB  5
57FC:  BTG    x94.5
57FE:  MOVLB  6
....................       }  
....................          
....................       if(Lectura==1)// Utilizado para visualizar la lectura de la temperatura 
5800:  MOVLB  5
5802:  BTFSS  x93.4
5804:  BRA    5C2A
....................       {                  
....................           
....................          Lectura=0; 
5806:  BCF    x93.4
....................          Potencia=(100.0/Tciclo)*Tpulso; 
5808:  MOVLB  6
580A:  CLRF   x43
580C:  CLRF   x42
580E:  MOVLW  48
5810:  MOVWF  x41
5812:  MOVLW  85
5814:  MOVWF  x40
5816:  MOVFF  5DE,647
581A:  MOVFF  5DD,646
581E:  MOVFF  5DC,645
5822:  MOVFF  5DB,644
5826:  MOVLB  0
5828:  CALL   15AA
582C:  MOVFF  03,642
5830:  MOVFF  02,641
5834:  MOVFF  01,640
5838:  MOVFF  00,63F
583C:  MOVFF  03,65F
5840:  MOVFF  02,65E
5844:  MOVFF  01,65D
5848:  MOVFF  00,65C
584C:  MOVFF  5E2,663
5850:  MOVFF  5E1,662
5854:  MOVFF  5E0,661
5858:  MOVFF  5DF,660
585C:  CALL   19A2
5860:  MOVFF  03,5B6
5864:  MOVFF  02,5B5
5868:  MOVFF  01,5B4
586C:  MOVFF  00,5B3
....................          //Temperatura=Leer_Sensor(MediaMovil); 
....................          displayT(Temperatura,15,29,2); 
5870:  MOVFF  60A,642
5874:  MOVFF  609,641
5878:  MOVFF  608,640
587C:  MOVFF  607,63F
5880:  MOVLW  0F
5882:  MOVLB  6
5884:  MOVWF  x43
5886:  MOVLW  1D
5888:  MOVWF  x44
588A:  MOVLW  02
588C:  MOVWF  x45
588E:  MOVLB  0
5890:  CALL   33A4
....................          glcd_circle(74,30,2,NO,ON); 
5894:  MOVLW  4A
5896:  MOVLB  6
5898:  MOVWF  x3F
589A:  MOVLW  1E
589C:  MOVWF  x40
589E:  MOVLW  02
58A0:  MOVWF  x41
58A2:  CLRF   x42
58A4:  MOVLW  01
58A6:  MOVWF  x43
58A8:  MOVLB  0
58AA:  CALL   1E88
....................          strcpy(Menus.Letra,"C");displayMenu(Menus.Letra,75,30,2,2); 
58AE:  MOVLW  06
58B0:  MOVWF  FEA
58B2:  MOVLW  1F
58B4:  MOVWF  FE9
58B6:  MOVLW  00
58B8:  CALL   0866
58BC:  TBLRD*-
58BE:  TBLRD*+
58C0:  MOVF   FF5,W
58C2:  MOVWF  FEE
58C4:  IORLW  00
58C6:  BNZ   58BE
58C8:  MOVLW  06
58CA:  MOVLB  6
58CC:  MOVWF  x40
58CE:  MOVLW  1F
58D0:  MOVWF  x3F
58D2:  MOVLW  4B
58D4:  MOVWF  x41
58D6:  MOVLW  1E
58D8:  MOVWF  x42
58DA:  MOVLW  02
58DC:  MOVWF  x43
58DE:  MOVWF  x44
58E0:  MOVLB  0
58E2:  CALL   1294
....................           
....................          displayTemperatura(Setpoint,30,45,0,1); 
58E6:  MOVFF  5AE,642
58EA:  MOVFF  5AD,641
58EE:  MOVLW  1E
58F0:  MOVLB  6
58F2:  MOVWF  x43
58F4:  MOVLW  2D
58F6:  MOVWF  x44
58F8:  CLRF   x45
58FA:  MOVLW  01
58FC:  MOVWF  x46
58FE:  MOVLB  0
5900:  CALL   2178
....................          glcd_circle(50,47,1,NO,ON); 
5904:  MOVLW  32
5906:  MOVLB  6
5908:  MOVWF  x3F
590A:  MOVLW  2F
590C:  MOVWF  x40
590E:  MOVLW  01
5910:  MOVWF  x41
5912:  CLRF   x42
5914:  MOVWF  x43
5916:  MOVLB  0
5918:  CALL   1E88
....................          strcpy(Menus.Letra,"C");displayMenu(Menus.Letra,53,45,2,1); 
591C:  MOVLW  06
591E:  MOVWF  FEA
5920:  MOVLW  1F
5922:  MOVWF  FE9
5924:  MOVLW  00
5926:  CALL   0866
592A:  TBLRD*-
592C:  TBLRD*+
592E:  MOVF   FF5,W
5930:  MOVWF  FEE
5932:  IORLW  00
5934:  BNZ   592C
5936:  MOVLW  06
5938:  MOVLB  6
593A:  MOVWF  x40
593C:  MOVLW  1F
593E:  MOVWF  x3F
5940:  MOVLW  35
5942:  MOVWF  x41
5944:  MOVLW  2D
5946:  MOVWF  x42
5948:  MOVLW  02
594A:  MOVWF  x43
594C:  MOVLW  01
594E:  MOVWF  x44
5950:  MOVLB  0
5952:  CALL   1294
....................          strcpy(Menus.Letra,"Temp:");displayMenu(Menus.Letra,0,45,2,1);  
5956:  MOVLW  06
5958:  MOVWF  FEA
595A:  MOVLW  1F
595C:  MOVWF  FE9
595E:  MOVLW  00
5960:  CALL   096A
5964:  TBLRD*-
5966:  TBLRD*+
5968:  MOVF   FF5,W
596A:  MOVWF  FEE
596C:  IORLW  00
596E:  BNZ   5966
5970:  MOVLW  06
5972:  MOVLB  6
5974:  MOVWF  x40
5976:  MOVLW  1F
5978:  MOVWF  x3F
597A:  CLRF   x41
597C:  MOVLW  2D
597E:  MOVWF  x42
5980:  MOVLW  02
5982:  MOVWF  x43
5984:  MOVLW  01
5986:  MOVWF  x44
5988:  MOVLB  0
598A:  CALL   1294
....................           
....................          displayTiempo(Potencia,97,42,3,1);strcpy(Menus.Letra,"%");displayMenu(Menus.Letra,115,42,2,1); 
598E:  MOVFF  5B6,642
5992:  MOVFF  5B5,641
5996:  MOVFF  5B4,640
599A:  MOVFF  5B3,63F
599E:  CALL   2696
59A2:  MOVFF  01,63F
59A6:  MOVFF  01,640
59AA:  MOVLW  61
59AC:  MOVLB  6
59AE:  MOVWF  x41
59B0:  MOVLW  2A
59B2:  MOVWF  x42
59B4:  MOVLW  03
59B6:  MOVWF  x43
59B8:  MOVLW  01
59BA:  MOVWF  x44
59BC:  MOVLB  0
59BE:  CALL   23B8
59C2:  MOVLW  06
59C4:  MOVWF  FEA
59C6:  MOVLW  1F
59C8:  MOVWF  FE9
59CA:  MOVLW  00
59CC:  CALL   0980
59D0:  TBLRD*-
59D2:  TBLRD*+
59D4:  MOVF   FF5,W
59D6:  MOVWF  FEE
59D8:  IORLW  00
59DA:  BNZ   59D2
59DC:  MOVLW  06
59DE:  MOVLB  6
59E0:  MOVWF  x40
59E2:  MOVLW  1F
59E4:  MOVWF  x3F
59E6:  MOVLW  73
59E8:  MOVWF  x41
59EA:  MOVLW  2A
59EC:  MOVWF  x42
59EE:  MOVLW  02
59F0:  MOVWF  x43
59F2:  MOVLW  01
59F4:  MOVWF  x44
59F6:  MOVLB  0
59F8:  CALL   1294
....................          //displayTiempo(Tpulsomin*10,97,42,3,1);strcpy(Menus.Letra,"%");displayMenu(Menus.Letra,115,42,2,1); 
....................           
....................          if(flag_display==1) 
59FC:  MOVLB  5
59FE:  BTFSS  x94.5
5A00:  BRA    5A2A
....................             //displayTiempo(Ganancia,97,13,3,1); 
....................             //displayTemperatura(Prom,97,13,0,1); 
....................             displayT(Prom,97,13,1); 
5A02:  MOVFF  5EA,642
5A06:  MOVFF  5E9,641
5A0A:  MOVFF  5E8,640
5A0E:  MOVFF  5E7,63F
5A12:  MOVLW  61
5A14:  MOVLB  6
5A16:  MOVWF  x43
5A18:  MOVLW  0D
5A1A:  MOVWF  x44
5A1C:  MOVLW  01
5A1E:  MOVWF  x45
5A20:  MOVLB  0
5A22:  CALL   33A4
5A26:  BRA    5A48
5A28:  MOVLB  5
....................          else 
....................             glcd_rect(97, 13, 115, 18, YES, OFF); 
5A2A:  MOVLW  61
5A2C:  MOVLB  6
5A2E:  MOVWF  x52
5A30:  MOVLW  0D
5A32:  MOVWF  x53
5A34:  MOVLW  73
5A36:  MOVWF  x54
5A38:  MOVLW  12
5A3A:  MOVWF  x55
5A3C:  MOVLW  01
5A3E:  MOVWF  x56
5A40:  CLRF   x57
5A42:  MOVLB  0
5A44:  CALL   11D2
....................           
....................          // Muestra Valor de esterilizacion Programado. 
....................          displayTiempo(Testerilizacion[3],20,2,0,2);displayTiempo(Testerilizacion[2],33,2,0,2); 
5A48:  MOVFF  5C2,640
5A4C:  MOVLW  14
5A4E:  MOVLB  6
5A50:  MOVWF  x41
5A52:  MOVLW  02
5A54:  MOVWF  x42
5A56:  CLRF   x43
5A58:  MOVWF  x44
5A5A:  MOVLB  0
5A5C:  CALL   23B8
5A60:  MOVFF  5C1,640
5A64:  MOVLW  21
5A66:  MOVLB  6
5A68:  MOVWF  x41
5A6A:  MOVLW  02
5A6C:  MOVWF  x42
5A6E:  CLRF   x43
5A70:  MOVWF  x44
5A72:  MOVLB  0
5A74:  CALL   23B8
....................          strcpy(Menus.Letra,":");displayMenu(Menus.Letra,46,2,2,2);  
5A78:  MOVLW  06
5A7A:  MOVWF  FEA
5A7C:  MOVLW  1F
5A7E:  MOVWF  FE9
5A80:  MOVLW  00
5A82:  CALL   0892
5A86:  TBLRD*-
5A88:  TBLRD*+
5A8A:  MOVF   FF5,W
5A8C:  MOVWF  FEE
5A8E:  IORLW  00
5A90:  BNZ   5A88
5A92:  MOVLW  06
5A94:  MOVLB  6
5A96:  MOVWF  x40
5A98:  MOVLW  1F
5A9A:  MOVWF  x3F
5A9C:  MOVLW  2E
5A9E:  MOVWF  x41
5AA0:  MOVLW  02
5AA2:  MOVWF  x42
5AA4:  MOVWF  x43
5AA6:  MOVWF  x44
5AA8:  MOVLB  0
5AAA:  CALL   1294
....................          displayTiempo(Testerilizacion[1],55,2,0,2);displayTiempo(Testerilizacion[0],68,2,0,2); 
5AAE:  MOVFF  5C0,640
5AB2:  MOVLW  37
5AB4:  MOVLB  6
5AB6:  MOVWF  x41
5AB8:  MOVLW  02
5ABA:  MOVWF  x42
5ABC:  CLRF   x43
5ABE:  MOVWF  x44
5AC0:  MOVLB  0
5AC2:  CALL   23B8
5AC6:  MOVFF  5BF,640
5ACA:  MOVLW  44
5ACC:  MOVLB  6
5ACE:  MOVWF  x41
5AD0:  MOVLW  02
5AD2:  MOVWF  x42
5AD4:  CLRF   x43
5AD6:  MOVWF  x44
5AD8:  MOVLB  0
5ADA:  CALL   23B8
....................           
....................          // Muestra Valor de esterilizacion actual. 
....................          strcpy(Menus.Letra,"Time:");displayMenu(Menus.Letra,0,18,2,1);  
5ADE:  MOVLW  06
5AE0:  MOVWF  FEA
5AE2:  MOVLW  1F
5AE4:  MOVWF  FE9
5AE6:  MOVLW  00
5AE8:  CALL   0992
5AEC:  TBLRD*-
5AEE:  TBLRD*+
5AF0:  MOVF   FF5,W
5AF2:  MOVWF  FEE
5AF4:  IORLW  00
5AF6:  BNZ   5AEE
5AF8:  MOVLW  06
5AFA:  MOVLB  6
5AFC:  MOVWF  x40
5AFE:  MOVLW  1F
5B00:  MOVWF  x3F
5B02:  CLRF   x41
5B04:  MOVLW  12
5B06:  MOVWF  x42
5B08:  MOVLW  02
5B0A:  MOVWF  x43
5B0C:  MOVLW  01
5B0E:  MOVWF  x44
5B10:  MOVLB  0
5B12:  CALL   1294
....................          displayTiempo(Testerilizacionp[3],30,18,0,1);displayTiempo(Testerilizacionp[2],36,18,0,1); 
5B16:  MOVFF  5C6,640
5B1A:  MOVLW  1E
5B1C:  MOVLB  6
5B1E:  MOVWF  x41
5B20:  MOVLW  12
5B22:  MOVWF  x42
5B24:  CLRF   x43
5B26:  MOVLW  01
5B28:  MOVWF  x44
5B2A:  MOVLB  0
5B2C:  CALL   23B8
5B30:  MOVFF  5C5,640
5B34:  MOVLW  24
5B36:  MOVLB  6
5B38:  MOVWF  x41
5B3A:  MOVLW  12
5B3C:  MOVWF  x42
5B3E:  CLRF   x43
5B40:  MOVLW  01
5B42:  MOVWF  x44
5B44:  MOVLB  0
5B46:  CALL   23B8
....................          strcpy(Menus.Letra,":");displayMenu(Menus.Letra,42,18,2,1);  
5B4A:  MOVLW  06
5B4C:  MOVWF  FEA
5B4E:  MOVLW  1F
5B50:  MOVWF  FE9
5B52:  MOVLW  00
5B54:  CALL   0892
5B58:  TBLRD*-
5B5A:  TBLRD*+
5B5C:  MOVF   FF5,W
5B5E:  MOVWF  FEE
5B60:  IORLW  00
5B62:  BNZ   5B5A
5B64:  MOVLW  06
5B66:  MOVLB  6
5B68:  MOVWF  x40
5B6A:  MOVLW  1F
5B6C:  MOVWF  x3F
5B6E:  MOVLW  2A
5B70:  MOVWF  x41
5B72:  MOVLW  12
5B74:  MOVWF  x42
5B76:  MOVLW  02
5B78:  MOVWF  x43
5B7A:  MOVLW  01
5B7C:  MOVWF  x44
5B7E:  MOVLB  0
5B80:  CALL   1294
....................          displayTiempo(Testerilizacionp[1],48,18,0,1);displayTiempo(Testerilizacionp[0],54,18,0,1); 
5B84:  MOVFF  5C4,640
5B88:  MOVLW  30
5B8A:  MOVLB  6
5B8C:  MOVWF  x41
5B8E:  MOVLW  12
5B90:  MOVWF  x42
5B92:  CLRF   x43
5B94:  MOVLW  01
5B96:  MOVWF  x44
5B98:  MOVLB  0
5B9A:  CALL   23B8
5B9E:  MOVFF  5C3,640
5BA2:  MOVLW  36
5BA4:  MOVLB  6
5BA6:  MOVWF  x41
5BA8:  MOVLW  12
5BAA:  MOVWF  x42
5BAC:  CLRF   x43
5BAE:  MOVLW  01
5BB0:  MOVWF  x44
5BB2:  MOVLB  0
5BB4:  CALL   23B8
....................          strcpy(Menus.Letra,"(H:M)");displayMenu(Menus.Letra,60,18,2,1);  
5BB8:  MOVLW  06
5BBA:  MOVWF  FEA
5BBC:  MOVLW  1F
5BBE:  MOVWF  FE9
5BC0:  MOVLW  00
5BC2:  CALL   09A8
5BC6:  TBLRD*-
5BC8:  TBLRD*+
5BCA:  MOVF   FF5,W
5BCC:  MOVWF  FEE
5BCE:  IORLW  00
5BD0:  BNZ   5BC8
5BD2:  MOVLW  06
5BD4:  MOVLB  6
5BD6:  MOVWF  x40
5BD8:  MOVLW  1F
5BDA:  MOVWF  x3F
5BDC:  MOVLW  3C
5BDE:  MOVWF  x41
5BE0:  MOVLW  12
5BE2:  MOVWF  x42
5BE4:  MOVLW  02
5BE6:  MOVWF  x43
5BE8:  MOVLW  01
5BEA:  MOVWF  x44
5BEC:  MOVLB  0
5BEE:  CALL   1294
....................           
....................          glcd_rect(0, 0, 89, 27, NO, ON); 
5BF2:  MOVLB  6
5BF4:  CLRF   x52
5BF6:  CLRF   x53
5BF8:  MOVLW  59
5BFA:  MOVWF  x54
5BFC:  MOVLW  1B
5BFE:  MOVWF  x55
5C00:  CLRF   x56
5C02:  MOVLW  01
5C04:  MOVWF  x57
5C06:  MOVLB  0
5C08:  CALL   11D2
....................          glcd_rect(0, 27, 89, 54, NO, ON); 
5C0C:  MOVLB  6
5C0E:  CLRF   x52
5C10:  MOVLW  1B
5C12:  MOVWF  x53
5C14:  MOVLW  59
5C16:  MOVWF  x54
5C18:  MOVLW  36
5C1A:  MOVWF  x55
5C1C:  CLRF   x56
5C1E:  MOVLW  01
5C20:  MOVWF  x57
5C22:  MOVLB  0
5C24:  CALL   11D2
5C28:  MOVLB  5
....................       }  
....................        
....................       // Si cumplio el tiempo de esterilizacin, Muestre ciclo finalizado y detenga control de temperatura. 
....................       if((Testerilizacion[0]>=Testerilizacionp[0])&&(Testerilizacion[1]>=Testerilizacionp[1])&&(Testerilizacion[2]>=Testerilizacionp[2])&&(Testerilizacion[3]>=Testerilizacionp[3]) && tiempo_esterilizacion==1) 
5C2A:  MOVF   xC3,W
5C2C:  XORLW  80
5C2E:  MOVWF  00
5C30:  MOVF   xBF,W
5C32:  XORLW  80
5C34:  SUBWF  00,W
5C36:  BZ    5C3A
5C38:  BC    5CDA
5C3A:  MOVF   xC4,W
5C3C:  XORLW  80
5C3E:  MOVWF  00
5C40:  MOVF   xC0,W
5C42:  XORLW  80
5C44:  SUBWF  00,W
5C46:  BZ    5C4A
5C48:  BC    5CDA
5C4A:  MOVF   xC5,W
5C4C:  XORLW  80
5C4E:  MOVWF  00
5C50:  MOVF   xC1,W
5C52:  XORLW  80
5C54:  SUBWF  00,W
5C56:  BZ    5C5A
5C58:  BC    5CDA
5C5A:  MOVF   xC6,W
5C5C:  XORLW  80
5C5E:  MOVWF  00
5C60:  MOVF   xC2,W
5C62:  XORLW  80
5C64:  SUBWF  00,W
5C66:  BZ    5C6A
5C68:  BC    5CDA
5C6A:  DECFSZ x9F,W
5C6C:  BRA    5CDA
....................       { 
....................          if(flag_clear==0) 
5C6E:  BTFSC  x94.0
5C70:  BRA    5C9C
....................          { 
....................             glcd_fillScreen(OFF); 
5C72:  MOVLB  6
5C74:  CLRF   x40
5C76:  MOVLB  0
5C78:  CALL   0C90
....................             //glcd_rect(0, 55, 127, 63, YES, OFF); 
....................             tiempo_esterilizacion=0; 
5C7C:  MOVLB  5
5C7E:  CLRF   x9F
....................             Pausa=2; 
5C80:  MOVLW  02
5C82:  MOVWF  x9B
....................             flag_clear=1; 
5C84:  BSF    x94.0
....................             Resistencia_off; 
5C86:  BCF    F8B.0
5C88:  BCF    F94.0
....................             Peltierp_off; 
5C8A:  BCF    F8B.2
5C8C:  BCF    F94.2
....................             Peltiern_off; 
5C8E:  BCF    F8B.1
5C90:  BCF    F94.1
....................             Tpulso=0.0; 
5C92:  CLRF   xE2
5C94:  CLRF   xE1
5C96:  CLRF   xE0
5C98:  CLRF   xDF
....................             flag_ganancia=0; 
5C9A:  CLRF   x8F
....................          } 
....................          Controlando=0; 
5C9C:  CLRF   x92
....................          strcpy(Menus.Letra,"Status:Finalizado"); 
5C9E:  MOVLW  06
5CA0:  MOVWF  FEA
5CA2:  MOVLW  1F
5CA4:  MOVWF  FE9
5CA6:  MOVLW  00
5CA8:  MOVLB  0
5CAA:  CALL   09BE
5CAE:  TBLRD*-
5CB0:  TBLRD*+
5CB2:  MOVF   FF5,W
5CB4:  MOVWF  FEE
5CB6:  IORLW  00
5CB8:  BNZ   5CB0
....................          displayMenu(Menus.Letra,0,55,2,1); 
5CBA:  MOVLW  06
5CBC:  MOVLB  6
5CBE:  MOVWF  x40
5CC0:  MOVLW  1F
5CC2:  MOVWF  x3F
5CC4:  CLRF   x41
5CC6:  MOVLW  37
5CC8:  MOVWF  x42
5CCA:  MOVLW  02
5CCC:  MOVWF  x43
5CCE:  MOVLW  01
5CD0:  MOVWF  x44
5CD2:  MOVLB  0
5CD4:  CALL   1294
5CD8:  MOVLB  5
....................       }  
....................        
....................       if(tinicio>=60) 
5CDA:  MOVF   xA8,F
5CDC:  BNZ   5CE4
5CDE:  MOVF   xA7,W
5CE0:  SUBLW  3B
5CE2:  BC    5D20
....................       { 
....................          tinicio=0; 
5CE4:  CLRF   xA8
5CE6:  CLRF   xA7
....................          Testerilizacion[0]++; 
5CE8:  INCF   xBF,F
....................          if(Testerilizacion[0]>9) 
5CEA:  BTFSC  xBF.7
5CEC:  BRA    5CF8
5CEE:  MOVF   xBF,W
5CF0:  SUBLW  09
5CF2:  BC    5CF8
....................          { 
....................             Testerilizacion[0]=0; 
5CF4:  CLRF   xBF
....................             Testerilizacion[1]++; 
5CF6:  INCF   xC0,F
....................          } 
....................          if(Testerilizacion[1]>5) 
5CF8:  BTFSC  xC0.7
5CFA:  BRA    5D06
5CFC:  MOVF   xC0,W
5CFE:  SUBLW  05
5D00:  BC    5D06
....................          { 
....................             Testerilizacion[1]=0; 
5D02:  CLRF   xC0
....................             Testerilizacion[2]++; 
5D04:  INCF   xC1,F
....................          } 
....................          if(Testerilizacion[2]>9) 
5D06:  BTFSC  xC1.7
5D08:  BRA    5D14
5D0A:  MOVF   xC1,W
5D0C:  SUBLW  09
5D0E:  BC    5D14
....................          { 
....................             Testerilizacion[2]=0; 
5D10:  CLRF   xC1
....................             Testerilizacion[3]++; 
5D12:  INCF   xC2,F
....................          } 
....................          if(Testerilizacion[3]>9) 
5D14:  BTFSC  xC2.7
5D16:  BRA    5D20
5D18:  MOVF   xC2,W
5D1A:  SUBLW  09
5D1C:  BC    5D20
....................          { 
....................             Testerilizacion[3]=0; 
5D1E:  CLRF   xC2
....................          } 
....................       } 
....................        
....................       if(LEFT)//Si oprime boton de Toma. 
5D20:  BSF    F96.2
5D22:  BTFSS  F84.2
5D24:  BRA    5D5C
....................       { 
....................          if(Pausa!=2) 
5D26:  MOVF   x9B,W
5D28:  SUBLW  02
5D2A:  BZ    5D5C
....................          { 
....................             delay_ms(500);Menu=30;glcd_fillscreen(OFF);Opcion=1;visual=1;Pausa=1; 
5D2C:  MOVLW  02
5D2E:  MOVLB  6
5D30:  MOVWF  x3F
5D32:  MOVLW  FA
5D34:  MOVWF  x45
5D36:  MOVLB  0
5D38:  CALL   0B76
5D3C:  MOVLB  6
5D3E:  DECFSZ x3F,F
5D40:  BRA    5D32
5D42:  MOVLW  1E
5D44:  MOVLB  5
5D46:  MOVWF  x98
5D48:  MOVLB  6
5D4A:  CLRF   x40
5D4C:  MOVLB  0
5D4E:  CALL   0C90
5D52:  MOVLW  01
5D54:  MOVLB  5
5D56:  MOVWF  x9E
5D58:  BSF    x93.3
5D5A:  MOVWF  x9B
....................          } 
....................       } 
....................          
....................     } 
.................... //_--------------------------------------------------------------------------------------------------------------------------------------------------------        
....................  
.................... //_-------------------------------------------------------------------------------------------------------------------------------------------------------- 
....................       if(Menu==30){ //Menu de Retroceso 
5D5C:  MOVF   x98,W
5D5E:  SUBLW  1E
5D60:  BTFSS  FD8.2
5D62:  BRA    5F52
....................        
....................       strcpy(Menus.Letra,"Regresar"); 
5D64:  MOVLW  06
5D66:  MOVWF  FEA
5D68:  MOVLW  1F
5D6A:  MOVWF  FE9
5D6C:  MOVLW  00
5D6E:  MOVLB  0
5D70:  CALL   09E0
5D74:  TBLRD*-
5D76:  TBLRD*+
5D78:  MOVF   FF5,W
5D7A:  MOVWF  FEE
5D7C:  IORLW  00
5D7E:  BNZ   5D76
....................       displayMenu(Menus.Letra,0,0,1,2); 
5D80:  MOVLW  06
5D82:  MOVLB  6
5D84:  MOVWF  x40
5D86:  MOVLW  1F
5D88:  MOVWF  x3F
5D8A:  CLRF   x41
5D8C:  CLRF   x42
5D8E:  MOVLW  01
5D90:  MOVWF  x43
5D92:  MOVLW  02
5D94:  MOVWF  x44
5D96:  MOVLB  0
5D98:  CALL   1294
....................           
....................       if(Opcion==2) 
5D9C:  MOVLB  5
5D9E:  MOVF   x9E,W
5DA0:  SUBLW  02
5DA2:  BNZ   5E1A
....................       {strcpy(Menus.Letra,"SI"); 
5DA4:  MOVLW  06
5DA6:  MOVWF  FEA
5DA8:  MOVLW  1F
5DAA:  MOVWF  FE9
5DAC:  MOVLW  00
5DAE:  MOVLB  0
5DB0:  CALL   083E
5DB4:  TBLRD*-
5DB6:  TBLRD*+
5DB8:  MOVF   FF5,W
5DBA:  MOVWF  FEE
5DBC:  IORLW  00
5DBE:  BNZ   5DB6
....................       displayMenu(Menus.Letra,50,25,1,2); 
5DC0:  MOVLW  06
5DC2:  MOVLB  6
5DC4:  MOVWF  x40
5DC6:  MOVLW  1F
5DC8:  MOVWF  x3F
5DCA:  MOVLW  32
5DCC:  MOVWF  x41
5DCE:  MOVLW  19
5DD0:  MOVWF  x42
5DD2:  MOVLW  01
5DD4:  MOVWF  x43
5DD6:  MOVLW  02
5DD8:  MOVWF  x44
5DDA:  MOVLB  0
5DDC:  CALL   1294
....................       strcpy(Menus.Letra,"NO"); 
5DE0:  MOVLW  06
5DE2:  MOVWF  FEA
5DE4:  MOVLW  1F
5DE6:  MOVWF  FE9
5DE8:  MOVLW  00
5DEA:  CALL   0852
5DEE:  TBLRD*-
5DF0:  TBLRD*+
5DF2:  MOVF   FF5,W
5DF4:  MOVWF  FEE
5DF6:  IORLW  00
5DF8:  BNZ   5DF0
....................       displayMenu(Menus.Letra,50,45,0,2); 
5DFA:  MOVLW  06
5DFC:  MOVLB  6
5DFE:  MOVWF  x40
5E00:  MOVLW  1F
5E02:  MOVWF  x3F
5E04:  MOVLW  32
5E06:  MOVWF  x41
5E08:  MOVLW  2D
5E0A:  MOVWF  x42
5E0C:  CLRF   x43
5E0E:  MOVLW  02
5E10:  MOVWF  x44
5E12:  MOVLB  0
5E14:  CALL   1294
5E18:  MOVLB  5
....................       } 
....................       if(Opcion==1) 
5E1A:  DECFSZ x9E,W
5E1C:  BRA    5E94
....................       {strcpy(Menus.Letra,"SI"); 
5E1E:  MOVLW  06
5E20:  MOVWF  FEA
5E22:  MOVLW  1F
5E24:  MOVWF  FE9
5E26:  MOVLW  00
5E28:  MOVLB  0
5E2A:  CALL   083E
5E2E:  TBLRD*-
5E30:  TBLRD*+
5E32:  MOVF   FF5,W
5E34:  MOVWF  FEE
5E36:  IORLW  00
5E38:  BNZ   5E30
....................       displayMenu(Menus.Letra,50,25,0,2); 
5E3A:  MOVLW  06
5E3C:  MOVLB  6
5E3E:  MOVWF  x40
5E40:  MOVLW  1F
5E42:  MOVWF  x3F
5E44:  MOVLW  32
5E46:  MOVWF  x41
5E48:  MOVLW  19
5E4A:  MOVWF  x42
5E4C:  CLRF   x43
5E4E:  MOVLW  02
5E50:  MOVWF  x44
5E52:  MOVLB  0
5E54:  CALL   1294
....................       strcpy(Menus.Letra,"NO"); 
5E58:  MOVLW  06
5E5A:  MOVWF  FEA
5E5C:  MOVLW  1F
5E5E:  MOVWF  FE9
5E60:  MOVLW  00
5E62:  CALL   0852
5E66:  TBLRD*-
5E68:  TBLRD*+
5E6A:  MOVF   FF5,W
5E6C:  MOVWF  FEE
5E6E:  IORLW  00
5E70:  BNZ   5E68
....................       displayMenu(Menus.Letra,50,45,1,2); 
5E72:  MOVLW  06
5E74:  MOVLB  6
5E76:  MOVWF  x40
5E78:  MOVLW  1F
5E7A:  MOVWF  x3F
5E7C:  MOVLW  32
5E7E:  MOVWF  x41
5E80:  MOVLW  2D
5E82:  MOVWF  x42
5E84:  MOVLW  01
5E86:  MOVWF  x43
5E88:  MOVLW  02
5E8A:  MOVWF  x44
5E8C:  MOVLB  0
5E8E:  CALL   1294
5E92:  MOVLB  5
....................       }   
....................          
....................       if(UP)//Si oprime hacia arriba 
5E94:  BSF    F92.5
5E96:  BTFSS  F80.5
5E98:  BRA    5EA4
....................       { 
....................          if(Opcion<2) 
5E9A:  MOVF   x9E,W
5E9C:  SUBLW  01
5E9E:  BNC   5EA2
....................          { 
....................             Opcion++; 
5EA0:  INCF   x9E,F
....................          } 
....................          visual=1; 
5EA2:  BSF    x93.3
....................       } 
....................              
....................       if(DOWN)//Si oprime hacia abajo 
5EA4:  BSF    F96.0
5EA6:  BTFSS  F84.0
5EA8:  BRA    5EB4
....................       {   
....................          if(Opcion>1) 
5EAA:  MOVF   x9E,W
5EAC:  SUBLW  01
5EAE:  BC    5EB2
....................          { 
....................             Opcion--; 
5EB0:  DECF   x9E,F
....................          }   
....................          visual=1; 
5EB2:  BSF    x93.3
....................       } 
....................        
....................        
....................       if(RIGHT)//Si oprime SET 
5EB4:  BSF    F96.1
5EB6:  BTFSS  F84.1
5EB8:  BRA    5F1E
....................       {   
....................          if(Opcion==2) 
5EBA:  MOVF   x9E,W
5EBC:  SUBLW  02
5EBE:  BNZ   5EF0
....................          { 
....................             Menu=1;glcd_fillScreen(OFF);Testerilizacion[0]=0;Testerilizacion[1]=0;Testerilizacion[2]=0;Testerilizacion[3]=0; 
5EC0:  MOVLW  01
5EC2:  MOVWF  x98
5EC4:  MOVLB  6
5EC6:  CLRF   x40
5EC8:  MOVLB  0
5ECA:  CALL   0C90
5ECE:  MOVLB  5
5ED0:  CLRF   xBF
5ED2:  CLRF   xC0
5ED4:  CLRF   xC1
5ED6:  CLRF   xC2
....................             Resistencia_off; 
5ED8:  BCF    F8B.0
5EDA:  BCF    F94.0
....................             Peltierp_off; 
5EDC:  BCF    F8B.2
5EDE:  BCF    F94.2
....................             Controlando=0; 
5EE0:  CLRF   x92
....................             Tpulso=0.0; 
5EE2:  CLRF   xE2
5EE4:  CLRF   xE1
5EE6:  CLRF   xE0
5EE8:  CLRF   xDF
....................             Opcion=1; 
5EEA:  MOVLW  01
5EEC:  MOVWF  x9E
....................          } 
5EEE:  BRA    5F1E
....................          else 
....................          { 
....................             delay_ms(700);Menu=20;glcd_fillscreen(OFF);Opcion=1;visual=1; 
5EF0:  MOVLW  04
5EF2:  MOVLB  6
5EF4:  MOVWF  x3F
5EF6:  MOVLW  AF
5EF8:  MOVWF  x45
5EFA:  MOVLB  0
5EFC:  CALL   0B76
5F00:  MOVLB  6
5F02:  DECFSZ x3F,F
5F04:  BRA    5EF6
5F06:  MOVLW  14
5F08:  MOVLB  5
5F0A:  MOVWF  x98
5F0C:  MOVLB  6
5F0E:  CLRF   x40
5F10:  MOVLB  0
5F12:  CALL   0C90
5F16:  MOVLW  01
5F18:  MOVLB  5
5F1A:  MOVWF  x9E
5F1C:  BSF    x93.3
....................          } 
....................       }  
....................                    
....................       if(LEFT)//Si oprime boton de Toma. 
5F1E:  BSF    F96.2
5F20:  BTFSS  F84.2
5F22:  BRA    5F52
....................       { 
....................          delay_ms(700);Menu=20;glcd_fillscreen(OFF);Opcion=1;visual=1; 
5F24:  MOVLW  04
5F26:  MOVLB  6
5F28:  MOVWF  x3F
5F2A:  MOVLW  AF
5F2C:  MOVWF  x45
5F2E:  MOVLB  0
5F30:  CALL   0B76
5F34:  MOVLB  6
5F36:  DECFSZ x3F,F
5F38:  BRA    5F2A
5F3A:  MOVLW  14
5F3C:  MOVLB  5
5F3E:  MOVWF  x98
5F40:  MOVLB  6
5F42:  CLRF   x40
5F44:  MOVLB  0
5F46:  CALL   0C90
5F4A:  MOVLW  01
5F4C:  MOVLB  5
5F4E:  MOVWF  x9E
5F50:  BSF    x93.3
....................       } 
....................          
....................     } 
.................... //_--------------------------------------------------------------------------------------------------------------------------------------------------------        
....................  
.................... //_-------------------------------------------------------------------------------------------------------------------------------------------------------- 
....................       if(Menu==100){ //Menu de Configuracin de Parametros de Control 
5F52:  MOVF   x98,W
5F54:  SUBLW  64
5F56:  BTFSS  FD8.2
5F58:  BRA    62CC
....................        
....................       if(Opcion>6) 
5F5A:  MOVF   x9E,W
5F5C:  SUBLW  06
5F5E:  BC    5F64
....................       {Opcion=1;} 
5F60:  MOVLW  01
5F62:  MOVWF  x9E
....................       if(Opcion<1) 
5F64:  MOVF   x9E,F
5F66:  BNZ   5F6C
....................       {Opcion=6;} 
5F68:  MOVLW  06
5F6A:  MOVWF  x9E
....................        
....................          if(Opcion==1)    
5F6C:  DECFSZ x9E,W
5F6E:  BRA    5FAA
....................             {strcpy(Menus.Letra,"Ganancia"); 
5F70:  MOVLW  06
5F72:  MOVWF  FEA
5F74:  MOVLW  1F
5F76:  MOVWF  FE9
5F78:  MOVLW  00
5F7A:  MOVLB  0
5F7C:  CALL   09FA
5F80:  TBLRD*-
5F82:  TBLRD*+
5F84:  MOVF   FF5,W
5F86:  MOVWF  FEE
5F88:  IORLW  00
5F8A:  BNZ   5F82
....................             displayMenu(Menus.Letra,0,0,1,1);} 
5F8C:  MOVLW  06
5F8E:  MOVLB  6
5F90:  MOVWF  x40
5F92:  MOVLW  1F
5F94:  MOVWF  x3F
5F96:  CLRF   x41
5F98:  CLRF   x42
5F9A:  MOVLW  01
5F9C:  MOVWF  x43
5F9E:  MOVWF  x44
5FA0:  MOVLB  0
5FA2:  CALL   1294
5FA6:  BRA    5FE0
5FA8:  MOVLB  5
....................          else 
....................             {strcpy(Menus.Letra,"Ganancia"); 
5FAA:  MOVLW  06
5FAC:  MOVWF  FEA
5FAE:  MOVLW  1F
5FB0:  MOVWF  FE9
5FB2:  MOVLW  00
5FB4:  MOVLB  0
5FB6:  CALL   09FA
5FBA:  TBLRD*-
5FBC:  TBLRD*+
5FBE:  MOVF   FF5,W
5FC0:  MOVWF  FEE
5FC2:  IORLW  00
5FC4:  BNZ   5FBC
....................             displayMenu(Menus.Letra,0,0,0,1);} 
5FC6:  MOVLW  06
5FC8:  MOVLB  6
5FCA:  MOVWF  x40
5FCC:  MOVLW  1F
5FCE:  MOVWF  x3F
5FD0:  CLRF   x41
5FD2:  CLRF   x42
5FD4:  CLRF   x43
5FD6:  MOVLW  01
5FD8:  MOVWF  x44
5FDA:  MOVLB  0
5FDC:  CALL   1294
....................           
....................          if(Opcion==2)    
5FE0:  MOVLB  5
5FE2:  MOVF   x9E,W
5FE4:  SUBLW  02
5FE6:  BNZ   6024
....................             {strcpy(Menus.Letra,"Tciclo"); 
5FE8:  MOVLW  06
5FEA:  MOVWF  FEA
5FEC:  MOVLW  1F
5FEE:  MOVWF  FE9
5FF0:  MOVLW  00
5FF2:  MOVLB  0
5FF4:  CALL   0A14
5FF8:  TBLRD*-
5FFA:  TBLRD*+
5FFC:  MOVF   FF5,W
5FFE:  MOVWF  FEE
6000:  IORLW  00
6002:  BNZ   5FFA
....................             displayMenu(Menus.Letra,0,9,1,1);} 
6004:  MOVLW  06
6006:  MOVLB  6
6008:  MOVWF  x40
600A:  MOVLW  1F
600C:  MOVWF  x3F
600E:  CLRF   x41
6010:  MOVLW  09
6012:  MOVWF  x42
6014:  MOVLW  01
6016:  MOVWF  x43
6018:  MOVWF  x44
601A:  MOVLB  0
601C:  CALL   1294
6020:  BRA    605C
6022:  MOVLB  5
....................          else 
....................             {strcpy(Menus.Letra,"Tciclo"); 
6024:  MOVLW  06
6026:  MOVWF  FEA
6028:  MOVLW  1F
602A:  MOVWF  FE9
602C:  MOVLW  00
602E:  MOVLB  0
6030:  CALL   0A14
6034:  TBLRD*-
6036:  TBLRD*+
6038:  MOVF   FF5,W
603A:  MOVWF  FEE
603C:  IORLW  00
603E:  BNZ   6036
....................             displayMenu(Menus.Letra,0,9,0,1);} 
6040:  MOVLW  06
6042:  MOVLB  6
6044:  MOVWF  x40
6046:  MOVLW  1F
6048:  MOVWF  x3F
604A:  CLRF   x41
604C:  MOVLW  09
604E:  MOVWF  x42
6050:  CLRF   x43
6052:  MOVLW  01
6054:  MOVWF  x44
6056:  MOVLB  0
6058:  CALL   1294
....................              
....................          if(Opcion==3)    
605C:  MOVLB  5
605E:  MOVF   x9E,W
6060:  SUBLW  03
6062:  BNZ   60A0
....................             {strcpy(Menus.Letra,"Ajuste +"); 
6064:  MOVLW  06
6066:  MOVWF  FEA
6068:  MOVLW  1F
606A:  MOVWF  FE9
606C:  MOVLW  00
606E:  MOVLB  0
6070:  CALL   0A2C
6074:  TBLRD*-
6076:  TBLRD*+
6078:  MOVF   FF5,W
607A:  MOVWF  FEE
607C:  IORLW  00
607E:  BNZ   6076
....................             displayMenu(Menus.Letra,0,18,1,1);} 
6080:  MOVLW  06
6082:  MOVLB  6
6084:  MOVWF  x40
6086:  MOVLW  1F
6088:  MOVWF  x3F
608A:  CLRF   x41
608C:  MOVLW  12
608E:  MOVWF  x42
6090:  MOVLW  01
6092:  MOVWF  x43
6094:  MOVWF  x44
6096:  MOVLB  0
6098:  CALL   1294
609C:  BRA    60D8
609E:  MOVLB  5
....................          else 
....................             {strcpy(Menus.Letra,"Ajuste +"); 
60A0:  MOVLW  06
60A2:  MOVWF  FEA
60A4:  MOVLW  1F
60A6:  MOVWF  FE9
60A8:  MOVLW  00
60AA:  MOVLB  0
60AC:  CALL   0A2C
60B0:  TBLRD*-
60B2:  TBLRD*+
60B4:  MOVF   FF5,W
60B6:  MOVWF  FEE
60B8:  IORLW  00
60BA:  BNZ   60B2
....................             displayMenu(Menus.Letra,0,18,0,1);}    
60BC:  MOVLW  06
60BE:  MOVLB  6
60C0:  MOVWF  x40
60C2:  MOVLW  1F
60C4:  MOVWF  x3F
60C6:  CLRF   x41
60C8:  MOVLW  12
60CA:  MOVWF  x42
60CC:  CLRF   x43
60CE:  MOVLW  01
60D0:  MOVWF  x44
60D2:  MOVLB  0
60D4:  CALL   1294
....................                          
....................          if(Opcion==4)    
60D8:  MOVLB  5
60DA:  MOVF   x9E,W
60DC:  SUBLW  04
60DE:  BNZ   611C
....................             {strcpy(Menus.Letra,"Ajuste -"); 
60E0:  MOVLW  06
60E2:  MOVWF  FEA
60E4:  MOVLW  1F
60E6:  MOVWF  FE9
60E8:  MOVLW  00
60EA:  MOVLB  0
60EC:  CALL   0A46
60F0:  TBLRD*-
60F2:  TBLRD*+
60F4:  MOVF   FF5,W
60F6:  MOVWF  FEE
60F8:  IORLW  00
60FA:  BNZ   60F2
....................             displayMenu(Menus.Letra,0,27,1,1);} 
60FC:  MOVLW  06
60FE:  MOVLB  6
6100:  MOVWF  x40
6102:  MOVLW  1F
6104:  MOVWF  x3F
6106:  CLRF   x41
6108:  MOVLW  1B
610A:  MOVWF  x42
610C:  MOVLW  01
610E:  MOVWF  x43
6110:  MOVWF  x44
6112:  MOVLB  0
6114:  CALL   1294
6118:  BRA    6154
611A:  MOVLB  5
....................          else 
....................             {strcpy(Menus.Letra,"Ajuste -"); 
611C:  MOVLW  06
611E:  MOVWF  FEA
6120:  MOVLW  1F
6122:  MOVWF  FE9
6124:  MOVLW  00
6126:  MOVLB  0
6128:  CALL   0A46
612C:  TBLRD*-
612E:  TBLRD*+
6130:  MOVF   FF5,W
6132:  MOVWF  FEE
6134:  IORLW  00
6136:  BNZ   612E
....................             displayMenu(Menus.Letra,0,27,0,1);}      
6138:  MOVLW  06
613A:  MOVLB  6
613C:  MOVWF  x40
613E:  MOVLW  1F
6140:  MOVWF  x3F
6142:  CLRF   x41
6144:  MOVLW  1B
6146:  MOVWF  x42
6148:  CLRF   x43
614A:  MOVLW  01
614C:  MOVWF  x44
614E:  MOVLB  0
6150:  CALL   1294
....................              
....................          if(Opcion==5)    
6154:  MOVLB  5
6156:  MOVF   x9E,W
6158:  SUBLW  05
615A:  BNZ   6198
....................             {strcpy(Menus.Letra,"Media Movil"); 
615C:  MOVLW  06
615E:  MOVWF  FEA
6160:  MOVLW  1F
6162:  MOVWF  FE9
6164:  MOVLW  00
6166:  MOVLB  0
6168:  CALL   0A60
616C:  TBLRD*-
616E:  TBLRD*+
6170:  MOVF   FF5,W
6172:  MOVWF  FEE
6174:  IORLW  00
6176:  BNZ   616E
....................             displayMenu(Menus.Letra,0,36,1,1);} 
6178:  MOVLW  06
617A:  MOVLB  6
617C:  MOVWF  x40
617E:  MOVLW  1F
6180:  MOVWF  x3F
6182:  CLRF   x41
6184:  MOVLW  24
6186:  MOVWF  x42
6188:  MOVLW  01
618A:  MOVWF  x43
618C:  MOVWF  x44
618E:  MOVLB  0
6190:  CALL   1294
6194:  BRA    61D0
6196:  MOVLB  5
....................          else 
....................             {strcpy(Menus.Letra,"Media Movil"); 
6198:  MOVLW  06
619A:  MOVWF  FEA
619C:  MOVLW  1F
619E:  MOVWF  FE9
61A0:  MOVLW  00
61A2:  MOVLB  0
61A4:  CALL   0A60
61A8:  TBLRD*-
61AA:  TBLRD*+
61AC:  MOVF   FF5,W
61AE:  MOVWF  FEE
61B0:  IORLW  00
61B2:  BNZ   61AA
....................             displayMenu(Menus.Letra,0,36,0,1);}      
61B4:  MOVLW  06
61B6:  MOVLB  6
61B8:  MOVWF  x40
61BA:  MOVLW  1F
61BC:  MOVWF  x3F
61BE:  CLRF   x41
61C0:  MOVLW  24
61C2:  MOVWF  x42
61C4:  CLRF   x43
61C6:  MOVLW  01
61C8:  MOVWF  x44
61CA:  MOVLB  0
61CC:  CALL   1294
....................              
....................          if(Opcion==6)    
61D0:  MOVLB  5
61D2:  MOVF   x9E,W
61D4:  SUBLW  06
61D6:  BNZ   6214
....................             {strcpy(Menus.Letra,"Coeficiente"); 
61D8:  MOVLW  06
61DA:  MOVWF  FEA
61DC:  MOVLW  1F
61DE:  MOVWF  FE9
61E0:  MOVLW  00
61E2:  MOVLB  0
61E4:  CALL   0A7C
61E8:  TBLRD*-
61EA:  TBLRD*+
61EC:  MOVF   FF5,W
61EE:  MOVWF  FEE
61F0:  IORLW  00
61F2:  BNZ   61EA
....................             displayMenu(Menus.Letra,0,45,1,1);} 
61F4:  MOVLW  06
61F6:  MOVLB  6
61F8:  MOVWF  x40
61FA:  MOVLW  1F
61FC:  MOVWF  x3F
61FE:  CLRF   x41
6200:  MOVLW  2D
6202:  MOVWF  x42
6204:  MOVLW  01
6206:  MOVWF  x43
6208:  MOVWF  x44
620A:  MOVLB  0
620C:  CALL   1294
6210:  BRA    624C
6212:  MOVLB  5
....................          else 
....................             {strcpy(Menus.Letra,"Coeficiente"); 
6214:  MOVLW  06
6216:  MOVWF  FEA
6218:  MOVLW  1F
621A:  MOVWF  FE9
621C:  MOVLW  00
621E:  MOVLB  0
6220:  CALL   0A7C
6224:  TBLRD*-
6226:  TBLRD*+
6228:  MOVF   FF5,W
622A:  MOVWF  FEE
622C:  IORLW  00
622E:  BNZ   6226
....................             displayMenu(Menus.Letra,0,45,0,1);}     
6230:  MOVLW  06
6232:  MOVLB  6
6234:  MOVWF  x40
6236:  MOVLW  1F
6238:  MOVWF  x3F
623A:  CLRF   x41
623C:  MOVLW  2D
623E:  MOVWF  x42
6240:  CLRF   x43
6242:  MOVLW  01
6244:  MOVWF  x44
6246:  MOVLB  0
6248:  CALL   1294
....................                
....................        
....................       if(UP)//Si oprime hacia arriba 
624C:  BSF    F92.5
624E:  BTFSS  F80.5
6250:  BRA    6270
....................          {  if(Flanco == 0)  
6252:  MOVLB  5
6254:  BTFSC  x93.0
6256:  BRA    626C
....................                {Flanco = 1;delay_ms(30);Opcion--;visual=1; 
6258:  BSF    x93.0
625A:  MOVLW  1E
625C:  MOVLB  6
625E:  MOVWF  x45
6260:  MOVLB  0
6262:  CALL   0B76
6266:  MOVLB  5
6268:  DECF   x9E,F
626A:  BSF    x93.3
....................                } 
....................          } 
626C:  BRA    6274
626E:  MOVLB  0
....................             else 
....................                {Flanco = 0;} 
6270:  MOVLB  5
6272:  BCF    x93.0
....................                    
....................          if(DOWN)//Si oprime hacia abajo 
6274:  BSF    F96.0
6276:  BTFSS  F84.0
6278:  BRA    6294
....................          {  if(Flanco2 == 0)  
627A:  BTFSC  x93.2
627C:  BRA    6292
....................                {Flanco2 = 1;delay_ms(30);Opcion++;visual=1; 
627E:  BSF    x93.2
6280:  MOVLW  1E
6282:  MOVLB  6
6284:  MOVWF  x45
6286:  MOVLB  0
6288:  CALL   0B76
628C:  MOVLB  5
628E:  INCF   x9E,F
6290:  BSF    x93.3
....................                }      
....................          } 
6292:  BRA    6296
....................             else 
....................                {Flanco2 = 0;}   
6294:  BCF    x93.2
....................                 
....................        if(RIGHT)//Si oprime SET 
6296:  BSF    F96.1
6298:  BTFSS  F84.1
629A:  BRA    62CA
....................          {  if(Flanco1 == 0)  
629C:  BTFSC  x93.1
629E:  BRA    62C8
....................                {Flanco1 = 1;delay_ms(30);Menu=Opcion+100;Opcion=1;glcd_fillscreen(OFF);visual=1; 
62A0:  BSF    x93.1
62A2:  MOVLW  1E
62A4:  MOVLB  6
62A6:  MOVWF  x45
62A8:  MOVLB  0
62AA:  CALL   0B76
62AE:  MOVLW  64
62B0:  MOVLB  5
62B2:  ADDWF  x9E,W
62B4:  MOVWF  x98
62B6:  MOVLW  01
62B8:  MOVWF  x9E
62BA:  MOVLB  6
62BC:  CLRF   x40
62BE:  MOVLB  0
62C0:  CALL   0C90
62C4:  MOVLB  5
62C6:  BSF    x93.3
....................                } 
....................          } 
62C8:  BRA    62CC
....................             else 
....................                {Flanco1 = 0;}   
62CA:  BCF    x93.1
....................       /* 
....................       if(LEFT) 
....................       { 
....................          delay_ms(1000); 
....................          if(Sentido==0) 
....................          { 
....................             Sentido=1; 
....................          } 
....................          else 
....................          { 
....................             Sentido=0; 
....................          } 
....................           
....................       } 
....................        
....................       if(Sentido==0) 
....................          { 
....................             Peltierp_on; 
....................             Peltiern_off; 
....................          } 
....................          else 
....................          { 
....................             Peltierp_off; 
....................             Peltiern_on; 
....................          } 
....................       */ 
....................        
....................     } 
.................... //_--------------------------------------------------------------------------------------------------------------------------------------------------------        
....................  
.................... //_--------------------------------------------------------------------------------------------------------------------------------------------------------       
....................       if(Menu==101){ // Menu de Ajuste de Ganancia 
62CC:  MOVF   x98,W
62CE:  SUBLW  65
62D0:  BTFSS  FD8.2
62D2:  BRA    6520
....................        
....................       if(Ganancia>40) 
62D4:  MOVLB  6
62D6:  CLRF   x42
62D8:  CLRF   x41
62DA:  MOVLW  20
62DC:  MOVWF  x40
62DE:  MOVLW  84
62E0:  MOVWF  x3F
62E2:  MOVFF  5F6,646
62E6:  MOVFF  5F5,645
62EA:  MOVFF  5F4,644
62EE:  MOVFF  5F3,643
62F2:  MOVLB  0
62F4:  CALL   0BD6
62F8:  BNC   6308
....................       { 
....................          Ganancia=2; 
62FA:  MOVLB  5
62FC:  CLRF   xF6
62FE:  CLRF   xF5
6300:  CLRF   xF4
6302:  MOVLW  80
6304:  MOVWF  xF3
6306:  MOVLB  0
....................       } 
....................        
....................       if(visual==1) 
6308:  MOVLB  5
630A:  BTFSS  x93.3
630C:  BRA    638A
....................       { 
....................          glcd_fillScreen(OFF); 
630E:  MOVLB  6
6310:  CLRF   x40
6312:  MOVLB  0
6314:  CALL   0C90
....................          strcpy(Menus.Letra,"Ganancia"); 
6318:  MOVLW  06
631A:  MOVWF  FEA
631C:  MOVLW  1F
631E:  MOVWF  FE9
6320:  MOVLW  00
6322:  CALL   09FA
6326:  TBLRD*-
6328:  TBLRD*+
632A:  MOVF   FF5,W
632C:  MOVWF  FEE
632E:  IORLW  00
6330:  BNZ   6328
....................          displayMenu(Menus.Letra,0,0,1,2); 
6332:  MOVLW  06
6334:  MOVLB  6
6336:  MOVWF  x40
6338:  MOVLW  1F
633A:  MOVWF  x3F
633C:  CLRF   x41
633E:  CLRF   x42
6340:  MOVLW  01
6342:  MOVWF  x43
6344:  MOVLW  02
6346:  MOVWF  x44
6348:  MOVLB  0
634A:  CALL   1294
....................           
....................          displayTemperatura(Ganancia,30,30,0,3); 
634E:  MOVFF  5F6,642
6352:  MOVFF  5F5,641
6356:  MOVFF  5F4,640
635A:  MOVFF  5F3,63F
635E:  CALL   2696
6362:  MOVFF  02,640
6366:  MOVFF  01,63F
636A:  MOVFF  02,642
636E:  MOVFF  01,641
6372:  MOVLW  1E
6374:  MOVLB  6
6376:  MOVWF  x43
6378:  MOVWF  x44
637A:  CLRF   x45
637C:  MOVLW  03
637E:  MOVWF  x46
6380:  MOVLB  0
6382:  CALL   2178
....................           
....................          visual=0; 
6386:  MOVLB  5
6388:  BCF    x93.3
....................       } 
....................        
....................          if(UP)//Si oprime hacia arriba 
638A:  BSF    F92.5
638C:  BTFSS  F80.5
638E:  BRA    641C
....................          {   
....................             if(Ganancia>40) 
6390:  MOVLB  6
6392:  CLRF   x42
6394:  CLRF   x41
6396:  MOVLW  20
6398:  MOVWF  x40
639A:  MOVLW  84
639C:  MOVWF  x3F
639E:  MOVFF  5F6,646
63A2:  MOVFF  5F5,645
63A6:  MOVFF  5F4,644
63AA:  MOVFF  5F3,643
63AE:  MOVLB  0
63B0:  CALL   0BD6
63B4:  BNC   63D8
....................             { 
....................                Ganancia=40;delay_ms(100);visual=1; 
63B6:  MOVLB  5
63B8:  CLRF   xF6
63BA:  CLRF   xF5
63BC:  MOVLW  20
63BE:  MOVWF  xF4
63C0:  MOVLW  84
63C2:  MOVWF  xF3
63C4:  MOVLW  64
63C6:  MOVLB  6
63C8:  MOVWF  x45
63CA:  MOVLB  0
63CC:  CALL   0B76
63D0:  MOVLB  5
63D2:  BSF    x93.3
....................             } 
63D4:  BRA    641C
63D6:  MOVLB  0
....................             else 
....................             { 
....................                delay_ms(30);Ganancia+=1.0;visual=1; 
63D8:  MOVLW  1E
63DA:  MOVLB  6
63DC:  MOVWF  x45
63DE:  MOVLB  0
63E0:  CALL   0B76
63E4:  BCF    FD8.1
63E6:  MOVFF  5F6,647
63EA:  MOVFF  5F5,646
63EE:  MOVFF  5F4,645
63F2:  MOVFF  5F3,644
63F6:  MOVLB  6
63F8:  CLRF   x4B
63FA:  CLRF   x4A
63FC:  CLRF   x49
63FE:  MOVLW  7F
6400:  MOVWF  x48
6402:  MOVLB  0
6404:  CALL   1708
6408:  MOVFF  03,5F6
640C:  MOVFF  02,5F5
6410:  MOVFF  01,5F4
6414:  MOVFF  00,5F3
6418:  MOVLB  5
641A:  BSF    x93.3
....................             } 
....................          } 
....................                 
....................          if(DOWN)//Si oprime hacia abajo 
641C:  BSF    F96.0
641E:  BTFSS  F84.0
6420:  BRA    648A
....................          {   
....................             if(Ganancia>1) 
6422:  MOVLB  6
6424:  CLRF   x42
6426:  CLRF   x41
6428:  CLRF   x40
642A:  MOVLW  7F
642C:  MOVWF  x3F
642E:  MOVFF  5F6,646
6432:  MOVFF  5F5,645
6436:  MOVFF  5F4,644
643A:  MOVFF  5F3,643
643E:  MOVLB  0
6440:  CALL   0BD6
6444:  BNC   648C
....................             { 
....................                delay_ms(30);Ganancia-=1.0;visual=1;      
6446:  MOVLW  1E
6448:  MOVLB  6
644A:  MOVWF  x45
644C:  MOVLB  0
644E:  CALL   0B76
6452:  BSF    FD8.1
6454:  MOVFF  5F6,647
6458:  MOVFF  5F5,646
645C:  MOVFF  5F4,645
6460:  MOVFF  5F3,644
6464:  MOVLB  6
6466:  CLRF   x4B
6468:  CLRF   x4A
646A:  CLRF   x49
646C:  MOVLW  7F
646E:  MOVWF  x48
6470:  MOVLB  0
6472:  CALL   1708
6476:  MOVFF  03,5F6
647A:  MOVFF  02,5F5
647E:  MOVFF  01,5F4
6482:  MOVFF  00,5F3
6486:  MOVLB  5
6488:  BSF    x93.3
648A:  MOVLB  0
....................             } 
....................          } 
....................                 
....................          if(RIGHT)//Si oprime SET 
648C:  BSF    F96.1
648E:  BTFSS  F84.1
6490:  BRA    64A4
....................          {   
....................             delay_ms(30);visual=1; 
6492:  MOVLW  1E
6494:  MOVLB  6
6496:  MOVWF  x45
6498:  MOVLB  0
649A:  CALL   0B76
649E:  MOVLB  5
64A0:  BSF    x93.3
64A2:  MOVLB  0
....................          }  
....................                    
....................          if(LEFT)//Si oprime boton de Toma. 
64A4:  BSF    F96.2
64A6:  BTFSS  F84.2
64A8:  BRA    651E
....................          { 
....................             delay_ms(700);Menu=100;glcd_fillscreen(OFF);Opcion=1;visual=1; 
64AA:  MOVLW  04
64AC:  MOVLB  6
64AE:  MOVWF  x3F
64B0:  MOVLW  AF
64B2:  MOVWF  x45
64B4:  MOVLB  0
64B6:  CALL   0B76
64BA:  MOVLB  6
64BC:  DECFSZ x3F,F
64BE:  BRA    64B0
64C0:  MOVLW  64
64C2:  MOVLB  5
64C4:  MOVWF  x98
64C6:  MOVLB  6
64C8:  CLRF   x40
64CA:  MOVLB  0
64CC:  CALL   0C90
64D0:  MOVLW  01
64D2:  MOVLB  5
64D4:  MOVWF  x9E
64D6:  BSF    x93.3
....................             write_eeprom(90,(int8)Ganancia); 
64D8:  MOVFF  5F6,642
64DC:  MOVFF  5F5,641
64E0:  MOVFF  5F4,640
64E4:  MOVFF  5F3,63F
64E8:  MOVLB  0
64EA:  CALL   2696
64EE:  MOVFF  01,63F
64F2:  MOVF   FF2,W
64F4:  MOVWF  00
64F6:  BCF    FF2.7
64F8:  MOVLW  5A
64FA:  MOVWF  FA9
64FC:  MOVFF  63F,FA8
6500:  BCF    FA6.6
6502:  BCF    FA6.7
6504:  BSF    FA6.2
6506:  MOVLB  F
6508:  MOVLW  55
650A:  MOVWF  FA7
650C:  MOVLW  AA
650E:  MOVWF  FA7
6510:  BSF    FA6.1
6512:  BTFSC  FA6.1
6514:  BRA    6512
6516:  BCF    FA6.2
6518:  MOVF   00,W
651A:  IORWF  FF2,F
651C:  MOVLB  0
651E:  MOVLB  5
....................          } 
....................      } 
.................... //_-------------------------------------------------------------------------------------------------------------------------------------------------------- 
....................  
....................  
.................... //_--------------------------------------------------------------------------------------------------------------------------------------------------------       
....................       if(Menu==102){ // Menu de Ajuste de Ganancia2 
6520:  MOVF   x98,W
6522:  SUBLW  66
6524:  BTFSS  FD8.2
6526:  BRA    6776
....................        
....................       if(Tciclo>40) 
6528:  MOVLB  6
652A:  CLRF   x42
652C:  CLRF   x41
652E:  MOVLW  20
6530:  MOVWF  x40
6532:  MOVLW  84
6534:  MOVWF  x3F
6536:  MOVFF  5DE,646
653A:  MOVFF  5DD,645
653E:  MOVFF  5DC,644
6542:  MOVFF  5DB,643
6546:  MOVLB  0
6548:  CALL   0BD6
654C:  BNC   655E
....................       { 
....................          Tciclo=40; 
654E:  MOVLB  5
6550:  CLRF   xDE
6552:  CLRF   xDD
6554:  MOVLW  20
6556:  MOVWF  xDC
6558:  MOVLW  84
655A:  MOVWF  xDB
655C:  MOVLB  0
....................       } 
....................        
....................       if(visual==1) 
655E:  MOVLB  5
6560:  BTFSS  x93.3
6562:  BRA    65E0
....................       { 
....................          glcd_fillScreen(OFF); 
6564:  MOVLB  6
6566:  CLRF   x40
6568:  MOVLB  0
656A:  CALL   0C90
....................          strcpy(Menus.Letra,"Tciclo"); 
656E:  MOVLW  06
6570:  MOVWF  FEA
6572:  MOVLW  1F
6574:  MOVWF  FE9
6576:  MOVLW  00
6578:  CALL   0A14
657C:  TBLRD*-
657E:  TBLRD*+
6580:  MOVF   FF5,W
6582:  MOVWF  FEE
6584:  IORLW  00
6586:  BNZ   657E
....................          displayMenu(Menus.Letra,0,0,1,2); 
6588:  MOVLW  06
658A:  MOVLB  6
658C:  MOVWF  x40
658E:  MOVLW  1F
6590:  MOVWF  x3F
6592:  CLRF   x41
6594:  CLRF   x42
6596:  MOVLW  01
6598:  MOVWF  x43
659A:  MOVLW  02
659C:  MOVWF  x44
659E:  MOVLB  0
65A0:  CALL   1294
....................           
....................          displayTemperatura(Tciclo,30,30,0,3); 
65A4:  MOVFF  5DE,642
65A8:  MOVFF  5DD,641
65AC:  MOVFF  5DC,640
65B0:  MOVFF  5DB,63F
65B4:  CALL   2696
65B8:  MOVFF  02,640
65BC:  MOVFF  01,63F
65C0:  MOVFF  02,642
65C4:  MOVFF  01,641
65C8:  MOVLW  1E
65CA:  MOVLB  6
65CC:  MOVWF  x43
65CE:  MOVWF  x44
65D0:  CLRF   x45
65D2:  MOVLW  03
65D4:  MOVWF  x46
65D6:  MOVLB  0
65D8:  CALL   2178
....................           
....................          visual=0; 
65DC:  MOVLB  5
65DE:  BCF    x93.3
....................       } 
....................        
....................          if(UP)//Si oprime hacia arriba 
65E0:  BSF    F92.5
65E2:  BTFSS  F80.5
65E4:  BRA    6672
....................          {   
....................             if(Tciclo>40) 
65E6:  MOVLB  6
65E8:  CLRF   x42
65EA:  CLRF   x41
65EC:  MOVLW  20
65EE:  MOVWF  x40
65F0:  MOVLW  84
65F2:  MOVWF  x3F
65F4:  MOVFF  5DE,646
65F8:  MOVFF  5DD,645
65FC:  MOVFF  5DC,644
6600:  MOVFF  5DB,643
6604:  MOVLB  0
6606:  CALL   0BD6
660A:  BNC   662E
....................             { 
....................                Tciclo=40;delay_ms(100);visual=1; 
660C:  MOVLB  5
660E:  CLRF   xDE
6610:  CLRF   xDD
6612:  MOVLW  20
6614:  MOVWF  xDC
6616:  MOVLW  84
6618:  MOVWF  xDB
661A:  MOVLW  64
661C:  MOVLB  6
661E:  MOVWF  x45
6620:  MOVLB  0
6622:  CALL   0B76
6626:  MOVLB  5
6628:  BSF    x93.3
....................             } 
662A:  BRA    6672
662C:  MOVLB  0
....................             else 
....................             { 
....................                delay_ms(30);Tciclo+=1.0;visual=1; 
662E:  MOVLW  1E
6630:  MOVLB  6
6632:  MOVWF  x45
6634:  MOVLB  0
6636:  CALL   0B76
663A:  BCF    FD8.1
663C:  MOVFF  5DE,647
6640:  MOVFF  5DD,646
6644:  MOVFF  5DC,645
6648:  MOVFF  5DB,644
664C:  MOVLB  6
664E:  CLRF   x4B
6650:  CLRF   x4A
6652:  CLRF   x49
6654:  MOVLW  7F
6656:  MOVWF  x48
6658:  MOVLB  0
665A:  CALL   1708
665E:  MOVFF  03,5DE
6662:  MOVFF  02,5DD
6666:  MOVFF  01,5DC
666A:  MOVFF  00,5DB
666E:  MOVLB  5
6670:  BSF    x93.3
....................             } 
....................          } 
....................                 
....................          if(DOWN)//Si oprime hacia abajo 
6672:  BSF    F96.0
6674:  BTFSS  F84.0
6676:  BRA    66E0
....................          {   
....................             if(Tciclo>1) 
6678:  MOVLB  6
667A:  CLRF   x42
667C:  CLRF   x41
667E:  CLRF   x40
6680:  MOVLW  7F
6682:  MOVWF  x3F
6684:  MOVFF  5DE,646
6688:  MOVFF  5DD,645
668C:  MOVFF  5DC,644
6690:  MOVFF  5DB,643
6694:  MOVLB  0
6696:  CALL   0BD6
669A:  BNC   66E2
....................             { 
....................                delay_ms(30);Tciclo-=1.0;visual=1;      
669C:  MOVLW  1E
669E:  MOVLB  6
66A0:  MOVWF  x45
66A2:  MOVLB  0
66A4:  CALL   0B76
66A8:  BSF    FD8.1
66AA:  MOVFF  5DE,647
66AE:  MOVFF  5DD,646
66B2:  MOVFF  5DC,645
66B6:  MOVFF  5DB,644
66BA:  MOVLB  6
66BC:  CLRF   x4B
66BE:  CLRF   x4A
66C0:  CLRF   x49
66C2:  MOVLW  7F
66C4:  MOVWF  x48
66C6:  MOVLB  0
66C8:  CALL   1708
66CC:  MOVFF  03,5DE
66D0:  MOVFF  02,5DD
66D4:  MOVFF  01,5DC
66D8:  MOVFF  00,5DB
66DC:  MOVLB  5
66DE:  BSF    x93.3
66E0:  MOVLB  0
....................             } 
....................          } 
....................                 
....................          if(RIGHT)//Si oprime SET 
66E2:  BSF    F96.1
66E4:  BTFSS  F84.1
66E6:  BRA    66FA
....................          {   
....................             delay_ms(30);visual=1; 
66E8:  MOVLW  1E
66EA:  MOVLB  6
66EC:  MOVWF  x45
66EE:  MOVLB  0
66F0:  CALL   0B76
66F4:  MOVLB  5
66F6:  BSF    x93.3
66F8:  MOVLB  0
....................          }  
....................                    
....................          if(LEFT)//Si oprime boton de Toma. 
66FA:  BSF    F96.2
66FC:  BTFSS  F84.2
66FE:  BRA    6774
....................          { 
....................             delay_ms(700);Menu=100;glcd_fillscreen(OFF);Opcion=1;visual=1; 
6700:  MOVLW  04
6702:  MOVLB  6
6704:  MOVWF  x3F
6706:  MOVLW  AF
6708:  MOVWF  x45
670A:  MOVLB  0
670C:  CALL   0B76
6710:  MOVLB  6
6712:  DECFSZ x3F,F
6714:  BRA    6706
6716:  MOVLW  64
6718:  MOVLB  5
671A:  MOVWF  x98
671C:  MOVLB  6
671E:  CLRF   x40
6720:  MOVLB  0
6722:  CALL   0C90
6726:  MOVLW  01
6728:  MOVLB  5
672A:  MOVWF  x9E
672C:  BSF    x93.3
....................             write_eeprom(30,(int8)Tciclo); 
672E:  MOVFF  5DE,642
6732:  MOVFF  5DD,641
6736:  MOVFF  5DC,640
673A:  MOVFF  5DB,63F
673E:  MOVLB  0
6740:  CALL   2696
6744:  MOVFF  01,63F
6748:  MOVF   FF2,W
674A:  MOVWF  00
674C:  BCF    FF2.7
674E:  MOVLW  1E
6750:  MOVWF  FA9
6752:  MOVFF  63F,FA8
6756:  BCF    FA6.6
6758:  BCF    FA6.7
675A:  BSF    FA6.2
675C:  MOVLB  F
675E:  MOVLW  55
6760:  MOVWF  FA7
6762:  MOVLW  AA
6764:  MOVWF  FA7
6766:  BSF    FA6.1
6768:  BTFSC  FA6.1
676A:  BRA    6768
676C:  BCF    FA6.2
676E:  MOVF   00,W
6770:  IORWF  FF2,F
6772:  MOVLB  0
6774:  MOVLB  5
....................          } 
....................      } 
.................... //_-------------------------------------------------------------------------------------------------------------------------------------------------------- 
....................  
.................... //_--------------------------------------------------------------------------------------------------------------------------------------------------------       
....................       if(Menu==103){ // Menu de Ajuste de Ajuste 
6776:  MOVF   x98,W
6778:  SUBLW  67
677A:  BTFSS  FD8.2
677C:  BRA    693C
....................        
....................       if(Ajuste>100) 
677E:  MOVF   x8B,W
6780:  SUBLW  64
6782:  BC    6786
....................       { 
....................          Ajuste=0; 
6784:  CLRF   x8B
....................       } 
....................        
....................       if(visual==1) 
6786:  BTFSS  x93.3
6788:  BRA    67E8
....................       { 
....................          glcd_fillScreen(OFF); 
678A:  MOVLB  6
678C:  CLRF   x40
678E:  MOVLB  0
6790:  CALL   0C90
....................          strcpy(Menus.Letra,"Ajuste"); 
6794:  MOVLW  06
6796:  MOVWF  FEA
6798:  MOVLW  1F
679A:  MOVWF  FE9
679C:  MOVLW  00
679E:  CALL   0A98
67A2:  TBLRD*-
67A4:  TBLRD*+
67A6:  MOVF   FF5,W
67A8:  MOVWF  FEE
67AA:  IORLW  00
67AC:  BNZ   67A4
....................          displayMenu(Menus.Letra,0,0,1,2); 
67AE:  MOVLW  06
67B0:  MOVLB  6
67B2:  MOVWF  x40
67B4:  MOVLW  1F
67B6:  MOVWF  x3F
67B8:  CLRF   x41
67BA:  CLRF   x42
67BC:  MOVLW  01
67BE:  MOVWF  x43
67C0:  MOVLW  02
67C2:  MOVWF  x44
67C4:  MOVLB  0
67C6:  CALL   1294
....................           
....................          displayTemperatura(Ajuste,30,30,0,3); 
67CA:  MOVLB  6
67CC:  CLRF   x42
67CE:  MOVFF  58B,641
67D2:  MOVLW  1E
67D4:  MOVWF  x43
67D6:  MOVWF  x44
67D8:  CLRF   x45
67DA:  MOVLW  03
67DC:  MOVWF  x46
67DE:  MOVLB  0
67E0:  CALL   2178
....................           
....................          visual=0; 
67E4:  MOVLB  5
67E6:  BCF    x93.3
....................       } 
....................        
....................          if(UP)//Si oprime hacia arriba 
67E8:  BSF    F92.5
67EA:  BTFSS  F80.5
67EC:  BRA    6862
....................          {   
....................             if(Ajuste>100) 
67EE:  MOVF   x8B,W
67F0:  SUBLW  64
67F2:  BC    6808
....................             { 
....................                Ajuste=100;delay_ms(100);visual=1; 
67F4:  MOVLW  64
67F6:  MOVWF  x8B
67F8:  MOVLB  6
67FA:  MOVWF  x45
67FC:  MOVLB  0
67FE:  CALL   0B76
6802:  MOVLB  5
6804:  BSF    x93.3
....................             } 
6806:  BRA    6862
....................             else 
....................             { 
....................                delay_ms(30);Ajuste+=1.0;visual=1; 
6808:  MOVLW  1E
680A:  MOVLB  6
680C:  MOVWF  x45
680E:  MOVLB  0
6810:  CALL   0B76
6814:  MOVLB  6
6816:  CLRF   x46
6818:  MOVFF  58B,645
681C:  MOVLB  0
681E:  CALL   0BA0
6822:  BCF    FD8.1
6824:  MOVFF  03,647
6828:  MOVFF  02,646
682C:  MOVFF  01,645
6830:  MOVFF  00,644
6834:  MOVLB  6
6836:  CLRF   x4B
6838:  CLRF   x4A
683A:  CLRF   x49
683C:  MOVLW  7F
683E:  MOVWF  x48
6840:  MOVLB  0
6842:  CALL   1708
6846:  MOVFF  03,642
684A:  MOVFF  02,641
684E:  MOVFF  01,640
6852:  MOVFF  00,63F
6856:  CALL   2696
685A:  MOVFF  01,58B
685E:  MOVLB  5
6860:  BSF    x93.3
....................             } 
....................          } 
....................                 
....................          if(DOWN)//Si oprime hacia abajo 
6862:  BSF    F96.0
6864:  BTFSS  F84.0
6866:  BRA    68C6
....................          {   
....................             if(Ajuste>0) 
6868:  MOVF   x8B,F
686A:  BZ    68C6
....................             { 
....................                delay_ms(30);Ajuste-=1.0;visual=1;      
686C:  MOVLW  1E
686E:  MOVLB  6
6870:  MOVWF  x45
6872:  MOVLB  0
6874:  CALL   0B76
6878:  MOVLB  6
687A:  CLRF   x46
687C:  MOVFF  58B,645
6880:  MOVLB  0
6882:  CALL   0BA0
6886:  BSF    FD8.1
6888:  MOVFF  03,647
688C:  MOVFF  02,646
6890:  MOVFF  01,645
6894:  MOVFF  00,644
6898:  MOVLB  6
689A:  CLRF   x4B
689C:  CLRF   x4A
689E:  CLRF   x49
68A0:  MOVLW  7F
68A2:  MOVWF  x48
68A4:  MOVLB  0
68A6:  CALL   1708
68AA:  MOVFF  03,642
68AE:  MOVFF  02,641
68B2:  MOVFF  01,640
68B6:  MOVFF  00,63F
68BA:  CALL   2696
68BE:  MOVFF  01,58B
68C2:  MOVLB  5
68C4:  BSF    x93.3
....................             } 
....................          } 
....................                 
....................          if(RIGHT)//Si oprime SET 
68C6:  BSF    F96.1
68C8:  BTFSS  F84.1
68CA:  BRA    68DC
....................          {   
....................             delay_ms(30);visual=1; 
68CC:  MOVLW  1E
68CE:  MOVLB  6
68D0:  MOVWF  x45
68D2:  MOVLB  0
68D4:  CALL   0B76
68D8:  MOVLB  5
68DA:  BSF    x93.3
....................          }  
....................                    
....................          if(LEFT)//Si oprime boton de Toma. 
68DC:  BSF    F96.2
68DE:  BTFSS  F84.2
68E0:  BRA    693C
....................          { 
....................             delay_ms(700);Menu=100;glcd_fillscreen(OFF);Opcion=1;visual=1; 
68E2:  MOVLW  04
68E4:  MOVLB  6
68E6:  MOVWF  x3F
68E8:  MOVLW  AF
68EA:  MOVWF  x45
68EC:  MOVLB  0
68EE:  CALL   0B76
68F2:  MOVLB  6
68F4:  DECFSZ x3F,F
68F6:  BRA    68E8
68F8:  MOVLW  64
68FA:  MOVLB  5
68FC:  MOVWF  x98
68FE:  MOVLB  6
6900:  CLRF   x40
6902:  MOVLB  0
6904:  CALL   0C90
6908:  MOVLW  01
690A:  MOVLB  5
690C:  MOVWF  x9E
690E:  BSF    x93.3
....................             write_eeprom(40,Ajuste); 
6910:  MOVF   FF2,W
6912:  MOVWF  00
6914:  BCF    FF2.7
6916:  MOVLW  28
6918:  MOVWF  FA9
691A:  MOVFF  58B,FA8
691E:  BCF    FA6.6
6920:  BCF    FA6.7
6922:  BSF    FA6.2
6924:  MOVLB  F
6926:  MOVLW  55
6928:  MOVWF  FA7
692A:  MOVLW  AA
692C:  MOVWF  FA7
692E:  BSF    FA6.1
6930:  BTFSC  FA6.1
6932:  BRA    6930
6934:  BCF    FA6.2
6936:  MOVF   00,W
6938:  IORWF  FF2,F
693A:  MOVLB  5
....................          } 
....................      } 
.................... //_-------------------------------------------------------------------------------------------------------------------------------------------------------- 
....................  
.................... //_--------------------------------------------------------------------------------------------------------------------------------------------------------       
....................       if(Menu==104){ // Menu de Ajuste de Ajusten 
693C:  MOVF   x98,W
693E:  SUBLW  68
6940:  BTFSS  FD8.2
6942:  BRA    6B02
....................        
....................       if(Ajusten>100) 
6944:  MOVF   x8C,W
6946:  SUBLW  64
6948:  BC    694C
....................       { 
....................          Ajusten=0; 
694A:  CLRF   x8C
....................       } 
....................        
....................       if(visual==1) 
694C:  BTFSS  x93.3
694E:  BRA    69AE
....................       { 
....................          glcd_fillScreen(OFF); 
6950:  MOVLB  6
6952:  CLRF   x40
6954:  MOVLB  0
6956:  CALL   0C90
....................          strcpy(Menus.Letra,"Ajusten"); 
695A:  MOVLW  06
695C:  MOVWF  FEA
695E:  MOVLW  1F
6960:  MOVWF  FE9
6962:  MOVLW  00
6964:  CALL   0AB0
6968:  TBLRD*-
696A:  TBLRD*+
696C:  MOVF   FF5,W
696E:  MOVWF  FEE
6970:  IORLW  00
6972:  BNZ   696A
....................          displayMenu(Menus.Letra,0,0,1,2); 
6974:  MOVLW  06
6976:  MOVLB  6
6978:  MOVWF  x40
697A:  MOVLW  1F
697C:  MOVWF  x3F
697E:  CLRF   x41
6980:  CLRF   x42
6982:  MOVLW  01
6984:  MOVWF  x43
6986:  MOVLW  02
6988:  MOVWF  x44
698A:  MOVLB  0
698C:  CALL   1294
....................           
....................          displayTemperatura(Ajusten,30,30,0,3); 
6990:  MOVLB  6
6992:  CLRF   x42
6994:  MOVFF  58C,641
6998:  MOVLW  1E
699A:  MOVWF  x43
699C:  MOVWF  x44
699E:  CLRF   x45
69A0:  MOVLW  03
69A2:  MOVWF  x46
69A4:  MOVLB  0
69A6:  CALL   2178
....................           
....................          visual=0; 
69AA:  MOVLB  5
69AC:  BCF    x93.3
....................       } 
....................        
....................          if(UP)//Si oprime hacia arriba 
69AE:  BSF    F92.5
69B0:  BTFSS  F80.5
69B2:  BRA    6A28
....................          {   
....................             if(Ajusten>100) 
69B4:  MOVF   x8C,W
69B6:  SUBLW  64
69B8:  BC    69CE
....................             { 
....................                Ajusten=100;delay_ms(100);visual=1; 
69BA:  MOVLW  64
69BC:  MOVWF  x8C
69BE:  MOVLB  6
69C0:  MOVWF  x45
69C2:  MOVLB  0
69C4:  CALL   0B76
69C8:  MOVLB  5
69CA:  BSF    x93.3
....................             } 
69CC:  BRA    6A28
....................             else 
....................             { 
....................                delay_ms(30);Ajusten+=1.0;visual=1; 
69CE:  MOVLW  1E
69D0:  MOVLB  6
69D2:  MOVWF  x45
69D4:  MOVLB  0
69D6:  CALL   0B76
69DA:  MOVLB  6
69DC:  CLRF   x46
69DE:  MOVFF  58C,645
69E2:  MOVLB  0
69E4:  CALL   0BA0
69E8:  BCF    FD8.1
69EA:  MOVFF  03,647
69EE:  MOVFF  02,646
69F2:  MOVFF  01,645
69F6:  MOVFF  00,644
69FA:  MOVLB  6
69FC:  CLRF   x4B
69FE:  CLRF   x4A
6A00:  CLRF   x49
6A02:  MOVLW  7F
6A04:  MOVWF  x48
6A06:  MOVLB  0
6A08:  CALL   1708
6A0C:  MOVFF  03,642
6A10:  MOVFF  02,641
6A14:  MOVFF  01,640
6A18:  MOVFF  00,63F
6A1C:  CALL   2696
6A20:  MOVFF  01,58C
6A24:  MOVLB  5
6A26:  BSF    x93.3
....................             } 
....................          } 
....................                 
....................          if(DOWN)//Si oprime hacia abajo 
6A28:  BSF    F96.0
6A2A:  BTFSS  F84.0
6A2C:  BRA    6A8C
....................          {   
....................             if(Ajusten>0) 
6A2E:  MOVF   x8C,F
6A30:  BZ    6A8C
....................             { 
....................                delay_ms(30);Ajusten-=1.0;visual=1;      
6A32:  MOVLW  1E
6A34:  MOVLB  6
6A36:  MOVWF  x45
6A38:  MOVLB  0
6A3A:  CALL   0B76
6A3E:  MOVLB  6
6A40:  CLRF   x46
6A42:  MOVFF  58C,645
6A46:  MOVLB  0
6A48:  CALL   0BA0
6A4C:  BSF    FD8.1
6A4E:  MOVFF  03,647
6A52:  MOVFF  02,646
6A56:  MOVFF  01,645
6A5A:  MOVFF  00,644
6A5E:  MOVLB  6
6A60:  CLRF   x4B
6A62:  CLRF   x4A
6A64:  CLRF   x49
6A66:  MOVLW  7F
6A68:  MOVWF  x48
6A6A:  MOVLB  0
6A6C:  CALL   1708
6A70:  MOVFF  03,642
6A74:  MOVFF  02,641
6A78:  MOVFF  01,640
6A7C:  MOVFF  00,63F
6A80:  CALL   2696
6A84:  MOVFF  01,58C
6A88:  MOVLB  5
6A8A:  BSF    x93.3
....................             } 
....................          } 
....................                 
....................          if(RIGHT)//Si oprime SET 
6A8C:  BSF    F96.1
6A8E:  BTFSS  F84.1
6A90:  BRA    6AA2
....................          {   
....................             delay_ms(30);visual=1; 
6A92:  MOVLW  1E
6A94:  MOVLB  6
6A96:  MOVWF  x45
6A98:  MOVLB  0
6A9A:  CALL   0B76
6A9E:  MOVLB  5
6AA0:  BSF    x93.3
....................          }  
....................                    
....................          if(LEFT)//Si oprime boton de Toma. 
6AA2:  BSF    F96.2
6AA4:  BTFSS  F84.2
6AA6:  BRA    6B02
....................          { 
....................             delay_ms(700);Menu=100;glcd_fillscreen(OFF);Opcion=1;visual=1; 
6AA8:  MOVLW  04
6AAA:  MOVLB  6
6AAC:  MOVWF  x3F
6AAE:  MOVLW  AF
6AB0:  MOVWF  x45
6AB2:  MOVLB  0
6AB4:  CALL   0B76
6AB8:  MOVLB  6
6ABA:  DECFSZ x3F,F
6ABC:  BRA    6AAE
6ABE:  MOVLW  64
6AC0:  MOVLB  5
6AC2:  MOVWF  x98
6AC4:  MOVLB  6
6AC6:  CLRF   x40
6AC8:  MOVLB  0
6ACA:  CALL   0C90
6ACE:  MOVLW  01
6AD0:  MOVLB  5
6AD2:  MOVWF  x9E
6AD4:  BSF    x93.3
....................             write_eeprom(50,Ajusten); 
6AD6:  MOVF   FF2,W
6AD8:  MOVWF  00
6ADA:  BCF    FF2.7
6ADC:  MOVLW  32
6ADE:  MOVWF  FA9
6AE0:  MOVFF  58C,FA8
6AE4:  BCF    FA6.6
6AE6:  BCF    FA6.7
6AE8:  BSF    FA6.2
6AEA:  MOVLB  F
6AEC:  MOVLW  55
6AEE:  MOVWF  FA7
6AF0:  MOVLW  AA
6AF2:  MOVWF  FA7
6AF4:  BSF    FA6.1
6AF6:  BTFSC  FA6.1
6AF8:  BRA    6AF6
6AFA:  BCF    FA6.2
6AFC:  MOVF   00,W
6AFE:  IORWF  FF2,F
6B00:  MOVLB  5
....................          } 
....................      } 
.................... //_-------------------------------------------------------------------------------------------------------------------------------------------------------- 
....................  
.................... //_--------------------------------------------------------------------------------------------------------------------------------------------------------       
....................       if(Menu==105){ // Menu de Ajuste de Media Movil 
6B02:  MOVF   x98,W
6B04:  SUBLW  69
6B06:  BTFSS  FD8.2
6B08:  BRA    6CCE
....................        
....................       if(MediaMovil>80) 
6B0A:  MOVF   x8D,W
6B0C:  SUBLW  50
6B0E:  BC    6B14
....................       { 
....................          MediaMovil=80; 
6B10:  MOVLW  50
6B12:  MOVWF  x8D
....................       } 
....................        
....................       if(visual==1) 
6B14:  BTFSS  x93.3
6B16:  BRA    6B76
....................       { 
....................          glcd_fillScreen(OFF); 
6B18:  MOVLB  6
6B1A:  CLRF   x40
6B1C:  MOVLB  0
6B1E:  CALL   0C90
....................          strcpy(Menus.Letra,"Media"); 
6B22:  MOVLW  06
6B24:  MOVWF  FEA
6B26:  MOVLW  1F
6B28:  MOVWF  FE9
6B2A:  MOVLW  00
6B2C:  CALL   0AC8
6B30:  TBLRD*-
6B32:  TBLRD*+
6B34:  MOVF   FF5,W
6B36:  MOVWF  FEE
6B38:  IORLW  00
6B3A:  BNZ   6B32
....................          displayMenu(Menus.Letra,0,0,1,2); 
6B3C:  MOVLW  06
6B3E:  MOVLB  6
6B40:  MOVWF  x40
6B42:  MOVLW  1F
6B44:  MOVWF  x3F
6B46:  CLRF   x41
6B48:  CLRF   x42
6B4A:  MOVLW  01
6B4C:  MOVWF  x43
6B4E:  MOVLW  02
6B50:  MOVWF  x44
6B52:  MOVLB  0
6B54:  CALL   1294
....................           
....................          displayTemperatura(MediaMovil,30,30,0,3); 
6B58:  MOVLB  6
6B5A:  CLRF   x42
6B5C:  MOVFF  58D,641
6B60:  MOVLW  1E
6B62:  MOVWF  x43
6B64:  MOVWF  x44
6B66:  CLRF   x45
6B68:  MOVLW  03
6B6A:  MOVWF  x46
6B6C:  MOVLB  0
6B6E:  CALL   2178
....................           
....................          visual=0; 
6B72:  MOVLB  5
6B74:  BCF    x93.3
....................       } 
....................        
....................          if(UP)//Si oprime hacia arriba 
6B76:  BSF    F92.5
6B78:  BTFSS  F80.5
6B7A:  BRA    6BF2
....................          {   
....................             if(MediaMovil>79) 
6B7C:  MOVF   x8D,W
6B7E:  SUBLW  4F
6B80:  BC    6B98
....................             { 
....................                MediaMovil=79;delay_ms(100);visual=1; 
6B82:  MOVLW  4F
6B84:  MOVWF  x8D
6B86:  MOVLW  64
6B88:  MOVLB  6
6B8A:  MOVWF  x45
6B8C:  MOVLB  0
6B8E:  CALL   0B76
6B92:  MOVLB  5
6B94:  BSF    x93.3
....................             } 
6B96:  BRA    6BF2
....................             else 
....................             { 
....................                delay_ms(30);MediaMovil+=1.0;visual=1; 
6B98:  MOVLW  1E
6B9A:  MOVLB  6
6B9C:  MOVWF  x45
6B9E:  MOVLB  0
6BA0:  CALL   0B76
6BA4:  MOVLB  6
6BA6:  CLRF   x46
6BA8:  MOVFF  58D,645
6BAC:  MOVLB  0
6BAE:  CALL   0BA0
6BB2:  BCF    FD8.1
6BB4:  MOVFF  03,647
6BB8:  MOVFF  02,646
6BBC:  MOVFF  01,645
6BC0:  MOVFF  00,644
6BC4:  MOVLB  6
6BC6:  CLRF   x4B
6BC8:  CLRF   x4A
6BCA:  CLRF   x49
6BCC:  MOVLW  7F
6BCE:  MOVWF  x48
6BD0:  MOVLB  0
6BD2:  CALL   1708
6BD6:  MOVFF  03,642
6BDA:  MOVFF  02,641
6BDE:  MOVFF  01,640
6BE2:  MOVFF  00,63F
6BE6:  CALL   2696
6BEA:  MOVFF  01,58D
6BEE:  MOVLB  5
6BF0:  BSF    x93.3
....................             } 
....................          } 
....................                 
....................          if(DOWN)//Si oprime hacia abajo 
6BF2:  BSF    F96.0
6BF4:  BTFSS  F84.0
6BF6:  BRA    6C58
....................          {   
....................             if(MediaMovil>1) 
6BF8:  MOVF   x8D,W
6BFA:  SUBLW  01
6BFC:  BC    6C58
....................             { 
....................                delay_ms(30);MediaMovil-=1.0;visual=1;      
6BFE:  MOVLW  1E
6C00:  MOVLB  6
6C02:  MOVWF  x45
6C04:  MOVLB  0
6C06:  CALL   0B76
6C0A:  MOVLB  6
6C0C:  CLRF   x46
6C0E:  MOVFF  58D,645
6C12:  MOVLB  0
6C14:  CALL   0BA0
6C18:  BSF    FD8.1
6C1A:  MOVFF  03,647
6C1E:  MOVFF  02,646
6C22:  MOVFF  01,645
6C26:  MOVFF  00,644
6C2A:  MOVLB  6
6C2C:  CLRF   x4B
6C2E:  CLRF   x4A
6C30:  CLRF   x49
6C32:  MOVLW  7F
6C34:  MOVWF  x48
6C36:  MOVLB  0
6C38:  CALL   1708
6C3C:  MOVFF  03,642
6C40:  MOVFF  02,641
6C44:  MOVFF  01,640
6C48:  MOVFF  00,63F
6C4C:  CALL   2696
6C50:  MOVFF  01,58D
6C54:  MOVLB  5
6C56:  BSF    x93.3
....................             } 
....................          } 
....................                 
....................          if(RIGHT)//Si oprime SET 
6C58:  BSF    F96.1
6C5A:  BTFSS  F84.1
6C5C:  BRA    6C6E
....................          {   
....................             delay_ms(30);visual=1; 
6C5E:  MOVLW  1E
6C60:  MOVLB  6
6C62:  MOVWF  x45
6C64:  MOVLB  0
6C66:  CALL   0B76
6C6A:  MOVLB  5
6C6C:  BSF    x93.3
....................          }  
....................                    
....................          if(LEFT)//Si oprime boton de Toma. 
6C6E:  BSF    F96.2
6C70:  BTFSS  F84.2
6C72:  BRA    6CCE
....................          { 
....................             delay_ms(700);Menu=100;glcd_fillscreen(OFF);Opcion=1;visual=1; 
6C74:  MOVLW  04
6C76:  MOVLB  6
6C78:  MOVWF  x3F
6C7A:  MOVLW  AF
6C7C:  MOVWF  x45
6C7E:  MOVLB  0
6C80:  CALL   0B76
6C84:  MOVLB  6
6C86:  DECFSZ x3F,F
6C88:  BRA    6C7A
6C8A:  MOVLW  64
6C8C:  MOVLB  5
6C8E:  MOVWF  x98
6C90:  MOVLB  6
6C92:  CLRF   x40
6C94:  MOVLB  0
6C96:  CALL   0C90
6C9A:  MOVLW  01
6C9C:  MOVLB  5
6C9E:  MOVWF  x9E
6CA0:  BSF    x93.3
....................             write_eeprom(60,MediaMovil); 
6CA2:  MOVF   FF2,W
6CA4:  MOVWF  00
6CA6:  BCF    FF2.7
6CA8:  MOVLW  3C
6CAA:  MOVWF  FA9
6CAC:  MOVFF  58D,FA8
6CB0:  BCF    FA6.6
6CB2:  BCF    FA6.7
6CB4:  BSF    FA6.2
6CB6:  MOVLB  F
6CB8:  MOVLW  55
6CBA:  MOVWF  FA7
6CBC:  MOVLW  AA
6CBE:  MOVWF  FA7
6CC0:  BSF    FA6.1
6CC2:  BTFSC  FA6.1
6CC4:  BRA    6CC2
6CC6:  BCF    FA6.2
6CC8:  MOVF   00,W
6CCA:  IORWF  FF2,F
6CCC:  MOVLB  5
....................          } 
....................      } 
.................... //_-------------------------------------------------------------------------------------------------------------------------------------------------------- 
....................  
.................... //_--------------------------------------------------------------------------------------------------------------------------------------------------------       
....................       if(Menu==106){ // Menu de Ajuste de Coeficiente Regulador 
6CCE:  MOVF   x98,W
6CD0:  SUBLW  6A
6CD2:  BTFSS  FD8.2
6CD4:  BRA    6F28
....................        
....................       if(Coeficiente>250) 
6CD6:  MOVLB  6
6CD8:  CLRF   x42
6CDA:  CLRF   x41
6CDC:  MOVLW  7A
6CDE:  MOVWF  x40
6CE0:  MOVLW  86
6CE2:  MOVWF  x3F
6CE4:  MOVFF  602,646
6CE8:  MOVFF  601,645
6CEC:  MOVFF  600,644
6CF0:  MOVFF  5FF,643
6CF4:  MOVLB  0
6CF6:  CALL   0BD6
6CFA:  BNC   6D0E
....................       { 
....................          Coeficiente=100; 
6CFC:  MOVLB  6
6CFE:  CLRF   x02
6D00:  CLRF   x01
6D02:  MOVLW  48
6D04:  MOVWF  x00
6D06:  MOVLW  85
6D08:  MOVLB  5
6D0A:  MOVWF  xFF
6D0C:  MOVLB  0
....................       } 
....................        
....................       if(visual==1) 
6D0E:  MOVLB  5
6D10:  BTFSS  x93.3
6D12:  BRA    6D90
....................       { 
....................          glcd_fillScreen(OFF); 
6D14:  MOVLB  6
6D16:  CLRF   x40
6D18:  MOVLB  0
6D1A:  CALL   0C90
....................          strcpy(Menus.Letra,"Coeficiente"); 
6D1E:  MOVLW  06
6D20:  MOVWF  FEA
6D22:  MOVLW  1F
6D24:  MOVWF  FE9
6D26:  MOVLW  00
6D28:  CALL   0A7C
6D2C:  TBLRD*-
6D2E:  TBLRD*+
6D30:  MOVF   FF5,W
6D32:  MOVWF  FEE
6D34:  IORLW  00
6D36:  BNZ   6D2E
....................          displayMenu(Menus.Letra,0,0,1,2); 
6D38:  MOVLW  06
6D3A:  MOVLB  6
6D3C:  MOVWF  x40
6D3E:  MOVLW  1F
6D40:  MOVWF  x3F
6D42:  CLRF   x41
6D44:  CLRF   x42
6D46:  MOVLW  01
6D48:  MOVWF  x43
6D4A:  MOVLW  02
6D4C:  MOVWF  x44
6D4E:  MOVLB  0
6D50:  CALL   1294
....................           
....................          displayTemperatura(Coeficiente,30,30,0,3); 
6D54:  MOVFF  602,642
6D58:  MOVFF  601,641
6D5C:  MOVFF  600,640
6D60:  MOVFF  5FF,63F
6D64:  CALL   2696
6D68:  MOVFF  02,640
6D6C:  MOVFF  01,63F
6D70:  MOVFF  02,642
6D74:  MOVFF  01,641
6D78:  MOVLW  1E
6D7A:  MOVLB  6
6D7C:  MOVWF  x43
6D7E:  MOVWF  x44
6D80:  CLRF   x45
6D82:  MOVLW  03
6D84:  MOVWF  x46
6D86:  MOVLB  0
6D88:  CALL   2178
....................           
....................          visual=0; 
6D8C:  MOVLB  5
6D8E:  BCF    x93.3
....................       } 
....................        
....................          if(UP)//Si oprime hacia arriba 
6D90:  BSF    F92.5
6D92:  BTFSS  F80.5
6D94:  BRA    6E24
....................          {   
....................             if(Coeficiente>250) 
6D96:  MOVLB  6
6D98:  CLRF   x42
6D9A:  CLRF   x41
6D9C:  MOVLW  7A
6D9E:  MOVWF  x40
6DA0:  MOVLW  86
6DA2:  MOVWF  x3F
6DA4:  MOVFF  602,646
6DA8:  MOVFF  601,645
6DAC:  MOVFF  600,644
6DB0:  MOVFF  5FF,643
6DB4:  MOVLB  0
6DB6:  CALL   0BD6
6DBA:  BNC   6DE0
....................             { 
....................                Coeficiente=250;delay_ms(100);visual=1; 
6DBC:  MOVLB  6
6DBE:  CLRF   x02
6DC0:  CLRF   x01
6DC2:  MOVLW  7A
6DC4:  MOVWF  x00
6DC6:  MOVLW  86
6DC8:  MOVLB  5
6DCA:  MOVWF  xFF
6DCC:  MOVLW  64
6DCE:  MOVLB  6
6DD0:  MOVWF  x45
6DD2:  MOVLB  0
6DD4:  CALL   0B76
6DD8:  MOVLB  5
6DDA:  BSF    x93.3
....................             } 
6DDC:  BRA    6E24
6DDE:  MOVLB  0
....................             else 
....................             { 
....................                delay_ms(30);Coeficiente+=1.0;visual=1; 
6DE0:  MOVLW  1E
6DE2:  MOVLB  6
6DE4:  MOVWF  x45
6DE6:  MOVLB  0
6DE8:  CALL   0B76
6DEC:  BCF    FD8.1
6DEE:  MOVFF  602,647
6DF2:  MOVFF  601,646
6DF6:  MOVFF  600,645
6DFA:  MOVFF  5FF,644
6DFE:  MOVLB  6
6E00:  CLRF   x4B
6E02:  CLRF   x4A
6E04:  CLRF   x49
6E06:  MOVLW  7F
6E08:  MOVWF  x48
6E0A:  MOVLB  0
6E0C:  CALL   1708
6E10:  MOVFF  03,602
6E14:  MOVFF  02,601
6E18:  MOVFF  01,600
6E1C:  MOVFF  00,5FF
6E20:  MOVLB  5
6E22:  BSF    x93.3
....................             } 
....................          } 
....................                 
....................          if(DOWN)//Si oprime hacia abajo 
6E24:  BSF    F96.0
6E26:  BTFSS  F84.0
6E28:  BRA    6E92
....................          {   
....................             if(Coeficiente>1) 
6E2A:  MOVLB  6
6E2C:  CLRF   x42
6E2E:  CLRF   x41
6E30:  CLRF   x40
6E32:  MOVLW  7F
6E34:  MOVWF  x3F
6E36:  MOVFF  602,646
6E3A:  MOVFF  601,645
6E3E:  MOVFF  600,644
6E42:  MOVFF  5FF,643
6E46:  MOVLB  0
6E48:  CALL   0BD6
6E4C:  BNC   6E94
....................             { 
....................                delay_ms(30);Coeficiente-=1.0;visual=1;      
6E4E:  MOVLW  1E
6E50:  MOVLB  6
6E52:  MOVWF  x45
6E54:  MOVLB  0
6E56:  CALL   0B76
6E5A:  BSF    FD8.1
6E5C:  MOVFF  602,647
6E60:  MOVFF  601,646
6E64:  MOVFF  600,645
6E68:  MOVFF  5FF,644
6E6C:  MOVLB  6
6E6E:  CLRF   x4B
6E70:  CLRF   x4A
6E72:  CLRF   x49
6E74:  MOVLW  7F
6E76:  MOVWF  x48
6E78:  MOVLB  0
6E7A:  CALL   1708
6E7E:  MOVFF  03,602
6E82:  MOVFF  02,601
6E86:  MOVFF  01,600
6E8A:  MOVFF  00,5FF
6E8E:  MOVLB  5
6E90:  BSF    x93.3
6E92:  MOVLB  0
....................             } 
....................          } 
....................                 
....................          if(RIGHT)//Si oprime SET 
6E94:  BSF    F96.1
6E96:  BTFSS  F84.1
6E98:  BRA    6EAC
....................          {   
....................             delay_ms(30);visual=1; 
6E9A:  MOVLW  1E
6E9C:  MOVLB  6
6E9E:  MOVWF  x45
6EA0:  MOVLB  0
6EA2:  CALL   0B76
6EA6:  MOVLB  5
6EA8:  BSF    x93.3
6EAA:  MOVLB  0
....................          }  
....................                    
....................          if(LEFT)//Si oprime boton de Toma. 
6EAC:  BSF    F96.2
6EAE:  BTFSS  F84.2
6EB0:  BRA    6F26
....................          { 
....................             delay_ms(700);Menu=100;glcd_fillscreen(OFF);Opcion=1;visual=1; 
6EB2:  MOVLW  04
6EB4:  MOVLB  6
6EB6:  MOVWF  x3F
6EB8:  MOVLW  AF
6EBA:  MOVWF  x45
6EBC:  MOVLB  0
6EBE:  CALL   0B76
6EC2:  MOVLB  6
6EC4:  DECFSZ x3F,F
6EC6:  BRA    6EB8
6EC8:  MOVLW  64
6ECA:  MOVLB  5
6ECC:  MOVWF  x98
6ECE:  MOVLB  6
6ED0:  CLRF   x40
6ED2:  MOVLB  0
6ED4:  CALL   0C90
6ED8:  MOVLW  01
6EDA:  MOVLB  5
6EDC:  MOVWF  x9E
6EDE:  BSF    x93.3
....................             write_eeprom(70,(int8)Coeficiente); 
6EE0:  MOVFF  602,642
6EE4:  MOVFF  601,641
6EE8:  MOVFF  600,640
6EEC:  MOVFF  5FF,63F
6EF0:  MOVLB  0
6EF2:  CALL   2696
6EF6:  MOVFF  01,63F
6EFA:  MOVF   FF2,W
6EFC:  MOVWF  00
6EFE:  BCF    FF2.7
6F00:  MOVLW  46
6F02:  MOVWF  FA9
6F04:  MOVFF  63F,FA8
6F08:  BCF    FA6.6
6F0A:  BCF    FA6.7
6F0C:  BSF    FA6.2
6F0E:  MOVLB  F
6F10:  MOVLW  55
6F12:  MOVWF  FA7
6F14:  MOVLW  AA
6F16:  MOVWF  FA7
6F18:  BSF    FA6.1
6F1A:  BTFSC  FA6.1
6F1C:  BRA    6F1A
6F1E:  BCF    FA6.2
6F20:  MOVF   00,W
6F22:  IORWF  FF2,F
6F24:  MOVLB  0
6F26:  MOVLB  5
....................          } 
....................      } 
.................... //_-------------------------------------------------------------------------------------------------------------------------------------------------------- 
....................  
....................       if(LecturaTemperatura==1) 
6F28:  BTFSS  x93.5
6F2A:  BRA    6F4A
....................       { 
....................          Temperatura=Leer_Sensor(MediaMovil); 
6F2C:  MOVFF  58D,63F
6F30:  MOVLB  0
6F32:  CALL   1A98
6F36:  MOVFF  03,60A
6F3A:  MOVFF  02,609
6F3E:  MOVFF  01,608
6F42:  MOVFF  00,607
....................          LecturaTemperatura=0; 
6F46:  MOVLB  5
6F48:  BCF    x93.5
....................       } 
....................  
....................       if(tiemporeset>=60) 
6F4A:  MOVF   x96,W
6F4C:  SUBLW  3B
6F4E:  BC    6F60
....................       { 
....................          glcd_init(ON); 
6F50:  MOVLW  01
6F52:  MOVLB  6
6F54:  MOVWF  x3F
6F56:  MOVLB  0
6F58:  CALL   0D9A
....................          tiemporeset=0; 
6F5C:  MOVLB  5
6F5E:  CLRF   x96
....................       }  
6F60:  GOTO   3AD2
....................  
....................    } 
.................... } 
6F64:  SLEEP 

Configuration Fuses:
   Word  1: C220   PLL1 CPUDIV1 USBDIV XTPLL FCMEN IESO
   Word  2: 1E3E   PUT BROWNOUT BORV21 VREGEN NOWDT WDT32768
   Word  3: 0700   CCP2C1 PBADEN LPT1OSC NOMCLR
   Word  4: 00A1   STVREN NOLVP ICSP2 NOXINST NODEBUG
   Word  5: C00F   NOPROTECT NOCPB NOCPD
   Word  6: E00F   NOWRT NOWRTC NOWRTB NOWRTD
   Word  7: 400F   NOEBTR NOEBTRB
