CCS PCH C Compiler, Version 4.104, 5967               25-sept.-17 16:32

               Filename: H:\JP\JP\Laboratorio\Incubadora\2017\Incubadora Refrigerada 22L Avantika #004587XX\Firmware\Horno.lst

               ROM used: 30228 bytes (92%)
                         Largest free fragment is 2536
               RAM used: 1554 (76%) at main() level
                         1606 (78%) worst case
               Stack:    5 worst case (4 in main + 1 for interrupts)

*
0000:  GOTO   318E
*
0008:  MOVWF  04
000A:  MOVFF  FD8,05
000E:  MOVFF  FE0,06
0012:  MOVLB  0
0014:  MOVFF  FE9,0C
0018:  MOVFF  FEA,07
001C:  MOVFF  FE1,08
0020:  MOVFF  FE2,09
0024:  MOVFF  FD9,0A
0028:  MOVFF  FDA,0B
002C:  MOVFF  FF3,12
0030:  MOVFF  FF4,13
0034:  MOVFF  FFA,14
0038:  MOVFF  00,0E
003C:  MOVFF  01,0F
0040:  MOVFF  02,10
0044:  MOVFF  03,11
0048:  BTFSS  F9D.0
004A:  GOTO   0054
004E:  BTFSC  F9E.0
0050:  GOTO   0CD0
0054:  MOVFF  0E,00
0058:  MOVFF  0F,01
005C:  MOVFF  10,02
0060:  MOVFF  11,03
0064:  MOVFF  0C,FE9
0068:  MOVFF  07,FEA
006C:  BSF    07.7
006E:  MOVFF  08,FE1
0072:  MOVFF  09,FE2
0076:  MOVFF  0A,FD9
007A:  MOVFF  0B,FDA
007E:  MOVFF  12,FF3
0082:  MOVFF  13,FF4
0086:  MOVFF  14,FFA
008A:  MOVF   04,W
008C:  MOVFF  06,FE0
0090:  MOVFF  05,FD8
0094:  RETFIE 0
....................  
.................... #include <18F4550.h> 
.................... //////// Standard Header file for the PIC18F4550 device //////////////// 
.................... #device PIC18F4550 
.................... #list 
....................  
.................... #device adc=10 
.................... #fuses XTPLL,NOWDT,NOPROTECT,NOLVP,NODEBUG,USBDIV,PLL1,CPUDIV1,VREGEN,NOMCLR 
.................... #use delay(clock=48000000) 
*
0D28:  MOVLW  06
0D2A:  MOVWF  FEA
0D2C:  MOVLW  14
0D2E:  MOVWF  FE9
0D30:  MOVF   FEF,W
0D32:  BZ    0D50
0D34:  MOVLW  0F
0D36:  MOVWF  01
0D38:  CLRF   00
0D3A:  DECFSZ 00,F
0D3C:  BRA    0D3A
0D3E:  DECFSZ 01,F
0D40:  BRA    0D38
0D42:  MOVLW  8F
0D44:  MOVWF  00
0D46:  DECFSZ 00,F
0D48:  BRA    0D46
0D4A:  NOP   
0D4C:  DECFSZ FEF,F
0D4E:  BRA    0D34
0D50:  RETLW  00
.................... #include "HDM64GS12.c" 
.................... ///////////////////////////////////////////////////////////////////////// 
.................... ////                           HDM64GS12.c                           //// 
.................... ////                                                                 //// 
.................... //// This file contains drivers for using a Hantronix HDM64GS12 with //// 
.................... //// a KS0108 display controller. The HDM64GS12 is 128 by 64 pixels. //// 
.................... //// The driver treats the upper left pixel as (0,0).                //// 
.................... ////                                                                 //// 
.................... //// Use #define FAST_GLCD if the target chip has at least 1k of RAM //// 
.................... //// to decrease the time it takes to update the display.            //// 
.................... //// glcd_update() must then be called to update the display after   //// 
.................... //// changing the pixel information.                                 //// 
.................... //// See ex_glcd.c for suggested usage.                              //// 
.................... //// See KS0108.c for controlling a single 64 by 64 display          //// 
.................... ///////////////////////////////////////////////////////////////////////// 
.................... ////                                                                 //// 
.................... //// LCD Pin connections:                                            //// 
.................... //// (These can be changed as needed in the following defines).      //// 
.................... ////  * 1: VSS is connected to GND                                   //// 
.................... ////  * 2: VDD is connected to +5V                                   //// 
.................... ////  * 3: V0  - LCD operating voltage (Constrast adjustment)        //// 
.................... ////  * 4: D/I - Data or Instruction is connected to B2              //// 
.................... ////  * 5: R/W - Read or Write is connected to B4                    //// 
.................... ////  * 6: Enable is connected to B5                                 //// 
.................... ////  *7-14: Data Bus 0 to 7 is connected to port d                  //// 
.................... ////  *15: Chip Select 1 is connected to B0                          //// 
.................... ////  *16: Chip Select 2 is connected to B1                          //// 
.................... ////  *17: Reset is connected to C0                                  //// 
.................... ////  *18: Negative voltage is also connected to the 20k Ohm POT     //// 
.................... ////  *19: Positive voltage for LED backlight is connected to +5V    //// 
.................... ////  *20: Negavtive voltage for LED backlight is connected to GND   //// 
.................... ////                                                                 //// 
.................... ///////////////////////////////////////////////////////////////////////// 
.................... ////                                                                 //// 
.................... ////  glcd_init(mode)                                                //// 
.................... ////     * Must be called before any other function.                 //// 
.................... ////       - mode can be ON or OFF to turn the LCD on or off         //// 
.................... ////                                                                 //// 
.................... ////  glcd_pixel(x,y,color)                                          //// 
.................... ////     * Sets the pixel to the given color.                        //// 
.................... ////       - color can be ON or OFF                                  //// 
.................... ////                                                                 //// 
.................... ////  glcd_fillScreen(color)                                         //// 
.................... ////     * Fills the entire LCD with the given color.                //// 
.................... ////       - color can be ON or OFF                                  //// 
.................... ////                                                                 //// 
.................... ////  glcd_update()                                                  //// 
.................... ////     * Write the display data stored in RAM to the LCD           //// 
.................... ////     * Only available if FAST_GLCD is defined                    //// 
.................... ////                                                                 //// 
.................... ///////////////////////////////////////////////////////////////////////// 
.................... ////        (C) Copyright 1996, 2004 Custom Computer Services        //// 
.................... //// This source code may only be used by licensed users of the CCS  //// 
.................... //// C compiler.  This source code may only be distributed to other  //// 
.................... //// licensed users of the CCS C compiler.  No other use,            //// 
.................... //// reproduction or distribution is permitted without written       //// 
.................... //// permission.  Derivative programs created using this software    //// 
.................... //// in object code form are not restricted in any way.              //// 
.................... ///////////////////////////////////////////////////////////////////////// 
....................  
....................  
....................  
.................... #ifndef HDM64GS12 
.................... #define HDM64GS12 
....................  
.................... #ifndef FAST_GLCD 
.................... #define FAST_GLCD 
....................  
.................... #ifndef GLCD_WIDTH 
.................... #define GLCD_WIDTH   128 
.................... #endif 
....................  
.................... #ifndef GLCD_CS1 
.................... #define GLCD_CS1     PIN_B0   // Chip Selection 1 
.................... #endif 
....................  
.................... #ifndef GLCD_CS2 
.................... #define GLCD_CS2     PIN_B1   // Chip Selection 2 
.................... #endif 
....................  
.................... #ifndef GLCD_DI 
.................... #define GLCD_DI      PIN_B5   // Data or Instruction input 
.................... #endif 
....................  
.................... #ifndef GLCD_RW 
.................... #define GLCD_RW      PIN_B4   // Read/Write 
.................... #endif 
....................  
.................... #ifndef GLCD_E 
.................... #define GLCD_E       PIN_B3   // Enable 
.................... #endif 
....................  
.................... #ifndef GLCD_RST 
.................... #define GLCD_RST     PIN_B2   // Reset 
.................... #endif 
....................  
.................... #define GLCD_LEFT    0 
.................... #define GLCD_RIGHT   1 
....................  
.................... #ifndef ON 
.................... #define ON           1 
.................... #endif 
....................  
.................... #ifndef OFF 
.................... #define OFF          0 
.................... #endif 
....................  
.................... ///////////////////////////////////////////////////////////////////////// 
.................... // Function Prototypes 
.................... ///////////////////////////////////////////////////////////////////////// 
.................... void glcd_init(int1 mode); 
.................... void glcd_pixel(int8 x, int8 y, int1 color); 
.................... void glcd_fillScreen(int1 color); 
.................... void glcd_writeByte(int1 side, BYTE data); 
.................... BYTE glcd_readByte(int1 side); 
.................... void glcd_update(); 
.................... ///////////////////////////////////////////////////////////////////////// 
....................  
.................... #ifdef FAST_GLCD 
.................... struct 
.................... { 
....................    int8 left[512]; 
....................    int8 right[512]; 
.................... } displayData; 
.................... #endif 
....................  
....................  
.................... // Purpose:       Initialize the LCD. 
.................... //                Call before using any other LCD function. 
.................... // Inputs:        OFF - Turns the LCD off 
.................... //                ON  - Turns the LCD on 
.................... void glcd_init(int1 mode) 
.................... { 
....................    // Initialze some pins 
....................    output_high(GLCD_RST); 
*
0F54:  BCF    F93.2
0F56:  BSF    F8A.2
....................    output_low(GLCD_E); 
0F58:  BCF    F93.3
0F5A:  BCF    F8A.3
....................    output_low(GLCD_CS1); 
0F5C:  BCF    F93.0
0F5E:  BCF    F8A.0
....................    output_low(GLCD_CS2); 
0F60:  BCF    F93.1
0F62:  BCF    F8A.1
....................  
....................    output_low(GLCD_DI);                 // Set for instruction 
0F64:  BCF    F93.5
0F66:  BCF    F8A.5
....................    glcd_writeByte(GLCD_LEFT,  0xC0);    // Specify first RAM line at the top 
0F68:  MOVLB  6
0F6A:  CLRF   x26
0F6C:  MOVLW  C0
0F6E:  MOVWF  x27
0F70:  MOVLB  0
0F72:  RCALL  0E02
....................    glcd_writeByte(GLCD_RIGHT, 0xC0);    //   of the screen 
0F74:  MOVLW  01
0F76:  MOVLB  6
0F78:  MOVWF  x26
0F7A:  MOVLW  C0
0F7C:  MOVWF  x27
0F7E:  MOVLB  0
0F80:  RCALL  0E02
....................    glcd_writeByte(GLCD_LEFT,  0x40);    // Set the column address to 0 
0F82:  MOVLB  6
0F84:  CLRF   x26
0F86:  MOVLW  40
0F88:  MOVWF  x27
0F8A:  MOVLB  0
0F8C:  RCALL  0E02
....................    glcd_writeByte(GLCD_RIGHT, 0x40); 
0F8E:  MOVLW  01
0F90:  MOVLB  6
0F92:  MOVWF  x26
0F94:  MOVLW  40
0F96:  MOVWF  x27
0F98:  MOVLB  0
0F9A:  RCALL  0E02
....................    glcd_writeByte(GLCD_LEFT,  0xB8);    // Set the page address to 0 
0F9C:  MOVLB  6
0F9E:  CLRF   x26
0FA0:  MOVLW  B8
0FA2:  MOVWF  x27
0FA4:  MOVLB  0
0FA6:  RCALL  0E02
....................    glcd_writeByte(GLCD_RIGHT, 0xB8); 
0FA8:  MOVLW  01
0FAA:  MOVLB  6
0FAC:  MOVWF  x26
0FAE:  MOVLW  B8
0FB0:  MOVWF  x27
0FB2:  MOVLB  0
0FB4:  RCALL  0E02
....................  
....................    if(mode == ON) 
0FB6:  MOVLB  6
0FB8:  DECFSZ x0E,W
0FBA:  BRA    0FD8
....................    { 
....................       glcd_writeByte(GLCD_LEFT,  0x3F); // Turn the display on 
0FBC:  CLRF   x26
0FBE:  MOVLW  3F
0FC0:  MOVWF  x27
0FC2:  MOVLB  0
0FC4:  RCALL  0E02
....................       glcd_writeByte(GLCD_RIGHT, 0x3F); 
0FC6:  MOVLW  01
0FC8:  MOVLB  6
0FCA:  MOVWF  x26
0FCC:  MOVLW  3F
0FCE:  MOVWF  x27
0FD0:  MOVLB  0
0FD2:  RCALL  0E02
....................    } 
....................    else 
0FD4:  BRA    0FF0
0FD6:  MOVLB  6
....................    { 
....................       glcd_writeByte(GLCD_LEFT,  0x3E); // Turn the display off 
0FD8:  CLRF   x26
0FDA:  MOVLW  3E
0FDC:  MOVWF  x27
0FDE:  MOVLB  0
0FE0:  RCALL  0E02
....................       glcd_writeByte(GLCD_RIGHT, 0x3E); 
0FE2:  MOVLW  01
0FE4:  MOVLB  6
0FE6:  MOVWF  x26
0FE8:  MOVLW  3E
0FEA:  MOVWF  x27
0FEC:  MOVLB  0
0FEE:  RCALL  0E02
....................    } 
....................  
....................    glcd_fillScreen(OFF);                // Clear the display 
0FF0:  MOVLB  6
0FF2:  CLRF   x0F
0FF4:  MOVLB  0
0FF6:  RCALL  0E42
....................  
....................    #ifdef FAST_GLCD 
....................    glcd_update(); 
0FF8:  RCALL  0E9C
....................    #endif 
.................... } 
0FFA:  RETLW  00
....................  
....................  
.................... // Purpose:    Update the LCD with data from the display arrays 
.................... #ifdef FAST_GLCD 
.................... void glcd_update() 
.................... { 
....................    int8 i, j; 
....................    int8 *p1, *p2; 
....................  
....................    p1 = displayData.left; 
*
0E9C:  MOVLB  6
0E9E:  CLRF   x22
0EA0:  MOVLW  16
0EA2:  MOVWF  x21
....................    p2 = displayData.right; 
0EA4:  MOVLW  02
0EA6:  MOVWF  x24
0EA8:  MOVLW  16
0EAA:  MOVWF  x23
....................  
....................    // Loop through the vertical pages 
....................    for(i = 0; i < 8; ++i) 
0EAC:  CLRF   x1F
0EAE:  MOVF   x1F,W
0EB0:  SUBLW  07
0EB2:  BNC   0F50
....................    { 
....................       output_low(GLCD_DI);                      // Set for instruction 
0EB4:  BCF    F93.5
0EB6:  BCF    F8A.5
....................       glcd_writeByte(GLCD_LEFT, 0x40);          // Set horizontal address to 0 
0EB8:  CLRF   x26
0EBA:  MOVLW  40
0EBC:  MOVWF  x27
0EBE:  MOVLB  0
0EC0:  RCALL  0E02
....................       glcd_writeByte(GLCD_RIGHT, 0x40); 
0EC2:  MOVLW  01
0EC4:  MOVLB  6
0EC6:  MOVWF  x26
0EC8:  MOVLW  40
0ECA:  MOVWF  x27
0ECC:  MOVLB  0
0ECE:  RCALL  0E02
....................       glcd_writeByte(GLCD_LEFT, i | 0xB8);      // Set page address 
0ED0:  MOVLB  6
0ED2:  MOVF   x1F,W
0ED4:  IORLW  B8
0ED6:  MOVWF  x25
0ED8:  CLRF   x26
0EDA:  MOVWF  x27
0EDC:  MOVLB  0
0EDE:  RCALL  0E02
....................       glcd_writeByte(GLCD_RIGHT, i | 0xB8); 
0EE0:  MOVLB  6
0EE2:  MOVF   x1F,W
0EE4:  IORLW  B8
0EE6:  MOVWF  x25
0EE8:  MOVLW  01
0EEA:  MOVWF  x26
0EEC:  MOVFF  625,627
0EF0:  MOVLB  0
0EF2:  RCALL  0E02
....................       output_high(GLCD_DI);                     // Set for data 
0EF4:  BCF    F93.5
0EF6:  BSF    F8A.5
....................  
....................       // Loop through the horizontal sections 
....................       for(j = 0; j < 64; ++j) 
0EF8:  MOVLB  6
0EFA:  CLRF   x20
0EFC:  MOVF   x20,W
0EFE:  SUBLW  3F
0F00:  BNC   0F4C
....................       { 
....................          glcd_writeByte(GLCD_LEFT, *p1++);      // Turn pixels on or off 
0F02:  MOVFF  622,03
0F06:  MOVF   x21,W
0F08:  INCF   x21,F
0F0A:  BTFSC  FD8.2
0F0C:  INCF   x22,F
0F0E:  MOVWF  FE9
0F10:  MOVFF  03,FEA
0F14:  MOVFF  FEF,625
0F18:  CLRF   x26
0F1A:  MOVFF  625,627
0F1E:  MOVLB  0
0F20:  RCALL  0E02
....................          glcd_writeByte(GLCD_RIGHT, *p2++);     // Turn pixels on or off 
0F22:  MOVLB  6
0F24:  MOVFF  624,03
0F28:  MOVF   x23,W
0F2A:  INCF   x23,F
0F2C:  BTFSC  FD8.2
0F2E:  INCF   x24,F
0F30:  MOVWF  FE9
0F32:  MOVFF  03,FEA
0F36:  MOVFF  FEF,625
0F3A:  MOVLW  01
0F3C:  MOVWF  x26
0F3E:  MOVFF  625,627
0F42:  MOVLB  0
0F44:  RCALL  0E02
....................       } 
0F46:  MOVLB  6
0F48:  INCF   x20,F
0F4A:  BRA    0EFC
....................    } 
0F4C:  INCF   x1F,F
0F4E:  BRA    0EAE
.................... } 
0F50:  MOVLB  0
0F52:  RETLW  00
.................... #endif 
....................  
....................  
.................... // Purpose:    Turn a pixel on a graphic LCD on or off 
.................... // Inputs:     1) x - the x coordinate of the pixel 
.................... //             2) y - the y coordinate of the pixel 
.................... //             3) color - ON or OFF 
.................... void glcd_pixel(int8 x, int8 y, int1 color) 
.................... #ifdef FAST_GLCD 
.................... { 
....................    int8* p; 
....................    int16 temp; 
....................    temp =  y/8; 
*
0FFC:  MOVLB  6
0FFE:  CLRF   x42
1000:  RRCF   x3D,W
1002:  MOVWF  x41
1004:  RRCF   x41,F
1006:  RRCF   x41,F
1008:  MOVLW  1F
100A:  ANDWF  x41,F
....................    temp *= 64; 
100C:  RLCF   x41,F
100E:  RLCF   x42,F
1010:  RLCF   x41,F
1012:  RLCF   x42,F
1014:  RLCF   x41,F
1016:  RLCF   x42,F
1018:  RLCF   x41,F
101A:  RLCF   x42,F
101C:  RLCF   x41,F
101E:  RLCF   x42,F
1020:  RLCF   x41,F
1022:  RLCF   x42,F
1024:  MOVLW  C0
1026:  ANDWF  x41,F
....................    temp += x; 
1028:  MOVF   x3C,W
102A:  ADDWF  x41,F
102C:  MOVLW  00
102E:  ADDWFC x42,F
....................  
....................    if(x > 63) 
1030:  MOVF   x3C,W
1032:  SUBLW  3F
1034:  BC    1050
....................    { 
....................       p = displayData.right + temp - 64; 
1036:  MOVLW  16
1038:  ADDWF  x41,W
103A:  MOVWF  x43
103C:  MOVLW  02
103E:  ADDWFC x42,W
1040:  MOVWF  x44
1042:  MOVLW  40
1044:  SUBWF  x43,W
1046:  MOVWF  x3F
1048:  MOVLW  00
104A:  SUBWFB x44,W
104C:  MOVWF  x40
....................    } 
....................    else 
104E:  BRA    105C
....................    { 
....................       p = displayData.left + temp; 
1050:  MOVLW  16
1052:  ADDWF  x41,W
1054:  MOVWF  x3F
1056:  MOVLW  00
1058:  ADDWFC x42,W
105A:  MOVWF  x40
....................    } 
....................  
....................    if(color) 
105C:  MOVF   x3E,F
105E:  BZ    108A
....................    { 
....................       bit_set(*p, y%8); 
1060:  MOVFF  640,03
1064:  MOVFF  63F,FE9
1068:  MOVFF  640,FEA
106C:  MOVF   x3D,W
106E:  ANDLW  07
1070:  MOVWF  x43
1072:  MOVLW  01
1074:  MOVWF  00
1076:  MOVF   x43,W
1078:  MOVWF  01
107A:  BZ    1084
107C:  BCF    FD8.0
107E:  RLCF   00,F
1080:  DECFSZ 01,F
1082:  BRA    107C
1084:  MOVF   00,W
1086:  IORWF  FEF,F
....................    } 
....................    else 
1088:  BRA    10B4
....................    { 
....................       bit_clear(*p, y%8); 
108A:  MOVFF  640,03
108E:  MOVFF  63F,FE9
1092:  MOVFF  640,FEA
1096:  MOVF   x3D,W
1098:  ANDLW  07
109A:  MOVWF  x43
109C:  MOVLW  01
109E:  MOVWF  00
10A0:  MOVF   x43,W
10A2:  MOVWF  01
10A4:  BZ    10AE
10A6:  BCF    FD8.0
10A8:  RLCF   00,F
10AA:  DECFSZ 01,F
10AC:  BRA    10A6
10AE:  MOVF   00,W
10B0:  XORLW  FF
10B2:  ANDWF  FEF,F
....................    } 
.................... } 
10B4:  MOVLB  0
10B6:  RETLW  00
.................... #else 
.................... { 
....................    BYTE data; 
....................    int1 side = GLCD_LEFT;  // Stores which chip to use on the LCD 
....................  
....................    if(x > 63)              // Check for first or second display area 
....................    { 
....................       x -= 64; 
....................       side = GLCD_RIGHT; 
....................    } 
....................  
....................    output_low(GLCD_DI);                         // Set for instruction 
....................    bit_clear(x,7);                              // Clear the MSB. Part of an instruction code 
....................    bit_set(x,6);                                // Set bit 6. Also part of an instruction code 
....................    glcd_writeByte(side, x);                     // Set the horizontal address 
....................    glcd_writeByte(side, (y/8 & 0xBF) | 0xB8);   // Set the vertical page address 
....................    output_high(GLCD_DI);                        // Set for data 
....................    glcd_readByte(side);                         // Need two reads to get data 
....................    data = glcd_readByte(side);                  //  at new address 
....................  
....................    if(color == ON) 
....................       bit_set(data, y%8);        // Turn the pixel on 
....................    else                          // or 
....................       bit_clear(data, y%8);      // turn the pixel off 
....................  
....................    output_low(GLCD_DI);          // Set for instruction 
....................    glcd_writeByte(side, x);      // Set the horizontal address 
....................    output_high(GLCD_DI);         // Set for data 
....................    glcd_writeByte(side, data);   // Write the pixel data 
.................... } 
.................... #endif 
....................  
....................  
.................... // Purpose:    Fill the LCD screen with the passed in color 
.................... // Inputs:     ON  - turn all the pixels on 
.................... //             OFF - turn all the pixels off 
.................... void glcd_fillScreen(int1 color) 
.................... #ifdef FAST_GLCD 
.................... { 
....................    int8  data; 
....................    int8  *p1, *p2; 
....................    int16 i; 
....................  
....................    p1 = displayData.left; 
*
0E42:  MOVLB  6
0E44:  CLRF   x12
0E46:  MOVLW  16
0E48:  MOVWF  x11
....................    p2 = displayData.right; 
0E4A:  MOVLW  02
0E4C:  MOVWF  x14
0E4E:  MOVLW  16
0E50:  MOVWF  x13
....................    data = 0xFF * color; 
0E52:  MOVF   x0F,W
0E54:  MULLW  FF
0E56:  MOVFF  FF3,610
....................  
....................    for(i=0; i<512; ++i) 
0E5A:  CLRF   x16
0E5C:  CLRF   x15
0E5E:  MOVF   x16,W
0E60:  SUBLW  01
0E62:  BNC   0E98
....................    { 
....................       *p1++ = data; 
0E64:  MOVFF  612,03
0E68:  MOVF   x11,W
0E6A:  INCF   x11,F
0E6C:  BTFSC  FD8.2
0E6E:  INCF   x12,F
0E70:  MOVWF  FE9
0E72:  MOVFF  03,FEA
0E76:  MOVFF  610,FEF
....................       *p2++ = data; 
0E7A:  MOVFF  614,03
0E7E:  MOVF   x13,W
0E80:  INCF   x13,F
0E82:  BTFSC  FD8.2
0E84:  INCF   x14,F
0E86:  MOVWF  FE9
0E88:  MOVFF  03,FEA
0E8C:  MOVFF  610,FEF
....................    } 
0E90:  INCF   x15,F
0E92:  BTFSC  FD8.2
0E94:  INCF   x16,F
0E96:  BRA    0E5E
.................... } 
0E98:  MOVLB  0
0E9A:  RETLW  00
.................... #else 
.................... { 
....................    int8 i, j; 
....................  
....................    // Loop through the vertical pages 
....................    for(i = 0; i < 8; ++i) 
....................    { 
....................       output_low(GLCD_DI);                      // Set for instruction 
....................       glcd_writeByte(GLCD_LEFT, 0b01000000);    // Set horizontal address to 0 
....................       glcd_writeByte(GLCD_RIGHT, 0b01000000); 
....................       glcd_writeByte(GLCD_LEFT, i | 0b10111000);// Set page address 
....................       glcd_writeByte(GLCD_RIGHT, i | 0b10111000); 
....................       output_high(GLCD_DI);                     // Set for data 
....................  
....................       // Loop through the horizontal sections 
....................       for(j = 0; j < 64; ++j) 
....................       { 
....................          glcd_writeByte(GLCD_LEFT, 0xFF*color);  // Turn pixels on or off 
....................          glcd_writeByte(GLCD_RIGHT, 0xFF*color); // Turn pixels on or off 
....................       } 
....................    } 
.................... } 
.................... #endif 
....................  
....................  
.................... // Purpose:    Write a byte of data to the specified chip 
.................... // Inputs:     1) chipSelect - which chip to write the data to 
.................... //             2) data - the byte of data to write 
.................... void glcd_writeByte(int1 side, BYTE data) 
.................... { 
....................    if(side)                   // Choose which side to write to 
*
0E02:  MOVLB  6
0E04:  MOVF   x26,F
0E06:  BZ    0E0E
....................       output_high(GLCD_CS2); 
0E08:  BCF    F93.1
0E0A:  BSF    F8A.1
....................    else 
0E0C:  BRA    0E12
....................       output_high(GLCD_CS1); 
0E0E:  BCF    F93.0
0E10:  BSF    F8A.0
....................  
....................    output_low(GLCD_RW);       // Set for writing 
0E12:  BCF    F93.4
0E14:  BCF    F8A.4
....................    output_d(data);            // Put the data on the port 
0E16:  CLRF   F95
0E18:  MOVFF  627,F8C
....................    delay_cycles(50); 
0E1C:  MOVLW  10
0E1E:  MOVWF  00
0E20:  DECFSZ 00,F
0E22:  BRA    0E20
0E24:  NOP   
....................    output_high(GLCD_E);       // Pulse the enable pin 
0E26:  BCF    F93.3
0E28:  BSF    F8A.3
....................    delay_cycles(250); 
0E2A:  MOVLW  53
0E2C:  MOVWF  00
0E2E:  DECFSZ 00,F
0E30:  BRA    0E2E
....................    output_low(GLCD_E); 
0E32:  BCF    F93.3
0E34:  BCF    F8A.3
....................  
....................    output_low(GLCD_CS1);      // Reset the chip select lines 
0E36:  BCF    F93.0
0E38:  BCF    F8A.0
....................    output_low(GLCD_CS2); 
0E3A:  BCF    F93.1
0E3C:  BCF    F8A.1
.................... } 
0E3E:  MOVLB  0
0E40:  RETLW  00
....................  
....................  
.................... // Purpose:    Reads a byte of data from the specified chip 
.................... // Ouputs:     A byte of data read from the chip 
.................... BYTE glcd_readByte(int1 side) 
.................... { 
....................    BYTE data;                 // Stores the data read from the LCD 
....................  
....................    set_tris_d(0xFF);          // Set port d to input 
....................    output_high(GLCD_RW);      // Set for reading 
....................  
....................    if(side)                   // Choose which side to write to 
....................       output_high(GLCD_CS2); 
....................    else 
....................       output_high(GLCD_CS1); 
....................  
....................    delay_cycles(50); 
....................    output_high(GLCD_E);       // Pulse the enable pin 
....................    delay_cycles(200); 
....................    data = input_d();          // Get the data from the display's output register 
....................    output_low(GLCD_E); 
....................  
....................    output_low(GLCD_CS1);      // Reset the chip select lines 
....................    output_low(GLCD_CS2); 
....................    return data;               // Return the read data 
.................... } 
....................  
.................... #endif 
....................  
.................... #include "GRAPHICS.c" 
.................... ///////////////////////////////////////////////////////////////////////// 
.................... ////                          graphics.c                             //// 
.................... ////                                                                 //// 
.................... ////   This file contains functions to draw lines, rectangles, bars, //// 
.................... ////   circles and text to a display. A function which draws a       //// 
.................... ////   single pixel must be defined before calling the functions in  //// 
.................... ////   this file. Call it glcd_pixel(x, y, color) where x is the     //// 
.................... ////   horizontal coordinate, y is the vertical coordinate, and      //// 
.................... ////   color is 1 bit to turn the pixel on or off.                   //// 
.................... ////                                                                 //// 
.................... ////   * Note: (0, 0) is treated as the upper left corner            //// 
.................... ////                                                                 //// 
.................... ///////////////////////////////////////////////////////////////////////// 
.................... ////                                                                 //// 
.................... ////  glcd_line(x1, y1, x2, y2, color)                               //// 
.................... ////     * Draws a line from the first point to the second point     //// 
.................... ////       with the given color                                      //// 
.................... ////       - color can be ON or OFF                                  //// 
.................... ////                                                                 //// 
.................... ////  glcd_rect(x1, y1, x2, y2, fill, color)                         //// 
.................... ////     * Draws a rectangle with one corner at point (x1,y1) and    //// 
.................... ////       the other corner at point (x2,y2)                         //// 
.................... ////       - fill can be YES or NO                                   //// 
.................... ////       - color can be ON or OFF                                  //// 
.................... ////                                                                 //// 
.................... ////  glcd_bar(x1, y1, x2, y2, width, color)                         //// 
.................... ////     * Draws a bar (wide line) from the first point to the       //// 
.................... ////       second point                                              //// 
.................... ////       - width is the number of pixels wide                      //// 
.................... ////       - color is ON or OFF                                      //// 
.................... ////                                                                 //// 
.................... ////  glcd_circle(x, y, radius, fill, color)                         //// 
.................... ////     * Draws a circle with center at (x,y)                       //// 
.................... ////       - fill can be YES or NO                                   //// 
.................... ////       - color can be ON or OFF                                  //// 
.................... ////                                                                 //// 
.................... ////  glcd_text57(x, y, textptr, size, color)                        //// 
.................... ////     * Write the null terminated text pointed to by textptr with //// 
.................... ////       the upper left coordinate of the first character at (x,y) //// 
.................... ////       Characters are 5 pixels wide and 7 pixels tall            //// 
.................... ////       - size is an integer that scales the size of the text     //// 
.................... ////       - color is ON or OFF                                      //// 
.................... ////     * Note - This function wraps characters to the next line    //// 
.................... ////              use #define GLCD_WIDTH to specify a display width  //// 
.................... ////                                                                 //// 
.................... ///////////////////////////////////////////////////////////////////////// 
.................... ////        (C) Copyright 1996, 2004 Custom Computer Services        //// 
.................... //// This source code may only be used by licensed users of the CCS  //// 
.................... //// C compiler.  This source code may only be distributed to other  //// 
.................... //// licensed users of the CCS C compiler.  No other use,            //// 
.................... //// reproduction or distribution is permitted without written       //// 
.................... //// permission.  Derivative programs created using this software    //// 
.................... //// in object code form are not restricted in any way.              //// 
.................... ///////////////////////////////////////////////////////////////////////// 
....................  
....................  
.................... ///////////////////////////////////////////////////////////////////////// 
.................... #ifndef GRAPHICS_DRAWING_FUNCTIONS 
.................... #define GRAPHICS_DRAWING_FUNCTIONS 
.................... ///////////////////////////////////////////////////////////////////////// 
....................  
....................  
.................... ///////////////////////////////////////////////////////////////////////// 
.................... #ifndef ON 
.................... #define ON  1 
.................... #endif 
....................  
.................... #ifndef OFF 
.................... #define OFF 0 
.................... #endif 
....................  
.................... #ifndef YES 
.................... #define YES 1 
.................... #endif 
....................  
.................... #ifndef NO 
.................... #define NO  0 
.................... #endif 
.................... ///////////////////////////////////////////////////////////////////////// 
....................  
....................  
.................... ///////////////////////////////////////////////////////////////////////// 
.................... //// Defines a 5x7 font 
.................... ///////////////////////////////////////////////////////////////////////// 
.................... const int8 FONT[51][5] ={0x00, 0x00, 0x00, 0x00, 0x00, // SPACE 
....................                          0x00, 0x00, 0x5F, 0x00, 0x00, // ! 
....................                          0x00, 0x03, 0x00, 0x03, 0x00, // " 
....................                          0x14, 0x3E, 0x14, 0x3E, 0x14, // # 
....................                          0x24, 0x2A, 0x7F, 0x2A, 0x12, // $ 
....................                          0x43, 0x33, 0x08, 0x66, 0x61, // % 
....................                          0x36, 0x49, 0x55, 0x22, 0x50, // & 
....................                          0x00, 0x05, 0x03, 0x00, 0x00, // ' 
....................                          0x00, 0x1C, 0x22, 0x41, 0x00, // ( 
....................                          0x00, 0x41, 0x22, 0x1C, 0x00, // ) 
....................                          0x14, 0x08, 0x3E, 0x08, 0x14, // * 
....................                          0x08, 0x08, 0x3E, 0x08, 0x08, // + 
....................                          0x00, 0x50, 0x30, 0x00, 0x00, // , 
....................                          0x08, 0x08, 0x08, 0x08, 0x08, // - 
....................                          0x00, 0x60, 0x60, 0x00, 0x00, // . 
....................                          0x20, 0x10, 0x08, 0x04, 0x02, // / 
....................                          0x3E, 0x51, 0x49, 0x45, 0x3E, // 0 
....................                          0x00, 0x04, 0x02, 0x7F, 0x00, // 1 
....................                          0x42, 0x61, 0x51, 0x49, 0x46, // 2 
....................                          0x22, 0x41, 0x49, 0x49, 0x36, // 3 
....................                          0x18, 0x14, 0x12, 0x7F, 0x10, // 4 
....................                          0x27, 0x45, 0x45, 0x45, 0x39, // 5 
....................                          0x3E, 0x49, 0x49, 0x49, 0x32, // 6 
....................                          0x01, 0x01, 0x71, 0x09, 0x07, // 7 
....................                          0x36, 0x49, 0x49, 0x49, 0x36, // 8 
....................                          0x26, 0x49, 0x49, 0x49, 0x3E, // 9 
....................                          0x00, 0x36, 0x36, 0x00, 0x00, // : 
....................                          0x00, 0x56, 0x36, 0x00, 0x00, // ; 
....................                          0x08, 0x14, 0x22, 0x41, 0x00, // < 
....................                          0x14, 0x14, 0x14, 0x14, 0x14, // = 
....................                          0x00, 0x41, 0x22, 0x14, 0x08, // > 
....................                          0x02, 0x01, 0x51, 0x09, 0x06, // ? 
....................                          0x3E, 0x41, 0x59, 0x55, 0x5E, // @ 
....................                          0x7E, 0x09, 0x09, 0x09, 0x7E, // A 
....................                          0x7F, 0x49, 0x49, 0x49, 0x36, // B 
....................                          0x3E, 0x41, 0x41, 0x41, 0x22, // C 
....................                          0x7F, 0x41, 0x41, 0x41, 0x3E, // D 
....................                          0x7F, 0x49, 0x49, 0x49, 0x41, // E 
....................                          0x7F, 0x09, 0x09, 0x09, 0x01, // F 
....................                          0x3E, 0x41, 0x41, 0x49, 0x3A, // G 
....................                          0x7F, 0x08, 0x08, 0x08, 0x7F, // H 
....................                          0x00, 0x41, 0x7F, 0x41, 0x00, // I 
....................                          0x30, 0x40, 0x40, 0x40, 0x3F, // J 
....................                          0x7F, 0x08, 0x14, 0x22, 0x41, // K 
....................                          0x7F, 0x40, 0x40, 0x40, 0x40, // L 
....................                          0x7F, 0x02, 0x0C, 0x02, 0x7F, // M 
....................                          0x7F, 0x02, 0x04, 0x08, 0x7F, // N 
....................                          0x3E, 0x41, 0x41, 0x41, 0x3E, // O 
....................                          0x7F, 0x09, 0x09, 0x09, 0x06, // P 
....................                          0x1E, 0x21, 0x21, 0x21, 0x5E, // Q 
....................                          0x7F, 0x09, 0x09, 0x09, 0x76};// R 
....................  
.................... const int8 FONT2[44][5]={0x26, 0x49, 0x49, 0x49, 0x32, // S 
....................                          0x01, 0x01, 0x7F, 0x01, 0x01, // T 
....................                          0x3F, 0x40, 0x40, 0x40, 0x3F, // U 
....................                          0x1F, 0x20, 0x40, 0x20, 0x1F, // V 
....................                          0x7F, 0x20, 0x10, 0x20, 0x7F, // W 
....................                          0x41, 0x22, 0x1C, 0x22, 0x41, // X 
....................                          0x07, 0x08, 0x70, 0x08, 0x07, // Y 
....................                          0x61, 0x51, 0x49, 0x45, 0x43, // Z 
....................                          0x00, 0x7F, 0x41, 0x00, 0x00, // [ 
....................                          0x02, 0x04, 0x08, 0x10, 0x20, // \ 
....................                          0x00, 0x00, 0x41, 0x7F, 0x00, // ] 
....................                          0x04, 0x02, 0x01, 0x02, 0x04, // ^ 
....................                          0x40, 0x40, 0x40, 0x40, 0x40, // _ 
....................                          0x00, 0x01, 0x02, 0x04, 0x00, // ` 
....................                          0x20, 0x54, 0x54, 0x54, 0x78, // a 
....................                          0x7F, 0x44, 0x44, 0x44, 0x38, // b 
....................                          0x38, 0x44, 0x44, 0x44, 0x44, // c 
....................                          0x38, 0x44, 0x44, 0x44, 0x7F, // d 
....................                          0x38, 0x54, 0x54, 0x54, 0x18, // e 
....................                          0x04, 0x04, 0x7E, 0x05, 0x05, // f 
....................                          0x08, 0x54, 0x54, 0x54, 0x3C, // g 
....................                          0x7F, 0x08, 0x04, 0x04, 0x78, // h 
....................                          0x00, 0x44, 0x7D, 0x40, 0x00, // i 
....................                          0x20, 0x40, 0x44, 0x3D, 0x00, // j 
....................                          0x7F, 0x10, 0x28, 0x44, 0x00, // k 
....................                          0x00, 0x41, 0x7F, 0x40, 0x00, // l 
....................                          0x7C, 0x04, 0x78, 0x04, 0x78, // m 
....................                          0x7C, 0x08, 0x04, 0x04, 0x78, // n 
....................                          0x38, 0x44, 0x44, 0x44, 0x38, // o 
....................                          0x7C, 0x14, 0x14, 0x14, 0x08, // p 
....................                          0x08, 0x14, 0x14, 0x14, 0x7C, // q 
....................                          0x00, 0x7C, 0x08, 0x04, 0x04, // r 
....................                          0x48, 0x54, 0x54, 0x54, 0x20, // s 
....................                          0x04, 0x04, 0x3F, 0x44, 0x44, // t 
....................                          0x3C, 0x40, 0x40, 0x20, 0x7C, // u 
....................                          0x1C, 0x20, 0x40, 0x20, 0x1C, // v 
....................                          0x3C, 0x40, 0x30, 0x40, 0x3C, // w 
....................                          0x44, 0x28, 0x10, 0x28, 0x44, // x 
....................                          0x0C, 0x50, 0x50, 0x50, 0x3C, // y 
....................                          0x44, 0x64, 0x54, 0x4C, 0x44, // z 
....................                          0x00, 0x08, 0x36, 0x41, 0x41, // { 
....................                          0x00, 0x00, 0x7F, 0x00, 0x00, // | 
....................                          0x41, 0x41, 0x36, 0x08, 0x00, // } 
....................                          0x02, 0x01, 0x02, 0x04, 0x02};// ~ 
.................... ///////////////////////////////////////////////////////////////////////// 
....................  
....................  
.................... ///////////////////////////////////////////////////////////////////////// 
.................... // Purpose:       Draw a line on a graphic LCD using Bresenham's 
.................... //                line drawing algorithm 
.................... // Inputs:        (x1, y1) - the start coordinate 
.................... //                (x2, y2) - the end coordinate 
.................... //                color - ON or OFF 
.................... // Dependencies:  glcd_pixel() 
.................... ///////////////////////////////////////////////////////////////////////// 
.................... #ifdef LARGE_LCD 
.................... void glcd_line(int16 x1, int16 y1, int16 x2, int16 y2, int1 color) 
.................... #else 
.................... void glcd_line(int8 x1, int8 y1, int8 x2, int8 y2, int1 color) 
.................... #endif 
.................... { 
*
1270:  MOVLW  01
1272:  MOVLB  6
1274:  MOVWF  x35
1276:  MOVWF  x36
1278:  CLRF   x3B
....................    int16        dy, dx; 
....................    signed int8  addx=1, addy=1; 
....................    signed int16 P, diff; 
....................  
....................    #ifdef LARGE_LCD 
....................    int16 i=0; 
....................    dx = abs((signed int16)(x2 - x1)); 
....................    dy = abs((signed int16)(y2 - y1)); 
....................    #else 
....................    int8 i=0; 
....................    dx = abs((signed int8)(x2 - x1)); 
127A:  MOVF   x2C,W
127C:  SUBWF  x2E,W
127E:  MOVWF  x3C
1280:  MOVF   x3C,W
1282:  BTFSS  x3C.7
1284:  BRA    128C
1286:  MOVLW  00
1288:  BSF    FD8.0
128A:  SUBFWB x3C,W
128C:  CLRF   03
128E:  MOVWF  x33
1290:  MOVFF  03,634
....................    dy = abs((signed int8)(y2 - y1)); 
1294:  MOVF   x2D,W
1296:  SUBWF  x2F,W
1298:  MOVWF  x3C
129A:  MOVF   x3C,W
129C:  BTFSS  x3C.7
129E:  BRA    12A6
12A0:  MOVLW  00
12A2:  BSF    FD8.0
12A4:  SUBFWB x3C,W
12A6:  CLRF   03
12A8:  MOVWF  x31
12AA:  MOVFF  03,632
....................    #endif 
....................  
....................    if(x1 > x2) 
12AE:  MOVF   x2C,W
12B0:  SUBWF  x2E,W
12B2:  BC    12B8
....................       addx = -1; 
12B4:  MOVLW  FF
12B6:  MOVWF  x35
....................    if(y1 > y2) 
12B8:  MOVF   x2D,W
12BA:  SUBWF  x2F,W
12BC:  BC    12C2
....................       addy = -1; 
12BE:  MOVLW  FF
12C0:  MOVWF  x36
....................  
....................    if(dx >= dy) 
12C2:  MOVF   x32,W
12C4:  SUBWF  x34,W
12C6:  BNC   133E
12C8:  BNZ   12D0
12CA:  MOVF   x31,W
12CC:  SUBWF  x33,W
12CE:  BNC   133E
....................    { 
....................       dy *= 2; 
12D0:  BCF    FD8.0
12D2:  RLCF   x31,F
12D4:  RLCF   x32,F
....................       P = dy - dx; 
12D6:  MOVF   x33,W
12D8:  SUBWF  x31,W
12DA:  MOVWF  00
12DC:  MOVF   x34,W
12DE:  SUBWFB x32,W
12E0:  MOVFF  00,637
12E4:  MOVWF  x38
....................       diff = P - dx; 
12E6:  MOVF   x33,W
12E8:  SUBWF  x37,W
12EA:  MOVWF  x39
12EC:  MOVF   x34,W
12EE:  SUBWFB x38,W
12F0:  MOVWF  x3A
....................  
....................       for(; i<=dx; ++i) 
12F2:  MOVF   x34,F
12F4:  BNZ   12FC
12F6:  MOVF   x3B,W
12F8:  SUBWF  x33,W
12FA:  BNC   133C
....................       { 
....................          glcd_pixel(x1, y1, color); 
12FC:  MOVFF  62C,63C
1300:  MOVFF  62D,63D
1304:  MOVFF  630,63E
1308:  MOVLB  0
130A:  RCALL  0FFC
....................  
....................          if(P < 0) 
130C:  MOVLB  6
130E:  BTFSC  x38.7
1310:  BRA    1314
1312:  BRA    1324
....................          { 
....................             P  += dy; 
1314:  MOVF   x31,W
1316:  ADDWF  x37,F
1318:  MOVF   x32,W
131A:  ADDWFC x38,F
....................             x1 += addx; 
131C:  MOVF   x35,W
131E:  ADDWF  x2C,W
1320:  MOVWF  x2C
....................          } 
....................          else 
1322:  BRA    1338
....................          { 
....................             P  += diff; 
1324:  MOVF   x39,W
1326:  ADDWF  x37,F
1328:  MOVF   x3A,W
132A:  ADDWFC x38,F
....................             x1 += addx; 
132C:  MOVF   x35,W
132E:  ADDWF  x2C,W
1330:  MOVWF  x2C
....................             y1 += addy; 
1332:  MOVF   x36,W
1334:  ADDWF  x2D,W
1336:  MOVWF  x2D
....................          } 
....................       } 
1338:  INCF   x3B,F
133A:  BRA    12F2
....................    } 
....................    else 
133C:  BRA    13AA
....................    { 
....................       dx *= 2; 
133E:  BCF    FD8.0
1340:  RLCF   x33,F
1342:  RLCF   x34,F
....................       P = dx - dy; 
1344:  MOVF   x31,W
1346:  SUBWF  x33,W
1348:  MOVWF  00
134A:  MOVF   x32,W
134C:  SUBWFB x34,W
134E:  MOVFF  00,637
1352:  MOVWF  x38
....................       diff = P - dy; 
1354:  MOVF   x31,W
1356:  SUBWF  x37,W
1358:  MOVWF  x39
135A:  MOVF   x32,W
135C:  SUBWFB x38,W
135E:  MOVWF  x3A
....................  
....................       for(; i<=dy; ++i) 
1360:  MOVF   x32,F
1362:  BNZ   136A
1364:  MOVF   x3B,W
1366:  SUBWF  x31,W
1368:  BNC   13AA
....................       { 
....................          glcd_pixel(x1, y1, color); 
136A:  MOVFF  62C,63C
136E:  MOVFF  62D,63D
1372:  MOVFF  630,63E
1376:  MOVLB  0
1378:  RCALL  0FFC
....................  
....................          if(P < 0) 
137A:  MOVLB  6
137C:  BTFSC  x38.7
137E:  BRA    1382
1380:  BRA    1392
....................          { 
....................             P  += dx; 
1382:  MOVF   x33,W
1384:  ADDWF  x37,F
1386:  MOVF   x34,W
1388:  ADDWFC x38,F
....................             y1 += addy; 
138A:  MOVF   x36,W
138C:  ADDWF  x2D,W
138E:  MOVWF  x2D
....................          } 
....................          else 
1390:  BRA    13A6
....................          { 
....................             P  += diff; 
1392:  MOVF   x39,W
1394:  ADDWF  x37,F
1396:  MOVF   x3A,W
1398:  ADDWFC x38,F
....................             x1 += addx; 
139A:  MOVF   x35,W
139C:  ADDWF  x2C,W
139E:  MOVWF  x2C
....................             y1 += addy; 
13A0:  MOVF   x36,W
13A2:  ADDWF  x2D,W
13A4:  MOVWF  x2D
....................          } 
....................       } 
13A6:  INCF   x3B,F
13A8:  BRA    1360
....................    } 
.................... } 
13AA:  MOVLB  0
13AC:  RETLW  00
....................  
....................  
.................... ///////////////////////////////////////////////////////////////////////// 
.................... // Purpose:       Draw a rectangle on a graphic LCD 
.................... // Inputs:        (x1, y1) - the start coordinate 
.................... //                (x2, y2) - the end coordinate 
.................... //                fill  - YES or NO 
.................... //                color - ON or OFF 
.................... // Dependencies:  glcd_pixel(), glcd_line() 
.................... ///////////////////////////////////////////////////////////////////////// 
.................... #ifdef LARGE_LCD 
.................... void glcd_rect(int16 x1, int16 y1, int16 x2, int16 y2, int1 fill, int1 color) 
.................... #else 
.................... void glcd_rect(int8 x1, int8 y1, int8 x2, int8 y2, int1 fill, int1 color) 
.................... #endif 
.................... { 
....................    if(fill) 
13AE:  MOVLB  6
13B0:  MOVF   x25,F
13B2:  BZ    1410
....................    { 
....................       #ifdef LARGE_LCD 
....................       int16 i, xmin, xmax, ymin, ymax; 
....................       #else 
....................       int8  i, xmin, xmax, ymin, ymax; 
....................       #endif 
....................  
....................       if(x1 < x2)                            //  Find x min and max 
13B4:  MOVF   x23,W
13B6:  SUBWF  x21,W
13B8:  BC    13C4
....................       { 
....................          xmin = x1; 
13BA:  MOVFF  621,628
....................          xmax = x2; 
13BE:  MOVFF  623,629
....................       } 
....................       else 
13C2:  BRA    13CC
....................       { 
....................          xmin = x2; 
13C4:  MOVFF  623,628
....................          xmax = x1; 
13C8:  MOVFF  621,629
....................       } 
....................  
....................       if(y1 < y2)                            // Find the y min and max 
13CC:  MOVF   x24,W
13CE:  SUBWF  x22,W
13D0:  BC    13DC
....................       { 
....................          ymin = y1; 
13D2:  MOVFF  622,62A
....................          ymax = y2; 
13D6:  MOVFF  624,62B
....................       } 
....................       else 
13DA:  BRA    13E4
....................       { 
....................          ymin = y2; 
13DC:  MOVFF  624,62A
....................          ymax = y1; 
13E0:  MOVFF  622,62B
....................       } 
....................  
....................       for(; xmin <= xmax; ++xmin) 
13E4:  MOVF   x28,W
13E6:  SUBWF  x29,W
13E8:  BNC   140E
....................       { 
....................          for(i=ymin; i<=ymax; ++i) 
13EA:  MOVFF  62A,627
13EE:  MOVF   x27,W
13F0:  SUBWF  x2B,W
13F2:  BNC   140A
....................          { 
....................             glcd_pixel(xmin, i, color); 
13F4:  MOVFF  628,63C
13F8:  MOVFF  627,63D
13FC:  MOVFF  626,63E
1400:  MOVLB  0
1402:  RCALL  0FFC
....................          } 
1404:  MOVLB  6
1406:  INCF   x27,F
1408:  BRA    13EE
....................       } 
140A:  INCF   x28,F
140C:  BRA    13E4
....................    } 
....................    else 
140E:  BRA    146C
....................    { 
....................       glcd_line(x1, y1, x2, y1, color);      // Draw the 4 sides 
1410:  MOVFF  621,62C
1414:  MOVFF  622,62D
1418:  MOVFF  623,62E
141C:  MOVFF  622,62F
1420:  MOVFF  626,630
1424:  MOVLB  0
1426:  RCALL  1270
....................       glcd_line(x1, y2, x2, y2, color); 
1428:  MOVFF  621,62C
142C:  MOVFF  624,62D
1430:  MOVFF  623,62E
1434:  MOVFF  624,62F
1438:  MOVFF  626,630
143C:  RCALL  1270
....................       glcd_line(x1, y1, x1, y2, color); 
143E:  MOVFF  621,62C
1442:  MOVFF  622,62D
1446:  MOVFF  621,62E
144A:  MOVFF  624,62F
144E:  MOVFF  626,630
1452:  RCALL  1270
....................       glcd_line(x2, y1, x2, y2, color); 
1454:  MOVFF  623,62C
1458:  MOVFF  622,62D
145C:  MOVFF  623,62E
1460:  MOVFF  624,62F
1464:  MOVFF  626,630
1468:  RCALL  1270
146A:  MOVLB  6
....................    } 
.................... } 
146C:  MOVLB  0
146E:  RETLW  00
....................  
.................... ///////////////////////////////////////////////////////////////////////// 
.................... // Purpose:       Draw a bar (wide line) on a graphic LCD 
.................... // Inputs:        (x1, y1) - the start coordinate 
.................... //                (x2, y2) - the end coordinate 
.................... //                width  - The number of pixels wide 
.................... //                color - ON or OFF 
.................... ///////////////////////////////////////////////////////////////////////// 
.................... #ifdef LARGE_LCD 
.................... void glcd_bar(int16 x1, int16 y1, int16 x2, int16 y2, int8 width, int1 color) 
.................... #else 
.................... void glcd_bar(int8 x1, int8 y1, int8 x2, int8 y2, int8 width, int1 color) 
.................... #endif 
.................... { 
....................    int8         half_width; 
....................    signed int16 dy, dx; 
....................    signed int8  addx=1, addy=1, j; 
....................    signed int16 P, diff, c1, c2; 
....................  
....................    #ifdef LARGE_LCD 
....................    int16 i=0; 
....................    dx = abs((signed int16)(x2 - x1)); 
....................    dy = abs((signed int16)(y2 - y1)); 
....................    #else 
....................    int8 i=0; 
....................    dx = abs((signed int8)(x2 - x1)); 
....................    dy = abs((signed int8)(y2 - y1)); 
....................    #endif 
....................  
....................    half_width = width/2; 
....................    c1 = -(dx*x1 + dy*y1); 
....................    c2 = -(dx*x2 + dy*y2); 
....................  
....................    if(x1 > x2) 
....................    { 
....................       signed int16 temp; 
....................       temp = c1; 
....................       c1 = c2; 
....................       c2 = temp; 
....................       addx = -1; 
....................    } 
....................    if(y1 > y2) 
....................    { 
....................       signed int16 temp; 
....................       temp = c1; 
....................       c1 = c2; 
....................       c2 = temp; 
....................       addy = -1; 
....................    } 
....................  
....................    if(dx >= dy) 
....................    { 
....................       P = 2*dy - dx; 
....................       diff = P - dx; 
....................  
....................       for(i=0; i<=dx; ++i) 
....................       { 
....................          for(j=-half_width; j<half_width+width%2; ++j) 
....................          { 
....................             #ifdef LARGE_LCD 
....................             int16 temp; 
....................             #else 
....................             int8 temp; 
....................             #endif 
....................  
....................             temp = dx*x1+dy*(y1+j);    // Use more RAM to increase speed 
....................             if(temp+c1 >= 0 && temp+c2 <=0) 
....................                glcd_pixel(x1, y1+j, color); 
....................          } 
....................          if(P < 0) 
....................          { 
....................             P  += 2*dy; 
....................             x1 += addx; 
....................          } 
....................          else 
....................          { 
....................             P  += diff; 
....................             x1 += addx; 
....................             y1 += addy; 
....................          } 
....................       } 
....................    } 
....................    else 
....................    { 
....................       P = 2*dx - dy; 
....................       diff = P - dy; 
....................  
....................       for(i=0; i<=dy; ++i) 
....................       { 
....................          if(P < 0) 
....................          { 
....................             P  += 2*dx; 
....................             y1 += addy; 
....................          } 
....................          else 
....................          { 
....................             P  += diff; 
....................             x1 += addx; 
....................             y1 += addy; 
....................          } 
....................          for(j=-half_width; j<half_width+width%2; ++j) 
....................          { 
....................             #ifdef LARGE_LCD 
....................             int16 temp; 
....................             #else 
....................             int8 temp; 
....................             #endif 
....................  
....................             temp = dx*x1+dy*(y1+j);    // Use more RAM to increase speed 
....................             if(temp+c1 >= 0 && temp+c2 <=0) 
....................                glcd_pixel(x1+j, y1, color); 
....................          } 
....................       } 
....................    } 
.................... } 
....................  
....................  
.................... ///////////////////////////////////////////////////////////////////////// 
.................... // Purpose:       Draw a circle on a graphic LCD 
.................... // Inputs:        (x,y) - the center of the circle 
.................... //                radius - the radius of the circle 
.................... //                fill - YES or NO 
.................... //                color - ON or OFF 
.................... ///////////////////////////////////////////////////////////////////////// 
.................... #ifdef LARGE_LCD 
.................... void glcd_circle(int16 x, int16 y, int16 radius, int1 fill, int1 color) 
.................... #else 
.................... void glcd_circle(int8 x, int8 y, int8 radius, int1 fill, int1 color) 
.................... #endif 
.................... { 
....................    #ifdef LARGE_LCD 
....................    signed int16 a, b, P; 
....................    #else 
....................    signed int8  a, b, P; 
....................    #endif 
....................  
....................    a = 0; 
*
2088:  MOVLB  6
208A:  CLRF   x13
....................    b = radius; 
208C:  MOVFF  610,614
....................    P = 1 - radius; 
2090:  MOVLW  01
2092:  BSF    FD8.0
2094:  SUBFWB x10,W
2096:  MOVWF  x15
....................  
....................    do 
....................    { 
....................       if(fill) 
2098:  MOVF   x11,F
209A:  BZ    2166
....................       { 
....................          glcd_line(x-a, y+b, x+a, y+b, color); 
209C:  MOVF   x13,W
209E:  SUBWF  x0E,W
20A0:  MOVWF  x16
20A2:  MOVF   x14,W
20A4:  ADDWF  x0F,W
20A6:  MOVWF  x17
20A8:  MOVF   x13,W
20AA:  ADDWF  x0E,W
20AC:  MOVWF  x18
20AE:  MOVF   x14,W
20B0:  ADDWF  x0F,W
20B2:  MOVWF  x19
20B4:  MOVFF  616,62C
20B8:  MOVFF  617,62D
20BC:  MOVFF  618,62E
20C0:  MOVWF  x2F
20C2:  MOVFF  612,630
20C6:  MOVLB  0
20C8:  CALL   1270
....................          glcd_line(x-a, y-b, x+a, y-b, color); 
20CC:  MOVLB  6
20CE:  MOVF   x13,W
20D0:  SUBWF  x0E,W
20D2:  MOVWF  x16
20D4:  MOVF   x14,W
20D6:  SUBWF  x0F,W
20D8:  MOVWF  x17
20DA:  MOVF   x13,W
20DC:  ADDWF  x0E,W
20DE:  MOVWF  x18
20E0:  MOVF   x14,W
20E2:  SUBWF  x0F,W
20E4:  MOVWF  x19
20E6:  MOVFF  616,62C
20EA:  MOVFF  617,62D
20EE:  MOVFF  618,62E
20F2:  MOVWF  x2F
20F4:  MOVFF  612,630
20F8:  MOVLB  0
20FA:  CALL   1270
....................          glcd_line(x-b, y+a, x+b, y+a, color); 
20FE:  MOVLB  6
2100:  MOVF   x14,W
2102:  SUBWF  x0E,W
2104:  MOVWF  x16
2106:  MOVF   x13,W
2108:  ADDWF  x0F,W
210A:  MOVWF  x17
210C:  MOVF   x14,W
210E:  ADDWF  x0E,W
2110:  MOVWF  x18
2112:  MOVF   x13,W
2114:  ADDWF  x0F,W
2116:  MOVWF  x19
2118:  MOVFF  616,62C
211C:  MOVFF  617,62D
2120:  MOVFF  618,62E
2124:  MOVWF  x2F
2126:  MOVFF  612,630
212A:  MOVLB  0
212C:  CALL   1270
....................          glcd_line(x-b, y-a, x+b, y-a, color); 
2130:  MOVLB  6
2132:  MOVF   x14,W
2134:  SUBWF  x0E,W
2136:  MOVWF  x16
2138:  MOVF   x13,W
213A:  SUBWF  x0F,W
213C:  MOVWF  x17
213E:  MOVF   x14,W
2140:  ADDWF  x0E,W
2142:  MOVWF  x18
2144:  MOVF   x13,W
2146:  SUBWF  x0F,W
2148:  MOVWF  x19
214A:  MOVFF  616,62C
214E:  MOVFF  617,62D
2152:  MOVFF  618,62E
2156:  MOVWF  x2F
2158:  MOVFF  612,630
215C:  MOVLB  0
215E:  CALL   1270
....................       } 
....................       else 
2162:  BRA    2254
2164:  MOVLB  6
....................       { 
....................          glcd_pixel(a+x, b+y, color); 
2166:  MOVF   x0E,W
2168:  ADDWF  x13,W
216A:  MOVWF  x16
216C:  MOVF   x0F,W
216E:  ADDWF  x14,W
2170:  MOVWF  x17
2172:  MOVFF  616,63C
2176:  MOVWF  x3D
2178:  MOVFF  612,63E
217C:  MOVLB  0
217E:  CALL   0FFC
....................          glcd_pixel(b+x, a+y, color); 
2182:  MOVLB  6
2184:  MOVF   x0E,W
2186:  ADDWF  x14,W
2188:  MOVWF  x16
218A:  MOVF   x0F,W
218C:  ADDWF  x13,W
218E:  MOVWF  x17
2190:  MOVFF  616,63C
2194:  MOVWF  x3D
2196:  MOVFF  612,63E
219A:  MOVLB  0
219C:  CALL   0FFC
....................          glcd_pixel(x-a, b+y, color); 
21A0:  MOVLB  6
21A2:  MOVF   x13,W
21A4:  SUBWF  x0E,W
21A6:  MOVWF  x16
21A8:  MOVF   x0F,W
21AA:  ADDWF  x14,W
21AC:  MOVWF  x17
21AE:  MOVFF  616,63C
21B2:  MOVWF  x3D
21B4:  MOVFF  612,63E
21B8:  MOVLB  0
21BA:  CALL   0FFC
....................          glcd_pixel(x-b, a+y, color); 
21BE:  MOVLB  6
21C0:  MOVF   x14,W
21C2:  SUBWF  x0E,W
21C4:  MOVWF  x16
21C6:  MOVF   x0F,W
21C8:  ADDWF  x13,W
21CA:  MOVWF  x17
21CC:  MOVFF  616,63C
21D0:  MOVWF  x3D
21D2:  MOVFF  612,63E
21D6:  MOVLB  0
21D8:  CALL   0FFC
....................          glcd_pixel(b+x, y-a, color); 
21DC:  MOVLB  6
21DE:  MOVF   x0E,W
21E0:  ADDWF  x14,W
21E2:  MOVWF  x16
21E4:  MOVF   x13,W
21E6:  SUBWF  x0F,W
21E8:  MOVWF  x17
21EA:  MOVFF  616,63C
21EE:  MOVWF  x3D
21F0:  MOVFF  612,63E
21F4:  MOVLB  0
21F6:  CALL   0FFC
....................          glcd_pixel(a+x, y-b, color); 
21FA:  MOVLB  6
21FC:  MOVF   x0E,W
21FE:  ADDWF  x13,W
2200:  MOVWF  x16
2202:  MOVF   x14,W
2204:  SUBWF  x0F,W
2206:  MOVWF  x17
2208:  MOVFF  616,63C
220C:  MOVWF  x3D
220E:  MOVFF  612,63E
2212:  MOVLB  0
2214:  CALL   0FFC
....................          glcd_pixel(x-a, y-b, color); 
2218:  MOVLB  6
221A:  MOVF   x13,W
221C:  SUBWF  x0E,W
221E:  MOVWF  x16
2220:  MOVF   x14,W
2222:  SUBWF  x0F,W
2224:  MOVWF  x17
2226:  MOVFF  616,63C
222A:  MOVWF  x3D
222C:  MOVFF  612,63E
2230:  MOVLB  0
2232:  CALL   0FFC
....................          glcd_pixel(x-b, y-a, color); 
2236:  MOVLB  6
2238:  MOVF   x14,W
223A:  SUBWF  x0E,W
223C:  MOVWF  x16
223E:  MOVF   x13,W
2240:  SUBWF  x0F,W
2242:  MOVWF  x17
2244:  MOVFF  616,63C
2248:  MOVWF  x3D
224A:  MOVFF  612,63E
224E:  MOVLB  0
2250:  CALL   0FFC
....................       } 
....................  
....................       if(P < 0) 
2254:  MOVLB  6
2256:  BTFSC  x15.7
2258:  BRA    225C
225A:  BRA    2278
....................          P += 3 + 2 * a++; 
225C:  MOVF   x13,W
225E:  INCF   x13,F
2260:  MOVWF  x16
2262:  MOVLW  02
2264:  MOVWF  x17
2266:  MOVFF  616,618
226A:  MOVLB  0
226C:  RCALL  203A
226E:  MOVF   01,W
2270:  ADDLW  03
2272:  MOVLB  6
2274:  ADDWF  x15,F
....................       else 
2276:  BRA    229A
....................          P += 5 + 2 * (a++ - b--); 
2278:  MOVF   x13,W
227A:  INCF   x13,F
227C:  MOVWF  x16
227E:  MOVF   x14,W
2280:  DECF   x14,F
2282:  SUBWF  x16,W
2284:  MOVWF  x16
2286:  MOVLW  02
2288:  MOVWF  x17
228A:  MOVFF  616,618
228E:  MOVLB  0
2290:  RCALL  203A
2292:  MOVF   01,W
2294:  ADDLW  05
2296:  MOVLB  6
2298:  ADDWF  x15,F
....................     } while(a <= b); 
229A:  MOVF   x13,W
229C:  XORLW  80
229E:  MOVWF  00
22A0:  MOVF   x14,W
22A2:  XORLW  80
22A4:  SUBWF  00,W
22A6:  BTFSC  FD8.2
22A8:  BRA    2098
22AA:  BTFSS  FD8.0
22AC:  BRA    2098
.................... } 
22AE:  MOVLB  0
22B0:  RETLW  00
....................  
....................  
.................... ///////////////////////////////////////////////////////////////////////// 
.................... // Purpose:       Write text on a graphic LCD 
.................... // Inputs:        (x,y) - The upper left coordinate of the first letter 
.................... //                textptr - A pointer to an array of text to display 
.................... //                size - The size of the text: 1 = 5x7, 2 = 10x14, ... 
.................... //                color - ON or OFF 
.................... ///////////////////////////////////////////////////////////////////////// 
.................... #ifdef LARGE_LCD 
.................... void glcd_text57(int16 x, int16 y, char* textptr, int8 size, int1 color) 
.................... #else 
.................... void glcd_text57(int8 x, int8 y, char* textptr, int8 size, int1 color) 
.................... #endif 
.................... { 
....................    int8 j, k, l, m;                       // Loop counters 
....................    int8 pixelData[5];                     // Stores character data 
....................  
....................    for(; *textptr != '\0'; ++textptr, ++x)// Loop through the passed string 
*
10B8:  MOVFF  624,03
10BC:  MOVLB  6
10BE:  MOVFF  623,FE9
10C2:  MOVFF  624,FEA
10C6:  MOVF   FEF,F
10C8:  BTFSC  FD8.2
10CA:  BRA    126C
....................    { 
....................       if(*textptr < 'S') // Checks if the letter is in the first font array 
10CC:  MOVFF  624,03
10D0:  MOVFF  623,FE9
10D4:  MOVFF  624,FEA
10D8:  MOVF   FEF,W
10DA:  SUBLW  52
10DC:  BNC   112C
....................          memcpy(pixelData, FONT[*textptr - ' '], 5); 
10DE:  MOVFF  624,03
10E2:  MOVFF  623,FE9
10E6:  MOVFF  624,FEA
10EA:  MOVLW  20
10EC:  SUBWF  FEF,W
10EE:  MULLW  05
10F0:  MOVF   FF3,W
10F2:  CLRF   03
10F4:  MOVWF  x30
10F6:  MOVLW  06
10F8:  MOVWF  FEA
10FA:  MOVLW  2B
10FC:  MOVWF  FE9
10FE:  CLRF   x34
1100:  MOVFF  630,633
1104:  MOVFF  FF2,631
1108:  BCF    FF2.7
110A:  MOVLW  05
110C:  MOVWF  01
110E:  CLRF   FF7
1110:  MOVF   x30,W
1112:  MOVLB  0
1114:  CALL   0096
1118:  TBLRD*-
111A:  TBLRD*+
111C:  MOVFF  FF5,FEE
1120:  DECFSZ 01,F
1122:  BRA    111A
1124:  MOVLB  6
1126:  BTFSC  x31.7
1128:  BSF    FF2.7
....................       else if(*textptr <= '~') // Check if the letter is in the second font array 
112A:  BRA    1196
112C:  MOVFF  624,03
1130:  MOVFF  623,FE9
1134:  MOVFF  624,FEA
1138:  MOVF   FEF,W
113A:  SUBLW  7E
113C:  BNC   118C
....................          memcpy(pixelData, FONT2[*textptr - 'S'], 5); 
113E:  MOVFF  624,03
1142:  MOVFF  623,FE9
1146:  MOVFF  624,FEA
114A:  MOVLW  53
114C:  SUBWF  FEF,W
114E:  MULLW  05
1150:  MOVF   FF3,W
1152:  CLRF   03
1154:  MOVWF  x30
1156:  MOVLW  06
1158:  MOVWF  FEA
115A:  MOVLW  2B
115C:  MOVWF  FE9
115E:  CLRF   x34
1160:  MOVFF  630,633
1164:  MOVFF  FF2,631
1168:  BCF    FF2.7
116A:  MOVLW  05
116C:  MOVWF  01
116E:  CLRF   FF7
1170:  MOVF   x30,W
1172:  MOVLB  0
1174:  CALL   01B0
1178:  TBLRD*-
117A:  TBLRD*+
117C:  MOVFF  FF5,FEE
1180:  DECFSZ 01,F
1182:  BRA    117A
1184:  MOVLB  6
1186:  BTFSC  x31.7
1188:  BSF    FF2.7
....................       else 
118A:  BRA    1196
....................          memcpy(pixelData, FONT[0], 5);   // Default to space 
118C:  CLRF   x2B
118E:  CLRF   x2C
1190:  CLRF   x2D
1192:  CLRF   x2E
1194:  CLRF   x2F
....................  
....................       // Handles newline and carriage returns 
....................       switch(*textptr) 
....................       { 
1196:  MOVFF  624,03
119A:  MOVF   x23,W
119C:  MOVWF  FE9
119E:  MOVFF  03,FEA
11A2:  MOVF   FEF,W
11A4:  XORLW  0A
11A6:  MOVLB  0
11A8:  BZ    11B0
11AA:  XORLW  07
11AC:  BZ    11C0
11AE:  BRA    11C6
....................          case '\n': 
....................             y += 7*size + 1; 
11B0:  MOVLB  6
11B2:  MOVF   x25,W
11B4:  MULLW  07
11B6:  MOVF   FF3,W
11B8:  ADDLW  01
11BA:  ADDWF  x22,F
....................             continue; 
11BC:  BRA    125E
11BE:  MOVLB  0
....................          case '\r': 
....................             x = 0; 
11C0:  MOVLB  6
11C2:  CLRF   x21
....................             continue; 
11C4:  BRA    125E
....................       } 
....................  
....................       if(x+5*size >= GLCD_WIDTH)          // Performs character wrapping 
11C6:  MOVLB  6
11C8:  MOVF   x25,W
11CA:  MULLW  05
11CC:  MOVF   FF3,W
11CE:  ADDWF  x21,W
11D0:  SUBLW  7F
11D2:  BC    11E0
....................       { 
....................          x = 0;                           // Set x at far left position 
11D4:  CLRF   x21
....................          y += 7*size + 1;                 // Set y at next position down 
11D6:  MOVF   x25,W
11D8:  MULLW  07
11DA:  MOVF   FF3,W
11DC:  ADDLW  01
11DE:  ADDWF  x22,F
....................       } 
....................       for(j=0; j<5; ++j, x+=size)         // Loop through character byte data 
11E0:  CLRF   x27
11E2:  MOVF   x27,W
11E4:  SUBLW  04
11E6:  BNC   125E
....................       { 
....................          for(k=0; k < 7; ++k)             // Loop through the vertical pixels 
11E8:  CLRF   x28
11EA:  MOVF   x28,W
11EC:  SUBLW  06
11EE:  BNC   1256
....................          { 
....................             if(bit_test(pixelData[j], k)) // Check if the pixel should be set 
11F0:  CLRF   03
11F2:  MOVF   x27,W
11F4:  ADDLW  2B
11F6:  MOVWF  FE9
11F8:  MOVLW  06
11FA:  ADDWFC 03,W
11FC:  MOVWF  FEA
11FE:  MOVFF  FEF,630
1202:  MOVFF  630,00
1206:  MOVF   x28,W
1208:  MOVWF  01
120A:  BZ    1214
120C:  BCF    FD8.0
120E:  RRCF   00,F
1210:  DECFSZ 01,F
1212:  BRA    120C
1214:  BTFSS  00.0
1216:  BRA    1252
....................             { 
....................                for(l=0; l < size; ++l)    // These two loops change the 
1218:  CLRF   x29
121A:  MOVF   x25,W
121C:  SUBWF  x29,W
121E:  BC    1252
....................                {                          // character's size 
....................                   for(m=0; m < size; ++m) 
1220:  CLRF   x2A
1222:  MOVF   x25,W
1224:  SUBWF  x2A,W
1226:  BC    124E
....................                   { 
....................                      glcd_pixel(x+m, y+k*size+l, color); // Draws the pixel 
1228:  MOVF   x2A,W
122A:  ADDWF  x21,W
122C:  MOVWF  x30
122E:  MOVF   x28,W
1230:  MULWF  x25
1232:  MOVF   FF3,W
1234:  ADDWF  x22,W
1236:  ADDWF  x29,W
1238:  MOVWF  x31
123A:  MOVFF  630,63C
123E:  MOVWF  x3D
1240:  MOVFF  626,63E
1244:  MOVLB  0
1246:  RCALL  0FFC
....................                   } 
1248:  MOVLB  6
124A:  INCF   x2A,F
124C:  BRA    1222
....................                } 
124E:  INCF   x29,F
1250:  BRA    121A
....................             } 
....................          } 
1252:  INCF   x28,F
1254:  BRA    11EA
....................       } 
1256:  INCF   x27,F
1258:  MOVF   x25,W
125A:  ADDWF  x21,F
125C:  BRA    11E2
....................    } 
125E:  INCF   x23,F
1260:  BTFSC  FD8.2
1262:  INCF   x24,F
1264:  INCF   x21,F
1266:  MOVLB  0
1268:  BRA    10B8
126A:  MOVLB  6
.................... } 
126C:  MOVLB  0
126E:  RETLW  00
....................  
.................... #endif 
....................  
.................... #include "imagen.h" 
.................... const int8 Horno [64][16] = { 
.................... 0x00, 0x00, 0x00, 0x00, 0x00, 0x00, 0x00, 0x00, 0x00, 0x00, 0x00, 0x1F, 0xFF, 0xFF, 0xFF, 0xFE, 
.................... 0x00, 0x00, 0x00, 0x00, 0x00, 0x00, 0x00, 0x00, 0x00, 0x00, 0x00, 0x1F, 0xFF, 0xFF, 0xFF, 0xFE, 
.................... 0x01, 0xC0, 0x00, 0x00, 0x00, 0x00, 0x00, 0x00, 0x00, 0x00, 0x00, 0x1C, 0x00, 0x00, 0x00, 0x0E, 
.................... 0x07, 0xF0, 0x00, 0x00, 0x00, 0x00, 0x00, 0x00, 0x00, 0x00, 0x00, 0x1C, 0x00, 0x00, 0x00, 0x0E, 
.................... 0x1C, 0x9C, 0x00, 0x00, 0x00, 0x00, 0x00, 0x00, 0x00, 0x00, 0x00, 0x1C, 0x7F, 0x00, 0x00, 0x0E, 
.................... 0x18, 0x0C, 0x00, 0x00, 0x00, 0x00, 0x00, 0x00, 0x00, 0x00, 0x00, 0x1C, 0x41, 0x00, 0x00, 0x0E, 
.................... 0x30, 0x86, 0x00, 0x00, 0x00, 0x00, 0x00, 0x00, 0x00, 0x00, 0x00, 0x1C, 0x41, 0x00, 0x00, 0x0E, 
.................... 0x20, 0x82, 0x00, 0x00, 0x00, 0x00, 0x00, 0x00, 0x00, 0x00, 0x00, 0x1C, 0x41, 0x02, 0x00, 0x0E, 
.................... 0x60, 0x83, 0x00, 0x00, 0x00, 0x00, 0x00, 0x00, 0x00, 0x00, 0x00, 0x1C, 0x7F, 0x05, 0x00, 0x0E, 
.................... 0x70, 0x87, 0x00, 0x00, 0x00, 0x00, 0x00, 0x00, 0x00, 0x00, 0x00, 0x1C, 0x00, 0x02, 0x00, 0x0E, 
.................... 0x60, 0xC3, 0x00, 0x00, 0x00, 0x00, 0x00, 0x00, 0x00, 0x00, 0x00, 0x1C, 0x00, 0x00, 0x00, 0x0E, 
.................... 0x20, 0x62, 0x00, 0x00, 0x00, 0x00, 0x00, 0x00, 0x00, 0x00, 0x00, 0x1C, 0x00, 0x00, 0x00, 0x0E, 
.................... 0x30, 0x26, 0x00, 0x00, 0x00, 0x00, 0x00, 0x00, 0x00, 0x00, 0x00, 0x1F, 0xFF, 0xFF, 0xFF, 0xFE, 
.................... 0x18, 0x0C, 0x00, 0x00, 0x00, 0x00, 0x00, 0x00, 0x00, 0x00, 0x00, 0x1C, 0x00, 0x00, 0x00, 0x0E, 
.................... 0x1C, 0x9C, 0x00, 0x00, 0x00, 0x00, 0x00, 0x00, 0x00, 0x00, 0x00, 0x1C, 0x00, 0x00, 0x00, 0x0E, 
.................... 0x07, 0xF0, 0x00, 0x00, 0x00, 0x00, 0x00, 0x00, 0x00, 0x00, 0x00, 0x1C, 0x00, 0x00, 0x00, 0x0E, 
.................... 0x01, 0xC0, 0x00, 0x00, 0x00, 0x00, 0x00, 0x00, 0x00, 0x00, 0x00, 0x1C, 0x00, 0x00, 0x00, 0x0E, 
.................... 0x00, 0x00, 0x00, 0x00, 0x00, 0x00, 0x00, 0x00, 0x00, 0x00, 0x00, 0x1C, 0x00, 0x00, 0x00, 0x0E, 
.................... 0x00, 0x00, 0x00, 0x00, 0x00, 0x00, 0x00, 0x00, 0x00, 0x00, 0x00, 0x1C, 0x00, 0x00, 0x00, 0x0E, 
.................... 0x00, 0x00, 0x00, 0x00, 0x00, 0x00, 0x00, 0x00, 0x00, 0x00, 0x00, 0x1C, 0x00, 0x00, 0x00, 0x0E, 
.................... 0x00, 0x00, 0x00, 0x00, 0x00, 0x00, 0x00, 0x00, 0x00, 0x00, 0x00, 0x1C, 0x00, 0x00, 0x00, 0x0E, 
.................... 0x00, 0x00, 0x00, 0x00, 0x00, 0x00, 0x00, 0x00, 0x00, 0x00, 0x00, 0x1C, 0x00, 0x1E, 0x00, 0x0E, 
.................... 0x00, 0x00, 0x00, 0x00, 0x00, 0x00, 0x00, 0x00, 0x00, 0x00, 0x00, 0x1C, 0x00, 0xE1, 0xC0, 0x0E, 
.................... 0x00, 0x00, 0x00, 0x00, 0x00, 0x00, 0x00, 0x00, 0x00, 0x00, 0x00, 0x1C, 0x01, 0x80, 0x60, 0x0E, 
.................... 0x00, 0x00, 0x00, 0x00, 0x00, 0x00, 0x00, 0x00, 0x00, 0x00, 0x00, 0x1C, 0x02, 0x78, 0x10, 0x0E, 
.................... 0x00, 0x00, 0x00, 0x00, 0x00, 0x00, 0x00, 0x00, 0x00, 0x00, 0x00, 0x1C, 0x06, 0x7C, 0x18, 0x0E, 
.................... 0x00, 0x00, 0x00, 0x00, 0x00, 0x00, 0x00, 0x00, 0x00, 0x00, 0x00, 0x1C, 0x04, 0x7C, 0x08, 0x0E, 
.................... 0x00, 0x00, 0x00, 0x00, 0x00, 0x00, 0x00, 0x00, 0x00, 0x00, 0x00, 0x1C, 0x08, 0x3C, 0x04, 0x0E, 
.................... 0x00, 0x00, 0x00, 0x00, 0x00, 0x00, 0x00, 0x00, 0x00, 0x00, 0x00, 0x1C, 0x08, 0x10, 0x04, 0x0E, 
.................... 0x01, 0x80, 0x00, 0x00, 0x00, 0x00, 0x00, 0x00, 0x00, 0x00, 0x00, 0x1C, 0x08, 0x0C, 0xE4, 0x0E, 
.................... 0x02, 0x40, 0x00, 0x00, 0x00, 0x00, 0x00, 0x00, 0x00, 0x00, 0x00, 0x1C, 0x08, 0x2D, 0xF4, 0x0E, 
.................... 0x02, 0x70, 0x00, 0x00, 0x00, 0x00, 0x00, 0x00, 0x00, 0x00, 0x00, 0x1C, 0x08, 0x63, 0xF4, 0x0E, 
.................... 0x02, 0x40, 0x00, 0x00, 0x00, 0x00, 0x00, 0x00, 0x00, 0x00, 0x00, 0x1C, 0x08, 0xF1, 0xE4, 0x0E, 
.................... 0x03, 0xC0, 0x00, 0x00, 0x00, 0x00, 0x00, 0x00, 0x00, 0x00, 0x00, 0x1C, 0x04, 0xF0, 0x08, 0x0E, 
.................... 0x03, 0xF0, 0x00, 0x00, 0x00, 0x00, 0x00, 0x00, 0x00, 0x00, 0x00, 0x1C, 0x04, 0xF0, 0x08, 0x0E, 
.................... 0x03, 0xC0, 0x00, 0x00, 0x00, 0x00, 0x00, 0x00, 0x00, 0x00, 0x00, 0x1C, 0x02, 0x70, 0x10, 0x0E, 
.................... 0x03, 0xC0, 0x00, 0x00, 0x00, 0x00, 0x00, 0x00, 0x00, 0x00, 0x00, 0x1C, 0x03, 0x00, 0x30, 0x0E, 
.................... 0x07, 0xE0, 0x00, 0x00, 0x00, 0x00, 0x00, 0x00, 0x00, 0x00, 0x00, 0x1C, 0x00, 0xC0, 0xC0, 0x0E, 
.................... 0x0F, 0xF0, 0x00, 0x00, 0x00, 0x00, 0x00, 0x00, 0x00, 0x00, 0x00, 0x1C, 0x00, 0x7F, 0x80, 0x0E, 
.................... 0x0B, 0xF0, 0x00, 0x00, 0x00, 0x00, 0x00, 0x00, 0x00, 0x00, 0x00, 0x1C, 0x00, 0x00, 0x00, 0x0E, 
.................... 0x0B, 0xF0, 0x00, 0x00, 0x00, 0x00, 0x00, 0x00, 0x00, 0x00, 0x00, 0x1C, 0x00, 0x00, 0x00, 0x0E, 
.................... 0x0F, 0xF0, 0x00, 0x00, 0x00, 0x00, 0x00, 0x00, 0x00, 0x00, 0x00, 0x1C, 0x00, 0x00, 0x00, 0x0E, 
.................... 0x0F, 0xF0, 0x00, 0x00, 0x00, 0x00, 0x00, 0x00, 0x00, 0x00, 0x00, 0x1C, 0x00, 0x00, 0x00, 0x0E, 
.................... 0x07, 0xE0, 0x00, 0x00, 0x00, 0x00, 0x00, 0x00, 0x00, 0x00, 0x00, 0x1C, 0x00, 0x00, 0x00, 0x0E, 
.................... 0x03, 0xC0, 0x00, 0x00, 0x00, 0x00, 0x00, 0x00, 0x00, 0x00, 0x00, 0x1C, 0x00, 0x00, 0x00, 0x0E, 
.................... 0x00, 0x00, 0x00, 0x00, 0x00, 0x00, 0x00, 0x00, 0x00, 0x00, 0x00, 0x1C, 0x00, 0x00, 0x00, 0x0E, 
.................... 0x00, 0x00, 0x00, 0x00, 0x00, 0x00, 0x00, 0x00, 0x00, 0x00, 0x00, 0x1C, 0x00, 0x00, 0x00, 0x0E, 
.................... 0x00, 0x00, 0x00, 0x00, 0x00, 0x00, 0x00, 0x00, 0x00, 0x00, 0x00, 0x1C, 0x00, 0x00, 0x00, 0x0E, 
.................... 0x00, 0x00, 0x00, 0x00, 0x00, 0x00, 0x00, 0x00, 0x00, 0x00, 0x00, 0x1C, 0x00, 0x00, 0x00, 0x0E, 
.................... 0x00, 0x00, 0x00, 0x00, 0x00, 0x00, 0x00, 0x00, 0x00, 0x00, 0x00, 0x1C, 0x00, 0x00, 0x00, 0x0E, 
.................... 0x00, 0x00, 0x00, 0x00, 0x00, 0x00, 0x00, 0x00, 0x00, 0x00, 0x00, 0x1C, 0x00, 0x00, 0x00, 0x0E, 
.................... 0x00, 0x00, 0x00, 0x00, 0x00, 0x00, 0x00, 0x00, 0x00, 0x00, 0x00, 0x1C, 0x00, 0x00, 0x00, 0x0E, 
.................... 0x00, 0x00, 0x00, 0x00, 0x00, 0x00, 0x00, 0x00, 0x00, 0x00, 0x00, 0x1F, 0xFF, 0xFF, 0xFF, 0xFE, 
.................... 0x00, 0x00, 0x00, 0x00, 0x00, 0x00, 0x00, 0x00, 0x00, 0x00, 0x00, 0x1F, 0xFF, 0xFF, 0xFF, 0xFE, 
.................... 0x00, 0x00, 0x00, 0x00, 0x00, 0x00, 0x00, 0x00, 0x00, 0x00, 0x00, 0x1F, 0xFF, 0xFF, 0xFF, 0xFE, 
.................... 0x00, 0x00, 0x00, 0x00, 0x00, 0x00, 0x00, 0x00, 0x00, 0x00, 0x00, 0x00, 0x00, 0x00, 0x00, 0x00, 
.................... 0x00, 0x00, 0x00, 0x00, 0x00, 0x00, 0x00, 0x00, 0x00, 0x00, 0x00, 0x00, 0x00, 0x00, 0x00, 0x00, 
.................... 0x00, 0x00, 0x00, 0x00, 0x00, 0x00, 0x00, 0x00, 0x00, 0x00, 0x00, 0x00, 0x00, 0x00, 0x00, 0x00, 
.................... 0x00, 0x00, 0x00, 0x00, 0x00, 0x00, 0x00, 0x00, 0x00, 0x00, 0x00, 0x00, 0x00, 0x00, 0x00, 0x00, 
.................... 0x00, 0x00, 0x00, 0x00, 0x00, 0x00, 0x00, 0x00, 0x00, 0x00, 0x00, 0x00, 0x00, 0x00, 0x00, 0x00, 
.................... 0x00, 0x00, 0x00, 0x00, 0x00, 0x00, 0x00, 0x00, 0x00, 0x00, 0x00, 0x00, 0x00, 0x00, 0x00, 0x00, 
.................... 0x00, 0x00, 0x00, 0x00, 0x00, 0x00, 0x00, 0x00, 0x00, 0x00, 0x00, 0x00, 0x00, 0x00, 0x00, 0x00, 
.................... 0x00, 0x00, 0x00, 0x00, 0x00, 0x00, 0x00, 0x00, 0x00, 0x00, 0x00, 0x00, 0x00, 0x00, 0x00, 0x00, 
.................... 0x00, 0x00, 0x00, 0x00, 0x00, 0x00, 0x00, 0x00, 0x00, 0x00, 0x00, 0x00, 0x00, 0x00, 0x00, 0x00 
.................... }; 
....................  
....................  
....................  
.................... // Definicin de teclado - NO 
.................... #define   UP            input(PIN_A5) 
.................... #define   DOWN          input(PIN_E0) 
.................... #define   RIGHT         input(PIN_E1) 
.................... #define   LEFT          input(PIN_E2) 
....................  
.................... #define   DOOR          input(PIN_A3) 
.................... #define   TERM          input(PIN_A4) 
....................  
.................... // Definicin de Salidas 
.................... #define   Resistencia_on     output_bit(PIN_C0,1) 
.................... #define   Resistencia_off    output_bit(PIN_C0,0) 
.................... #define   Peltier_on         output_bit(PIN_C2,1) 
.................... #define   Peltier_off        output_bit(PIN_C2,0) 
.................... #define   Buzzer_on          output_bit(PIN_C1,1) 
.................... #define   Buzzer_off         output_bit(PIN_C1,0) 
....................  
....................  
.................... float promedio[80]={0.0,0.0,0.0,0.0,0.0,0.0,0.0,0.0,0.0,0.0,0.0,0.0,0.0,0.0,0.0,0.0,0.0,0.0,0.0,0.0,0.0,0.0,0.0,0.0,0.0,0.0,0.0,0.0,0.0,0.0,0.0,0.0,0.0,0.0,0.0,0.0,0.0,0.0,0.0,0.0,0.0,0.0,0.0,0.0,0.0,0.0,0.0,0.0,0.0,0.0,0.0,0.0,0.0,0.0,0.0,0.0,0.0,0.0,0.0,0.0,0.0,0.0,0.0,0.0}; 
.................... float X[2]={0.0,0.0}; 
.................... int8 h=0,l=0,Ajuste=0,Ajusten=0,MediaMovil=10,tiemporecta=0,flag_ganancia=0,saturado=0; 
.................... short Flanco=0,Flanco1=0,Flanco2=0,visual=1,Lectura=0; 
.................... short flag_clear=0,flag_clear2=0,flag_clear3=0,flag_clear4=0,flag_tiempocalentamiento=0,flag_display=0,flag_setpoint=0,flag_control=0; 
.................... int8 y=0,tiemporeset=0,Enfria=0; 
.................... int8 Menu=0, unidad=1,i=0,Pausa=0,Pausa_ant=0,TiempoControl=0; 
.................... int8 Opcion=1,tiempo_esterilizacion=0,tiempo_secado=0; 
.................... int16 tiempos=0,tiempos3=0,tiempoctrl=0,tinicio=0,tiempocalentamiento=0,tiemposetpoint=0,Setpoint=0; 
.................... float Potencia=0.0,Tpulsomin=0.0,Gananciamax=0.0; 
.................... signed int  Testerilizacion[4]={0,0,0,0};   // Tiempo transcurrido 
.................... signed int  Testerilizacionp[4]={0,0,0,0};   // Tiempo transcurrido 
.................... signed int  Contrasena[4]={0,0,0,0};      // Contrasena de 4 digitos 
.................... signed int  Password[4]={0,0,0,0};        // Contrasena Almacenada de 4 digitos 
.................... float V0=0.0,R1=6210.0,Pt,Tciclo=10.0,Tpulso=0.0,error=0.0,Prom=0.0,Temperature=0.0,tmp=0.0,Ganancia=25.0,Ganancia2=20.0,desvio=1.0,Coeficiente=150.0; 
.................... float Aumento=0.0,Temperatura=0.0,Saturacion=10.0,Tpulsomax=0.0; 
.................... float a=0.0011,b=2.3302,c=-244.0723; 
....................  
.................... typedef struct{ 
....................    char Letra[30]; 
.................... }MENUU; 
....................  
.................... MENUU Menus; 
....................  
.................... void ActualizaRecta(){ 
....................    X[y]=Temperatura; 
*
2826:  MOVLB  5
2828:  MOVF   x68,W
282A:  MULLW  04
282C:  MOVF   FF3,W
282E:  CLRF   03
2830:  ADDLW  56
2832:  MOVWF  FE9
2834:  MOVLW  05
2836:  ADDWFC 03,W
2838:  MOVWF  FEA
283A:  MOVFF  5D6,FEF
283E:  MOVFF  5D7,FEC
2842:  MOVFF  5D8,FEC
2846:  MOVFF  5D9,FEC
....................    y++; 
284A:  INCF   x68,F
....................    if(y>=2) 
284C:  MOVF   x68,W
284E:  SUBLW  01
2850:  BC    288E
....................    { 
....................       y=0; 
2852:  CLRF   x68
....................       Aumento=X[1]-X[0]; 
2854:  BSF    FD8.1
2856:  MOVFF  55D,616
285A:  MOVFF  55C,615
285E:  MOVFF  55B,614
2862:  MOVFF  55A,613
2866:  MOVFF  559,61A
286A:  MOVFF  558,619
286E:  MOVFF  557,618
2872:  MOVFF  556,617
2876:  MOVLB  0
2878:  CALL   1904
287C:  MOVFF  03,5D5
2880:  MOVFF  02,5D4
2884:  MOVFF  01,5D3
2888:  MOVFF  00,5D2
288C:  MOVLB  5
....................    } 
.................... } 
288E:  MOVLB  0
2890:  GOTO   28DC (RETURN)
....................  
.................... // Funcion para conversor analogo-digital 
.................... float sensores(int x){ 
.................... float y;set_adc_channel(x);delay_ms(1);y=read_adc();return (y); 
*
174C:  MOVLB  6
174E:  RLCF   x0F,W
1750:  MOVWF  00
1752:  RLCF   00,F
1754:  MOVLW  FC
1756:  ANDWF  00,F
1758:  MOVFF  00,01
175C:  MOVF   FC2,W
175E:  ANDLW  C3
1760:  IORWF  00,W
1762:  MOVWF  FC2
1764:  MOVLW  01
1766:  MOVWF  x14
1768:  MOVLB  0
176A:  CALL   0D28
176E:  BSF    FC2.1
1770:  BTFSC  FC2.1
1772:  BRA    1770
1774:  MOVFF  FC4,615
1778:  MOVFF  FC3,614
177C:  MOVLB  0
177E:  CALL   0D52
1782:  MOVFF  03,613
1786:  MOVFF  02,612
178A:  MOVFF  01,611
178E:  MOVFF  00,610
1792:  MOVFF  610,00
1796:  MOVFF  611,01
179A:  MOVFF  612,02
179E:  MOVFF  613,03
.................... } 
17A2:  GOTO   1CA6 (RETURN)
.................... float Leer_Sensor(int media) 
.................... { 
....................    Prom=0.0; 
*
1C94:  MOVLB  5
1C96:  CLRF   xB9
1C98:  CLRF   xB8
1C9A:  CLRF   xB7
1C9C:  CLRF   xB6
....................    V0 = sensores(0);   //Lectura de Divisor de Voltaje de PT100 con resistencia de 6.18k (+-2%) 
1C9E:  MOVLB  6
1CA0:  CLRF   x0F
1CA2:  MOVLB  0
1CA4:  BRA    174C
1CA6:  MOVFF  03,5A1
1CAA:  MOVFF  02,5A0
1CAE:  MOVFF  01,59F
1CB2:  MOVFF  00,59E
....................    V0 = V0/41.54; // Se elimina la ganancia 
1CB6:  MOVFF  5A1,612
1CBA:  MOVFF  5A0,611
1CBE:  MOVFF  59F,610
1CC2:  MOVFF  59E,60F
1CC6:  MOVLW  F6
1CC8:  MOVLB  6
1CCA:  MOVWF  x16
1CCC:  MOVLW  28
1CCE:  MOVWF  x15
1CD0:  MOVLW  26
1CD2:  MOVWF  x14
1CD4:  MOVLW  84
1CD6:  MOVWF  x13
1CD8:  MOVLB  0
1CDA:  RCALL  17A6
1CDC:  MOVFF  03,5A1
1CE0:  MOVFF  02,5A0
1CE4:  MOVFF  01,59F
1CE8:  MOVFF  00,59E
....................    Pt=(R1)/((1023.0/V0)-1.0); // Se calcula el valor de la PT100 
1CEC:  MOVLB  6
1CEE:  CLRF   x12
1CF0:  MOVLW  C0
1CF2:  MOVWF  x11
1CF4:  MOVLW  7F
1CF6:  MOVWF  x10
1CF8:  MOVLW  88
1CFA:  MOVWF  x0F
1CFC:  MOVFF  5A1,616
1D00:  MOVFF  5A0,615
1D04:  MOVFF  59F,614
1D08:  MOVFF  59E,613
1D0C:  MOVLB  0
1D0E:  RCALL  17A6
1D10:  MOVFF  00,60F
1D14:  MOVFF  01,610
1D18:  MOVFF  02,611
1D1C:  MOVFF  03,612
1D20:  BSF    FD8.1
1D22:  MOVFF  03,616
1D26:  MOVFF  02,615
1D2A:  MOVFF  01,614
1D2E:  MOVFF  00,613
1D32:  MOVLB  6
1D34:  CLRF   x1A
1D36:  CLRF   x19
1D38:  CLRF   x18
1D3A:  MOVLW  7F
1D3C:  MOVWF  x17
1D3E:  MOVLB  0
1D40:  RCALL  1904
1D42:  MOVFF  5A5,612
1D46:  MOVFF  5A4,611
1D4A:  MOVFF  5A3,610
1D4E:  MOVFF  5A2,60F
1D52:  MOVFF  03,616
1D56:  MOVFF  02,615
1D5A:  MOVFF  01,614
1D5E:  MOVFF  00,613
1D62:  RCALL  17A6
1D64:  MOVFF  03,5A9
1D68:  MOVFF  02,5A8
1D6C:  MOVFF  01,5A7
1D70:  MOVFF  00,5A6
....................    //Pt=R1/((1023.0/V0)-1.0); // Se calcula el valor de la PT100 
....................    Pt=Pt-0.3; 
1D74:  BSF    FD8.1
1D76:  MOVFF  5A9,616
1D7A:  MOVFF  5A8,615
1D7E:  MOVFF  5A7,614
1D82:  MOVFF  5A6,613
1D86:  MOVLW  9A
1D88:  MOVLB  6
1D8A:  MOVWF  x1A
1D8C:  MOVLW  99
1D8E:  MOVWF  x19
1D90:  MOVLW  19
1D92:  MOVWF  x18
1D94:  MOVLW  7D
1D96:  MOVWF  x17
1D98:  MOVLB  0
1D9A:  RCALL  1904
1D9C:  MOVFF  03,5A9
1DA0:  MOVFF  02,5A8
1DA4:  MOVFF  01,5A7
1DA8:  MOVFF  00,5A6
....................     
....................              
....................    if(l>(media-1)) 
1DAC:  MOVLW  01
1DAE:  MOVLB  6
1DB0:  SUBWF  x0E,W
1DB2:  MOVLB  5
1DB4:  SUBWF  x5F,W
1DB6:  BZ    1DBC
1DB8:  BNC   1DBC
....................    {l=0;} 
1DBA:  CLRF   x5F
....................    //promedio[l]=Temperature;l++; 
....................    promedio[l]=Pt;l++; 
1DBC:  MOVLB  6
1DBE:  CLRF   x13
1DC0:  MOVFF  55F,612
1DC4:  CLRF   x15
1DC6:  MOVLW  04
1DC8:  MOVWF  x14
1DCA:  MOVLB  0
1DCC:  RCALL  1B7C
1DCE:  MOVF   01,W
1DD0:  ADDLW  16
1DD2:  MOVWF  FE9
1DD4:  MOVLW  04
1DD6:  ADDWFC 02,W
1DD8:  MOVWF  FEA
1DDA:  MOVFF  5A6,FEF
1DDE:  MOVFF  5A7,FEC
1DE2:  MOVFF  5A8,FEC
1DE6:  MOVFF  5A9,FEC
1DEA:  MOVLB  5
1DEC:  INCF   x5F,F
....................           
....................    for(h=0;h<media;h++) 
1DEE:  CLRF   x5E
1DF0:  MOVLB  6
1DF2:  MOVF   x0E,W
1DF4:  MOVLB  5
1DF6:  SUBWF  x5E,W
1DF8:  BC    1E76
....................    { 
....................       Prom+=promedio[h]; 
1DFA:  MOVLB  6
1DFC:  CLRF   x13
1DFE:  MOVFF  55E,612
1E02:  CLRF   x15
1E04:  MOVLW  04
1E06:  MOVWF  x14
1E08:  MOVLB  0
1E0A:  RCALL  1B7C
1E0C:  MOVFF  02,03
1E10:  MOVF   01,W
1E12:  ADDLW  16
1E14:  MOVWF  FE9
1E16:  MOVLW  04
1E18:  ADDWFC 02,W
1E1A:  MOVWF  FEA
1E1C:  MOVFF  FEF,00
1E20:  MOVFF  FEC,01
1E24:  MOVFF  FEC,02
1E28:  MOVFF  FEC,03
1E2C:  MOVFF  FEA,610
1E30:  MOVFF  FE9,60F
1E34:  BCF    FD8.1
1E36:  MOVFF  5B9,616
1E3A:  MOVFF  5B8,615
1E3E:  MOVFF  5B7,614
1E42:  MOVFF  5B6,613
1E46:  MOVFF  03,61A
1E4A:  MOVFF  02,619
1E4E:  MOVFF  01,618
1E52:  MOVFF  00,617
1E56:  RCALL  1904
1E58:  MOVFF  610,FEA
1E5C:  MOVFF  60F,FE9
1E60:  MOVFF  03,5B9
1E64:  MOVFF  02,5B8
1E68:  MOVFF  01,5B7
1E6C:  MOVFF  00,5B6
....................    }  
1E70:  MOVLB  5
1E72:  INCF   x5E,F
1E74:  BRA    1DF0
....................    Prom=Prom/media;    
1E76:  MOVLB  6
1E78:  CLRF   x15
1E7A:  MOVFF  60E,614
1E7E:  MOVLB  0
1E80:  CALL   0D52
1E84:  MOVFF  5B9,612
1E88:  MOVFF  5B8,611
1E8C:  MOVFF  5B7,610
1E90:  MOVFF  5B6,60F
1E94:  MOVFF  03,616
1E98:  MOVFF  02,615
1E9C:  MOVFF  01,614
1EA0:  MOVFF  00,613
1EA4:  RCALL  17A6
1EA6:  MOVFF  03,5B9
1EAA:  MOVFF  02,5B8
1EAE:  MOVFF  01,5B7
1EB2:  MOVFF  00,5B6
....................    //Temperature=(Prom-100.0)/(0.385);  // Ecuacin determinada por linealizacin en Matlab. Revisar este polinomio.   
....................    Temperature=((Prom*Prom)*a)+(Prom*b)+c;  // Ecuacin determinada por linealizacin en Matlab. Revisar este polinomio. 
1EB6:  MOVFF  5B9,62E
1EBA:  MOVFF  5B8,62D
1EBE:  MOVFF  5B7,62C
1EC2:  MOVFF  5B6,62B
1EC6:  MOVFF  5B9,632
1ECA:  MOVFF  5B8,631
1ECE:  MOVFF  5B7,630
1ED2:  MOVFF  5B6,62F
1ED6:  RCALL  1B9E
1ED8:  MOVFF  00,60F
1EDC:  MOVFF  01,610
1EE0:  MOVFF  02,611
1EE4:  MOVFF  03,612
1EE8:  MOVFF  03,62E
1EEC:  MOVFF  02,62D
1EF0:  MOVFF  01,62C
1EF4:  MOVFF  00,62B
1EF8:  MOVFF  5E5,632
1EFC:  MOVFF  5E4,631
1F00:  MOVFF  5E3,630
1F04:  MOVFF  5E2,62F
1F08:  RCALL  1B9E
1F0A:  MOVFF  00,60F
1F0E:  MOVFF  01,610
1F12:  MOVFF  02,611
1F16:  MOVFF  03,612
1F1A:  MOVFF  5B9,62E
1F1E:  MOVFF  5B8,62D
1F22:  MOVFF  5B7,62C
1F26:  MOVFF  5B6,62B
1F2A:  MOVFF  5E9,632
1F2E:  MOVFF  5E8,631
1F32:  MOVFF  5E7,630
1F36:  MOVFF  5E6,62F
1F3A:  RCALL  1B9E
1F3C:  BCF    FD8.1
1F3E:  MOVFF  612,616
1F42:  MOVFF  611,615
1F46:  MOVFF  610,614
1F4A:  MOVFF  60F,613
1F4E:  MOVFF  03,61A
1F52:  MOVFF  02,619
1F56:  MOVFF  01,618
1F5A:  MOVFF  00,617
1F5E:  RCALL  1904
1F60:  MOVFF  00,60F
1F64:  MOVFF  01,610
1F68:  MOVFF  02,611
1F6C:  MOVFF  03,612
1F70:  BCF    FD8.1
1F72:  MOVFF  03,616
1F76:  MOVFF  02,615
1F7A:  MOVFF  01,614
1F7E:  MOVFF  00,613
1F82:  MOVFF  5ED,61A
1F86:  MOVFF  5EC,619
1F8A:  MOVFF  5EB,618
1F8E:  MOVFF  5EA,617
1F92:  RCALL  1904
1F94:  MOVFF  03,5BD
1F98:  MOVFF  02,5BC
1F9C:  MOVFF  01,5BB
1FA0:  MOVFF  00,5BA
....................     
....................    Temperature+=((float)Ajuste-(float)Ajusten); 
1FA4:  MOVLB  6
1FA6:  CLRF   x15
1FA8:  MOVFF  560,614
1FAC:  MOVLB  0
1FAE:  CALL   0D52
1FB2:  MOVFF  00,60F
1FB6:  MOVFF  01,610
1FBA:  MOVFF  02,611
1FBE:  MOVFF  03,612
1FC2:  MOVLB  6
1FC4:  CLRF   x15
1FC6:  MOVFF  561,614
1FCA:  MOVLB  0
1FCC:  CALL   0D52
1FD0:  BSF    FD8.1
1FD2:  MOVFF  612,616
1FD6:  MOVFF  611,615
1FDA:  MOVFF  610,614
1FDE:  MOVFF  60F,613
1FE2:  MOVFF  03,61A
1FE6:  MOVFF  02,619
1FEA:  MOVFF  01,618
1FEE:  MOVFF  00,617
1FF2:  RCALL  1904
1FF4:  BCF    FD8.1
1FF6:  MOVFF  5BD,616
1FFA:  MOVFF  5BC,615
1FFE:  MOVFF  5BB,614
2002:  MOVFF  5BA,613
2006:  MOVFF  03,61A
200A:  MOVFF  02,619
200E:  MOVFF  01,618
2012:  MOVFF  00,617
2016:  RCALL  1904
2018:  MOVFF  03,5BD
201C:  MOVFF  02,5BC
2020:  MOVFF  01,5BB
2024:  MOVFF  00,5BA
....................     
....................    //return Prom; 
....................    return Temperature; 
2028:  MOVFF  5BA,00
202C:  MOVFF  5BB,01
2030:  MOVFF  5BC,02
2034:  MOVFF  5BD,03
.................... } 
2038:  RETLW  00
....................  
.................... void Controla(){ 
.................... //-------------------------------Control de Calentamiento------------------------------------------------------------//          
....................    if(tiemporecta>=5) 
*
28D0:  MOVLB  5
28D2:  MOVF   x63,W
28D4:  SUBLW  04
28D6:  BC    28E0
....................    { 
....................       ActualizaRecta(); 
28D8:  MOVLB  0
28DA:  BRA    2826
....................       tiemporecta=0; 
28DC:  MOVLB  5
28DE:  CLRF   x63
....................    } 
....................     
....................    if(tiemposetpoint>600) 
28E0:  MOVF   x7F,W
28E2:  SUBLW  01
28E4:  BC    28F2
28E6:  XORLW  FF
28E8:  BNZ   28F0
28EA:  MOVF   x7E,W
28EC:  SUBLW  58
28EE:  BC    28F2
....................    { 
....................       flag_control=1; 
28F0:  BSF    x67.4
....................    } 
....................     
....................    
....................    if(Enfria==1) 
28F2:  DECFSZ x6A,W
28F4:  BRA    293E
....................    { 
....................       error=Setpoint-Temperatura;      // Clculo del error ****** 
28F6:  MOVFF  581,615
28FA:  MOVFF  580,614
28FE:  MOVLB  0
2900:  CALL   0D52
2904:  BSF    FD8.1
2906:  MOVFF  03,616
290A:  MOVFF  02,615
290E:  MOVFF  01,614
2912:  MOVFF  00,613
2916:  MOVFF  5D9,61A
291A:  MOVFF  5D8,619
291E:  MOVFF  5D7,618
2922:  MOVFF  5D6,617
2926:  CALL   1904
292A:  MOVFF  03,5B5
292E:  MOVFF  02,5B4
2932:  MOVFF  01,5B3
2936:  MOVFF  00,5B2
....................    } 
....................    else 
293A:  BRA    29B8
293C:  MOVLB  5
....................    { 
....................       error=desvio+Setpoint-Temperatura;      // Clculo del error ****** 
293E:  MOVFF  581,615
2942:  MOVFF  580,614
2946:  MOVLB  0
2948:  CALL   0D52
294C:  BCF    FD8.1
294E:  MOVFF  5CD,616
2952:  MOVFF  5CC,615
2956:  MOVFF  5CB,614
295A:  MOVFF  5CA,613
295E:  MOVFF  03,61A
2962:  MOVFF  02,619
2966:  MOVFF  01,618
296A:  MOVFF  00,617
296E:  CALL   1904
2972:  MOVFF  00,60E
2976:  MOVFF  01,60F
297A:  MOVFF  02,610
297E:  MOVFF  03,611
2982:  BSF    FD8.1
2984:  MOVFF  03,616
2988:  MOVFF  02,615
298C:  MOVFF  01,614
2990:  MOVFF  00,613
2994:  MOVFF  5D9,61A
2998:  MOVFF  5D8,619
299C:  MOVFF  5D7,618
29A0:  MOVFF  5D6,617
29A4:  CALL   1904
29A8:  MOVFF  03,5B5
29AC:  MOVFF  02,5B4
29B0:  MOVFF  01,5B3
29B4:  MOVFF  00,5B2
....................    } 
....................     
....................    if(error<0.0) 
29B8:  MOVFF  5B5,611
29BC:  MOVFF  5B4,610
29C0:  MOVFF  5B3,60F
29C4:  MOVFF  5B2,60E
29C8:  MOVLB  6
29CA:  CLRF   x15
29CC:  CLRF   x14
29CE:  CLRF   x13
29D0:  CLRF   x12
29D2:  MOVLB  0
29D4:  CALL   0D88
29D8:  BNC   29E0
....................    { 
....................       Peltier_on; 
29DA:  BSF    F8B.2
29DC:  BCF    F94.2
....................    } 
....................    else 
29DE:  BRA    2E98
....................    { 
....................       Peltier_off; 
29E0:  BCF    F8B.2
29E2:  BCF    F94.2
....................       if(error>1.2 && error<50 && Aumento<0.3 && flag_setpoint==0) 
29E4:  MOVLW  9A
29E6:  MOVLB  6
29E8:  MOVWF  x11
29EA:  MOVLW  99
29EC:  MOVWF  x10
29EE:  MOVLW  19
29F0:  MOVWF  x0F
29F2:  MOVLW  7F
29F4:  MOVWF  x0E
29F6:  MOVFF  5B5,615
29FA:  MOVFF  5B4,614
29FE:  MOVFF  5B3,613
2A02:  MOVFF  5B2,612
2A06:  MOVLB  0
2A08:  CALL   0D88
2A0C:  BTFSS  FD8.0
2A0E:  BRA    2B90
2A10:  MOVFF  5B5,611
2A14:  MOVFF  5B4,610
2A18:  MOVFF  5B3,60F
2A1C:  MOVFF  5B2,60E
2A20:  MOVLB  6
2A22:  CLRF   x15
2A24:  CLRF   x14
2A26:  MOVLW  48
2A28:  MOVWF  x13
2A2A:  MOVLW  84
2A2C:  MOVWF  x12
2A2E:  MOVLB  0
2A30:  CALL   0D88
2A34:  BTFSS  FD8.0
2A36:  BRA    2B90
2A38:  MOVFF  5D5,611
2A3C:  MOVFF  5D4,610
2A40:  MOVFF  5D3,60F
2A44:  MOVFF  5D2,60E
2A48:  MOVLW  9A
2A4A:  MOVLB  6
2A4C:  MOVWF  x15
2A4E:  MOVLW  99
2A50:  MOVWF  x14
2A52:  MOVLW  19
2A54:  MOVWF  x13
2A56:  MOVLW  7D
2A58:  MOVWF  x12
2A5A:  MOVLB  0
2A5C:  CALL   0D88
2A60:  BTFSS  FD8.0
2A62:  BRA    2B90
2A64:  MOVLB  5
2A66:  BTFSS  x67.3
2A68:  BRA    2A6E
2A6A:  MOVLB  0
2A6C:  BRA    2B90
....................       { 
....................          if(Potencia<90.0) 
2A6E:  MOVFF  585,611
2A72:  MOVFF  584,610
2A76:  MOVFF  583,60F
2A7A:  MOVFF  582,60E
2A7E:  MOVLB  6
2A80:  CLRF   x15
2A82:  CLRF   x14
2A84:  MOVLW  34
2A86:  MOVWF  x13
2A88:  MOVLW  85
2A8A:  MOVWF  x12
2A8C:  MOVLB  0
2A8E:  CALL   0D88
2A92:  BTFSS  FD8.0
2A94:  BRA    2B90
....................          { 
....................             if(TiempoControl>=10) 
2A96:  MOVLB  5
2A98:  MOVF   x70,W
2A9A:  SUBLW  09
2A9C:  BTFSC  FD8.0
2A9E:  BRA    2B92
....................             { 
....................                TiempoControl=0; 
2AA0:  CLRF   x70
....................                if(Aumento<-0.5) 
2AA2:  MOVFF  5D5,611
2AA6:  MOVFF  5D4,610
2AAA:  MOVFF  5D3,60F
2AAE:  MOVFF  5D2,60E
2AB2:  MOVLB  6
2AB4:  CLRF   x15
2AB6:  CLRF   x14
2AB8:  MOVLW  80
2ABA:  MOVWF  x13
2ABC:  MOVLW  7E
2ABE:  MOVWF  x12
2AC0:  MOVLB  0
2AC2:  CALL   0D88
2AC6:  BNC   2AFE
....................                { 
....................                   Ganancia+=2; 
2AC8:  BCF    FD8.1
2ACA:  MOVFF  5C5,616
2ACE:  MOVFF  5C4,615
2AD2:  MOVFF  5C3,614
2AD6:  MOVFF  5C2,613
2ADA:  MOVLB  6
2ADC:  CLRF   x1A
2ADE:  CLRF   x19
2AE0:  CLRF   x18
2AE2:  MOVLW  80
2AE4:  MOVWF  x17
2AE6:  MOVLB  0
2AE8:  CALL   1904
2AEC:  MOVFF  03,5C5
2AF0:  MOVFF  02,5C4
2AF4:  MOVFF  01,5C3
2AF8:  MOVFF  00,5C2
....................                } 
....................                else 
2AFC:  BRA    2B90
....................                { 
....................                   if(Aumento<-0.1) 
2AFE:  MOVFF  5D5,611
2B02:  MOVFF  5D4,610
2B06:  MOVFF  5D3,60F
2B0A:  MOVFF  5D2,60E
2B0E:  MOVLW  CD
2B10:  MOVLB  6
2B12:  MOVWF  x15
2B14:  MOVLW  CC
2B16:  MOVWF  x14
2B18:  MOVWF  x13
2B1A:  MOVLW  7B
2B1C:  MOVWF  x12
2B1E:  MOVLB  0
2B20:  CALL   0D88
2B24:  BNC   2B5C
....................                   { 
....................                      Ganancia+=1; 
2B26:  BCF    FD8.1
2B28:  MOVFF  5C5,616
2B2C:  MOVFF  5C4,615
2B30:  MOVFF  5C3,614
2B34:  MOVFF  5C2,613
2B38:  MOVLB  6
2B3A:  CLRF   x1A
2B3C:  CLRF   x19
2B3E:  CLRF   x18
2B40:  MOVLW  7F
2B42:  MOVWF  x17
2B44:  MOVLB  0
2B46:  CALL   1904
2B4A:  MOVFF  03,5C5
2B4E:  MOVFF  02,5C4
2B52:  MOVFF  01,5C3
2B56:  MOVFF  00,5C2
....................                   }    
....................                   else 
2B5A:  BRA    2B90
....................                   { 
....................                      Ganancia+=0.5; 
2B5C:  BCF    FD8.1
2B5E:  MOVFF  5C5,616
2B62:  MOVFF  5C4,615
2B66:  MOVFF  5C3,614
2B6A:  MOVFF  5C2,613
2B6E:  MOVLB  6
2B70:  CLRF   x1A
2B72:  CLRF   x19
2B74:  CLRF   x18
2B76:  MOVLW  7E
2B78:  MOVWF  x17
2B7A:  MOVLB  0
2B7C:  CALL   1904
2B80:  MOVFF  03,5C5
2B84:  MOVFF  02,5C4
2B88:  MOVFF  01,5C3
2B8C:  MOVFF  00,5C2
2B90:  MOVLB  5
....................                   } 
....................                } 
....................             } 
....................          } 
....................       } 
....................     
....................    if(error<0.0) 
2B92:  MOVFF  5B5,611
2B96:  MOVFF  5B4,610
2B9A:  MOVFF  5B3,60F
2B9E:  MOVFF  5B2,60E
2BA2:  MOVLB  6
2BA4:  CLRF   x15
2BA6:  CLRF   x14
2BA8:  CLRF   x13
2BAA:  CLRF   x12
2BAC:  MOVLB  0
2BAE:  CALL   0D88
2BB2:  BNC   2BF2
....................    { 
....................       if(TiempoControl>=40) 
2BB4:  MOVLB  5
2BB6:  MOVF   x70,W
2BB8:  SUBLW  27
2BBA:  BC    2BF4
....................       { 
....................          TiempoControl=0; 
2BBC:  CLRF   x70
....................          Ganancia-=1; 
2BBE:  BSF    FD8.1
2BC0:  MOVFF  5C5,616
2BC4:  MOVFF  5C4,615
2BC8:  MOVFF  5C3,614
2BCC:  MOVFF  5C2,613
2BD0:  MOVLB  6
2BD2:  CLRF   x1A
2BD4:  CLRF   x19
2BD6:  CLRF   x18
2BD8:  MOVLW  7F
2BDA:  MOVWF  x17
2BDC:  MOVLB  0
2BDE:  CALL   1904
2BE2:  MOVFF  03,5C5
2BE6:  MOVFF  02,5C4
2BEA:  MOVFF  01,5C3
2BEE:  MOVFF  00,5C2
2BF2:  MOVLB  5
....................       } 
....................    } 
....................     
....................    if(Ganancia<0.5) 
2BF4:  MOVFF  5C5,611
2BF8:  MOVFF  5C4,610
2BFC:  MOVFF  5C3,60F
2C00:  MOVFF  5C2,60E
2C04:  MOVLB  6
2C06:  CLRF   x15
2C08:  CLRF   x14
2C0A:  CLRF   x13
2C0C:  MOVLW  7E
2C0E:  MOVWF  x12
2C10:  MOVLB  0
2C12:  CALL   0D88
2C16:  BNC   2C26
....................    { 
....................       Ganancia=0.5; 
2C18:  MOVLB  5
2C1A:  CLRF   xC5
2C1C:  CLRF   xC4
2C1E:  CLRF   xC3
2C20:  MOVLW  7E
2C22:  MOVWF  xC2
2C24:  MOVLB  0
....................    } 
....................    if(Ganancia>Gananciamax) 
2C26:  MOVFF  58D,611
2C2A:  MOVFF  58C,610
2C2E:  MOVFF  58B,60F
2C32:  MOVFF  58A,60E
2C36:  MOVFF  5C5,615
2C3A:  MOVFF  5C4,614
2C3E:  MOVFF  5C3,613
2C42:  MOVFF  5C2,612
2C46:  CALL   0D88
2C4A:  BNC   2C5C
....................    { 
....................       Ganancia=Gananciamax; 
2C4C:  MOVFF  58D,5C5
2C50:  MOVFF  58C,5C4
2C54:  MOVFF  58B,5C3
2C58:  MOVFF  58A,5C2
....................    } 
....................     
....................    if(error<0.0)     // Anti Wind_DOWN     
2C5C:  MOVFF  5B5,611
2C60:  MOVFF  5B4,610
2C64:  MOVFF  5B3,60F
2C68:  MOVFF  5B2,60E
2C6C:  MOVLB  6
2C6E:  CLRF   x15
2C70:  CLRF   x14
2C72:  CLRF   x13
2C74:  CLRF   x12
2C76:  MOVLB  0
2C78:  CALL   0D88
2C7C:  BNC   2C8A
....................    { 
....................       error=0.0; 
2C7E:  MOVLB  5
2C80:  CLRF   xB5
2C82:  CLRF   xB4
2C84:  CLRF   xB3
2C86:  CLRF   xB2
2C88:  MOVLB  0
....................    } 
....................    //tmp=(Setpoint-Prom)*Ganancia;  // Control Proporcional. 
....................    tmp=error*Ganancia;  // Control Proporcional. 
2C8A:  MOVFF  5B5,62E
2C8E:  MOVFF  5B4,62D
2C92:  MOVFF  5B3,62C
2C96:  MOVFF  5B2,62B
2C9A:  MOVFF  5C5,632
2C9E:  MOVFF  5C4,631
2CA2:  MOVFF  5C3,630
2CA6:  MOVFF  5C2,62F
2CAA:  CALL   1B9E
2CAE:  MOVFF  03,5C1
2CB2:  MOVFF  02,5C0
2CB6:  MOVFF  01,5BF
2CBA:  MOVFF  00,5BE
....................           
....................    if(tmp>Setpoint)   // Anti Wind-UP       
2CBE:  MOVFF  581,615
2CC2:  MOVFF  580,614
2CC6:  CALL   0D52
2CCA:  MOVFF  03,611
2CCE:  MOVFF  02,610
2CD2:  MOVFF  01,60F
2CD6:  MOVFF  00,60E
2CDA:  MOVFF  5C1,615
2CDE:  MOVFF  5C0,614
2CE2:  MOVFF  5BF,613
2CE6:  MOVFF  5BE,612
2CEA:  CALL   0D88
2CEE:  BNC   2D0C
....................    { 
....................       tmp=Setpoint; 
2CF0:  MOVFF  581,615
2CF4:  MOVFF  580,614
2CF8:  CALL   0D52
2CFC:  MOVFF  03,5C1
2D00:  MOVFF  02,5C0
2D04:  MOVFF  01,5BF
2D08:  MOVFF  00,5BE
....................    } 
....................                 
....................    if(tmp<0.0)     // Anti Wind_DOWN     
2D0C:  MOVFF  5C1,611
2D10:  MOVFF  5C0,610
2D14:  MOVFF  5BF,60F
2D18:  MOVFF  5BE,60E
2D1C:  MOVLB  6
2D1E:  CLRF   x15
2D20:  CLRF   x14
2D22:  CLRF   x13
2D24:  CLRF   x12
2D26:  MOVLB  0
2D28:  CALL   0D88
2D2C:  BNC   2D3A
....................    { 
....................       tmp=0.0; 
2D2E:  MOVLB  5
2D30:  CLRF   xC1
2D32:  CLRF   xC0
2D34:  CLRF   xBF
2D36:  CLRF   xBE
2D38:  MOVLB  0
....................    } 
....................     
....................    // Tpulso(t)= Tciclo*(y(t)-ymin)/(ymax - ymin); calculo de ciclo util para control de resistencia.ymax=140.ymin=0; 
....................    // Tpulso es float, hay que pasar ese ciclo a una salida de un puerto usando el TMR1. 
....................    Tpulso=(tmp/Setpoint)*Tciclo;   
2D3A:  MOVFF  581,615
2D3E:  MOVFF  580,614
2D42:  CALL   0D52
2D46:  MOVFF  5C1,612
2D4A:  MOVFF  5C0,611
2D4E:  MOVFF  5BF,610
2D52:  MOVFF  5BE,60F
2D56:  MOVFF  03,616
2D5A:  MOVFF  02,615
2D5E:  MOVFF  01,614
2D62:  MOVFF  00,613
2D66:  CALL   17A6
2D6A:  MOVFF  00,60E
2D6E:  MOVFF  01,60F
2D72:  MOVFF  02,610
2D76:  MOVFF  03,611
2D7A:  MOVFF  03,62E
2D7E:  MOVFF  02,62D
2D82:  MOVFF  01,62C
2D86:  MOVFF  00,62B
2D8A:  MOVFF  5AD,632
2D8E:  MOVFF  5AC,631
2D92:  MOVFF  5AB,630
2D96:  MOVFF  5AA,62F
2D9A:  CALL   1B9E
2D9E:  MOVFF  03,5B1
2DA2:  MOVFF  02,5B0
2DA6:  MOVFF  01,5AF
2DAA:  MOVFF  00,5AE
....................     
....................    if(flag_control==1) 
2DAE:  MOVLB  5
2DB0:  BTFSS  x67.4
2DB2:  BRA    2DE8
....................    { 
....................       if(Tpulso>5.0) 
2DB4:  MOVLB  6
2DB6:  CLRF   x11
2DB8:  CLRF   x10
2DBA:  MOVLW  20
2DBC:  MOVWF  x0F
2DBE:  MOVLW  81
2DC0:  MOVWF  x0E
2DC2:  MOVFF  5B1,615
2DC6:  MOVFF  5B0,614
2DCA:  MOVFF  5AF,613
2DCE:  MOVFF  5AE,612
2DD2:  MOVLB  0
2DD4:  CALL   0D88
2DD8:  BNC   2DEA
....................       { 
....................          Tpulso=5.0; 
2DDA:  MOVLB  5
2DDC:  CLRF   xB1
2DDE:  CLRF   xB0
2DE0:  MOVLW  20
2DE2:  MOVWF  xAF
2DE4:  MOVLW  81
2DE6:  MOVWF  xAE
2DE8:  MOVLB  0
....................       } 
....................       /*if(Tpulso<Tpulsomin) 
....................       { 
....................          Tpulso=Tpulsomin; 
....................       }*/ 
....................    } 
....................                                        
....................    if(tiempoctrl<=(int16)(Tpulso/0.005)) // Si el tiempo es menor o igual al tiempo de control se enciende la resistencia de lo contrario se apaga. 
2DEA:  MOVFF  5B1,612
2DEE:  MOVFF  5B0,611
2DF2:  MOVFF  5AF,610
2DF6:  MOVFF  5AE,60F
2DFA:  MOVLW  0A
2DFC:  MOVLB  6
2DFE:  MOVWF  x16
2E00:  MOVLW  D7
2E02:  MOVWF  x15
2E04:  MOVLW  23
2E06:  MOVWF  x14
2E08:  MOVLW  77
2E0A:  MOVWF  x13
2E0C:  MOVLB  0
2E0E:  CALL   17A6
2E12:  MOVFF  03,611
2E16:  MOVFF  02,610
2E1A:  MOVFF  01,60F
2E1E:  MOVFF  00,60E
2E22:  RCALL  2894
2E24:  MOVFF  02,03
2E28:  MOVF   01,W
2E2A:  MOVLB  5
2E2C:  MOVF   x79,W
2E2E:  SUBWF  02,W
2E30:  BNC   2E44
2E32:  BNZ   2E3A
2E34:  MOVF   x78,W
2E36:  SUBWF  01,W
2E38:  BNC   2E44
....................    { 
....................       Resistencia_on; 
2E3A:  BSF    F8B.0
2E3C:  BCF    F94.0
....................       Peltier_off; 
2E3E:  BCF    F8B.2
2E40:  BCF    F94.2
....................    } 
....................    else          
2E42:  BRA    2E48
....................    { 
....................       Resistencia_off; 
2E44:  BCF    F8B.0
2E46:  BCF    F94.0
....................    } 
....................           
....................    if(tiempoctrl>=(int16)(Tciclo/0.005)) // Si el tiempo de control es mayor al tiempo de ciclo se reinicia tiempo de control 
2E48:  MOVFF  5AD,612
2E4C:  MOVFF  5AC,611
2E50:  MOVFF  5AB,610
2E54:  MOVFF  5AA,60F
2E58:  MOVLW  0A
2E5A:  MOVLB  6
2E5C:  MOVWF  x16
2E5E:  MOVLW  D7
2E60:  MOVWF  x15
2E62:  MOVLW  23
2E64:  MOVWF  x14
2E66:  MOVLW  77
2E68:  MOVWF  x13
2E6A:  MOVLB  0
2E6C:  CALL   17A6
2E70:  MOVFF  03,611
2E74:  MOVFF  02,610
2E78:  MOVFF  01,60F
2E7C:  MOVFF  00,60E
2E80:  RCALL  2894
2E82:  MOVF   02,W
2E84:  MOVWF  03
2E86:  MOVLB  5
2E88:  SUBWF  x79,W
2E8A:  BNC   2E98
2E8C:  BNZ   2E94
2E8E:  MOVF   01,W
2E90:  SUBWF  x78,W
2E92:  BNC   2E98
....................    { 
....................       tiempoctrl=0; 
2E94:  CLRF   x79
2E96:  CLRF   x78
2E98:  MOVLB  0
....................    } // tiempoctrl incrementa una unidad cada 5ms, por eso se dividen los tiempos por 0.005. 
.................... //--------------------------------------------------------------------------------------------------------------------//    
....................    } 
.................... } 
2E9A:  RETLW  00
....................  
.................... void displayMenu(char palabra[30], int x, int y, int sombreado, int tamano) 
.................... { 
....................    strcpy(Menus.Letra,palabra); 
*
1470:  MOVLB  6
1472:  MOVFF  60E,01
1476:  MOVFF  60F,03
147A:  MOVFF  60E,614
147E:  MOVFF  60F,615
1482:  MOVLW  05
1484:  MOVWF  FEA
1486:  MOVLW  EE
1488:  MOVWF  FE9
148A:  MOVFF  60F,FE2
148E:  MOVFF  60E,FE1
1492:  MOVF   FE7,F
1494:  MOVFF  FE6,FEE
1498:  BNZ   1492
....................    if(sombreado==2) 
149A:  MOVF   x12,W
149C:  SUBLW  02
149E:  BNZ   14C8
....................       {glcd_text57(x+1, y+1, Menus.Letra, tamano, ON);} 
14A0:  MOVLW  01
14A2:  ADDWF  x10,W
14A4:  MOVWF  x14
14A6:  MOVLW  01
14A8:  ADDWF  x11,W
14AA:  MOVWF  x15
14AC:  MOVFF  614,621
14B0:  MOVWF  x22
14B2:  MOVLW  05
14B4:  MOVWF  x24
14B6:  MOVLW  EE
14B8:  MOVWF  x23
14BA:  MOVFF  613,625
14BE:  MOVLW  01
14C0:  MOVWF  x26
14C2:  MOVLB  0
14C4:  RCALL  10B8
14C6:  MOVLB  6
....................    if(sombreado==1) 
14C8:  DECFSZ x12,W
14CA:  BRA    1516
....................       {glcd_rect(0, y, 127, y+(tamano*8), YES, ON);glcd_text57(x+1, y+1, Menus.Letra, tamano, OFF);} 
14CC:  MOVF   x13,W
14CE:  MULLW  08
14D0:  MOVF   FF3,W
14D2:  ADDWF  x11,W
14D4:  MOVWF  x14
14D6:  CLRF   x21
14D8:  MOVFF  611,622
14DC:  MOVLW  7F
14DE:  MOVWF  x23
14E0:  MOVFF  614,624
14E4:  MOVLW  01
14E6:  MOVWF  x25
14E8:  MOVWF  x26
14EA:  MOVLB  0
14EC:  RCALL  13AE
14EE:  MOVLW  01
14F0:  MOVLB  6
14F2:  ADDWF  x10,W
14F4:  MOVWF  x14
14F6:  MOVLW  01
14F8:  ADDWF  x11,W
14FA:  MOVWF  x15
14FC:  MOVFF  614,621
1500:  MOVWF  x22
1502:  MOVLW  05
1504:  MOVWF  x24
1506:  MOVLW  EE
1508:  MOVWF  x23
150A:  MOVFF  613,625
150E:  CLRF   x26
1510:  MOVLB  0
1512:  RCALL  10B8
1514:  MOVLB  6
....................    if(sombreado==0) 
1516:  MOVF   x12,F
1518:  BNZ   1564
....................       {glcd_rect(0, y, 127, y+(tamano*8), YES, OFF);glcd_text57(x+1, y+1, Menus.Letra, tamano, ON);} 
151A:  MOVF   x13,W
151C:  MULLW  08
151E:  MOVF   FF3,W
1520:  ADDWF  x11,W
1522:  MOVWF  x14
1524:  CLRF   x21
1526:  MOVFF  611,622
152A:  MOVLW  7F
152C:  MOVWF  x23
152E:  MOVFF  614,624
1532:  MOVLW  01
1534:  MOVWF  x25
1536:  CLRF   x26
1538:  MOVLB  0
153A:  RCALL  13AE
153C:  MOVLW  01
153E:  MOVLB  6
1540:  ADDWF  x10,W
1542:  MOVWF  x14
1544:  MOVLW  01
1546:  ADDWF  x11,W
1548:  MOVWF  x15
154A:  MOVFF  614,621
154E:  MOVWF  x22
1550:  MOVLW  05
1552:  MOVWF  x24
1554:  MOVLW  EE
1556:  MOVWF  x23
1558:  MOVFF  613,625
155C:  MOVLW  01
155E:  MOVWF  x26
1560:  MOVLB  0
1562:  RCALL  10B8
....................    glcd_update(); 
1564:  MOVLB  0
1566:  RCALL  0E9C
.................... } 
1568:  RETLW  00
....................  
.................... void displayTiempo(int digito, int x, int y, int sombreado, int tamano) 
.................... { 
....................    char voltage[9]; 
....................     
....................    if(sombreado==2) 
*
25AE:  MOVLB  6
25B0:  MOVF   x12,W
25B2:  SUBLW  02
25B4:  BNZ   2626
....................    { 
....................       sprintf(voltage, "%03u", digito); 
25B6:  MOVLW  06
25B8:  MOVWF  x0D
25BA:  MOVLW  14
25BC:  MOVWF  x0C
25BE:  MOVFF  60F,61D
25C2:  MOVLW  03
25C4:  MOVWF  x1E
25C6:  MOVLB  0
25C8:  RCALL  2528
....................       glcd_rect(x, y, x+(tamano*18), y+(tamano*8), YES, ON); 
25CA:  MOVLB  6
25CC:  MOVF   x13,W
25CE:  MULLW  12
25D0:  MOVF   FF3,W
25D2:  ADDWF  x10,W
25D4:  MOVWF  x1D
25D6:  MOVF   x13,W
25D8:  MULLW  08
25DA:  MOVF   FF3,W
25DC:  ADDWF  x11,W
25DE:  MOVWF  x1E
25E0:  MOVFF  610,621
25E4:  MOVFF  611,622
25E8:  MOVFF  61D,623
25EC:  MOVWF  x24
25EE:  MOVLW  01
25F0:  MOVWF  x25
25F2:  MOVWF  x26
25F4:  MOVLB  0
25F6:  CALL   13AE
....................       glcd_text57(x+1, y+1, voltage, tamano, OFF); 
25FA:  MOVLW  01
25FC:  MOVLB  6
25FE:  ADDWF  x10,W
2600:  MOVWF  x1D
2602:  MOVLW  01
2604:  ADDWF  x11,W
2606:  MOVWF  x1E
2608:  MOVFF  61D,621
260C:  MOVWF  x22
260E:  MOVLW  06
2610:  MOVWF  x24
2612:  MOVLW  14
2614:  MOVWF  x23
2616:  MOVFF  613,625
261A:  CLRF   x26
261C:  MOVLB  0
261E:  CALL   10B8
....................    } 
....................    else 
2622:  BRA    276A
2624:  MOVLB  6
....................    { 
....................       if(sombreado==3) 
2626:  MOVF   x12,W
2628:  SUBLW  03
262A:  BNZ   269C
....................       { 
....................          sprintf(voltage, "%03u", digito); 
262C:  MOVLW  06
262E:  MOVWF  x0D
2630:  MOVLW  14
2632:  MOVWF  x0C
2634:  MOVFF  60F,61D
2638:  MOVLW  03
263A:  MOVWF  x1E
263C:  MOVLB  0
263E:  RCALL  2528
....................          glcd_rect(x, y, x+(tamano*18), y+(tamano*8), YES, OFF); 
2640:  MOVLB  6
2642:  MOVF   x13,W
2644:  MULLW  12
2646:  MOVF   FF3,W
2648:  ADDWF  x10,W
264A:  MOVWF  x1D
264C:  MOVF   x13,W
264E:  MULLW  08
2650:  MOVF   FF3,W
2652:  ADDWF  x11,W
2654:  MOVWF  x1E
2656:  MOVFF  610,621
265A:  MOVFF  611,622
265E:  MOVFF  61D,623
2662:  MOVWF  x24
2664:  MOVLW  01
2666:  MOVWF  x25
2668:  CLRF   x26
266A:  MOVLB  0
266C:  CALL   13AE
....................          glcd_text57(x+1, y+1, voltage, tamano, ON); 
2670:  MOVLW  01
2672:  MOVLB  6
2674:  ADDWF  x10,W
2676:  MOVWF  x1D
2678:  MOVLW  01
267A:  ADDWF  x11,W
267C:  MOVWF  x1E
267E:  MOVFF  61D,621
2682:  MOVWF  x22
2684:  MOVLW  06
2686:  MOVWF  x24
2688:  MOVLW  14
268A:  MOVWF  x23
268C:  MOVFF  613,625
2690:  MOVLW  01
2692:  MOVWF  x26
2694:  MOVLB  0
2696:  CALL   10B8
269A:  MOVLB  6
....................       } 
....................       sprintf(voltage, "%u", digito); 
269C:  MOVLW  06
269E:  MOVWF  x0D
26A0:  MOVLW  14
26A2:  MOVWF  x0C
26A4:  MOVFF  60F,61D
26A8:  MOVLW  1B
26AA:  MOVWF  x1E
26AC:  MOVLB  0
26AE:  RCALL  2528
....................       if(sombreado==1) 
26B0:  MOVLB  6
26B2:  DECFSZ x12,W
26B4:  BRA    270E
....................          {glcd_rect(x, y, x+(tamano*5), y+(tamano*8), YES, ON);glcd_text57(x+1, y+1, voltage, tamano, OFF);} 
26B6:  MOVF   x13,W
26B8:  MULLW  05
26BA:  MOVF   FF3,W
26BC:  ADDWF  x10,W
26BE:  MOVWF  x1D
26C0:  MOVF   x13,W
26C2:  MULLW  08
26C4:  MOVF   FF3,W
26C6:  ADDWF  x11,W
26C8:  MOVWF  x1E
26CA:  MOVFF  610,621
26CE:  MOVFF  611,622
26D2:  MOVFF  61D,623
26D6:  MOVWF  x24
26D8:  MOVLW  01
26DA:  MOVWF  x25
26DC:  MOVWF  x26
26DE:  MOVLB  0
26E0:  CALL   13AE
26E4:  MOVLW  01
26E6:  MOVLB  6
26E8:  ADDWF  x10,W
26EA:  MOVWF  x1D
26EC:  MOVLW  01
26EE:  ADDWF  x11,W
26F0:  MOVWF  x1E
26F2:  MOVFF  61D,621
26F6:  MOVWF  x22
26F8:  MOVLW  06
26FA:  MOVWF  x24
26FC:  MOVLW  14
26FE:  MOVWF  x23
2700:  MOVFF  613,625
2704:  CLRF   x26
2706:  MOVLB  0
2708:  CALL   10B8
270C:  MOVLB  6
....................       if(sombreado==0) 
270E:  MOVF   x12,F
2710:  BNZ   276C
....................          {glcd_rect(x, y, x+(tamano*5), y+(tamano*8), YES, OFF);glcd_text57(x+1, y+1, voltage, tamano, ON);} 
2712:  MOVF   x13,W
2714:  MULLW  05
2716:  MOVF   FF3,W
2718:  ADDWF  x10,W
271A:  MOVWF  x1D
271C:  MOVF   x13,W
271E:  MULLW  08
2720:  MOVF   FF3,W
2722:  ADDWF  x11,W
2724:  MOVWF  x1E
2726:  MOVFF  610,621
272A:  MOVFF  611,622
272E:  MOVFF  61D,623
2732:  MOVWF  x24
2734:  MOVLW  01
2736:  MOVWF  x25
2738:  CLRF   x26
273A:  MOVLB  0
273C:  CALL   13AE
2740:  MOVLW  01
2742:  MOVLB  6
2744:  ADDWF  x10,W
2746:  MOVWF  x1D
2748:  MOVLW  01
274A:  ADDWF  x11,W
274C:  MOVWF  x1E
274E:  MOVFF  61D,621
2752:  MOVWF  x22
2754:  MOVLW  06
2756:  MOVWF  x24
2758:  MOVLW  14
275A:  MOVWF  x23
275C:  MOVFF  613,625
2760:  MOVLW  01
2762:  MOVWF  x26
2764:  MOVLB  0
2766:  CALL   10B8
276A:  MOVLB  6
....................    } 
....................    glcd_update(); 
276C:  MOVLB  0
276E:  CALL   0E9C
.................... } 
2772:  RETLW  00
....................  
.................... void displayTemperatura(int16 digito, int x, int y, int sombreado, int tamano) 
.................... { 
....................    char voltage[9]; 
....................     
....................    if(sombreado==2) 
*
2370:  MOVLB  6
2372:  MOVF   x14,W
2374:  SUBLW  02
2376:  BNZ   23EC
....................    { 
....................       sprintf(voltage, "%03Lu", digito); 
2378:  MOVLW  06
237A:  MOVWF  x0D
237C:  MOVLW  16
237E:  MOVWF  x0C
2380:  MOVLW  0A
2382:  MOVWF  FE9
2384:  MOVFF  611,620
2388:  MOVFF  610,61F
238C:  MOVLB  0
238E:  RCALL  22B2
....................       glcd_rect(x, y, x+(tamano*18), y+(tamano*8), YES, ON); 
2390:  MOVLB  6
2392:  MOVF   x15,W
2394:  MULLW  12
2396:  MOVF   FF3,W
2398:  ADDWF  x12,W
239A:  MOVWF  x1F
239C:  MOVF   x15,W
239E:  MULLW  08
23A0:  MOVF   FF3,W
23A2:  ADDWF  x13,W
23A4:  MOVWF  x20
23A6:  MOVFF  612,621
23AA:  MOVFF  613,622
23AE:  MOVFF  61F,623
23B2:  MOVWF  x24
23B4:  MOVLW  01
23B6:  MOVWF  x25
23B8:  MOVWF  x26
23BA:  MOVLB  0
23BC:  CALL   13AE
....................       glcd_text57(x+1, y+1, voltage, tamano, OFF); 
23C0:  MOVLW  01
23C2:  MOVLB  6
23C4:  ADDWF  x12,W
23C6:  MOVWF  x1F
23C8:  MOVLW  01
23CA:  ADDWF  x13,W
23CC:  MOVWF  x20
23CE:  MOVFF  61F,621
23D2:  MOVWF  x22
23D4:  MOVLW  06
23D6:  MOVWF  x24
23D8:  MOVLW  16
23DA:  MOVWF  x23
23DC:  MOVFF  615,625
23E0:  CLRF   x26
23E2:  MOVLB  0
23E4:  CALL   10B8
....................    } 
....................    else 
23E8:  BRA    251E
23EA:  MOVLB  6
....................    { 
....................       sprintf(voltage, "%03Lu", digito); 
23EC:  MOVLW  06
23EE:  MOVWF  x0D
23F0:  MOVLW  16
23F2:  MOVWF  x0C
23F4:  MOVLW  0A
23F6:  MOVWF  FE9
23F8:  MOVFF  611,620
23FC:  MOVFF  610,61F
2400:  MOVLB  0
2402:  RCALL  22B2
....................     
....................       if(sombreado==4) 
2404:  MOVLB  6
2406:  MOVF   x14,W
2408:  SUBLW  04
240A:  BNZ   2466
....................       { 
....................          glcd_rect(x, y, x+(tamano*16), y+(tamano*8), YES, OFF); 
240C:  MOVF   x15,W
240E:  MULLW  10
2410:  MOVF   FF3,W
2412:  ADDWF  x12,W
2414:  MOVWF  x1F
2416:  MOVF   x15,W
2418:  MULLW  08
241A:  MOVF   FF3,W
241C:  ADDWF  x13,W
241E:  MOVWF  x20
2420:  MOVFF  612,621
2424:  MOVFF  613,622
2428:  MOVFF  61F,623
242C:  MOVWF  x24
242E:  MOVLW  01
2430:  MOVWF  x25
2432:  CLRF   x26
2434:  MOVLB  0
2436:  CALL   13AE
....................          glcd_text57(x+1, y+1, voltage, tamano, ON); 
243A:  MOVLW  01
243C:  MOVLB  6
243E:  ADDWF  x12,W
2440:  MOVWF  x1F
2442:  MOVLW  01
2444:  ADDWF  x13,W
2446:  MOVWF  x20
2448:  MOVFF  61F,621
244C:  MOVWF  x22
244E:  MOVLW  06
2450:  MOVWF  x24
2452:  MOVLW  16
2454:  MOVWF  x23
2456:  MOVFF  615,625
245A:  MOVLW  01
245C:  MOVWF  x26
245E:  MOVLB  0
2460:  CALL   10B8
2464:  MOVLB  6
....................       } 
....................       if(sombreado==1) 
2466:  DECFSZ x14,W
2468:  BRA    24C2
....................          {glcd_rect(x, y, x+(tamano*5), y+(tamano*8), YES, ON);glcd_text57(x+1, y+1, voltage, tamano, OFF);} 
246A:  MOVF   x15,W
246C:  MULLW  05
246E:  MOVF   FF3,W
2470:  ADDWF  x12,W
2472:  MOVWF  x1F
2474:  MOVF   x15,W
2476:  MULLW  08
2478:  MOVF   FF3,W
247A:  ADDWF  x13,W
247C:  MOVWF  x20
247E:  MOVFF  612,621
2482:  MOVFF  613,622
2486:  MOVFF  61F,623
248A:  MOVWF  x24
248C:  MOVLW  01
248E:  MOVWF  x25
2490:  MOVWF  x26
2492:  MOVLB  0
2494:  CALL   13AE
2498:  MOVLW  01
249A:  MOVLB  6
249C:  ADDWF  x12,W
249E:  MOVWF  x1F
24A0:  MOVLW  01
24A2:  ADDWF  x13,W
24A4:  MOVWF  x20
24A6:  MOVFF  61F,621
24AA:  MOVWF  x22
24AC:  MOVLW  06
24AE:  MOVWF  x24
24B0:  MOVLW  16
24B2:  MOVWF  x23
24B4:  MOVFF  615,625
24B8:  CLRF   x26
24BA:  MOVLB  0
24BC:  CALL   10B8
24C0:  MOVLB  6
....................       if(sombreado==0) 
24C2:  MOVF   x14,F
24C4:  BNZ   2520
....................          {glcd_rect(x, y, x+(tamano*5), y+(tamano*8), YES, OFF);glcd_text57(x+1, y+1, voltage, tamano, ON);} 
24C6:  MOVF   x15,W
24C8:  MULLW  05
24CA:  MOVF   FF3,W
24CC:  ADDWF  x12,W
24CE:  MOVWF  x1F
24D0:  MOVF   x15,W
24D2:  MULLW  08
24D4:  MOVF   FF3,W
24D6:  ADDWF  x13,W
24D8:  MOVWF  x20
24DA:  MOVFF  612,621
24DE:  MOVFF  613,622
24E2:  MOVFF  61F,623
24E6:  MOVWF  x24
24E8:  MOVLW  01
24EA:  MOVWF  x25
24EC:  CLRF   x26
24EE:  MOVLB  0
24F0:  CALL   13AE
24F4:  MOVLW  01
24F6:  MOVLB  6
24F8:  ADDWF  x12,W
24FA:  MOVWF  x1F
24FC:  MOVLW  01
24FE:  ADDWF  x13,W
2500:  MOVWF  x20
2502:  MOVFF  61F,621
2506:  MOVWF  x22
2508:  MOVLW  06
250A:  MOVWF  x24
250C:  MOVLW  16
250E:  MOVWF  x23
2510:  MOVFF  615,625
2514:  MOVLW  01
2516:  MOVWF  x26
2518:  MOVLB  0
251A:  CALL   10B8
251E:  MOVLB  6
....................    } 
....................    glcd_update(); 
2520:  MOVLB  0
2522:  CALL   0E9C
.................... } 
2526:  RETLW  00
....................  
.................... void glcd_imagen(int8 x) 
.................... { 
....................    char i,j; 
....................    signed char k;  
....................     
....................    if(x==5){ 
*
2774:  MOVLB  6
2776:  MOVF   x0E,W
2778:  SUBLW  05
277A:  BNZ   2820
....................    for( i = 0 ; i < 64 ; i ++ ) 
277C:  CLRF   x0F
277E:  MOVF   x0F,W
2780:  SUBLW  3F
2782:  BNC   2820
....................    {   
....................       for( j = 0 ; j < 16 ; j ++) 
2784:  CLRF   x10
2786:  MOVF   x10,W
2788:  SUBLW  0F
278A:  BNC   281C
....................       {     
....................          for(k=7;k>-1;k--) 
278C:  MOVLW  07
278E:  MOVWF  x11
2790:  MOVF   x11,W
2792:  XORLW  80
2794:  SUBLW  7F
2796:  BC    2818
....................          {       
....................             if( bit_test(Horno[i][j] ,7-k ))  
2798:  CLRF   x13
279A:  MOVFF  60F,612
279E:  CLRF   x15
27A0:  MOVLW  10
27A2:  MOVWF  x14
27A4:  MOVLB  0
27A6:  CALL   1B7C
27AA:  MOVFF  02,613
27AE:  MOVFF  01,612
27B2:  MOVLB  6
27B4:  MOVF   x10,W
27B6:  ADDWF  01,W
27B8:  MOVWF  01
27BA:  MOVLW  00
27BC:  ADDWFC 02,W
27BE:  MOVWF  03
27C0:  MOVF   01,W
27C2:  MOVFF  FF2,612
27C6:  BCF    FF2.7
27C8:  MOVFF  03,FF7
27CC:  MOVLB  0
27CE:  CALL   02A6
27D2:  MOVLB  6
27D4:  BTFSC  x12.7
27D6:  BSF    FF2.7
27D8:  MOVWF  x12
27DA:  MOVLW  07
27DC:  BSF    FD8.0
27DE:  SUBFWB x11,W
27E0:  MOVWF  x13
27E2:  MOVFF  612,00
27E6:  MOVF   x13,W
27E8:  MOVWF  01
27EA:  BZ    27F4
27EC:  BCF    FD8.0
27EE:  RRCF   00,F
27F0:  DECFSZ 01,F
27F2:  BRA    27EC
27F4:  BTFSS  00.0
27F6:  BRA    2814
....................                glcd_pixel( j*8+k,i, ON ); 
27F8:  MOVF   x10,W
27FA:  MULLW  08
27FC:  MOVF   FF3,W
27FE:  ADDWF  x11,W
2800:  MOVWF  x12
2802:  MOVWF  x3C
2804:  MOVFF  60F,63D
2808:  MOVLW  01
280A:  MOVWF  x3E
280C:  MOVLB  0
280E:  CALL   0FFC
2812:  MOVLB  6
....................          }   
2814:  DECF   x11,F
2816:  BRA    2790
....................       } 
2818:  INCF   x10,F
281A:  BRA    2786
....................    } 
281C:  INCF   x0F,F
281E:  BRA    277E
....................    } 
....................     
.................... } 
2820:  MOVLB  0
2822:  GOTO   55B8 (RETURN)
....................  
.................... #int_TIMER1 
.................... void temp1s(void){ 
....................    //set_timer1(45612);  // 5 ms 5536 , Posiblemente cargar con 22144 debido a F=12MHz 
....................    set_timer1(5536); 
*
0CD0:  MOVLW  15
0CD2:  MOVWF  FCF
0CD4:  MOVLW  A0
0CD6:  MOVWF  FCE
....................    tiempos++; 
0CD8:  MOVLB  5
0CDA:  INCF   x74,F
0CDC:  BTFSC  FD8.2
0CDE:  INCF   x75,F
....................    tiempos3++; 
0CE0:  INCF   x76,F
0CE2:  BTFSC  FD8.2
0CE4:  INCF   x77,F
....................    tiempoctrl++; 
0CE6:  INCF   x78,F
0CE8:  BTFSC  FD8.2
0CEA:  INCF   x79,F
....................      
....................    if(tiempos>=200)  // 12000 para que incremente cada minuto, 200para que incremente cada segundo. 
0CEC:  MOVF   x75,F
0CEE:  BNZ   0CF6
0CF0:  MOVF   x74,W
0CF2:  SUBLW  C7
0CF4:  BC    0D20
....................    {tiempos=0;Lectura=1;tiemporeset++;TiempoControl++;tiemporecta++; 
0CF6:  CLRF   x75
0CF8:  CLRF   x74
0CFA:  BSF    x66.4
0CFC:  INCF   x69,F
0CFE:  INCF   x70,F
0D00:  INCF   x63,F
....................     
....................       if(flag_setpoint==1) 
0D02:  BTFSS  x67.3
0D04:  BRA    0D0C
....................          tiemposetpoint++; 
0D06:  INCF   x7E,F
0D08:  BTFSC  FD8.2
0D0A:  INCF   x7F,F
....................           
....................       if(tiempo_esterilizacion==1) 
0D0C:  DECFSZ x72,W
0D0E:  BRA    0D16
....................       {                
....................          tinicio++; 
0D10:  INCF   x7A,F
0D12:  BTFSC  FD8.2
0D14:  INCF   x7B,F
....................       } 
....................        
....................       if(flag_tiempocalentamiento==1) 
0D16:  BTFSS  x67.1
0D18:  BRA    0D20
....................       { 
....................          tiempocalentamiento++; 
0D1A:  INCF   x7C,F
0D1C:  BTFSC  FD8.2
0D1E:  INCF   x7D,F
....................       } 
....................    }         
.................... } 
....................     
0D20:  BCF    F9E.0
0D22:  MOVLB  0
0D24:  GOTO   0054
.................... void Limpia(int x1,int x2,int y){ 
....................    glcd_rect(x1, y, x2, y+7, YES, OFF); 
.................... } 
....................  
.................... void displayT(float adc,int x,int y,int w) { 
....................    char voltage[9];     
....................    sprintf(voltage, "%03.1f",adc); // Converts adc to text 
*
3116:  MOVLW  06
3118:  MOVLB  6
311A:  MOVWF  x0D
311C:  MOVLW  15
311E:  MOVWF  x0C
3120:  MOVLW  42
3122:  MOVWF  FE9
3124:  MOVFF  611,621
3128:  MOVFF  610,620
312C:  MOVFF  60F,61F
3130:  MOVFF  60E,61E
3134:  MOVLW  01
3136:  MOVWF  x22
3138:  MOVLB  0
313A:  BRA    2F60
....................    glcd_rect(x, y, x+(w*27), y+(w*8), YES, OFF); 
313C:  MOVLB  6
313E:  MOVF   x14,W
3140:  MULLW  1B
3142:  MOVF   FF3,W
3144:  ADDWF  x12,W
3146:  MOVWF  x1E
3148:  MOVF   x14,W
314A:  MULLW  08
314C:  MOVF   FF3,W
314E:  ADDWF  x13,W
3150:  MOVWF  x1F
3152:  MOVFF  612,621
3156:  MOVFF  613,622
315A:  MOVFF  61E,623
315E:  MOVWF  x24
3160:  MOVLW  01
3162:  MOVWF  x25
3164:  CLRF   x26
3166:  MOVLB  0
3168:  CALL   13AE
....................    glcd_text57(x, y, voltage, w, ON); 
316C:  MOVFF  612,621
3170:  MOVFF  613,622
3174:  MOVLW  06
3176:  MOVLB  6
3178:  MOVWF  x24
317A:  MOVLW  15
317C:  MOVWF  x23
317E:  MOVFF  614,625
3182:  MOVLW  01
3184:  MOVWF  x26
3186:  MOVLB  0
3188:  CALL   10B8
.................... } 
318C:  RETLW  00
....................  
.................... void displayContrasena(int digito, int x, int y, int sombreado) 
.................... { 
....................    char voltage[9]; 
....................    sprintf(voltage, "%i", digito); 
*
1696:  MOVLW  06
1698:  MOVLB  6
169A:  MOVWF  x0D
169C:  MOVLW  14
169E:  MOVWF  x0C
16A0:  MOVFF  610,61D
16A4:  MOVLW  1F
16A6:  MOVWF  x1E
16A8:  MOVLB  0
16AA:  BRA    15B6
....................     
....................    if(sombreado==1) 
16AC:  MOVLB  6
16AE:  DECFSZ x13,W
16B0:  BRA    1700
....................       {glcd_rect(x, y, x+18, y+24, YES, ON);glcd_text57(x+2, y+1, voltage, 2, OFF);} 
16B2:  MOVLW  12
16B4:  ADDWF  x11,W
16B6:  MOVWF  x1D
16B8:  MOVLW  18
16BA:  ADDWF  x12,W
16BC:  MOVWF  x1E
16BE:  MOVFF  611,621
16C2:  MOVFF  612,622
16C6:  MOVFF  61D,623
16CA:  MOVWF  x24
16CC:  MOVLW  01
16CE:  MOVWF  x25
16D0:  MOVWF  x26
16D2:  MOVLB  0
16D4:  RCALL  13AE
16D6:  MOVLW  02
16D8:  MOVLB  6
16DA:  ADDWF  x11,W
16DC:  MOVWF  x1D
16DE:  MOVLW  01
16E0:  ADDWF  x12,W
16E2:  MOVWF  x1E
16E4:  MOVFF  61D,621
16E8:  MOVWF  x22
16EA:  MOVLW  06
16EC:  MOVWF  x24
16EE:  MOVLW  14
16F0:  MOVWF  x23
16F2:  MOVLW  02
16F4:  MOVWF  x25
16F6:  CLRF   x26
16F8:  MOVLB  0
16FA:  RCALL  10B8
....................    else    
16FC:  BRA    174A
16FE:  MOVLB  6
....................       {glcd_rect(x, y, x+18, y+24, NO, OFF);glcd_text57(x+2, y+1, voltage, 2, ON);} 
1700:  MOVLW  12
1702:  ADDWF  x11,W
1704:  MOVWF  x1D
1706:  MOVLW  18
1708:  ADDWF  x12,W
170A:  MOVWF  x1E
170C:  MOVFF  611,621
1710:  MOVFF  612,622
1714:  MOVFF  61D,623
1718:  MOVWF  x24
171A:  CLRF   x25
171C:  CLRF   x26
171E:  MOVLB  0
1720:  RCALL  13AE
1722:  MOVLW  02
1724:  MOVLB  6
1726:  ADDWF  x11,W
1728:  MOVWF  x1D
172A:  MOVLW  01
172C:  ADDWF  x12,W
172E:  MOVWF  x1E
1730:  MOVFF  61D,621
1734:  MOVWF  x22
1736:  MOVLW  06
1738:  MOVWF  x24
173A:  MOVLW  14
173C:  MOVWF  x23
173E:  MOVLW  02
1740:  MOVWF  x25
1742:  MOVLW  01
1744:  MOVWF  x26
1746:  MOVLB  0
1748:  RCALL  10B8
....................  
.................... } 
174A:  RETLW  00
....................  
....................  
.................... void main() 
.................... { 
*
318E:  CLRF   FF8
3190:  BCF    FD0.7
3192:  BSF    07.7
3194:  CLRF   FEA
3196:  CLRF   FE9
3198:  MOVLB  5
319A:  CLRF   x5E
319C:  CLRF   x5F
319E:  CLRF   x60
31A0:  CLRF   x61
31A2:  MOVLW  0A
31A4:  MOVWF  x62
31A6:  CLRF   x63
31A8:  CLRF   x64
31AA:  CLRF   x65
31AC:  BCF    x66.0
31AE:  BCF    x66.1
31B0:  BCF    x66.2
31B2:  BSF    x66.3
31B4:  BCF    x66.4
31B6:  BCF    x66.5
31B8:  BCF    x66.6
31BA:  BCF    x66.7
31BC:  BCF    x67.0
31BE:  BCF    x67.1
31C0:  BCF    x67.2
31C2:  BCF    x67.3
31C4:  BCF    x67.4
31C6:  CLRF   x68
31C8:  CLRF   x69
31CA:  CLRF   x6A
31CC:  CLRF   x6B
31CE:  MOVLW  01
31D0:  MOVWF  x6C
31D2:  CLRF   x6D
31D4:  CLRF   x6E
31D6:  CLRF   x6F
31D8:  CLRF   x70
31DA:  MOVWF  x71
31DC:  CLRF   x72
31DE:  CLRF   x73
31E0:  CLRF   x75
31E2:  CLRF   x74
31E4:  CLRF   x77
31E6:  CLRF   x76
31E8:  CLRF   x79
31EA:  CLRF   x78
31EC:  CLRF   x7B
31EE:  CLRF   x7A
31F0:  CLRF   x7D
31F2:  CLRF   x7C
31F4:  CLRF   x7F
31F6:  CLRF   x7E
31F8:  CLRF   x81
31FA:  CLRF   x80
31FC:  CLRF   x85
31FE:  CLRF   x84
3200:  CLRF   x83
3202:  CLRF   x82
3204:  CLRF   x89
3206:  CLRF   x88
3208:  CLRF   x87
320A:  CLRF   x86
320C:  CLRF   x8D
320E:  CLRF   x8C
3210:  CLRF   x8B
3212:  CLRF   x8A
3214:  CLRF   xA1
3216:  CLRF   xA0
3218:  CLRF   x9F
321A:  CLRF   x9E
321C:  CLRF   xA5
321E:  MOVLW  10
3220:  MOVWF  xA4
3222:  MOVLW  42
3224:  MOVWF  xA3
3226:  MOVLW  8B
3228:  MOVWF  xA2
322A:  CLRF   xAD
322C:  CLRF   xAC
322E:  MOVLW  20
3230:  MOVWF  xAB
3232:  MOVLW  82
3234:  MOVWF  xAA
3236:  CLRF   xB1
3238:  CLRF   xB0
323A:  CLRF   xAF
323C:  CLRF   xAE
323E:  CLRF   xB5
3240:  CLRF   xB4
3242:  CLRF   xB3
3244:  CLRF   xB2
3246:  CLRF   xB9
3248:  CLRF   xB8
324A:  CLRF   xB7
324C:  CLRF   xB6
324E:  CLRF   xBD
3250:  CLRF   xBC
3252:  CLRF   xBB
3254:  CLRF   xBA
3256:  CLRF   xC1
3258:  CLRF   xC0
325A:  CLRF   xBF
325C:  CLRF   xBE
325E:  CLRF   xC5
3260:  CLRF   xC4
3262:  MOVLW  48
3264:  MOVWF  xC3
3266:  MOVLW  83
3268:  MOVWF  xC2
326A:  CLRF   xC9
326C:  CLRF   xC8
326E:  MOVLW  20
3270:  MOVWF  xC7
3272:  MOVLW  83
3274:  MOVWF  xC6
3276:  CLRF   xCD
3278:  CLRF   xCC
327A:  CLRF   xCB
327C:  MOVLW  7F
327E:  MOVWF  xCA
3280:  CLRF   xD1
3282:  CLRF   xD0
3284:  MOVLW  16
3286:  MOVWF  xCF
3288:  MOVLW  86
328A:  MOVWF  xCE
328C:  CLRF   xD5
328E:  CLRF   xD4
3290:  CLRF   xD3
3292:  CLRF   xD2
3294:  CLRF   xD9
3296:  CLRF   xD8
3298:  CLRF   xD7
329A:  CLRF   xD6
329C:  CLRF   xDD
329E:  CLRF   xDC
32A0:  MOVLW  20
32A2:  MOVWF  xDB
32A4:  MOVLW  82
32A6:  MOVWF  xDA
32A8:  CLRF   xE1
32AA:  CLRF   xE0
32AC:  CLRF   xDF
32AE:  CLRF   xDE
32B0:  MOVLW  E0
32B2:  MOVWF  xE5
32B4:  MOVLW  2D
32B6:  MOVWF  xE4
32B8:  MOVLW  10
32BA:  MOVWF  xE3
32BC:  MOVLW  75
32BE:  MOVWF  xE2
32C0:  MOVLW  FF
32C2:  MOVWF  xE9
32C4:  MOVLW  21
32C6:  MOVWF  xE8
32C8:  MOVLW  15
32CA:  MOVWF  xE7
32CC:  MOVLW  80
32CE:  MOVWF  xE6
32D0:  MOVLW  82
32D2:  MOVWF  xED
32D4:  MOVLW  12
32D6:  MOVWF  xEC
32D8:  MOVLW  F4
32DA:  MOVWF  xEB
32DC:  MOVLW  86
32DE:  MOVWF  xEA
32E0:  MOVF   FC1,W
32E2:  ANDLW  C0
32E4:  IORLW  0F
32E6:  MOVWF  FC1
32E8:  MOVLW  07
32EA:  MOVWF  FB4
32EC:  MOVLB  4
32EE:  CLRF   x16
32F0:  CLRF   x17
32F2:  CLRF   x18
32F4:  CLRF   x19
32F6:  CLRF   x1A
32F8:  CLRF   x1B
32FA:  CLRF   x1C
32FC:  CLRF   x1D
32FE:  CLRF   x1E
3300:  CLRF   x1F
3302:  CLRF   x20
3304:  CLRF   x21
3306:  CLRF   x22
3308:  CLRF   x23
330A:  CLRF   x24
330C:  CLRF   x25
330E:  CLRF   x26
3310:  CLRF   x27
3312:  CLRF   x28
3314:  CLRF   x29
3316:  CLRF   x2A
3318:  CLRF   x2B
331A:  CLRF   x2C
331C:  CLRF   x2D
331E:  CLRF   x2E
3320:  CLRF   x2F
3322:  CLRF   x30
3324:  CLRF   x31
3326:  CLRF   x32
3328:  CLRF   x33
332A:  CLRF   x34
332C:  CLRF   x35
332E:  CLRF   x36
3330:  CLRF   x37
3332:  CLRF   x38
3334:  CLRF   x39
3336:  CLRF   x3A
3338:  CLRF   x3B
333A:  CLRF   x3C
333C:  CLRF   x3D
333E:  CLRF   x3E
3340:  CLRF   x3F
3342:  CLRF   x40
3344:  CLRF   x41
3346:  CLRF   x42
3348:  CLRF   x43
334A:  CLRF   x44
334C:  CLRF   x45
334E:  CLRF   x46
3350:  CLRF   x47
3352:  CLRF   x48
3354:  CLRF   x49
3356:  CLRF   x4A
3358:  CLRF   x4B
335A:  CLRF   x4C
335C:  CLRF   x4D
335E:  CLRF   x4E
3360:  CLRF   x4F
3362:  CLRF   x50
3364:  CLRF   x51
3366:  CLRF   x52
3368:  CLRF   x53
336A:  CLRF   x54
336C:  CLRF   x55
336E:  CLRF   x56
3370:  CLRF   x57
3372:  CLRF   x58
3374:  CLRF   x59
3376:  CLRF   x5A
3378:  CLRF   x5B
337A:  CLRF   x5C
337C:  CLRF   x5D
337E:  CLRF   x5E
3380:  CLRF   x5F
3382:  CLRF   x60
3384:  CLRF   x61
3386:  CLRF   x62
3388:  CLRF   x63
338A:  CLRF   x64
338C:  CLRF   x65
338E:  CLRF   x66
3390:  CLRF   x67
3392:  CLRF   x68
3394:  CLRF   x69
3396:  CLRF   x6A
3398:  CLRF   x6B
339A:  CLRF   x6C
339C:  CLRF   x6D
339E:  CLRF   x6E
33A0:  CLRF   x6F
33A2:  CLRF   x70
33A4:  CLRF   x71
33A6:  CLRF   x72
33A8:  CLRF   x73
33AA:  CLRF   x74
33AC:  CLRF   x75
33AE:  CLRF   x76
33B0:  CLRF   x77
33B2:  CLRF   x78
33B4:  CLRF   x79
33B6:  CLRF   x7A
33B8:  CLRF   x7B
33BA:  CLRF   x7C
33BC:  CLRF   x7D
33BE:  CLRF   x7E
33C0:  CLRF   x7F
33C2:  CLRF   x80
33C4:  CLRF   x81
33C6:  CLRF   x82
33C8:  CLRF   x83
33CA:  CLRF   x84
33CC:  CLRF   x85
33CE:  CLRF   x86
33D0:  CLRF   x87
33D2:  CLRF   x88
33D4:  CLRF   x89
33D6:  CLRF   x8A
33D8:  CLRF   x8B
33DA:  CLRF   x8C
33DC:  CLRF   x8D
33DE:  CLRF   x8E
33E0:  CLRF   x8F
33E2:  CLRF   x90
33E4:  CLRF   x91
33E6:  CLRF   x92
33E8:  CLRF   x93
33EA:  CLRF   x94
33EC:  CLRF   x95
33EE:  CLRF   x96
33F0:  CLRF   x97
33F2:  CLRF   x98
33F4:  CLRF   x99
33F6:  CLRF   x9A
33F8:  CLRF   x9B
33FA:  CLRF   x9C
33FC:  CLRF   x9D
33FE:  CLRF   x9E
3400:  CLRF   x9F
3402:  CLRF   xA0
3404:  CLRF   xA1
3406:  CLRF   xA2
3408:  CLRF   xA3
340A:  CLRF   xA4
340C:  CLRF   xA5
340E:  CLRF   xA6
3410:  CLRF   xA7
3412:  CLRF   xA8
3414:  CLRF   xA9
3416:  CLRF   xAA
3418:  CLRF   xAB
341A:  CLRF   xAC
341C:  CLRF   xAD
341E:  CLRF   xAE
3420:  CLRF   xAF
3422:  CLRF   xB0
3424:  CLRF   xB1
3426:  CLRF   xB2
3428:  CLRF   xB3
342A:  CLRF   xB4
342C:  CLRF   xB5
342E:  CLRF   xB6
3430:  CLRF   xB7
3432:  CLRF   xB8
3434:  CLRF   xB9
3436:  CLRF   xBA
3438:  CLRF   xBB
343A:  CLRF   xBC
343C:  CLRF   xBD
343E:  CLRF   xBE
3440:  CLRF   xBF
3442:  CLRF   xC0
3444:  CLRF   xC1
3446:  CLRF   xC2
3448:  CLRF   xC3
344A:  CLRF   xC4
344C:  CLRF   xC5
344E:  CLRF   xC6
3450:  CLRF   xC7
3452:  CLRF   xC8
3454:  CLRF   xC9
3456:  CLRF   xCA
3458:  CLRF   xCB
345A:  CLRF   xCC
345C:  CLRF   xCD
345E:  CLRF   xCE
3460:  CLRF   xCF
3462:  CLRF   xD0
3464:  CLRF   xD1
3466:  CLRF   xD2
3468:  CLRF   xD3
346A:  CLRF   xD4
346C:  CLRF   xD5
346E:  CLRF   xD6
3470:  CLRF   xD7
3472:  CLRF   xD8
3474:  CLRF   xD9
3476:  CLRF   xDA
3478:  CLRF   xDB
347A:  CLRF   xDC
347C:  CLRF   xDD
347E:  CLRF   xDE
3480:  CLRF   xDF
3482:  CLRF   xE0
3484:  CLRF   xE1
3486:  CLRF   xE2
3488:  CLRF   xE3
348A:  CLRF   xE4
348C:  CLRF   xE5
348E:  CLRF   xE6
3490:  CLRF   xE7
3492:  CLRF   xE8
3494:  CLRF   xE9
3496:  CLRF   xEA
3498:  CLRF   xEB
349A:  CLRF   xEC
349C:  CLRF   xED
349E:  CLRF   xEE
34A0:  CLRF   xEF
34A2:  CLRF   xF0
34A4:  CLRF   xF1
34A6:  CLRF   xF2
34A8:  CLRF   xF3
34AA:  CLRF   xF4
34AC:  CLRF   xF5
34AE:  CLRF   xF6
34B0:  CLRF   xF7
34B2:  CLRF   xF8
34B4:  CLRF   xF9
34B6:  CLRF   xFA
34B8:  CLRF   xFB
34BA:  CLRF   xFC
34BC:  CLRF   xFD
34BE:  CLRF   xFE
34C0:  CLRF   xFF
34C2:  MOVLB  5
34C4:  CLRF   x00
34C6:  CLRF   x01
34C8:  CLRF   x02
34CA:  CLRF   x03
34CC:  CLRF   x04
34CE:  CLRF   x05
34D0:  CLRF   x06
34D2:  CLRF   x07
34D4:  CLRF   x08
34D6:  CLRF   x09
34D8:  CLRF   x0A
34DA:  CLRF   x0B
34DC:  CLRF   x0C
34DE:  CLRF   x0D
34E0:  CLRF   x0E
34E2:  CLRF   x0F
34E4:  CLRF   x10
34E6:  CLRF   x11
34E8:  CLRF   x12
34EA:  CLRF   x13
34EC:  CLRF   x14
34EE:  CLRF   x15
34F0:  CLRF   x16
34F2:  CLRF   x17
34F4:  CLRF   x18
34F6:  CLRF   x19
34F8:  CLRF   x1A
34FA:  CLRF   x1B
34FC:  CLRF   x1C
34FE:  CLRF   x1D
3500:  CLRF   x1E
3502:  CLRF   x1F
3504:  CLRF   x20
3506:  CLRF   x21
3508:  CLRF   x22
350A:  CLRF   x23
350C:  CLRF   x24
350E:  CLRF   x25
3510:  CLRF   x26
3512:  CLRF   x27
3514:  CLRF   x28
3516:  CLRF   x29
3518:  CLRF   x2A
351A:  CLRF   x2B
351C:  CLRF   x2C
351E:  CLRF   x2D
3520:  CLRF   x2E
3522:  CLRF   x2F
3524:  CLRF   x30
3526:  CLRF   x31
3528:  CLRF   x32
352A:  CLRF   x33
352C:  CLRF   x34
352E:  CLRF   x35
3530:  CLRF   x36
3532:  CLRF   x37
3534:  CLRF   x38
3536:  CLRF   x39
3538:  CLRF   x3A
353A:  CLRF   x3B
353C:  CLRF   x3C
353E:  CLRF   x3D
3540:  CLRF   x3E
3542:  CLRF   x3F
3544:  CLRF   x40
3546:  CLRF   x41
3548:  CLRF   x42
354A:  CLRF   x43
354C:  CLRF   x44
354E:  CLRF   x45
3550:  CLRF   x46
3552:  CLRF   x47
3554:  CLRF   x48
3556:  CLRF   x49
3558:  CLRF   x4A
355A:  CLRF   x4B
355C:  CLRF   x4C
355E:  CLRF   x4D
3560:  CLRF   x4E
3562:  CLRF   x4F
3564:  CLRF   x50
3566:  CLRF   x51
3568:  CLRF   x52
356A:  CLRF   x53
356C:  CLRF   x54
356E:  CLRF   x55
3570:  CLRF   x56
3572:  CLRF   x57
3574:  CLRF   x58
3576:  CLRF   x59
3578:  CLRF   x5A
357A:  CLRF   x5B
357C:  CLRF   x5C
357E:  CLRF   x5D
3580:  CLRF   x8E
3582:  CLRF   x8F
3584:  CLRF   x90
3586:  CLRF   x91
3588:  CLRF   x92
358A:  CLRF   x93
358C:  CLRF   x94
358E:  CLRF   x95
3590:  CLRF   x96
3592:  CLRF   x97
3594:  CLRF   x98
3596:  CLRF   x99
3598:  CLRF   x9A
359A:  CLRF   x9B
359C:  CLRF   x9C
359E:  CLRF   x9D
35A0:  MOVLB  6
35A2:  CLRF   x0C
35A4:  CLRF   x0D
....................    delay_ms(1000);    
35A6:  MOVLW  04
35A8:  MOVWF  x0E
35AA:  MOVLW  FA
35AC:  MOVWF  x14
35AE:  MOVLB  0
35B0:  CALL   0D28
35B4:  MOVLB  6
35B6:  DECFSZ x0E,F
35B8:  BRA    35AA
....................    Resistencia_off;Peltier_off;Buzzer_off; 
35BA:  BCF    F8B.0
35BC:  BCF    F94.0
35BE:  BCF    F8B.2
35C0:  BCF    F94.2
35C2:  BCF    F8B.1
35C4:  BCF    F94.1
....................    setup_timer_1(T1_INTERNAL|T1_DIV_BY_1); 
35C6:  MOVLW  85
35C8:  MOVWF  FCD
....................    enable_interrupts(INT_TIMER1); 
35CA:  BSF    F9D.0
....................    setup_adc_ports(AN0); 
35CC:  MOVF   FC1,W
35CE:  ANDLW  C0
35D0:  IORLW  0E
35D2:  MOVWF  FC1
....................    setup_adc(ADC_CLOCK_DIV_64); 
35D4:  BCF    FC0.0
35D6:  BSF    FC0.1
35D8:  BSF    FC0.2
35DA:  BSF    FC0.7
35DC:  BSF    FC2.0
....................    /*setup_ccp1 (CCP_PWM); 
....................    setup_timer_2(T2_DIV_BY_4, 255, 1);    
....................    set_pwm1_duty(0);*/ 
....................    enable_interrupts(global); 
35DE:  MOVLW  C0
35E0:  IORWF  FF2,F
....................    Testerilizacionp[0]=read_eeprom(0); 
35E2:  MOVFF  FF2,60E
35E6:  BCF    FF2.7
35E8:  CLRF   FA9
35EA:  BCF    FA6.6
35EC:  BCF    FA6.7
35EE:  BSF    FA6.0
35F0:  MOVF   FA8,W
35F2:  BTFSC  x0E.7
35F4:  BSF    FF2.7
35F6:  MOVLB  5
35F8:  MOVWF  x92
....................    delay_ms(50);    
35FA:  MOVLW  32
35FC:  MOVLB  6
35FE:  MOVWF  x14
3600:  MOVLB  0
3602:  CALL   0D28
....................    Testerilizacionp[1]=read_eeprom(1); 
3606:  MOVFF  FF2,60E
360A:  BCF    FF2.7
360C:  MOVLW  01
360E:  MOVWF  FA9
3610:  BCF    FA6.6
3612:  BCF    FA6.7
3614:  BSF    FA6.0
3616:  MOVF   FA8,W
3618:  MOVLB  6
361A:  BTFSC  x0E.7
361C:  BSF    FF2.7
361E:  MOVLB  5
3620:  MOVWF  x93
....................    delay_ms(50);    
3622:  MOVLW  32
3624:  MOVLB  6
3626:  MOVWF  x14
3628:  MOVLB  0
362A:  CALL   0D28
....................    Testerilizacionp[2]=read_eeprom(2); 
362E:  MOVFF  FF2,60E
3632:  BCF    FF2.7
3634:  MOVLW  02
3636:  MOVWF  FA9
3638:  BCF    FA6.6
363A:  BCF    FA6.7
363C:  BSF    FA6.0
363E:  MOVF   FA8,W
3640:  MOVLB  6
3642:  BTFSC  x0E.7
3644:  BSF    FF2.7
3646:  MOVLB  5
3648:  MOVWF  x94
....................    delay_ms(50); 
364A:  MOVLW  32
364C:  MOVLB  6
364E:  MOVWF  x14
3650:  MOVLB  0
3652:  CALL   0D28
....................    Testerilizacionp[3]=read_eeprom(3); 
3656:  MOVFF  FF2,60E
365A:  BCF    FF2.7
365C:  MOVLW  03
365E:  MOVWF  FA9
3660:  BCF    FA6.6
3662:  BCF    FA6.7
3664:  BSF    FA6.0
3666:  MOVF   FA8,W
3668:  MOVLB  6
366A:  BTFSC  x0E.7
366C:  BSF    FF2.7
366E:  MOVLB  5
3670:  MOVWF  x95
....................    delay_ms(50);    
3672:  MOVLW  32
3674:  MOVLB  6
3676:  MOVWF  x14
3678:  MOVLB  0
367A:  CALL   0D28
....................    Setpoint=make16(read_eeprom(81),read_eeprom(80)); 
367E:  MOVFF  FF2,60E
3682:  BCF    FF2.7
3684:  MOVLW  51
3686:  MOVWF  FA9
3688:  BCF    FA6.6
368A:  BCF    FA6.7
368C:  BSF    FA6.0
368E:  MOVF   FA8,W
3690:  MOVLB  6
3692:  BTFSC  x0E.7
3694:  BSF    FF2.7
3696:  MOVWF  x0F
3698:  MOVFF  FF2,610
369C:  BCF    FF2.7
369E:  MOVLW  50
36A0:  MOVWF  FA9
36A2:  BCF    FA6.6
36A4:  BCF    FA6.7
36A6:  BSF    FA6.0
36A8:  MOVF   FA8,W
36AA:  BTFSC  x10.7
36AC:  BSF    FF2.7
36AE:  MOVWF  x11
36B0:  MOVFF  60F,581
36B4:  MOVFF  611,580
....................    delay_ms(50);    
36B8:  MOVLW  32
36BA:  MOVWF  x14
36BC:  MOVLB  0
36BE:  CALL   0D28
....................    Password[0]=read_eeprom(10); 
36C2:  MOVFF  FF2,60E
36C6:  BCF    FF2.7
36C8:  MOVLW  0A
36CA:  MOVWF  FA9
36CC:  BCF    FA6.6
36CE:  BCF    FA6.7
36D0:  BSF    FA6.0
36D2:  MOVF   FA8,W
36D4:  MOVLB  6
36D6:  BTFSC  x0E.7
36D8:  BSF    FF2.7
36DA:  MOVLB  5
36DC:  MOVWF  x9A
....................    delay_ms(50);    
36DE:  MOVLW  32
36E0:  MOVLB  6
36E2:  MOVWF  x14
36E4:  MOVLB  0
36E6:  CALL   0D28
....................    Password[1]=read_eeprom(11); 
36EA:  MOVFF  FF2,60E
36EE:  BCF    FF2.7
36F0:  MOVLW  0B
36F2:  MOVWF  FA9
36F4:  BCF    FA6.6
36F6:  BCF    FA6.7
36F8:  BSF    FA6.0
36FA:  MOVF   FA8,W
36FC:  MOVLB  6
36FE:  BTFSC  x0E.7
3700:  BSF    FF2.7
3702:  MOVLB  5
3704:  MOVWF  x9B
....................    delay_ms(50);    
3706:  MOVLW  32
3708:  MOVLB  6
370A:  MOVWF  x14
370C:  MOVLB  0
370E:  CALL   0D28
....................    Password[2]=read_eeprom(12); 
3712:  MOVFF  FF2,60E
3716:  BCF    FF2.7
3718:  MOVLW  0C
371A:  MOVWF  FA9
371C:  BCF    FA6.6
371E:  BCF    FA6.7
3720:  BSF    FA6.0
3722:  MOVF   FA8,W
3724:  MOVLB  6
3726:  BTFSC  x0E.7
3728:  BSF    FF2.7
372A:  MOVLB  5
372C:  MOVWF  x9C
....................    delay_ms(50);    
372E:  MOVLW  32
3730:  MOVLB  6
3732:  MOVWF  x14
3734:  MOVLB  0
3736:  CALL   0D28
....................    Password[3]=read_eeprom(13); 
373A:  MOVFF  FF2,60E
373E:  BCF    FF2.7
3740:  MOVLW  0D
3742:  MOVWF  FA9
3744:  BCF    FA6.6
3746:  BCF    FA6.7
3748:  BSF    FA6.0
374A:  MOVF   FA8,W
374C:  MOVLB  6
374E:  BTFSC  x0E.7
3750:  BSF    FF2.7
3752:  MOVLB  5
3754:  MOVWF  x9D
....................    delay_ms(50);    
3756:  MOVLW  32
3758:  MOVLB  6
375A:  MOVWF  x14
375C:  MOVLB  0
375E:  CALL   0D28
....................    Ganancia=read_eeprom(90); 
3762:  MOVFF  FF2,60E
3766:  BCF    FF2.7
3768:  MOVLW  5A
376A:  MOVWF  FA9
376C:  BCF    FA6.6
376E:  BCF    FA6.7
3770:  BSF    FA6.0
3772:  MOVF   FA8,W
3774:  MOVLB  6
3776:  BTFSC  x0E.7
3778:  BSF    FF2.7
377A:  CLRF   x15
377C:  MOVWF  x14
377E:  MOVLB  0
3780:  CALL   0D52
3784:  MOVFF  03,5C5
3788:  MOVFF  02,5C4
378C:  MOVFF  01,5C3
3790:  MOVFF  00,5C2
....................    delay_ms(50);    
3794:  MOVLW  32
3796:  MOVLB  6
3798:  MOVWF  x14
379A:  MOVLB  0
379C:  CALL   0D28
....................    Tciclo=read_eeprom(30); 
37A0:  MOVFF  FF2,60E
37A4:  BCF    FF2.7
37A6:  MOVLW  1E
37A8:  MOVWF  FA9
37AA:  BCF    FA6.6
37AC:  BCF    FA6.7
37AE:  BSF    FA6.0
37B0:  MOVF   FA8,W
37B2:  MOVLB  6
37B4:  BTFSC  x0E.7
37B6:  BSF    FF2.7
37B8:  CLRF   x15
37BA:  MOVWF  x14
37BC:  MOVLB  0
37BE:  CALL   0D52
37C2:  MOVFF  03,5AD
37C6:  MOVFF  02,5AC
37CA:  MOVFF  01,5AB
37CE:  MOVFF  00,5AA
....................    delay_ms(50);    
37D2:  MOVLW  32
37D4:  MOVLB  6
37D6:  MOVWF  x14
37D8:  MOVLB  0
37DA:  CALL   0D28
....................    Ajuste=read_eeprom(40); 
37DE:  MOVFF  FF2,60E
37E2:  BCF    FF2.7
37E4:  MOVLW  28
37E6:  MOVWF  FA9
37E8:  BCF    FA6.6
37EA:  BCF    FA6.7
37EC:  BSF    FA6.0
37EE:  MOVF   FA8,W
37F0:  MOVLB  6
37F2:  BTFSC  x0E.7
37F4:  BSF    FF2.7
37F6:  MOVLB  5
37F8:  MOVWF  x60
....................    delay_ms(50);    
37FA:  MOVLW  32
37FC:  MOVLB  6
37FE:  MOVWF  x14
3800:  MOVLB  0
3802:  CALL   0D28
....................    Ajusten=read_eeprom(50); 
3806:  MOVFF  FF2,60E
380A:  BCF    FF2.7
380C:  MOVLW  32
380E:  MOVWF  FA9
3810:  BCF    FA6.6
3812:  BCF    FA6.7
3814:  BSF    FA6.0
3816:  MOVF   FA8,W
3818:  MOVLB  6
381A:  BTFSC  x0E.7
381C:  BSF    FF2.7
381E:  MOVLB  5
3820:  MOVWF  x61
....................    delay_ms(50);    
3822:  MOVLW  32
3824:  MOVLB  6
3826:  MOVWF  x14
3828:  MOVLB  0
382A:  CALL   0D28
....................    MediaMovil=read_eeprom(60); 
382E:  MOVFF  FF2,60E
3832:  BCF    FF2.7
3834:  MOVLW  3C
3836:  MOVWF  FA9
3838:  BCF    FA6.6
383A:  BCF    FA6.7
383C:  BSF    FA6.0
383E:  MOVF   FA8,W
3840:  MOVLB  6
3842:  BTFSC  x0E.7
3844:  BSF    FF2.7
3846:  MOVLB  5
3848:  MOVWF  x62
....................    delay_ms(50);    
384A:  MOVLW  32
384C:  MOVLB  6
384E:  MOVWF  x14
3850:  MOVLB  0
3852:  CALL   0D28
....................    Coeficiente=read_eeprom(70); 
3856:  MOVFF  FF2,60E
385A:  BCF    FF2.7
385C:  MOVLW  46
385E:  MOVWF  FA9
3860:  BCF    FA6.6
3862:  BCF    FA6.7
3864:  BSF    FA6.0
3866:  MOVF   FA8,W
3868:  MOVLB  6
386A:  BTFSC  x0E.7
386C:  BSF    FF2.7
386E:  CLRF   x15
3870:  MOVWF  x14
3872:  MOVLB  0
3874:  CALL   0D52
3878:  MOVFF  03,5D1
387C:  MOVFF  02,5D0
3880:  MOVFF  01,5CF
3884:  MOVFF  00,5CE
....................    delay_ms(50);    
3888:  MOVLW  32
388A:  MOVLB  6
388C:  MOVWF  x14
388E:  MOVLB  0
3890:  CALL   0D28
....................    Saturacion=read_eeprom(100); 
3894:  MOVFF  FF2,60E
3898:  BCF    FF2.7
389A:  MOVLW  64
389C:  MOVWF  FA9
389E:  BCF    FA6.6
38A0:  BCF    FA6.7
38A2:  BSF    FA6.0
38A4:  MOVF   FA8,W
38A6:  MOVLB  6
38A8:  BTFSC  x0E.7
38AA:  BSF    FF2.7
38AC:  CLRF   x15
38AE:  MOVWF  x14
38B0:  MOVLB  0
38B2:  CALL   0D52
38B6:  MOVFF  03,5DD
38BA:  MOVFF  02,5DC
38BE:  MOVFF  01,5DB
38C2:  MOVFF  00,5DA
....................     
....................    if(Ganancia>10.0) 
38C6:  MOVLB  6
38C8:  CLRF   x11
38CA:  CLRF   x10
38CC:  MOVLW  20
38CE:  MOVWF  x0F
38D0:  MOVLW  82
38D2:  MOVWF  x0E
38D4:  MOVFF  5C5,615
38D8:  MOVFF  5C4,614
38DC:  MOVFF  5C3,613
38E0:  MOVFF  5C2,612
38E4:  MOVLB  0
38E6:  CALL   0D88
38EA:  BNC   38F8
....................    { 
....................       Ganancia=2.0; 
38EC:  MOVLB  5
38EE:  CLRF   xC5
38F0:  CLRF   xC4
38F2:  CLRF   xC3
38F4:  MOVLW  80
38F6:  MOVWF  xC2
....................    } 
....................     
....................    glcd_init(ON);             //Inicializa la glcd 
38F8:  MOVLW  01
38FA:  MOVLB  6
38FC:  MOVWF  x0E
38FE:  MOVLB  0
3900:  CALL   0F54
....................    glcd_fillScreen(OFF);      //Limpia la pantalla 
3904:  MOVLB  6
3906:  CLRF   x0F
3908:  MOVLB  0
390A:  CALL   0E42
....................    strcpy(Menus.Letra,"JP Inglobal"); 
390E:  MOVLW  05
3910:  MOVWF  FEA
3912:  MOVLW  EE
3914:  MOVWF  FE9
3916:  MOVFF  FF2,60E
391A:  BCF    FF2.7
391C:  MOVLW  00
391E:  CALL   06BE
3922:  TBLRD*-
3924:  TBLRD*+
3926:  MOVF   FF5,W
3928:  MOVWF  FEE
392A:  IORLW  00
392C:  BNZ   3924
392E:  MOVLB  6
3930:  BTFSC  x0E.7
3932:  BSF    FF2.7
....................    displayMenu(Menus.Letra,0,0,0,2);      
3934:  MOVLW  05
3936:  MOVWF  x0F
3938:  MOVLW  EE
393A:  MOVWF  x0E
393C:  CLRF   x10
393E:  CLRF   x11
3940:  CLRF   x12
3942:  MOVLW  02
3944:  MOVWF  x13
3946:  MOVLB  0
3948:  CALL   1470
....................    strcpy(Menus.Letra,"    Incubadora"); 
394C:  MOVLW  05
394E:  MOVWF  FEA
3950:  MOVLW  EE
3952:  MOVWF  FE9
3954:  MOVFF  FF2,60E
3958:  BCF    FF2.7
395A:  MOVLW  00
395C:  CALL   06E4
3960:  TBLRD*-
3962:  TBLRD*+
3964:  MOVF   FF5,W
3966:  MOVWF  FEE
3968:  IORLW  00
396A:  BNZ   3962
396C:  MOVLB  6
396E:  BTFSC  x0E.7
3970:  BSF    FF2.7
....................    displayMenu(Menus.Letra,0,20,0,1);        
3972:  MOVLW  05
3974:  MOVWF  x0F
3976:  MOVLW  EE
3978:  MOVWF  x0E
397A:  CLRF   x10
397C:  MOVLW  14
397E:  MOVWF  x11
3980:  CLRF   x12
3982:  MOVLW  01
3984:  MOVWF  x13
3986:  MOVLB  0
3988:  CALL   1470
....................    strcpy(Menus.Letra,"    Refrigerada"); 
398C:  MOVLW  05
398E:  MOVWF  FEA
3990:  MOVLW  EE
3992:  MOVWF  FE9
3994:  MOVFF  FF2,60E
3998:  BCF    FF2.7
399A:  MOVLW  00
399C:  CALL   070E
39A0:  TBLRD*-
39A2:  TBLRD*+
39A4:  MOVF   FF5,W
39A6:  MOVWF  FEE
39A8:  IORLW  00
39AA:  BNZ   39A2
39AC:  MOVLB  6
39AE:  BTFSC  x0E.7
39B0:  BSF    FF2.7
....................    displayMenu(Menus.Letra,0,30,0,1); 
39B2:  MOVLW  05
39B4:  MOVWF  x0F
39B6:  MOVLW  EE
39B8:  MOVWF  x0E
39BA:  CLRF   x10
39BC:  MOVLW  1E
39BE:  MOVWF  x11
39C0:  CLRF   x12
39C2:  MOVLW  01
39C4:  MOVWF  x13
39C6:  MOVLB  0
39C8:  CALL   1470
....................    strcpy(Menus.Letra,"   22 Lts"); 
39CC:  MOVLW  05
39CE:  MOVWF  FEA
39D0:  MOVLW  EE
39D2:  MOVWF  FE9
39D4:  MOVFF  FF2,60E
39D8:  BCF    FF2.7
39DA:  MOVLW  00
39DC:  CALL   0738
39E0:  TBLRD*-
39E2:  TBLRD*+
39E4:  MOVF   FF5,W
39E6:  MOVWF  FEE
39E8:  IORLW  00
39EA:  BNZ   39E2
39EC:  MOVLB  6
39EE:  BTFSC  x0E.7
39F0:  BSF    FF2.7
....................    displayMenu(Menus.Letra,0,45,0,2); 
39F2:  MOVLW  05
39F4:  MOVWF  x0F
39F6:  MOVLW  EE
39F8:  MOVWF  x0E
39FA:  CLRF   x10
39FC:  MOVLW  2D
39FE:  MOVWF  x11
3A00:  CLRF   x12
3A02:  MOVLW  02
3A04:  MOVWF  x13
3A06:  MOVLB  0
3A08:  CALL   1470
....................    delay_ms(1000); 
3A0C:  MOVLW  04
3A0E:  MOVLB  6
3A10:  MOVWF  x0E
3A12:  MOVLW  FA
3A14:  MOVWF  x14
3A16:  MOVLB  0
3A18:  CALL   0D28
3A1C:  MOVLB  6
3A1E:  DECFSZ x0E,F
3A20:  BRA    3A12
....................     
....................    glcd_fillScreen(OFF);      //Limpia la pantalla 
3A22:  CLRF   x0F
3A24:  MOVLB  0
3A26:  CALL   0E42
....................    displayContrasena(Contrasena[0],20,30,1); 
3A2A:  MOVFF  596,610
3A2E:  MOVLW  14
3A30:  MOVLB  6
3A32:  MOVWF  x11
3A34:  MOVLW  1E
3A36:  MOVWF  x12
3A38:  MOVLW  01
3A3A:  MOVWF  x13
3A3C:  MOVLB  0
3A3E:  CALL   1696
....................    displayContrasena(Contrasena[1],40,30,0); 
3A42:  MOVFF  597,610
3A46:  MOVLW  28
3A48:  MOVLB  6
3A4A:  MOVWF  x11
3A4C:  MOVLW  1E
3A4E:  MOVWF  x12
3A50:  CLRF   x13
3A52:  MOVLB  0
3A54:  CALL   1696
....................    displayContrasena(Contrasena[2],60,30,0); 
3A58:  MOVFF  598,610
3A5C:  MOVLW  3C
3A5E:  MOVLB  6
3A60:  MOVWF  x11
3A62:  MOVLW  1E
3A64:  MOVWF  x12
3A66:  CLRF   x13
3A68:  MOVLB  0
3A6A:  CALL   1696
....................    displayContrasena(Contrasena[3],80,30,0); 
3A6E:  MOVFF  599,610
3A72:  MOVLW  50
3A74:  MOVLB  6
3A76:  MOVWF  x11
3A78:  MOVLW  1E
3A7A:  MOVWF  x12
3A7C:  CLRF   x13
3A7E:  MOVLB  0
3A80:  CALL   1696
....................     
....................    for(i=0;i<80;i++) 
3A84:  MOVLB  5
3A86:  CLRF   x6D
3A88:  MOVF   x6D,W
3A8A:  SUBLW  4F
3A8C:  BNC   3AAE
....................    { 
....................       Temperatura=Leer_Sensor(MediaMovil); 
3A8E:  MOVFF  562,60E
3A92:  MOVLB  0
3A94:  CALL   1C94
3A98:  MOVFF  03,5D9
3A9C:  MOVFF  02,5D8
3AA0:  MOVFF  01,5D7
3AA4:  MOVFF  00,5D6
....................    } 
3AA8:  MOVLB  5
3AAA:  INCF   x6D,F
3AAC:  BRA    3A88
....................     
....................    while(true) 
....................    { 
....................     
....................       if(UP && DOWN && RIGHT && LEFT) 
3AAE:  BSF    F92.5
3AB0:  BTFSS  F80.5
3AB2:  BRA    3B44
3AB4:  BSF    F96.0
3AB6:  BTFSS  F84.0
3AB8:  BRA    3B44
3ABA:  BSF    F96.1
3ABC:  BTFSS  F84.1
3ABE:  BRA    3B44
3AC0:  BSF    F96.2
3AC2:  BTFSS  F84.2
3AC4:  BRA    3B44
....................       { 
....................          delay_ms(500); 
3AC6:  MOVLW  02
3AC8:  MOVLB  6
3ACA:  MOVWF  x0E
3ACC:  MOVLW  FA
3ACE:  MOVWF  x14
3AD0:  MOVLB  0
3AD2:  CALL   0D28
3AD6:  MOVLB  6
3AD8:  DECFSZ x0E,F
3ADA:  BRA    3ACC
....................          strcpy(Menus.Letra,"Cargando.."); 
3ADC:  MOVLW  05
3ADE:  MOVWF  FEA
3AE0:  MOVLW  EE
3AE2:  MOVWF  FE9
3AE4:  MOVFF  FF2,60E
3AE8:  BCF    FF2.7
3AEA:  MOVLW  00
3AEC:  MOVLB  0
3AEE:  CALL   075C
3AF2:  TBLRD*-
3AF4:  TBLRD*+
3AF6:  MOVF   FF5,W
3AF8:  MOVWF  FEE
3AFA:  IORLW  00
3AFC:  BNZ   3AF4
3AFE:  MOVLB  6
3B00:  BTFSC  x0E.7
3B02:  BSF    FF2.7
....................          displayMenu(Menus.Letra,0,30,1,1); 
3B04:  MOVLW  05
3B06:  MOVWF  x0F
3B08:  MOVLW  EE
3B0A:  MOVWF  x0E
3B0C:  CLRF   x10
3B0E:  MOVLW  1E
3B10:  MOVWF  x11
3B12:  MOVLW  01
3B14:  MOVWF  x12
3B16:  MOVWF  x13
3B18:  MOVLB  0
3B1A:  CALL   1470
....................          delay_ms(2000); 
3B1E:  MOVLW  08
3B20:  MOVLB  6
3B22:  MOVWF  x0E
3B24:  MOVLW  FA
3B26:  MOVWF  x14
3B28:  MOVLB  0
3B2A:  CALL   0D28
3B2E:  MOVLB  6
3B30:  DECFSZ x0E,F
3B32:  BRA    3B24
....................          Menu=100; 
3B34:  MOVLW  64
3B36:  MOVLB  5
3B38:  MOVWF  x6B
....................          glcd_fillScreen(OFF); 
3B3A:  MOVLB  6
3B3C:  CLRF   x0F
3B3E:  MOVLB  0
3B40:  CALL   0E42
....................       } 
....................     
....................       glcd_update();             
3B44:  MOVLB  0
3B46:  CALL   0E9C
.................... //_-------------------------------------------------------------------------------------------------------------------------------------------------------- 
....................       if(Menu==0){ //Menu de Contrasea. 
3B4A:  MOVLB  5
3B4C:  MOVF   x6B,F
3B4E:  BTFSS  FD8.2
3B50:  BRA    40E6
....................        
....................       strcpy(Menus.Letra,"Clave"); 
3B52:  MOVLW  05
3B54:  MOVWF  FEA
3B56:  MOVLW  EE
3B58:  MOVWF  FE9
3B5A:  MOVFF  FF2,60E
3B5E:  BCF    FF2.7
3B60:  MOVLW  00
3B62:  MOVLB  0
3B64:  CALL   0782
3B68:  TBLRD*-
3B6A:  TBLRD*+
3B6C:  MOVF   FF5,W
3B6E:  MOVWF  FEE
3B70:  IORLW  00
3B72:  BNZ   3B6A
3B74:  MOVLB  6
3B76:  BTFSC  x0E.7
3B78:  BSF    FF2.7
....................       displayMenu(Menus.Letra,30,0,1,2);      
3B7A:  MOVLW  05
3B7C:  MOVWF  x0F
3B7E:  MOVLW  EE
3B80:  MOVWF  x0E
3B82:  MOVLW  1E
3B84:  MOVWF  x10
3B86:  CLRF   x11
3B88:  MOVLW  01
3B8A:  MOVWF  x12
3B8C:  MOVLW  02
3B8E:  MOVWF  x13
3B90:  MOVLB  0
3B92:  CALL   1470
....................        
....................        
....................        
....................       if(UP)//Si oprime hacia arriba 
3B96:  BSF    F92.5
3B98:  BTFSS  F80.5
3B9A:  BRA    3C72
....................       { 
....................          if(Flanco == 0) 
3B9C:  MOVLB  5
3B9E:  BTFSC  x66.0
3BA0:  BRA    3C70
....................          { 
....................             Flanco = 1;delay_ms(30); 
3BA2:  BSF    x66.0
3BA4:  MOVLW  1E
3BA6:  MOVLB  6
3BA8:  MOVWF  x14
3BAA:  MOVLB  0
3BAC:  CALL   0D28
....................             for(i=1;i<=4;i++) 
3BB0:  MOVLW  01
3BB2:  MOVLB  5
3BB4:  MOVWF  x6D
3BB6:  MOVF   x6D,W
3BB8:  SUBLW  04
3BBA:  BNC   3C70
....................             { 
....................                if(unidad==i) 
3BBC:  MOVF   x6D,W
3BBE:  SUBWF  x6C,W
3BC0:  BNZ   3C38
....................                { 
....................                   Contrasena[i-1]++; 
3BC2:  MOVLW  01
3BC4:  SUBWF  x6D,W
3BC6:  CLRF   03
3BC8:  ADDLW  96
3BCA:  MOVWF  FE9
3BCC:  MOVLW  05
3BCE:  ADDWFC 03,W
3BD0:  MOVWF  FEA
3BD2:  INCF   FEF,F
....................                   if(Contrasena[i-1]>9)    
3BD4:  MOVLW  01
3BD6:  SUBWF  x6D,W
3BD8:  CLRF   03
3BDA:  ADDLW  96
3BDC:  MOVWF  FE9
3BDE:  MOVLW  05
3BE0:  ADDWFC 03,W
3BE2:  MOVWF  FEA
3BE4:  BTFSC  FEF.7
3BE6:  BRA    3C00
3BE8:  MOVF   FEF,W
3BEA:  SUBLW  09
3BEC:  BC    3C00
....................                   { 
....................                      Contrasena[i-1]=0; 
3BEE:  MOVLW  01
3BF0:  SUBWF  x6D,W
3BF2:  CLRF   03
3BF4:  ADDLW  96
3BF6:  MOVWF  FE9
3BF8:  MOVLW  05
3BFA:  ADDWFC 03,W
3BFC:  MOVWF  FEA
3BFE:  CLRF   FEF
....................                   } 
....................                   displayContrasena(Contrasena[i-1],i*20,30,1); 
3C00:  MOVLW  01
3C02:  SUBWF  x6D,W
3C04:  CLRF   03
3C06:  ADDLW  96
3C08:  MOVWF  FE9
3C0A:  MOVLW  05
3C0C:  ADDWFC 03,W
3C0E:  MOVWF  FEA
3C10:  MOVFF  FEF,60E
3C14:  MOVF   x6D,W
3C16:  MULLW  14
3C18:  MOVFF  FF3,60F
3C1C:  MOVLB  6
3C1E:  MOVFF  60E,610
3C22:  MOVFF  60F,611
3C26:  MOVLW  1E
3C28:  MOVWF  x12
3C2A:  MOVLW  01
3C2C:  MOVWF  x13
3C2E:  MOVLB  0
3C30:  CALL   1696
....................                } 
....................                else 
3C34:  BRA    3C6A
3C36:  MOVLB  5
....................                { 
....................                   displayContrasena(Contrasena[i-1],i*20,30,0); 
3C38:  MOVLW  01
3C3A:  SUBWF  x6D,W
3C3C:  CLRF   03
3C3E:  ADDLW  96
3C40:  MOVWF  FE9
3C42:  MOVLW  05
3C44:  ADDWFC 03,W
3C46:  MOVWF  FEA
3C48:  MOVFF  FEF,60E
3C4C:  MOVF   x6D,W
3C4E:  MULLW  14
3C50:  MOVFF  FF3,60F
3C54:  MOVLB  6
3C56:  MOVFF  60E,610
3C5A:  MOVFF  60F,611
3C5E:  MOVLW  1E
3C60:  MOVWF  x12
3C62:  CLRF   x13
3C64:  MOVLB  0
3C66:  CALL   1696
....................                } 
....................             } 
3C6A:  MOVLB  5
3C6C:  INCF   x6D,F
3C6E:  BRA    3BB6
....................          } 
....................       } 
....................          else 
3C70:  BRA    3C76
....................             {Flanco = 0;} 
3C72:  MOVLB  5
3C74:  BCF    x66.0
....................              
....................       if(DOWN)//Si oprime hacia abajo 
3C76:  BSF    F96.0
3C78:  BTFSS  F84.0
3C7A:  BRA    3D4E
....................       { 
....................          if(Flanco2 == 0) 
3C7C:  BTFSC  x66.2
3C7E:  BRA    3D4C
....................             {Flanco2 = 1;delay_ms(30); 
3C80:  BSF    x66.2
3C82:  MOVLW  1E
3C84:  MOVLB  6
3C86:  MOVWF  x14
3C88:  MOVLB  0
3C8A:  CALL   0D28
....................                for(i=1;i<=4;i++) 
3C8E:  MOVLW  01
3C90:  MOVLB  5
3C92:  MOVWF  x6D
3C94:  MOVF   x6D,W
3C96:  SUBLW  04
3C98:  BNC   3D4C
....................                { 
....................                   if(unidad==i) 
3C9A:  MOVF   x6D,W
3C9C:  SUBWF  x6C,W
3C9E:  BNZ   3D14
....................                   {Contrasena[i-1]--;  
3CA0:  MOVLW  01
3CA2:  SUBWF  x6D,W
3CA4:  CLRF   03
3CA6:  ADDLW  96
3CA8:  MOVWF  FE9
3CAA:  MOVLW  05
3CAC:  ADDWFC 03,W
3CAE:  MOVWF  FEA
3CB0:  DECF   FEF,F
....................                      if(Contrasena[i-1]<0) 
3CB2:  MOVLW  01
3CB4:  SUBWF  x6D,W
3CB6:  CLRF   03
3CB8:  ADDLW  96
3CBA:  MOVWF  FE9
3CBC:  MOVLW  05
3CBE:  ADDWFC 03,W
3CC0:  MOVWF  FEA
3CC2:  BTFSC  FEF.7
3CC4:  BRA    3CC8
3CC6:  BRA    3CDC
....................                         {Contrasena[i-1]=9;} 
3CC8:  MOVLW  01
3CCA:  SUBWF  x6D,W
3CCC:  CLRF   03
3CCE:  ADDLW  96
3CD0:  MOVWF  FE9
3CD2:  MOVLW  05
3CD4:  ADDWFC 03,W
3CD6:  MOVWF  FEA
3CD8:  MOVLW  09
3CDA:  MOVWF  FEF
....................                    displayContrasena(Contrasena[i-1],i*20,30,1);} 
3CDC:  MOVLW  01
3CDE:  SUBWF  x6D,W
3CE0:  CLRF   03
3CE2:  ADDLW  96
3CE4:  MOVWF  FE9
3CE6:  MOVLW  05
3CE8:  ADDWFC 03,W
3CEA:  MOVWF  FEA
3CEC:  MOVFF  FEF,60E
3CF0:  MOVF   x6D,W
3CF2:  MULLW  14
3CF4:  MOVFF  FF3,60F
3CF8:  MOVLB  6
3CFA:  MOVFF  60E,610
3CFE:  MOVFF  60F,611
3D02:  MOVLW  1E
3D04:  MOVWF  x12
3D06:  MOVLW  01
3D08:  MOVWF  x13
3D0A:  MOVLB  0
3D0C:  CALL   1696
....................                   else 
3D10:  BRA    3D46
3D12:  MOVLB  5
....................                   {displayContrasena(Contrasena[i-1],i*20,30,0);} 
3D14:  MOVLW  01
3D16:  SUBWF  x6D,W
3D18:  CLRF   03
3D1A:  ADDLW  96
3D1C:  MOVWF  FE9
3D1E:  MOVLW  05
3D20:  ADDWFC 03,W
3D22:  MOVWF  FEA
3D24:  MOVFF  FEF,60E
3D28:  MOVF   x6D,W
3D2A:  MULLW  14
3D2C:  MOVFF  FF3,60F
3D30:  MOVLB  6
3D32:  MOVFF  60E,610
3D36:  MOVFF  60F,611
3D3A:  MOVLW  1E
3D3C:  MOVWF  x12
3D3E:  CLRF   x13
3D40:  MOVLB  0
3D42:  CALL   1696
....................                }       
3D46:  MOVLB  5
3D48:  INCF   x6D,F
3D4A:  BRA    3C94
....................             }      
....................       } 
....................          else 
3D4C:  BRA    3D50
....................             {Flanco2 = 0;}   
3D4E:  BCF    x66.2
....................              
....................       if(RIGHT)//Si oprime RIGHT 
3D50:  BSF    F96.1
3D52:  BTFSS  F84.1
3D54:  BRA    3DEE
....................       { 
....................          if(Flanco1 == 0) 
3D56:  BTFSC  x66.1
3D58:  BRA    3DEC
....................             {Flanco1 = 1;delay_ms(30);unidad++; 
3D5A:  BSF    x66.1
3D5C:  MOVLW  1E
3D5E:  MOVLB  6
3D60:  MOVWF  x14
3D62:  MOVLB  0
3D64:  CALL   0D28
3D68:  MOVLB  5
3D6A:  INCF   x6C,F
....................                for(i=1;i<=4;i++) 
3D6C:  MOVLW  01
3D6E:  MOVWF  x6D
3D70:  MOVF   x6D,W
3D72:  SUBLW  04
3D74:  BNC   3DEC
....................                { 
....................                   if(unidad==i) 
3D76:  MOVF   x6D,W
3D78:  SUBWF  x6C,W
3D7A:  BNZ   3DB4
....................                   {displayContrasena(Contrasena[i-1],i*20,30,1);} 
3D7C:  MOVLW  01
3D7E:  SUBWF  x6D,W
3D80:  CLRF   03
3D82:  ADDLW  96
3D84:  MOVWF  FE9
3D86:  MOVLW  05
3D88:  ADDWFC 03,W
3D8A:  MOVWF  FEA
3D8C:  MOVFF  FEF,60E
3D90:  MOVF   x6D,W
3D92:  MULLW  14
3D94:  MOVFF  FF3,60F
3D98:  MOVLB  6
3D9A:  MOVFF  60E,610
3D9E:  MOVFF  60F,611
3DA2:  MOVLW  1E
3DA4:  MOVWF  x12
3DA6:  MOVLW  01
3DA8:  MOVWF  x13
3DAA:  MOVLB  0
3DAC:  CALL   1696
....................                   else 
3DB0:  BRA    3DE6
3DB2:  MOVLB  5
....................                   {displayContrasena(Contrasena[i-1],i*20,30,0);} 
3DB4:  MOVLW  01
3DB6:  SUBWF  x6D,W
3DB8:  CLRF   03
3DBA:  ADDLW  96
3DBC:  MOVWF  FE9
3DBE:  MOVLW  05
3DC0:  ADDWFC 03,W
3DC2:  MOVWF  FEA
3DC4:  MOVFF  FEF,60E
3DC8:  MOVF   x6D,W
3DCA:  MULLW  14
3DCC:  MOVFF  FF3,60F
3DD0:  MOVLB  6
3DD2:  MOVFF  60E,610
3DD6:  MOVFF  60F,611
3DDA:  MOVLW  1E
3DDC:  MOVWF  x12
3DDE:  CLRF   x13
3DE0:  MOVLB  0
3DE2:  CALL   1696
....................                } 
3DE6:  MOVLB  5
3DE8:  INCF   x6D,F
3DEA:  BRA    3D70
....................             } 
....................       } 
....................          else 
3DEC:  BRA    3DF0
....................             {Flanco1 = 0;}   
3DEE:  BCF    x66.1
....................      
....................       if(unidad>4) 
3DF0:  MOVF   x6C,W
3DF2:  SUBLW  04
3DF4:  BTFSC  FD8.0
3DF6:  BRA    40E6
....................       {glcd_fillScreen(OFF);unidad=4; 
3DF8:  MOVLB  6
3DFA:  CLRF   x0F
3DFC:  MOVLB  0
3DFE:  CALL   0E42
3E02:  MOVLW  04
3E04:  MOVLB  5
3E06:  MOVWF  x6C
....................          if(Contrasena[0]==3&&Contrasena[1]==8&&Contrasena[2]==9&&Contrasena[3]==2) // Si Ingresa clave para reset general del sistema. 
3E08:  MOVF   x96,W
3E0A:  SUBLW  03
3E0C:  BNZ   3EF4
3E0E:  MOVF   x97,W
3E10:  SUBLW  08
3E12:  BNZ   3EF4
3E14:  MOVF   x98,W
3E16:  SUBLW  09
3E18:  BNZ   3EF4
3E1A:  MOVF   x99,W
3E1C:  SUBLW  02
3E1E:  BNZ   3EF4
....................             {write_eeprom(10,0);delay_ms(20);write_eeprom(11,0);delay_ms(20);// Reestablece a contrasea de Fabrica y reinicia Programa. 
3E20:  MOVLW  0A
3E22:  MOVWF  FA9
3E24:  CLRF   FA8
3E26:  BCF    FA6.6
3E28:  BCF    FA6.7
3E2A:  BSF    FA6.2
3E2C:  MOVF   FF2,W
3E2E:  MOVWF  00
3E30:  BCF    FF2.7
3E32:  MOVLB  F
3E34:  MOVLW  55
3E36:  MOVWF  FA7
3E38:  MOVLW  AA
3E3A:  MOVWF  FA7
3E3C:  BSF    FA6.1
3E3E:  BTFSC  FA6.1
3E40:  BRA    3E3E
3E42:  BCF    FA6.2
3E44:  MOVF   00,W
3E46:  IORWF  FF2,F
3E48:  MOVLW  14
3E4A:  MOVLB  6
3E4C:  MOVWF  x14
3E4E:  MOVLB  0
3E50:  CALL   0D28
3E54:  MOVLW  0B
3E56:  MOVWF  FA9
3E58:  CLRF   FA8
3E5A:  BCF    FA6.6
3E5C:  BCF    FA6.7
3E5E:  BSF    FA6.2
3E60:  MOVF   FF2,W
3E62:  MOVWF  00
3E64:  BCF    FF2.7
3E66:  MOVLB  F
3E68:  MOVLW  55
3E6A:  MOVWF  FA7
3E6C:  MOVLW  AA
3E6E:  MOVWF  FA7
3E70:  BSF    FA6.1
3E72:  BTFSC  FA6.1
3E74:  BRA    3E72
3E76:  BCF    FA6.2
3E78:  MOVF   00,W
3E7A:  IORWF  FF2,F
3E7C:  MOVLW  14
3E7E:  MOVLB  6
3E80:  MOVWF  x14
3E82:  MOVLB  0
3E84:  CALL   0D28
....................              write_eeprom(12,0);delay_ms(20);write_eeprom(13,0);delay_ms(20); 
3E88:  MOVLW  0C
3E8A:  MOVWF  FA9
3E8C:  CLRF   FA8
3E8E:  BCF    FA6.6
3E90:  BCF    FA6.7
3E92:  BSF    FA6.2
3E94:  MOVF   FF2,W
3E96:  MOVWF  00
3E98:  BCF    FF2.7
3E9A:  MOVLB  F
3E9C:  MOVLW  55
3E9E:  MOVWF  FA7
3EA0:  MOVLW  AA
3EA2:  MOVWF  FA7
3EA4:  BSF    FA6.1
3EA6:  BTFSC  FA6.1
3EA8:  BRA    3EA6
3EAA:  BCF    FA6.2
3EAC:  MOVF   00,W
3EAE:  IORWF  FF2,F
3EB0:  MOVLW  14
3EB2:  MOVLB  6
3EB4:  MOVWF  x14
3EB6:  MOVLB  0
3EB8:  CALL   0D28
3EBC:  MOVLW  0D
3EBE:  MOVWF  FA9
3EC0:  CLRF   FA8
3EC2:  BCF    FA6.6
3EC4:  BCF    FA6.7
3EC6:  BSF    FA6.2
3EC8:  MOVF   FF2,W
3ECA:  MOVWF  00
3ECC:  BCF    FF2.7
3ECE:  MOVLB  F
3ED0:  MOVLW  55
3ED2:  MOVWF  FA7
3ED4:  MOVLW  AA
3ED6:  MOVWF  FA7
3ED8:  BSF    FA6.1
3EDA:  BTFSC  FA6.1
3EDC:  BRA    3EDA
3EDE:  BCF    FA6.2
3EE0:  MOVF   00,W
3EE2:  IORWF  FF2,F
3EE4:  MOVLW  14
3EE6:  MOVLB  6
3EE8:  MOVWF  x14
3EEA:  MOVLB  0
3EEC:  CALL   0D28
....................              reset_cpu();}         
3EF0:  RESET
3EF2:  MOVLB  5
....................           
....................          if((Contrasena[0]==Password[0])&&(Contrasena[1]==Password[1])&&(Contrasena[2]==Password[2])&&(Contrasena[3]==Password[3])) 
3EF4:  MOVF   x9A,W
3EF6:  SUBWF  x96,W
3EF8:  BNZ   3FCA
3EFA:  MOVF   x9B,W
3EFC:  SUBWF  x97,W
3EFE:  BNZ   3FCA
3F00:  MOVF   x9C,W
3F02:  SUBWF  x98,W
3F04:  BNZ   3FCA
3F06:  MOVF   x9D,W
3F08:  SUBWF  x99,W
3F0A:  BNZ   3FCA
....................          { 
....................             glcd_fillScreen(OFF); 
3F0C:  MOVLB  6
3F0E:  CLRF   x0F
3F10:  MOVLB  0
3F12:  CALL   0E42
....................             strcpy(Menus.Letra,"Clave"); 
3F16:  MOVLW  05
3F18:  MOVWF  FEA
3F1A:  MOVLW  EE
3F1C:  MOVWF  FE9
3F1E:  MOVFF  FF2,60E
3F22:  BCF    FF2.7
3F24:  MOVLW  00
3F26:  CALL   0782
3F2A:  TBLRD*-
3F2C:  TBLRD*+
3F2E:  MOVF   FF5,W
3F30:  MOVWF  FEE
3F32:  IORLW  00
3F34:  BNZ   3F2C
3F36:  MOVLB  6
3F38:  BTFSC  x0E.7
3F3A:  BSF    FF2.7
....................             displayMenu(Menus.Letra,30,0,0,2); 
3F3C:  MOVLW  05
3F3E:  MOVWF  x0F
3F40:  MOVLW  EE
3F42:  MOVWF  x0E
3F44:  MOVLW  1E
3F46:  MOVWF  x10
3F48:  CLRF   x11
3F4A:  CLRF   x12
3F4C:  MOVLW  02
3F4E:  MOVWF  x13
3F50:  MOVLB  0
3F52:  CALL   1470
....................             strcpy(Menus.Letra,"Correcta"); 
3F56:  MOVLW  05
3F58:  MOVWF  FEA
3F5A:  MOVLW  EE
3F5C:  MOVWF  FE9
3F5E:  MOVFF  FF2,60E
3F62:  BCF    FF2.7
3F64:  MOVLW  00
3F66:  CALL   07A2
3F6A:  TBLRD*-
3F6C:  TBLRD*+
3F6E:  MOVF   FF5,W
3F70:  MOVWF  FEE
3F72:  IORLW  00
3F74:  BNZ   3F6C
3F76:  MOVLB  6
3F78:  BTFSC  x0E.7
3F7A:  BSF    FF2.7
....................             displayMenu(Menus.Letra,15,30,0,2); 
3F7C:  MOVLW  05
3F7E:  MOVWF  x0F
3F80:  MOVLW  EE
3F82:  MOVWF  x0E
3F84:  MOVLW  0F
3F86:  MOVWF  x10
3F88:  MOVLW  1E
3F8A:  MOVWF  x11
3F8C:  CLRF   x12
3F8E:  MOVLW  02
3F90:  MOVWF  x13
3F92:  MOVLB  0
3F94:  CALL   1470
....................             Menu=1;glcd_update();delay_ms(1000); 
3F98:  MOVLW  01
3F9A:  MOVLB  5
3F9C:  MOVWF  x6B
3F9E:  MOVLB  0
3FA0:  CALL   0E9C
3FA4:  MOVLW  04
3FA6:  MOVLB  6
3FA8:  MOVWF  x0E
3FAA:  MOVLW  FA
3FAC:  MOVWF  x14
3FAE:  MOVLB  0
3FB0:  CALL   0D28
3FB4:  MOVLB  6
3FB6:  DECFSZ x0E,F
3FB8:  BRA    3FAA
....................             glcd_fillScreen(OFF);unidad=1; 
3FBA:  CLRF   x0F
3FBC:  MOVLB  0
3FBE:  CALL   0E42
3FC2:  MOVLW  01
3FC4:  MOVLB  5
3FC6:  MOVWF  x6C
....................          }// Esta parte se puede agregar en el Menu 1 dependiendo de la ubicacin del vidrio. 
....................          else 
3FC8:  BRA    40E6
....................          { 
....................             glcd_fillScreen(OFF); 
3FCA:  MOVLB  6
3FCC:  CLRF   x0F
3FCE:  MOVLB  0
3FD0:  CALL   0E42
....................             strcpy(Menus.Letra,"Clave"); 
3FD4:  MOVLW  05
3FD6:  MOVWF  FEA
3FD8:  MOVLW  EE
3FDA:  MOVWF  FE9
3FDC:  MOVFF  FF2,60E
3FE0:  BCF    FF2.7
3FE2:  MOVLW  00
3FE4:  CALL   0782
3FE8:  TBLRD*-
3FEA:  TBLRD*+
3FEC:  MOVF   FF5,W
3FEE:  MOVWF  FEE
3FF0:  IORLW  00
3FF2:  BNZ   3FEA
3FF4:  MOVLB  6
3FF6:  BTFSC  x0E.7
3FF8:  BSF    FF2.7
....................             displayMenu(Menus.Letra,30,0,0,2); 
3FFA:  MOVLW  05
3FFC:  MOVWF  x0F
3FFE:  MOVLW  EE
4000:  MOVWF  x0E
4002:  MOVLW  1E
4004:  MOVWF  x10
4006:  CLRF   x11
4008:  CLRF   x12
400A:  MOVLW  02
400C:  MOVWF  x13
400E:  MOVLB  0
4010:  CALL   1470
....................             strcpy(Menus.Letra,"Incorrecta"); 
4014:  MOVLW  05
4016:  MOVWF  FEA
4018:  MOVLW  EE
401A:  MOVWF  FE9
401C:  MOVFF  FF2,60E
4020:  BCF    FF2.7
4022:  MOVLW  00
4024:  CALL   07C6
4028:  TBLRD*-
402A:  TBLRD*+
402C:  MOVF   FF5,W
402E:  MOVWF  FEE
4030:  IORLW  00
4032:  BNZ   402A
4034:  MOVLB  6
4036:  BTFSC  x0E.7
4038:  BSF    FF2.7
....................             displayMenu(Menus.Letra,0,30,0,2); 
403A:  MOVLW  05
403C:  MOVWF  x0F
403E:  MOVLW  EE
4040:  MOVWF  x0E
4042:  CLRF   x10
4044:  MOVLW  1E
4046:  MOVWF  x11
4048:  CLRF   x12
404A:  MOVLW  02
404C:  MOVWF  x13
404E:  MOVLB  0
4050:  CALL   1470
....................             Menu=0;glcd_update();delay_ms(1000); 
4054:  MOVLB  5
4056:  CLRF   x6B
4058:  MOVLB  0
405A:  CALL   0E9C
405E:  MOVLW  04
4060:  MOVLB  6
4062:  MOVWF  x0E
4064:  MOVLW  FA
4066:  MOVWF  x14
4068:  MOVLB  0
406A:  CALL   0D28
406E:  MOVLB  6
4070:  DECFSZ x0E,F
4072:  BRA    4064
....................             glcd_fillScreen(OFF);unidad=1; 
4074:  CLRF   x0F
4076:  MOVLB  0
4078:  CALL   0E42
407C:  MOVLW  01
407E:  MOVLB  5
4080:  MOVWF  x6C
....................             Contrasena[0]=0;Contrasena[1]=0;Contrasena[2]=0;Contrasena[3]=0; 
4082:  CLRF   x96
4084:  CLRF   x97
4086:  CLRF   x98
4088:  CLRF   x99
....................             displayContrasena(Contrasena[0],20,30,1); 
408A:  MOVFF  596,610
408E:  MOVLW  14
4090:  MOVLB  6
4092:  MOVWF  x11
4094:  MOVLW  1E
4096:  MOVWF  x12
4098:  MOVLW  01
409A:  MOVWF  x13
409C:  MOVLB  0
409E:  CALL   1696
....................             displayContrasena(Contrasena[1],40,30,0); 
40A2:  MOVFF  597,610
40A6:  MOVLW  28
40A8:  MOVLB  6
40AA:  MOVWF  x11
40AC:  MOVLW  1E
40AE:  MOVWF  x12
40B0:  CLRF   x13
40B2:  MOVLB  0
40B4:  CALL   1696
....................             displayContrasena(Contrasena[2],60,30,0); 
40B8:  MOVFF  598,610
40BC:  MOVLW  3C
40BE:  MOVLB  6
40C0:  MOVWF  x11
40C2:  MOVLW  1E
40C4:  MOVWF  x12
40C6:  CLRF   x13
40C8:  MOVLB  0
40CA:  CALL   1696
....................             displayContrasena(Contrasena[3],80,30,0); 
40CE:  MOVFF  599,610
40D2:  MOVLW  50
40D4:  MOVLB  6
40D6:  MOVWF  x11
40D8:  MOVLW  1E
40DA:  MOVWF  x12
40DC:  CLRF   x13
40DE:  MOVLB  0
40E0:  CALL   1696
40E4:  MOVLB  5
....................          } 
....................       } 
....................     } 
.................... //_--------------------------------------------------------------------------------------------------------------------------------------------------------        
....................  
....................  
.................... //_-------------------------------------------------------------------------------------------------------------------------------------------------------- 
....................       if(Menu==1){ //Menu Principal.       
40E6:  DECFSZ x6B,W
40E8:  BRA    4406
....................        
....................          if(Opcion>4) 
40EA:  MOVF   x71,W
40EC:  SUBLW  04
40EE:  BC    40F4
....................          {Opcion=1;} 
40F0:  MOVLW  01
40F2:  MOVWF  x71
....................          if(Opcion<1) 
40F4:  MOVF   x71,F
40F6:  BNZ   40FC
....................          {Opcion=4;} 
40F8:  MOVLW  04
40FA:  MOVWF  x71
....................           
....................          strcpy(Menus.Letra,"Menu"); 
40FC:  MOVLW  05
40FE:  MOVWF  FEA
4100:  MOVLW  EE
4102:  MOVWF  FE9
4104:  MOVFF  FF2,60E
4108:  BCF    FF2.7
410A:  MOVLW  00
410C:  MOVLB  0
410E:  CALL   07EC
4112:  TBLRD*-
4114:  TBLRD*+
4116:  MOVF   FF5,W
4118:  MOVWF  FEE
411A:  IORLW  00
411C:  BNZ   4114
411E:  MOVLB  6
4120:  BTFSC  x0E.7
4122:  BSF    FF2.7
....................          displayMenu(Menus.Letra,30,0,1,2); 
4124:  MOVLW  05
4126:  MOVWF  x0F
4128:  MOVLW  EE
412A:  MOVWF  x0E
412C:  MOVLW  1E
412E:  MOVWF  x10
4130:  CLRF   x11
4132:  MOVLW  01
4134:  MOVWF  x12
4136:  MOVLW  02
4138:  MOVWF  x13
413A:  MOVLB  0
413C:  CALL   1470
....................        
....................          if(Opcion==1)    
4140:  MOVLB  5
4142:  DECFSZ x71,W
4144:  BRA    418C
....................             {strcpy(Menus.Letra,"Iniciar Proceso"); 
4146:  MOVLW  05
4148:  MOVWF  FEA
414A:  MOVLW  EE
414C:  MOVWF  FE9
414E:  MOVFF  FF2,60E
4152:  BCF    FF2.7
4154:  MOVLW  00
4156:  MOVLB  0
4158:  CALL   080C
415C:  TBLRD*-
415E:  TBLRD*+
4160:  MOVF   FF5,W
4162:  MOVWF  FEE
4164:  IORLW  00
4166:  BNZ   415E
4168:  MOVLB  6
416A:  BTFSC  x0E.7
416C:  BSF    FF2.7
....................             displayMenu(Menus.Letra,0,20,1,1);} 
416E:  MOVLW  05
4170:  MOVWF  x0F
4172:  MOVLW  EE
4174:  MOVWF  x0E
4176:  CLRF   x10
4178:  MOVLW  14
417A:  MOVWF  x11
417C:  MOVLW  01
417E:  MOVWF  x12
4180:  MOVWF  x13
4182:  MOVLB  0
4184:  CALL   1470
....................          else 
4188:  BRA    41CE
418A:  MOVLB  5
....................             {strcpy(Menus.Letra,"Iniciar Proceso"); 
418C:  MOVLW  05
418E:  MOVWF  FEA
4190:  MOVLW  EE
4192:  MOVWF  FE9
4194:  MOVFF  FF2,60E
4198:  BCF    FF2.7
419A:  MOVLW  00
419C:  MOVLB  0
419E:  CALL   080C
41A2:  TBLRD*-
41A4:  TBLRD*+
41A6:  MOVF   FF5,W
41A8:  MOVWF  FEE
41AA:  IORLW  00
41AC:  BNZ   41A4
41AE:  MOVLB  6
41B0:  BTFSC  x0E.7
41B2:  BSF    FF2.7
....................             displayMenu(Menus.Letra,0,20,0,1);} 
41B4:  MOVLW  05
41B6:  MOVWF  x0F
41B8:  MOVLW  EE
41BA:  MOVWF  x0E
41BC:  CLRF   x10
41BE:  MOVLW  14
41C0:  MOVWF  x11
41C2:  CLRF   x12
41C4:  MOVLW  01
41C6:  MOVWF  x13
41C8:  MOVLB  0
41CA:  CALL   1470
....................           
....................          if(Opcion==2)    
41CE:  MOVLB  5
41D0:  MOVF   x71,W
41D2:  SUBLW  02
41D4:  BNZ   421C
....................             {strcpy(Menus.Letra,"Temperatura"); 
41D6:  MOVLW  05
41D8:  MOVWF  FEA
41DA:  MOVLW  EE
41DC:  MOVWF  FE9
41DE:  MOVFF  FF2,60E
41E2:  BCF    FF2.7
41E4:  MOVLW  00
41E6:  MOVLB  0
41E8:  CALL   0836
41EC:  TBLRD*-
41EE:  TBLRD*+
41F0:  MOVF   FF5,W
41F2:  MOVWF  FEE
41F4:  IORLW  00
41F6:  BNZ   41EE
41F8:  MOVLB  6
41FA:  BTFSC  x0E.7
41FC:  BSF    FF2.7
....................             displayMenu(Menus.Letra,0,30,1,1);} 
41FE:  MOVLW  05
4200:  MOVWF  x0F
4202:  MOVLW  EE
4204:  MOVWF  x0E
4206:  CLRF   x10
4208:  MOVLW  1E
420A:  MOVWF  x11
420C:  MOVLW  01
420E:  MOVWF  x12
4210:  MOVWF  x13
4212:  MOVLB  0
4214:  CALL   1470
....................          else 
4218:  BRA    425E
421A:  MOVLB  5
....................             {strcpy(Menus.Letra,"Temperatura"); 
421C:  MOVLW  05
421E:  MOVWF  FEA
4220:  MOVLW  EE
4222:  MOVWF  FE9
4224:  MOVFF  FF2,60E
4228:  BCF    FF2.7
422A:  MOVLW  00
422C:  MOVLB  0
422E:  CALL   0836
4232:  TBLRD*-
4234:  TBLRD*+
4236:  MOVF   FF5,W
4238:  MOVWF  FEE
423A:  IORLW  00
423C:  BNZ   4234
423E:  MOVLB  6
4240:  BTFSC  x0E.7
4242:  BSF    FF2.7
....................             displayMenu(Menus.Letra,0,30,0,1);} 
4244:  MOVLW  05
4246:  MOVWF  x0F
4248:  MOVLW  EE
424A:  MOVWF  x0E
424C:  CLRF   x10
424E:  MOVLW  1E
4250:  MOVWF  x11
4252:  CLRF   x12
4254:  MOVLW  01
4256:  MOVWF  x13
4258:  MOVLB  0
425A:  CALL   1470
....................              
....................          if(Opcion==3)    
425E:  MOVLB  5
4260:  MOVF   x71,W
4262:  SUBLW  03
4264:  BNZ   42AC
....................             {strcpy(Menus.Letra,"Temporizador"); 
4266:  MOVLW  05
4268:  MOVWF  FEA
426A:  MOVLW  EE
426C:  MOVWF  FE9
426E:  MOVFF  FF2,60E
4272:  BCF    FF2.7
4274:  MOVLW  00
4276:  MOVLB  0
4278:  CALL   085C
427C:  TBLRD*-
427E:  TBLRD*+
4280:  MOVF   FF5,W
4282:  MOVWF  FEE
4284:  IORLW  00
4286:  BNZ   427E
4288:  MOVLB  6
428A:  BTFSC  x0E.7
428C:  BSF    FF2.7
....................             displayMenu(Menus.Letra,0,40,1,1);} 
428E:  MOVLW  05
4290:  MOVWF  x0F
4292:  MOVLW  EE
4294:  MOVWF  x0E
4296:  CLRF   x10
4298:  MOVLW  28
429A:  MOVWF  x11
429C:  MOVLW  01
429E:  MOVWF  x12
42A0:  MOVWF  x13
42A2:  MOVLB  0
42A4:  CALL   1470
....................          else 
42A8:  BRA    42EE
42AA:  MOVLB  5
....................             {strcpy(Menus.Letra,"Temporizador"); 
42AC:  MOVLW  05
42AE:  MOVWF  FEA
42B0:  MOVLW  EE
42B2:  MOVWF  FE9
42B4:  MOVFF  FF2,60E
42B8:  BCF    FF2.7
42BA:  MOVLW  00
42BC:  MOVLB  0
42BE:  CALL   085C
42C2:  TBLRD*-
42C4:  TBLRD*+
42C6:  MOVF   FF5,W
42C8:  MOVWF  FEE
42CA:  IORLW  00
42CC:  BNZ   42C4
42CE:  MOVLB  6
42D0:  BTFSC  x0E.7
42D2:  BSF    FF2.7
....................             displayMenu(Menus.Letra,0,40,0,1);}    
42D4:  MOVLW  05
42D6:  MOVWF  x0F
42D8:  MOVLW  EE
42DA:  MOVWF  x0E
42DC:  CLRF   x10
42DE:  MOVLW  28
42E0:  MOVWF  x11
42E2:  CLRF   x12
42E4:  MOVLW  01
42E6:  MOVWF  x13
42E8:  MOVLB  0
42EA:  CALL   1470
....................                          
....................          if(Opcion==4)    
42EE:  MOVLB  5
42F0:  MOVF   x71,W
42F2:  SUBLW  04
42F4:  BNZ   433C
....................             {strcpy(Menus.Letra,"Cambio Clave"); 
42F6:  MOVLW  05
42F8:  MOVWF  FEA
42FA:  MOVLW  EE
42FC:  MOVWF  FE9
42FE:  MOVFF  FF2,60E
4302:  BCF    FF2.7
4304:  MOVLW  00
4306:  MOVLB  0
4308:  CALL   0884
430C:  TBLRD*-
430E:  TBLRD*+
4310:  MOVF   FF5,W
4312:  MOVWF  FEE
4314:  IORLW  00
4316:  BNZ   430E
4318:  MOVLB  6
431A:  BTFSC  x0E.7
431C:  BSF    FF2.7
....................             displayMenu(Menus.Letra,0,50,1,1);} 
431E:  MOVLW  05
4320:  MOVWF  x0F
4322:  MOVLW  EE
4324:  MOVWF  x0E
4326:  CLRF   x10
4328:  MOVLW  32
432A:  MOVWF  x11
432C:  MOVLW  01
432E:  MOVWF  x12
4330:  MOVWF  x13
4332:  MOVLB  0
4334:  CALL   1470
....................          else 
4338:  BRA    437E
433A:  MOVLB  5
....................             {strcpy(Menus.Letra,"Cambio Clave"); 
433C:  MOVLW  05
433E:  MOVWF  FEA
4340:  MOVLW  EE
4342:  MOVWF  FE9
4344:  MOVFF  FF2,60E
4348:  BCF    FF2.7
434A:  MOVLW  00
434C:  MOVLB  0
434E:  CALL   0884
4352:  TBLRD*-
4354:  TBLRD*+
4356:  MOVF   FF5,W
4358:  MOVWF  FEE
435A:  IORLW  00
435C:  BNZ   4354
435E:  MOVLB  6
4360:  BTFSC  x0E.7
4362:  BSF    FF2.7
....................             displayMenu(Menus.Letra,0,50,0,1);}      
4364:  MOVLW  05
4366:  MOVWF  x0F
4368:  MOVLW  EE
436A:  MOVWF  x0E
436C:  CLRF   x10
436E:  MOVLW  32
4370:  MOVWF  x11
4372:  CLRF   x12
4374:  MOVLW  01
4376:  MOVWF  x13
4378:  MOVLB  0
437A:  CALL   1470
....................              
....................       if(UP)//Si oprime hacia arriba 
437E:  BSF    F92.5
4380:  BTFSS  F80.5
4382:  BRA    43A0
....................          {  if(Flanco == 0)  
4384:  MOVLB  5
4386:  BTFSC  x66.0
4388:  BRA    439E
....................                {Flanco = 1;delay_ms(30);Opcion--;visual=1; 
438A:  BSF    x66.0
438C:  MOVLW  1E
438E:  MOVLB  6
4390:  MOVWF  x14
4392:  MOVLB  0
4394:  CALL   0D28
4398:  MOVLB  5
439A:  DECF   x71,F
439C:  BSF    x66.3
....................                } 
....................          } 
....................             else 
439E:  BRA    43A4
....................                {Flanco = 0;} 
43A0:  MOVLB  5
43A2:  BCF    x66.0
....................                    
....................          if(DOWN)//Si oprime hacia abajo 
43A4:  BSF    F96.0
43A6:  BTFSS  F84.0
43A8:  BRA    43C4
....................          {  if(Flanco2 == 0)  
43AA:  BTFSC  x66.2
43AC:  BRA    43C2
....................                {Flanco2 = 1;delay_ms(30);Opcion++;visual=1; 
43AE:  BSF    x66.2
43B0:  MOVLW  1E
43B2:  MOVLB  6
43B4:  MOVWF  x14
43B6:  MOVLB  0
43B8:  CALL   0D28
43BC:  MOVLB  5
43BE:  INCF   x71,F
43C0:  BSF    x66.3
....................                }      
....................          } 
....................             else 
43C2:  BRA    43C6
....................                {Flanco2 = 0;}   
43C4:  BCF    x66.2
....................                 
....................        if(RIGHT)//Si oprime SET 
43C6:  BSF    F96.1
43C8:  BTFSS  F84.1
43CA:  BRA    4404
....................          {  if(Flanco1 == 0)  
43CC:  BTFSC  x66.1
43CE:  BRA    4402
....................                {Flanco1 = 1;delay_ms(500);Menu=Opcion+3;Opcion=1;glcd_fillscreen(OFF);visual=1; 
43D0:  BSF    x66.1
43D2:  MOVLW  02
43D4:  MOVLB  6
43D6:  MOVWF  x0E
43D8:  MOVLW  FA
43DA:  MOVWF  x14
43DC:  MOVLB  0
43DE:  CALL   0D28
43E2:  MOVLB  6
43E4:  DECFSZ x0E,F
43E6:  BRA    43D8
43E8:  MOVLW  03
43EA:  MOVLB  5
43EC:  ADDWF  x71,W
43EE:  MOVWF  x6B
43F0:  MOVLW  01
43F2:  MOVWF  x71
43F4:  MOVLB  6
43F6:  CLRF   x0F
43F8:  MOVLB  0
43FA:  CALL   0E42
43FE:  MOVLB  5
4400:  BSF    x66.3
....................                } 
....................          } 
....................             else 
4402:  BRA    4406
....................                {Flanco1 = 0;}   
4404:  BCF    x66.1
....................  
....................    } 
.................... //_--------------------------------------------------------------------------------------------------------------------------------------------------------        
.................... //-Sub-Menus de seleccin de proceso. 
....................  
.................... //_-------------------------------------------------------------------------------------------------------------------------------------------------------- 
....................       if(Menu==4){ //Menu de Continuar 
4406:  MOVF   x6B,W
4408:  SUBLW  04
440A:  BTFSS  FD8.2
440C:  BRA    477E
....................        
....................       if(Opcion>2) 
440E:  MOVF   x71,W
4410:  SUBLW  02
4412:  BC    4418
....................          Opcion=1; 
4414:  MOVLW  01
4416:  MOVWF  x71
....................           
....................       if(Opcion<1) 
4418:  MOVF   x71,F
441A:  BNZ   4420
....................          Opcion=2; 
441C:  MOVLW  02
441E:  MOVWF  x71
....................        
....................          strcpy(Menus.Letra,"Continuar"); 
4420:  MOVLW  05
4422:  MOVWF  FEA
4424:  MOVLW  EE
4426:  MOVWF  FE9
4428:  MOVFF  FF2,60E
442C:  BCF    FF2.7
442E:  MOVLW  00
4430:  MOVLB  0
4432:  CALL   08AC
4436:  TBLRD*-
4438:  TBLRD*+
443A:  MOVF   FF5,W
443C:  MOVWF  FEE
443E:  IORLW  00
4440:  BNZ   4438
4442:  MOVLB  6
4444:  BTFSC  x0E.7
4446:  BSF    FF2.7
....................          displayMenu(Menus.Letra,0,0,1,2); 
4448:  MOVLW  05
444A:  MOVWF  x0F
444C:  MOVLW  EE
444E:  MOVWF  x0E
4450:  CLRF   x10
4452:  CLRF   x11
4454:  MOVLW  01
4456:  MOVWF  x12
4458:  MOVLW  02
445A:  MOVWF  x13
445C:  MOVLB  0
445E:  CALL   1470
....................           
....................          if(Opcion==2) 
4462:  MOVLB  5
4464:  MOVF   x71,W
4466:  SUBLW  02
4468:  BNZ   44F4
....................          {strcpy(Menus.Letra,"SI"); 
446A:  MOVLW  05
446C:  MOVWF  FEA
446E:  MOVLW  EE
4470:  MOVWF  FE9
4472:  MOVFF  FF2,60E
4476:  BCF    FF2.7
4478:  MOVLW  00
447A:  MOVLB  0
447C:  CALL   08D0
4480:  TBLRD*-
4482:  TBLRD*+
4484:  MOVF   FF5,W
4486:  MOVWF  FEE
4488:  IORLW  00
448A:  BNZ   4482
448C:  MOVLB  6
448E:  BTFSC  x0E.7
4490:  BSF    FF2.7
....................          displayMenu(Menus.Letra,50,25,1,2); 
4492:  MOVLW  05
4494:  MOVWF  x0F
4496:  MOVLW  EE
4498:  MOVWF  x0E
449A:  MOVLW  32
449C:  MOVWF  x10
449E:  MOVLW  19
44A0:  MOVWF  x11
44A2:  MOVLW  01
44A4:  MOVWF  x12
44A6:  MOVLW  02
44A8:  MOVWF  x13
44AA:  MOVLB  0
44AC:  CALL   1470
....................          strcpy(Menus.Letra,"NO"); 
44B0:  MOVLW  05
44B2:  MOVWF  FEA
44B4:  MOVLW  EE
44B6:  MOVWF  FE9
44B8:  MOVFF  FF2,60E
44BC:  BCF    FF2.7
44BE:  MOVLW  00
44C0:  CALL   08EE
44C4:  TBLRD*-
44C6:  TBLRD*+
44C8:  MOVF   FF5,W
44CA:  MOVWF  FEE
44CC:  IORLW  00
44CE:  BNZ   44C6
44D0:  MOVLB  6
44D2:  BTFSC  x0E.7
44D4:  BSF    FF2.7
....................          displayMenu(Menus.Letra,50,45,0,2); 
44D6:  MOVLW  05
44D8:  MOVWF  x0F
44DA:  MOVLW  EE
44DC:  MOVWF  x0E
44DE:  MOVLW  32
44E0:  MOVWF  x10
44E2:  MOVLW  2D
44E4:  MOVWF  x11
44E6:  CLRF   x12
44E8:  MOVLW  02
44EA:  MOVWF  x13
44EC:  MOVLB  0
44EE:  CALL   1470
44F2:  MOVLB  5
....................          } 
....................          if(Opcion==1) 
44F4:  DECFSZ x71,W
44F6:  BRA    4582
....................          {strcpy(Menus.Letra,"SI"); 
44F8:  MOVLW  05
44FA:  MOVWF  FEA
44FC:  MOVLW  EE
44FE:  MOVWF  FE9
4500:  MOVFF  FF2,60E
4504:  BCF    FF2.7
4506:  MOVLW  00
4508:  MOVLB  0
450A:  CALL   08D0
450E:  TBLRD*-
4510:  TBLRD*+
4512:  MOVF   FF5,W
4514:  MOVWF  FEE
4516:  IORLW  00
4518:  BNZ   4510
451A:  MOVLB  6
451C:  BTFSC  x0E.7
451E:  BSF    FF2.7
....................          displayMenu(Menus.Letra,50,25,0,2); 
4520:  MOVLW  05
4522:  MOVWF  x0F
4524:  MOVLW  EE
4526:  MOVWF  x0E
4528:  MOVLW  32
452A:  MOVWF  x10
452C:  MOVLW  19
452E:  MOVWF  x11
4530:  CLRF   x12
4532:  MOVLW  02
4534:  MOVWF  x13
4536:  MOVLB  0
4538:  CALL   1470
....................          strcpy(Menus.Letra,"NO"); 
453C:  MOVLW  05
453E:  MOVWF  FEA
4540:  MOVLW  EE
4542:  MOVWF  FE9
4544:  MOVFF  FF2,60E
4548:  BCF    FF2.7
454A:  MOVLW  00
454C:  CALL   08EE
4550:  TBLRD*-
4552:  TBLRD*+
4554:  MOVF   FF5,W
4556:  MOVWF  FEE
4558:  IORLW  00
455A:  BNZ   4552
455C:  MOVLB  6
455E:  BTFSC  x0E.7
4560:  BSF    FF2.7
....................          displayMenu(Menus.Letra,50,45,1,2); 
4562:  MOVLW  05
4564:  MOVWF  x0F
4566:  MOVLW  EE
4568:  MOVWF  x0E
456A:  MOVLW  32
456C:  MOVWF  x10
456E:  MOVLW  2D
4570:  MOVWF  x11
4572:  MOVLW  01
4574:  MOVWF  x12
4576:  MOVLW  02
4578:  MOVWF  x13
457A:  MOVLB  0
457C:  CALL   1470
4580:  MOVLB  5
....................          } 
....................         
....................        
....................          
....................       if(UP)//Si oprime hacia arriba 
4582:  BSF    F92.5
4584:  BTFSS  F80.5
4586:  BRA    4590
....................       { 
....................          if(Opcion<2) 
4588:  MOVF   x71,W
458A:  SUBLW  01
458C:  BNC   4590
....................          { 
....................             Opcion++; 
458E:  INCF   x71,F
....................          } 
....................       } 
....................              
....................       if(DOWN)//Si oprime hacia abajo 
4590:  BSF    F96.0
4592:  BTFSS  F84.0
4594:  BRA    459E
....................       {   
....................          if(Opcion>1) 
4596:  MOVF   x71,W
4598:  SUBLW  01
459A:  BC    459E
....................          { 
....................             Opcion--; 
459C:  DECF   x71,F
....................          }   
....................       } 
....................              
....................       if(RIGHT)//Si oprime SET 
459E:  BSF    F96.1
45A0:  BTFSS  F84.1
45A2:  BRA    4748
....................       {   
....................          if(Opcion==2) 
45A4:  MOVF   x71,W
45A6:  SUBLW  02
45A8:  BTFSS  FD8.2
45AA:  BRA    471A
....................          { 
....................             if(Setpoint<25.0) 
45AC:  MOVFF  581,615
45B0:  MOVFF  580,614
45B4:  MOVLB  0
45B6:  CALL   0D52
45BA:  MOVFF  03,611
45BE:  MOVFF  02,610
45C2:  MOVFF  01,60F
45C6:  MOVFF  00,60E
45CA:  MOVLB  6
45CC:  CLRF   x15
45CE:  CLRF   x14
45D0:  MOVLW  48
45D2:  MOVWF  x13
45D4:  MOVLW  83
45D6:  MOVWF  x12
45D8:  MOVLB  0
45DA:  CALL   0D88
45DE:  BNC   45E6
....................             { 
....................                Enfria=1; 
45E0:  MOVLW  01
45E2:  MOVLB  5
45E4:  MOVWF  x6A
....................             } 
....................             Menu=20;glcd_rect(15, 18, 30, 53, NO, ON);tiempo_secado=0;glcd_fillScreen(OFF);pausa=0; 
45E6:  MOVLW  14
45E8:  MOVLB  5
45EA:  MOVWF  x6B
45EC:  MOVLW  0F
45EE:  MOVLB  6
45F0:  MOVWF  x21
45F2:  MOVLW  12
45F4:  MOVWF  x22
45F6:  MOVLW  1E
45F8:  MOVWF  x23
45FA:  MOVLW  35
45FC:  MOVWF  x24
45FE:  CLRF   x25
4600:  MOVLW  01
4602:  MOVWF  x26
4604:  MOVLB  0
4606:  CALL   13AE
460A:  MOVLB  5
460C:  CLRF   x73
460E:  MOVLB  6
4610:  CLRF   x0F
4612:  MOVLB  0
4614:  CALL   0E42
4618:  MOVLB  5
461A:  CLRF   x6E
....................             Ganancia=Setpoint*(Ganancia/Coeficiente); 
461C:  MOVFF  5C5,612
4620:  MOVFF  5C4,611
4624:  MOVFF  5C3,610
4628:  MOVFF  5C2,60F
462C:  MOVFF  5D1,616
4630:  MOVFF  5D0,615
4634:  MOVFF  5CF,614
4638:  MOVFF  5CE,613
463C:  MOVLB  0
463E:  CALL   17A6
4642:  MOVFF  00,60E
4646:  MOVFF  01,60F
464A:  MOVFF  02,610
464E:  MOVFF  03,611
4652:  MOVFF  581,615
4656:  MOVFF  580,614
465A:  CALL   0D52
465E:  MOVFF  03,62E
4662:  MOVFF  02,62D
4666:  MOVFF  01,62C
466A:  MOVFF  00,62B
466E:  MOVFF  611,632
4672:  MOVFF  610,631
4676:  MOVFF  60F,630
467A:  MOVFF  60E,62F
467E:  CALL   1B9E
4682:  MOVFF  03,5C5
4686:  MOVFF  02,5C4
468A:  MOVFF  01,5C3
468E:  MOVFF  00,5C2
....................             Tpulsomin=(Setpoint/150.0); 
4692:  MOVFF  581,615
4696:  MOVFF  580,614
469A:  CALL   0D52
469E:  MOVFF  03,612
46A2:  MOVFF  02,611
46A6:  MOVFF  01,610
46AA:  MOVFF  00,60F
46AE:  MOVLB  6
46B0:  CLRF   x16
46B2:  CLRF   x15
46B4:  MOVLW  16
46B6:  MOVWF  x14
46B8:  MOVLW  86
46BA:  MOVWF  x13
46BC:  MOVLB  0
46BE:  CALL   17A6
46C2:  MOVFF  03,589
46C6:  MOVFF  02,588
46CA:  MOVFF  01,587
46CE:  MOVFF  00,586
....................             Gananciamax=(0.27)*Setpoint; 
46D2:  MOVFF  581,615
46D6:  MOVFF  580,614
46DA:  CALL   0D52
46DE:  MOVLW  71
46E0:  MOVLB  6
46E2:  MOVWF  x2E
46E4:  MOVLW  3D
46E6:  MOVWF  x2D
46E8:  MOVLW  0A
46EA:  MOVWF  x2C
46EC:  MOVLW  7D
46EE:  MOVWF  x2B
46F0:  MOVFF  03,632
46F4:  MOVFF  02,631
46F8:  MOVFF  01,630
46FC:  MOVFF  00,62F
4700:  MOVLB  0
4702:  CALL   1B9E
4706:  MOVFF  03,58D
470A:  MOVFF  02,58C
470E:  MOVFF  01,58B
4712:  MOVFF  00,58A
....................             //Gananciamax=(0.27)*Setpoint; 
....................          } 
....................          else 
4716:  BRA    474A
4718:  MOVLB  5
....................          { 
....................             delay_ms(700);Menu=1;glcd_fillscreen(OFF);Opcion=1;visual=1; 
471A:  MOVLW  04
471C:  MOVLB  6
471E:  MOVWF  x0E
4720:  MOVLW  AF
4722:  MOVWF  x14
4724:  MOVLB  0
4726:  CALL   0D28
472A:  MOVLB  6
472C:  DECFSZ x0E,F
472E:  BRA    4720
4730:  MOVLW  01
4732:  MOVLB  5
4734:  MOVWF  x6B
4736:  MOVLB  6
4738:  CLRF   x0F
473A:  MOVLB  0
473C:  CALL   0E42
4740:  MOVLW  01
4742:  MOVLB  5
4744:  MOVWF  x71
4746:  BSF    x66.3
4748:  MOVLB  0
....................          } 
....................       }  
....................                    
....................       if(LEFT)//Si oprime boton de Toma. 
474A:  BSF    F96.2
474C:  BTFSS  F84.2
474E:  BRA    4780
....................       { 
....................          delay_ms(700);Menu=1;glcd_fillscreen(OFF);Opcion=1;visual=1; 
4750:  MOVLW  04
4752:  MOVLB  6
4754:  MOVWF  x0E
4756:  MOVLW  AF
4758:  MOVWF  x14
475A:  MOVLB  0
475C:  CALL   0D28
4760:  MOVLB  6
4762:  DECFSZ x0E,F
4764:  BRA    4756
4766:  MOVLW  01
4768:  MOVLB  5
476A:  MOVWF  x6B
476C:  MOVLB  6
476E:  CLRF   x0F
4770:  MOVLB  0
4772:  CALL   0E42
4776:  MOVLW  01
4778:  MOVLB  5
477A:  MOVWF  x71
477C:  BSF    x66.3
477E:  MOVLB  0
....................       } 
....................      
....................      
....................     } 
.................... //_--------------------------------------------------------------------------------------------------------------------------------------------------------        
....................  
.................... //_--------------------------------------------------------------------------------------------------------------------------------------------------------       
....................       if(Menu==5){ // Menu de Temperatura 
4780:  MOVLB  5
4782:  MOVF   x6B,W
4784:  SUBLW  05
4786:  BTFSS  FD8.2
4788:  BRA    499A
....................       if(Setpoint>70) 
478A:  MOVF   x81,F
478C:  BNZ   4794
478E:  MOVF   x80,W
4790:  SUBLW  46
4792:  BC    479A
....................          Setpoint=70; 
4794:  CLRF   x81
4796:  MOVLW  46
4798:  MOVWF  x80
....................           
....................       if(Setpoint<1) 
479A:  MOVF   x80,F
479C:  BNZ   47A8
479E:  MOVF   x81,F
47A0:  BNZ   47A8
....................          Setpoint=1;   
47A2:  CLRF   x81
47A4:  MOVLW  01
47A6:  MOVWF  x80
....................        
....................       glcd_circle(85,30,3,NO,ON); 
47A8:  MOVLW  55
47AA:  MOVLB  6
47AC:  MOVWF  x0E
47AE:  MOVLW  1E
47B0:  MOVWF  x0F
47B2:  MOVLW  03
47B4:  MOVWF  x10
47B6:  CLRF   x11
47B8:  MOVLW  01
47BA:  MOVWF  x12
47BC:  MOVLB  0
47BE:  CALL   2088
....................       strcpy(Menus.Letra,"C");displayMenu(Menus.Letra,92,30,2,3); 
47C2:  MOVLW  05
47C4:  MOVWF  FEA
47C6:  MOVLW  EE
47C8:  MOVWF  FE9
47CA:  MOVFF  FF2,60E
47CE:  BCF    FF2.7
47D0:  MOVLW  00
47D2:  CALL   090C
47D6:  TBLRD*-
47D8:  TBLRD*+
47DA:  MOVF   FF5,W
47DC:  MOVWF  FEE
47DE:  IORLW  00
47E0:  BNZ   47D8
47E2:  MOVLB  6
47E4:  BTFSC  x0E.7
47E6:  BSF    FF2.7
47E8:  MOVLW  05
47EA:  MOVWF  x0F
47EC:  MOVLW  EE
47EE:  MOVWF  x0E
47F0:  MOVLW  5C
47F2:  MOVWF  x10
47F4:  MOVLW  1E
47F6:  MOVWF  x11
47F8:  MOVLW  02
47FA:  MOVWF  x12
47FC:  MOVLW  03
47FE:  MOVWF  x13
4800:  MOVLB  0
4802:  CALL   1470
....................        
....................          //glcd_fillScreen(OFF); 
....................          strcpy(Menus.Letra,"Temperatura"); 
4806:  MOVLW  05
4808:  MOVWF  FEA
480A:  MOVLW  EE
480C:  MOVWF  FE9
480E:  MOVFF  FF2,60E
4812:  BCF    FF2.7
4814:  MOVLW  00
4816:  CALL   0836
481A:  TBLRD*-
481C:  TBLRD*+
481E:  MOVF   FF5,W
4820:  MOVWF  FEE
4822:  IORLW  00
4824:  BNZ   481C
4826:  MOVLB  6
4828:  BTFSC  x0E.7
482A:  BSF    FF2.7
....................          displayMenu(Menus.Letra,0,0,1,2); 
482C:  MOVLW  05
482E:  MOVWF  x0F
4830:  MOVLW  EE
4832:  MOVWF  x0E
4834:  CLRF   x10
4836:  CLRF   x11
4838:  MOVLW  01
483A:  MOVWF  x12
483C:  MOVLW  02
483E:  MOVWF  x13
4840:  MOVLB  0
4842:  CALL   1470
....................           
....................          displayTemperatura(Setpoint,30,30,0,3); 
4846:  MOVFF  581,611
484A:  MOVFF  580,610
484E:  MOVLW  1E
4850:  MOVLB  6
4852:  MOVWF  x12
4854:  MOVWF  x13
4856:  CLRF   x14
4858:  MOVLW  03
485A:  MOVWF  x15
485C:  MOVLB  0
485E:  CALL   2370
....................        
....................          if(UP)//Si oprime hacia arriba 
4862:  BSF    F92.5
4864:  BTFSS  F80.5
4866:  BRA    489C
....................          {   
....................             //glcd_fillScreen(OFF); 
....................             glcd_rect(30, 30, 80, 55, YES, OFF); 
4868:  MOVLW  1E
486A:  MOVLB  6
486C:  MOVWF  x21
486E:  MOVWF  x22
4870:  MOVLW  50
4872:  MOVWF  x23
4874:  MOVLW  37
4876:  MOVWF  x24
4878:  MOVLW  01
487A:  MOVWF  x25
487C:  CLRF   x26
487E:  MOVLB  0
4880:  CALL   13AE
....................             delay_ms(30);Setpoint++;visual=1; 
4884:  MOVLW  1E
4886:  MOVLB  6
4888:  MOVWF  x14
488A:  MOVLB  0
488C:  CALL   0D28
4890:  MOVLB  5
4892:  INCF   x80,F
4894:  BTFSC  FD8.2
4896:  INCF   x81,F
4898:  BSF    x66.3
489A:  MOVLB  0
....................              
....................          } 
....................                 
....................          if(DOWN)//Si oprime hacia abajo 
489C:  BSF    F96.0
489E:  BTFSS  F84.0
48A0:  BRA    48D8
....................          {   
....................             //glcd_fillScreen(OFF); 
....................             glcd_rect(30, 30, 80, 55, YES, OFF); 
48A2:  MOVLW  1E
48A4:  MOVLB  6
48A6:  MOVWF  x21
48A8:  MOVWF  x22
48AA:  MOVLW  50
48AC:  MOVWF  x23
48AE:  MOVLW  37
48B0:  MOVWF  x24
48B2:  MOVLW  01
48B4:  MOVWF  x25
48B6:  CLRF   x26
48B8:  MOVLB  0
48BA:  CALL   13AE
....................             delay_ms(30);Setpoint--;visual=1;      
48BE:  MOVLW  1E
48C0:  MOVLB  6
48C2:  MOVWF  x14
48C4:  MOVLB  0
48C6:  CALL   0D28
48CA:  MOVLB  5
48CC:  MOVF   x80,W
48CE:  BTFSC  FD8.2
48D0:  DECF   x81,F
48D2:  DECF   x80,F
48D4:  BSF    x66.3
48D6:  MOVLB  0
....................          } 
....................                 
....................          if(RIGHT)//Si oprime SET 
48D8:  BSF    F96.1
48DA:  BTFSS  F84.1
48DC:  BRA    48F0
....................          {   
....................             delay_ms(30);visual=1; 
48DE:  MOVLW  1E
48E0:  MOVLB  6
48E2:  MOVWF  x14
48E4:  MOVLB  0
48E6:  CALL   0D28
48EA:  MOVLB  5
48EC:  BSF    x66.3
48EE:  MOVLB  0
....................          }  
....................                    
....................          if(LEFT)//Si oprime boton de Toma. 
48F0:  BSF    F96.2
48F2:  BTFSS  F84.2
48F4:  BRA    4998
....................          { 
....................             delay_ms(700);Menu=1;glcd_fillscreen(OFF);Opcion=1;visual=1; 
48F6:  MOVLW  04
48F8:  MOVLB  6
48FA:  MOVWF  x0E
48FC:  MOVLW  AF
48FE:  MOVWF  x14
4900:  MOVLB  0
4902:  CALL   0D28
4906:  MOVLB  6
4908:  DECFSZ x0E,F
490A:  BRA    48FC
490C:  MOVLW  01
490E:  MOVLB  5
4910:  MOVWF  x6B
4912:  MOVLB  6
4914:  CLRF   x0F
4916:  MOVLB  0
4918:  CALL   0E42
491C:  MOVLW  01
491E:  MOVLB  5
4920:  MOVWF  x71
4922:  BSF    x66.3
....................             write_eeprom(80,make8(Setpoint,0)); 
4924:  MOVFF  580,60E
4928:  MOVLW  50
492A:  MOVWF  FA9
492C:  MOVFF  60E,FA8
4930:  BCF    FA6.6
4932:  BCF    FA6.7
4934:  BSF    FA6.2
4936:  MOVF   FF2,W
4938:  MOVWF  00
493A:  BCF    FF2.7
493C:  MOVLB  F
493E:  MOVLW  55
4940:  MOVWF  FA7
4942:  MOVLW  AA
4944:  MOVWF  FA7
4946:  BSF    FA6.1
4948:  BTFSC  FA6.1
494A:  BRA    4948
494C:  BCF    FA6.2
494E:  MOVF   00,W
4950:  IORWF  FF2,F
....................             delay_ms(50);    
4952:  MOVLW  32
4954:  MOVLB  6
4956:  MOVWF  x14
4958:  MOVLB  0
495A:  CALL   0D28
....................             write_eeprom(81,make8(Setpoint,1));//Guardar valor de Setpoint en eeprom 
495E:  MOVFF  581,60E
4962:  MOVLW  51
4964:  MOVWF  FA9
4966:  MOVFF  60E,FA8
496A:  BCF    FA6.6
496C:  BCF    FA6.7
496E:  BSF    FA6.2
4970:  MOVF   FF2,W
4972:  MOVWF  00
4974:  BCF    FF2.7
4976:  MOVLB  F
4978:  MOVLW  55
497A:  MOVWF  FA7
497C:  MOVLW  AA
497E:  MOVWF  FA7
4980:  BSF    FA6.1
4982:  BTFSC  FA6.1
4984:  BRA    4982
4986:  BCF    FA6.2
4988:  MOVF   00,W
498A:  IORWF  FF2,F
....................             delay_ms(50);    
498C:  MOVLW  32
498E:  MOVLB  6
4990:  MOVWF  x14
4992:  MOVLB  0
4994:  CALL   0D28
4998:  MOVLB  5
....................          } 
....................      } 
.................... //_--------------------------------------------------------------------------------------------------------------------------------------------------------     
....................  
....................  
.................... //_--------------------------------------------------------------------------------------------------------------------------------------------------------       
....................       if(Menu==6){ // Menu de Temporizador 
499A:  MOVF   x6B,W
499C:  SUBLW  06
499E:  BTFSS  FD8.2
49A0:  BRA    4CDA
....................       
....................        
....................          if(unidad<1) 
49A2:  MOVF   x6C,F
49A4:  BNZ   49AA
....................          {unidad=4;} 
49A6:  MOVLW  04
49A8:  MOVWF  x6C
....................           
....................          strcpy(Menus.Letra,"Temporiza"); 
49AA:  MOVLW  05
49AC:  MOVWF  FEA
49AE:  MOVLW  EE
49B0:  MOVWF  FE9
49B2:  MOVFF  FF2,60E
49B6:  BCF    FF2.7
49B8:  MOVLW  00
49BA:  MOVLB  0
49BC:  CALL   0928
49C0:  TBLRD*-
49C2:  TBLRD*+
49C4:  MOVF   FF5,W
49C6:  MOVWF  FEE
49C8:  IORLW  00
49CA:  BNZ   49C2
49CC:  MOVLB  6
49CE:  BTFSC  x0E.7
49D0:  BSF    FF2.7
....................          displayMenu(Menus.Letra,0,0,1,2); 
49D2:  MOVLW  05
49D4:  MOVWF  x0F
49D6:  MOVLW  EE
49D8:  MOVWF  x0E
49DA:  CLRF   x10
49DC:  CLRF   x11
49DE:  MOVLW  01
49E0:  MOVWF  x12
49E2:  MOVLW  02
49E4:  MOVWF  x13
49E6:  MOVLB  0
49E8:  CALL   1470
....................           
....................          if(unidad==4) 
49EC:  MOVLB  5
49EE:  MOVF   x6C,W
49F0:  SUBLW  04
49F2:  BNZ   4A12
....................          {displayTiempo(Testerilizacionp[3],20,40,1,2);} 
49F4:  MOVFF  595,60F
49F8:  MOVLW  14
49FA:  MOVLB  6
49FC:  MOVWF  x10
49FE:  MOVLW  28
4A00:  MOVWF  x11
4A02:  MOVLW  01
4A04:  MOVWF  x12
4A06:  MOVLW  02
4A08:  MOVWF  x13
4A0A:  MOVLB  0
4A0C:  CALL   25AE
....................          else 
4A10:  BRA    4A2C
....................          {displayTiempo(Testerilizacionp[3],20,40,0,2);} 
4A12:  MOVFF  595,60F
4A16:  MOVLW  14
4A18:  MOVLB  6
4A1A:  MOVWF  x10
4A1C:  MOVLW  28
4A1E:  MOVWF  x11
4A20:  CLRF   x12
4A22:  MOVLW  02
4A24:  MOVWF  x13
4A26:  MOVLB  0
4A28:  CALL   25AE
....................           
....................          if(unidad==3) 
4A2C:  MOVLB  5
4A2E:  MOVF   x6C,W
4A30:  SUBLW  03
4A32:  BNZ   4A50
....................          {displayTiempo(Testerilizacionp[2],40,40,1,2);} 
4A34:  MOVFF  594,60F
4A38:  MOVLW  28
4A3A:  MOVLB  6
4A3C:  MOVWF  x10
4A3E:  MOVWF  x11
4A40:  MOVLW  01
4A42:  MOVWF  x12
4A44:  MOVLW  02
4A46:  MOVWF  x13
4A48:  MOVLB  0
4A4A:  CALL   25AE
....................          else 
4A4E:  BRA    4A68
....................          {displayTiempo(Testerilizacionp[2],40,40,0,2);} 
4A50:  MOVFF  594,60F
4A54:  MOVLW  28
4A56:  MOVLB  6
4A58:  MOVWF  x10
4A5A:  MOVWF  x11
4A5C:  CLRF   x12
4A5E:  MOVLW  02
4A60:  MOVWF  x13
4A62:  MOVLB  0
4A64:  CALL   25AE
....................           
....................          if(unidad==2) 
4A68:  MOVLB  5
4A6A:  MOVF   x6C,W
4A6C:  SUBLW  02
4A6E:  BNZ   4A8E
....................          {displayTiempo(Testerilizacionp[1],70,40,1,2);} 
4A70:  MOVFF  593,60F
4A74:  MOVLW  46
4A76:  MOVLB  6
4A78:  MOVWF  x10
4A7A:  MOVLW  28
4A7C:  MOVWF  x11
4A7E:  MOVLW  01
4A80:  MOVWF  x12
4A82:  MOVLW  02
4A84:  MOVWF  x13
4A86:  MOVLB  0
4A88:  CALL   25AE
....................          else 
4A8C:  BRA    4AA8
....................          {displayTiempo(Testerilizacionp[1],70,40,0,2);} 
4A8E:  MOVFF  593,60F
4A92:  MOVLW  46
4A94:  MOVLB  6
4A96:  MOVWF  x10
4A98:  MOVLW  28
4A9A:  MOVWF  x11
4A9C:  CLRF   x12
4A9E:  MOVLW  02
4AA0:  MOVWF  x13
4AA2:  MOVLB  0
4AA4:  CALL   25AE
....................           
....................          if(unidad==1) 
4AA8:  MOVLB  5
4AAA:  DECFSZ x6C,W
4AAC:  BRA    4ACC
....................          {displayTiempo(Testerilizacionp[0],90,40,1,2);} 
4AAE:  MOVFF  592,60F
4AB2:  MOVLW  5A
4AB4:  MOVLB  6
4AB6:  MOVWF  x10
4AB8:  MOVLW  28
4ABA:  MOVWF  x11
4ABC:  MOVLW  01
4ABE:  MOVWF  x12
4AC0:  MOVLW  02
4AC2:  MOVWF  x13
4AC4:  MOVLB  0
4AC6:  CALL   25AE
....................          else 
4ACA:  BRA    4AE6
....................          {displayTiempo(Testerilizacionp[0],90,40,0,2);} 
4ACC:  MOVFF  592,60F
4AD0:  MOVLW  5A
4AD2:  MOVLB  6
4AD4:  MOVWF  x10
4AD6:  MOVLW  28
4AD8:  MOVWF  x11
4ADA:  CLRF   x12
4ADC:  MOVLW  02
4ADE:  MOVWF  x13
4AE0:  MOVLB  0
4AE2:  CALL   25AE
....................           
....................          strcpy(Menus.Letra,":"); 
4AE6:  MOVLW  05
4AE8:  MOVWF  FEA
4AEA:  MOVLW  EE
4AEC:  MOVWF  FE9
4AEE:  MOVFF  FF2,60E
4AF2:  BCF    FF2.7
4AF4:  MOVLW  00
4AF6:  CALL   094C
4AFA:  TBLRD*-
4AFC:  TBLRD*+
4AFE:  MOVF   FF5,W
4B00:  MOVWF  FEE
4B02:  IORLW  00
4B04:  BNZ   4AFC
4B06:  MOVLB  6
4B08:  BTFSC  x0E.7
4B0A:  BSF    FF2.7
....................          displayMenu(Menus.Letra,60,42,2,2);            
4B0C:  MOVLW  05
4B0E:  MOVWF  x0F
4B10:  MOVLW  EE
4B12:  MOVWF  x0E
4B14:  MOVLW  3C
4B16:  MOVWF  x10
4B18:  MOVLW  2A
4B1A:  MOVWF  x11
4B1C:  MOVLW  02
4B1E:  MOVWF  x12
4B20:  MOVWF  x13
4B22:  MOVLB  0
4B24:  CALL   1470
....................        
....................          if(UP)//Si oprime hacia arriba 
4B28:  BSF    F92.5
4B2A:  BTFSS  F80.5
4B2C:  BRA    4B6E
....................          {   
....................             if(Testerilizacionp[unidad-1]<9) 
4B2E:  MOVLW  01
4B30:  MOVLB  5
4B32:  SUBWF  x6C,W
4B34:  CLRF   03
4B36:  ADDLW  92
4B38:  MOVWF  FE9
4B3A:  MOVLW  05
4B3C:  ADDWFC 03,W
4B3E:  MOVWF  FEA
4B40:  BTFSC  FEF.7
4B42:  BRA    4B4A
4B44:  MOVF   FEF,W
4B46:  SUBLW  08
4B48:  BNC   4B6C
....................             { 
....................                delay_ms(30);Testerilizacionp[unidad-1]++;visual=1; 
4B4A:  MOVLW  1E
4B4C:  MOVLB  6
4B4E:  MOVWF  x14
4B50:  MOVLB  0
4B52:  CALL   0D28
4B56:  MOVLW  01
4B58:  MOVLB  5
4B5A:  SUBWF  x6C,W
4B5C:  CLRF   03
4B5E:  ADDLW  92
4B60:  MOVWF  FE9
4B62:  MOVLW  05
4B64:  ADDWFC 03,W
4B66:  MOVWF  FEA
4B68:  INCF   FEF,F
4B6A:  BSF    x66.3
4B6C:  MOVLB  0
....................             } 
....................          } 
....................                 
....................          if(DOWN)//Si oprime hacia abajo 
4B6E:  BSF    F96.0
4B70:  BTFSS  F84.0
4B72:  BRA    4BB4
....................          {   
....................             if(Testerilizacionp[unidad-1]>0) 
4B74:  MOVLW  01
4B76:  MOVLB  5
4B78:  SUBWF  x6C,W
4B7A:  CLRF   03
4B7C:  ADDLW  92
4B7E:  MOVWF  FE9
4B80:  MOVLW  05
4B82:  ADDWFC 03,W
4B84:  MOVWF  FEA
4B86:  BTFSC  FEF.7
4B88:  BRA    4BB2
4B8A:  MOVF   FEF,W
4B8C:  SUBLW  00
4B8E:  BC    4BB2
....................             { 
....................                delay_ms(30);Testerilizacionp[unidad-1]--;visual=1;      
4B90:  MOVLW  1E
4B92:  MOVLB  6
4B94:  MOVWF  x14
4B96:  MOVLB  0
4B98:  CALL   0D28
4B9C:  MOVLW  01
4B9E:  MOVLB  5
4BA0:  SUBWF  x6C,W
4BA2:  CLRF   03
4BA4:  ADDLW  92
4BA6:  MOVWF  FE9
4BA8:  MOVLW  05
4BAA:  ADDWFC 03,W
4BAC:  MOVWF  FEA
4BAE:  DECF   FEF,F
4BB0:  BSF    x66.3
4BB2:  MOVLB  0
....................             } 
....................          } 
....................                 
....................          if(RIGHT)//Si oprime SET 
4BB4:  BSF    F96.1
4BB6:  BTFSS  F84.1
4BB8:  BRA    4BCE
....................          {   
....................             delay_ms(30);unidad--;visual=1; 
4BBA:  MOVLW  1E
4BBC:  MOVLB  6
4BBE:  MOVWF  x14
4BC0:  MOVLB  0
4BC2:  CALL   0D28
4BC6:  MOVLB  5
4BC8:  DECF   x6C,F
4BCA:  BSF    x66.3
4BCC:  MOVLB  0
....................          }  
....................                    
....................          if(LEFT)//Si oprime boton de Toma. 
4BCE:  BSF    F96.2
4BD0:  BTFSS  F84.2
4BD2:  BRA    4CD8
....................          { 
....................             delay_ms(700);Menu=1;glcd_fillscreen(OFF);Opcion=1;visual=1; 
4BD4:  MOVLW  04
4BD6:  MOVLB  6
4BD8:  MOVWF  x0E
4BDA:  MOVLW  AF
4BDC:  MOVWF  x14
4BDE:  MOVLB  0
4BE0:  CALL   0D28
4BE4:  MOVLB  6
4BE6:  DECFSZ x0E,F
4BE8:  BRA    4BDA
4BEA:  MOVLW  01
4BEC:  MOVLB  5
4BEE:  MOVWF  x6B
4BF0:  MOVLB  6
4BF2:  CLRF   x0F
4BF4:  MOVLB  0
4BF6:  CALL   0E42
4BFA:  MOVLW  01
4BFC:  MOVLB  5
4BFE:  MOVWF  x71
4C00:  BSF    x66.3
....................             write_eeprom(0,Testerilizacionp[0]); 
4C02:  CLRF   FA9
4C04:  MOVFF  592,FA8
4C08:  BCF    FA6.6
4C0A:  BCF    FA6.7
4C0C:  BSF    FA6.2
4C0E:  MOVF   FF2,W
4C10:  MOVWF  00
4C12:  BCF    FF2.7
4C14:  MOVLB  F
4C16:  MOVLW  55
4C18:  MOVWF  FA7
4C1A:  MOVLW  AA
4C1C:  MOVWF  FA7
4C1E:  BSF    FA6.1
4C20:  BTFSC  FA6.1
4C22:  BRA    4C20
4C24:  BCF    FA6.2
4C26:  MOVF   00,W
4C28:  IORWF  FF2,F
....................             delay_ms(50);    
4C2A:  MOVLW  32
4C2C:  MOVLB  6
4C2E:  MOVWF  x14
4C30:  MOVLB  0
4C32:  CALL   0D28
....................             write_eeprom(1,Testerilizacionp[1]); 
4C36:  MOVLW  01
4C38:  MOVWF  FA9
4C3A:  MOVFF  593,FA8
4C3E:  BCF    FA6.6
4C40:  BCF    FA6.7
4C42:  BSF    FA6.2
4C44:  MOVF   FF2,W
4C46:  MOVWF  00
4C48:  BCF    FF2.7
4C4A:  MOVLB  F
4C4C:  MOVLW  55
4C4E:  MOVWF  FA7
4C50:  MOVLW  AA
4C52:  MOVWF  FA7
4C54:  BSF    FA6.1
4C56:  BTFSC  FA6.1
4C58:  BRA    4C56
4C5A:  BCF    FA6.2
4C5C:  MOVF   00,W
4C5E:  IORWF  FF2,F
....................             delay_ms(50);    
4C60:  MOVLW  32
4C62:  MOVLB  6
4C64:  MOVWF  x14
4C66:  MOVLB  0
4C68:  CALL   0D28
....................             write_eeprom(2,Testerilizacionp[2]); 
4C6C:  MOVLW  02
4C6E:  MOVWF  FA9
4C70:  MOVFF  594,FA8
4C74:  BCF    FA6.6
4C76:  BCF    FA6.7
4C78:  BSF    FA6.2
4C7A:  MOVF   FF2,W
4C7C:  MOVWF  00
4C7E:  BCF    FF2.7
4C80:  MOVLB  F
4C82:  MOVLW  55
4C84:  MOVWF  FA7
4C86:  MOVLW  AA
4C88:  MOVWF  FA7
4C8A:  BSF    FA6.1
4C8C:  BTFSC  FA6.1
4C8E:  BRA    4C8C
4C90:  BCF    FA6.2
4C92:  MOVF   00,W
4C94:  IORWF  FF2,F
....................             delay_ms(50);    
4C96:  MOVLW  32
4C98:  MOVLB  6
4C9A:  MOVWF  x14
4C9C:  MOVLB  0
4C9E:  CALL   0D28
....................             write_eeprom(3,Testerilizacionp[3]); 
4CA2:  MOVLW  03
4CA4:  MOVWF  FA9
4CA6:  MOVFF  595,FA8
4CAA:  BCF    FA6.6
4CAC:  BCF    FA6.7
4CAE:  BSF    FA6.2
4CB0:  MOVF   FF2,W
4CB2:  MOVWF  00
4CB4:  BCF    FF2.7
4CB6:  MOVLB  F
4CB8:  MOVLW  55
4CBA:  MOVWF  FA7
4CBC:  MOVLW  AA
4CBE:  MOVWF  FA7
4CC0:  BSF    FA6.1
4CC2:  BTFSC  FA6.1
4CC4:  BRA    4CC2
4CC6:  BCF    FA6.2
4CC8:  MOVF   00,W
4CCA:  IORWF  FF2,F
....................             delay_ms(50);    
4CCC:  MOVLW  32
4CCE:  MOVLB  6
4CD0:  MOVWF  x14
4CD2:  MOVLB  0
4CD4:  CALL   0D28
4CD8:  MOVLB  5
....................          } 
....................      } 
.................... //_--------------------------------------------------------------------------------------------------------------------------------------------------------     
....................  
....................  
.................... //_--------------------------------------------------------------------------------------------------------------------------------------------------------       
....................       if(Menu==7){ // Menu de Cambio de Contrasea 
4CDA:  MOVF   x6B,W
4CDC:  SUBLW  07
4CDE:  BTFSS  FD8.2
4CE0:  BRA    5196
....................          
....................       strcpy(Menus.Letra,"Clave"); 
4CE2:  MOVLW  05
4CE4:  MOVWF  FEA
4CE6:  MOVLW  EE
4CE8:  MOVWF  FE9
4CEA:  MOVFF  FF2,60E
4CEE:  BCF    FF2.7
4CF0:  MOVLW  00
4CF2:  MOVLB  0
4CF4:  CALL   0782
4CF8:  TBLRD*-
4CFA:  TBLRD*+
4CFC:  MOVF   FF5,W
4CFE:  MOVWF  FEE
4D00:  IORLW  00
4D02:  BNZ   4CFA
4D04:  MOVLB  6
4D06:  BTFSC  x0E.7
4D08:  BSF    FF2.7
....................       displayMenu(Menus.Letra,30,0,1,2);      
4D0A:  MOVLW  05
4D0C:  MOVWF  x0F
4D0E:  MOVLW  EE
4D10:  MOVWF  x0E
4D12:  MOVLW  1E
4D14:  MOVWF  x10
4D16:  CLRF   x11
4D18:  MOVLW  01
4D1A:  MOVWF  x12
4D1C:  MOVLW  02
4D1E:  MOVWF  x13
4D20:  MOVLB  0
4D22:  CALL   1470
....................        
....................       if(unidad==1) 
4D26:  MOVLB  5
4D28:  DECFSZ x6C,W
4D2A:  BRA    4D8A
....................       { 
....................          displayContrasena(Contrasena[0],20,30,1); 
4D2C:  MOVFF  596,610
4D30:  MOVLW  14
4D32:  MOVLB  6
4D34:  MOVWF  x11
4D36:  MOVLW  1E
4D38:  MOVWF  x12
4D3A:  MOVLW  01
4D3C:  MOVWF  x13
4D3E:  MOVLB  0
4D40:  CALL   1696
....................          displayContrasena(Contrasena[1],40,30,0); 
4D44:  MOVFF  597,610
4D48:  MOVLW  28
4D4A:  MOVLB  6
4D4C:  MOVWF  x11
4D4E:  MOVLW  1E
4D50:  MOVWF  x12
4D52:  CLRF   x13
4D54:  MOVLB  0
4D56:  CALL   1696
....................          displayContrasena(Contrasena[2],60,30,0); 
4D5A:  MOVFF  598,610
4D5E:  MOVLW  3C
4D60:  MOVLB  6
4D62:  MOVWF  x11
4D64:  MOVLW  1E
4D66:  MOVWF  x12
4D68:  CLRF   x13
4D6A:  MOVLB  0
4D6C:  CALL   1696
....................          displayContrasena(Contrasena[3],80,30,0); 
4D70:  MOVFF  599,610
4D74:  MOVLW  50
4D76:  MOVLB  6
4D78:  MOVWF  x11
4D7A:  MOVLW  1E
4D7C:  MOVWF  x12
4D7E:  CLRF   x13
4D80:  MOVLB  0
4D82:  CALL   1696
....................       } 
....................       else 
4D86:  BRA    4EB2
4D88:  MOVLB  5
....................       { 
....................          if(unidad==2) 
4D8A:  MOVF   x6C,W
4D8C:  SUBLW  02
4D8E:  BNZ   4DEE
....................          { 
....................             displayContrasena(Contrasena[0],20,30,0); 
4D90:  MOVFF  596,610
4D94:  MOVLW  14
4D96:  MOVLB  6
4D98:  MOVWF  x11
4D9A:  MOVLW  1E
4D9C:  MOVWF  x12
4D9E:  CLRF   x13
4DA0:  MOVLB  0
4DA2:  CALL   1696
....................             displayContrasena(Contrasena[1],40,30,1); 
4DA6:  MOVFF  597,610
4DAA:  MOVLW  28
4DAC:  MOVLB  6
4DAE:  MOVWF  x11
4DB0:  MOVLW  1E
4DB2:  MOVWF  x12
4DB4:  MOVLW  01
4DB6:  MOVWF  x13
4DB8:  MOVLB  0
4DBA:  CALL   1696
....................             displayContrasena(Contrasena[2],60,30,0); 
4DBE:  MOVFF  598,610
4DC2:  MOVLW  3C
4DC4:  MOVLB  6
4DC6:  MOVWF  x11
4DC8:  MOVLW  1E
4DCA:  MOVWF  x12
4DCC:  CLRF   x13
4DCE:  MOVLB  0
4DD0:  CALL   1696
....................             displayContrasena(Contrasena[3],80,30,0); 
4DD4:  MOVFF  599,610
4DD8:  MOVLW  50
4DDA:  MOVLB  6
4DDC:  MOVWF  x11
4DDE:  MOVLW  1E
4DE0:  MOVWF  x12
4DE2:  CLRF   x13
4DE4:  MOVLB  0
4DE6:  CALL   1696
....................          } 
....................          else 
4DEA:  BRA    4EB2
4DEC:  MOVLB  5
....................          { 
....................             if(unidad==3) 
4DEE:  MOVF   x6C,W
4DF0:  SUBLW  03
4DF2:  BNZ   4E52
....................             { 
....................                displayContrasena(Contrasena[0],20,30,0); 
4DF4:  MOVFF  596,610
4DF8:  MOVLW  14
4DFA:  MOVLB  6
4DFC:  MOVWF  x11
4DFE:  MOVLW  1E
4E00:  MOVWF  x12
4E02:  CLRF   x13
4E04:  MOVLB  0
4E06:  CALL   1696
....................                displayContrasena(Contrasena[1],40,30,0); 
4E0A:  MOVFF  597,610
4E0E:  MOVLW  28
4E10:  MOVLB  6
4E12:  MOVWF  x11
4E14:  MOVLW  1E
4E16:  MOVWF  x12
4E18:  CLRF   x13
4E1A:  MOVLB  0
4E1C:  CALL   1696
....................                displayContrasena(Contrasena[2],60,30,1); 
4E20:  MOVFF  598,610
4E24:  MOVLW  3C
4E26:  MOVLB  6
4E28:  MOVWF  x11
4E2A:  MOVLW  1E
4E2C:  MOVWF  x12
4E2E:  MOVLW  01
4E30:  MOVWF  x13
4E32:  MOVLB  0
4E34:  CALL   1696
....................                displayContrasena(Contrasena[3],80,30,0); 
4E38:  MOVFF  599,610
4E3C:  MOVLW  50
4E3E:  MOVLB  6
4E40:  MOVWF  x11
4E42:  MOVLW  1E
4E44:  MOVWF  x12
4E46:  CLRF   x13
4E48:  MOVLB  0
4E4A:  CALL   1696
....................             } 
....................             else 
4E4E:  BRA    4EB2
4E50:  MOVLB  5
....................             { 
....................                if(unidad==4) 
4E52:  MOVF   x6C,W
4E54:  SUBLW  04
4E56:  BNZ   4EB4
....................                { 
....................                   displayContrasena(Contrasena[0],20,30,0); 
4E58:  MOVFF  596,610
4E5C:  MOVLW  14
4E5E:  MOVLB  6
4E60:  MOVWF  x11
4E62:  MOVLW  1E
4E64:  MOVWF  x12
4E66:  CLRF   x13
4E68:  MOVLB  0
4E6A:  CALL   1696
....................                   displayContrasena(Contrasena[1],40,30,0); 
4E6E:  MOVFF  597,610
4E72:  MOVLW  28
4E74:  MOVLB  6
4E76:  MOVWF  x11
4E78:  MOVLW  1E
4E7A:  MOVWF  x12
4E7C:  CLRF   x13
4E7E:  MOVLB  0
4E80:  CALL   1696
....................                   displayContrasena(Contrasena[2],60,30,0); 
4E84:  MOVFF  598,610
4E88:  MOVLW  3C
4E8A:  MOVLB  6
4E8C:  MOVWF  x11
4E8E:  MOVLW  1E
4E90:  MOVWF  x12
4E92:  CLRF   x13
4E94:  MOVLB  0
4E96:  CALL   1696
....................                   displayContrasena(Contrasena[3],80,30,1); 
4E9A:  MOVFF  599,610
4E9E:  MOVLW  50
4EA0:  MOVLB  6
4EA2:  MOVWF  x11
4EA4:  MOVLW  1E
4EA6:  MOVWF  x12
4EA8:  MOVLW  01
4EAA:  MOVWF  x13
4EAC:  MOVLB  0
4EAE:  CALL   1696
4EB2:  MOVLB  5
....................                } 
....................             } 
....................          } 
....................       } 
....................        
....................       if(UP)//Si oprime hacia arriba 
4EB4:  BSF    F92.5
4EB6:  BTFSS  F80.5
4EB8:  BRA    4F22
....................       { 
....................          if(Flanco == 0) 
4EBA:  BTFSC  x66.0
4EBC:  BRA    4F20
....................          { 
....................             Flanco = 1;delay_ms(30); 
4EBE:  BSF    x66.0
4EC0:  MOVLW  1E
4EC2:  MOVLB  6
4EC4:  MOVWF  x14
4EC6:  MOVLB  0
4EC8:  CALL   0D28
....................             for(i=1;i<=4;i++) 
4ECC:  MOVLW  01
4ECE:  MOVLB  5
4ED0:  MOVWF  x6D
4ED2:  MOVF   x6D,W
4ED4:  SUBLW  04
4ED6:  BNC   4F20
....................             { 
....................                if(unidad==i) 
4ED8:  MOVF   x6D,W
4EDA:  SUBWF  x6C,W
4EDC:  BNZ   4F1C
....................                { 
....................                   Contrasena[i-1]++; 
4EDE:  MOVLW  01
4EE0:  SUBWF  x6D,W
4EE2:  CLRF   03
4EE4:  ADDLW  96
4EE6:  MOVWF  FE9
4EE8:  MOVLW  05
4EEA:  ADDWFC 03,W
4EEC:  MOVWF  FEA
4EEE:  INCF   FEF,F
....................                   if(Contrasena[i-1]>9)    
4EF0:  MOVLW  01
4EF2:  SUBWF  x6D,W
4EF4:  CLRF   03
4EF6:  ADDLW  96
4EF8:  MOVWF  FE9
4EFA:  MOVLW  05
4EFC:  ADDWFC 03,W
4EFE:  MOVWF  FEA
4F00:  BTFSC  FEF.7
4F02:  BRA    4F1C
4F04:  MOVF   FEF,W
4F06:  SUBLW  09
4F08:  BC    4F1C
....................                   { 
....................                      Contrasena[i-1]=0; 
4F0A:  MOVLW  01
4F0C:  SUBWF  x6D,W
4F0E:  CLRF   03
4F10:  ADDLW  96
4F12:  MOVWF  FE9
4F14:  MOVLW  05
4F16:  ADDWFC 03,W
4F18:  MOVWF  FEA
4F1A:  CLRF   FEF
....................                   } 
....................                } 
....................             } 
4F1C:  INCF   x6D,F
4F1E:  BRA    4ED2
....................          } 
....................       } 
....................       else 
4F20:  BRA    4F24
....................       { 
....................          Flanco = 0; 
4F22:  BCF    x66.0
....................       } 
....................              
....................       if(DOWN)//Si oprime hacia abajo 
4F24:  BSF    F96.0
4F26:  BTFSS  F84.0
4F28:  BRA    4F90
....................       { 
....................          if(Flanco2 == 0) 
4F2A:  BTFSC  x66.2
4F2C:  BRA    4F8E
....................             {Flanco2 = 1;delay_ms(30); 
4F2E:  BSF    x66.2
4F30:  MOVLW  1E
4F32:  MOVLB  6
4F34:  MOVWF  x14
4F36:  MOVLB  0
4F38:  CALL   0D28
....................                for(i=1;i<=4;i++) 
4F3C:  MOVLW  01
4F3E:  MOVLB  5
4F40:  MOVWF  x6D
4F42:  MOVF   x6D,W
4F44:  SUBLW  04
4F46:  BNC   4F8E
....................                { 
....................                   if(unidad==i) 
4F48:  MOVF   x6D,W
4F4A:  SUBWF  x6C,W
4F4C:  BNZ   4F8A
....................                   {Contrasena[i-1]--;  
4F4E:  MOVLW  01
4F50:  SUBWF  x6D,W
4F52:  CLRF   03
4F54:  ADDLW  96
4F56:  MOVWF  FE9
4F58:  MOVLW  05
4F5A:  ADDWFC 03,W
4F5C:  MOVWF  FEA
4F5E:  DECF   FEF,F
....................                      if(Contrasena[i-1]<0) 
4F60:  MOVLW  01
4F62:  SUBWF  x6D,W
4F64:  CLRF   03
4F66:  ADDLW  96
4F68:  MOVWF  FE9
4F6A:  MOVLW  05
4F6C:  ADDWFC 03,W
4F6E:  MOVWF  FEA
4F70:  BTFSC  FEF.7
4F72:  BRA    4F76
4F74:  BRA    4F8A
....................                         {Contrasena[i-1]=9;} 
4F76:  MOVLW  01
4F78:  SUBWF  x6D,W
4F7A:  CLRF   03
4F7C:  ADDLW  96
4F7E:  MOVWF  FE9
4F80:  MOVLW  05
4F82:  ADDWFC 03,W
4F84:  MOVWF  FEA
4F86:  MOVLW  09
4F88:  MOVWF  FEF
....................                   } 
....................                }       
4F8A:  INCF   x6D,F
4F8C:  BRA    4F42
....................             }      
....................       } 
....................       else 
4F8E:  BRA    4F92
....................       { 
....................          Flanco2 = 0; 
4F90:  BCF    x66.2
....................       } 
....................              
....................       if(RIGHT)//Si oprime RIGHT 
4F92:  BSF    F96.1
4F94:  BTFSS  F84.1
4F96:  BRA    4FBA
....................       { 
....................          if(Flanco1 == 0) 
4F98:  BTFSC  x66.1
4F9A:  BRA    4FB8
....................             {Flanco1 = 1;delay_ms(300);unidad++;} 
4F9C:  BSF    x66.1
4F9E:  MOVLW  02
4FA0:  MOVLB  6
4FA2:  MOVWF  x0E
4FA4:  MOVLW  96
4FA6:  MOVWF  x14
4FA8:  MOVLB  0
4FAA:  CALL   0D28
4FAE:  MOVLB  6
4FB0:  DECFSZ x0E,F
4FB2:  BRA    4FA4
4FB4:  MOVLB  5
4FB6:  INCF   x6C,F
....................       } 
....................       else 
4FB8:  BRA    4FBC
....................       { 
....................          Flanco1 = 0; 
4FBA:  BCF    x66.1
....................       } 
....................        
....................       if(LEFT)//Si oprime Izquierda 
4FBC:  BSF    F96.2
4FBE:  BTFSS  F84.2
4FC0:  BRA    4FEA
....................       { 
....................          delay_ms(700);Menu=1;glcd_fillscreen(OFF); 
4FC2:  MOVLW  04
4FC4:  MOVLB  6
4FC6:  MOVWF  x0E
4FC8:  MOVLW  AF
4FCA:  MOVWF  x14
4FCC:  MOVLB  0
4FCE:  CALL   0D28
4FD2:  MOVLB  6
4FD4:  DECFSZ x0E,F
4FD6:  BRA    4FC8
4FD8:  MOVLW  01
4FDA:  MOVLB  5
4FDC:  MOVWF  x6B
4FDE:  MOVLB  6
4FE0:  CLRF   x0F
4FE2:  MOVLB  0
4FE4:  CALL   0E42
4FE8:  MOVLB  5
....................       } 
....................        
....................       if(unidad>4) 
4FEA:  MOVF   x6C,W
4FEC:  SUBLW  04
4FEE:  BTFSC  FD8.0
4FF0:  BRA    5196
....................       {glcd_fillScreen(OFF); 
4FF2:  MOVLB  6
4FF4:  CLRF   x0F
4FF6:  MOVLB  0
4FF8:  CALL   0E42
....................           
....................          if((Contrasena[0]==Password[0])&&(Contrasena[1]==Password[1])&&(Contrasena[2]==Password[2])&&(Contrasena[3]==Password[3])) 
4FFC:  MOVLB  5
4FFE:  MOVF   x9A,W
5000:  SUBWF  x96,W
5002:  BNZ   50D4
5004:  MOVF   x9B,W
5006:  SUBWF  x97,W
5008:  BNZ   50D4
500A:  MOVF   x9C,W
500C:  SUBWF  x98,W
500E:  BNZ   50D4
5010:  MOVF   x9D,W
5012:  SUBWF  x99,W
5014:  BNZ   50D4
....................          { 
....................             glcd_fillScreen(OFF); 
5016:  MOVLB  6
5018:  CLRF   x0F
501A:  MOVLB  0
501C:  CALL   0E42
....................             strcpy(Menus.Letra,"Clave"); 
5020:  MOVLW  05
5022:  MOVWF  FEA
5024:  MOVLW  EE
5026:  MOVWF  FE9
5028:  MOVFF  FF2,60E
502C:  BCF    FF2.7
502E:  MOVLW  00
5030:  CALL   0782
5034:  TBLRD*-
5036:  TBLRD*+
5038:  MOVF   FF5,W
503A:  MOVWF  FEE
503C:  IORLW  00
503E:  BNZ   5036
5040:  MOVLB  6
5042:  BTFSC  x0E.7
5044:  BSF    FF2.7
....................             displayMenu(Menus.Letra,30,0,0,2); 
5046:  MOVLW  05
5048:  MOVWF  x0F
504A:  MOVLW  EE
504C:  MOVWF  x0E
504E:  MOVLW  1E
5050:  MOVWF  x10
5052:  CLRF   x11
5054:  CLRF   x12
5056:  MOVLW  02
5058:  MOVWF  x13
505A:  MOVLB  0
505C:  CALL   1470
....................             strcpy(Menus.Letra,"Correcta"); 
5060:  MOVLW  05
5062:  MOVWF  FEA
5064:  MOVLW  EE
5066:  MOVWF  FE9
5068:  MOVFF  FF2,60E
506C:  BCF    FF2.7
506E:  MOVLW  00
5070:  CALL   07A2
5074:  TBLRD*-
5076:  TBLRD*+
5078:  MOVF   FF5,W
507A:  MOVWF  FEE
507C:  IORLW  00
507E:  BNZ   5076
5080:  MOVLB  6
5082:  BTFSC  x0E.7
5084:  BSF    FF2.7
....................             displayMenu(Menus.Letra,15,30,0,2); 
5086:  MOVLW  05
5088:  MOVWF  x0F
508A:  MOVLW  EE
508C:  MOVWF  x0E
508E:  MOVLW  0F
5090:  MOVWF  x10
5092:  MOVLW  1E
5094:  MOVWF  x11
5096:  CLRF   x12
5098:  MOVLW  02
509A:  MOVWF  x13
509C:  MOVLB  0
509E:  CALL   1470
....................             Menu=91;glcd_update();delay_ms(1000); 
50A2:  MOVLW  5B
50A4:  MOVLB  5
50A6:  MOVWF  x6B
50A8:  MOVLB  0
50AA:  CALL   0E9C
50AE:  MOVLW  04
50B0:  MOVLB  6
50B2:  MOVWF  x0E
50B4:  MOVLW  FA
50B6:  MOVWF  x14
50B8:  MOVLB  0
50BA:  CALL   0D28
50BE:  MOVLB  6
50C0:  DECFSZ x0E,F
50C2:  BRA    50B4
....................             glcd_fillScreen(OFF);unidad=1; 
50C4:  CLRF   x0F
50C6:  MOVLB  0
50C8:  CALL   0E42
50CC:  MOVLW  01
50CE:  MOVLB  5
50D0:  MOVWF  x6C
....................          }// Esta parte se puede agregar en el Menu 1 dependiendo de la ubicacin del vidrio. 
....................          else 
50D2:  BRA    5196
....................          { 
....................             glcd_fillScreen(OFF); 
50D4:  MOVLB  6
50D6:  CLRF   x0F
50D8:  MOVLB  0
50DA:  CALL   0E42
....................             strcpy(Menus.Letra,"Clave"); 
50DE:  MOVLW  05
50E0:  MOVWF  FEA
50E2:  MOVLW  EE
50E4:  MOVWF  FE9
50E6:  MOVFF  FF2,60E
50EA:  BCF    FF2.7
50EC:  MOVLW  00
50EE:  CALL   0782
50F2:  TBLRD*-
50F4:  TBLRD*+
50F6:  MOVF   FF5,W
50F8:  MOVWF  FEE
50FA:  IORLW  00
50FC:  BNZ   50F4
50FE:  MOVLB  6
5100:  BTFSC  x0E.7
5102:  BSF    FF2.7
....................             displayMenu(Menus.Letra,30,0,0,2); 
5104:  MOVLW  05
5106:  MOVWF  x0F
5108:  MOVLW  EE
510A:  MOVWF  x0E
510C:  MOVLW  1E
510E:  MOVWF  x10
5110:  CLRF   x11
5112:  CLRF   x12
5114:  MOVLW  02
5116:  MOVWF  x13
5118:  MOVLB  0
511A:  CALL   1470
....................             strcpy(Menus.Letra,"Incorrecta"); 
511E:  MOVLW  05
5120:  MOVWF  FEA
5122:  MOVLW  EE
5124:  MOVWF  FE9
5126:  MOVFF  FF2,60E
512A:  BCF    FF2.7
512C:  MOVLW  00
512E:  CALL   07C6
5132:  TBLRD*-
5134:  TBLRD*+
5136:  MOVF   FF5,W
5138:  MOVWF  FEE
513A:  IORLW  00
513C:  BNZ   5134
513E:  MOVLB  6
5140:  BTFSC  x0E.7
5142:  BSF    FF2.7
....................             displayMenu(Menus.Letra,0,30,0,2); 
5144:  MOVLW  05
5146:  MOVWF  x0F
5148:  MOVLW  EE
514A:  MOVWF  x0E
514C:  CLRF   x10
514E:  MOVLW  1E
5150:  MOVWF  x11
5152:  CLRF   x12
5154:  MOVLW  02
5156:  MOVWF  x13
5158:  MOVLB  0
515A:  CALL   1470
....................             Menu=1;glcd_update();delay_ms(1000); 
515E:  MOVLW  01
5160:  MOVLB  5
5162:  MOVWF  x6B
5164:  MOVLB  0
5166:  CALL   0E9C
516A:  MOVLW  04
516C:  MOVLB  6
516E:  MOVWF  x0E
5170:  MOVLW  FA
5172:  MOVWF  x14
5174:  MOVLB  0
5176:  CALL   0D28
517A:  MOVLB  6
517C:  DECFSZ x0E,F
517E:  BRA    5170
....................             glcd_fillScreen(OFF);unidad=1; 
5180:  CLRF   x0F
5182:  MOVLB  0
5184:  CALL   0E42
5188:  MOVLW  01
518A:  MOVLB  5
518C:  MOVWF  x6C
....................             Contrasena[0]=0;Contrasena[1]=0;Contrasena[2]=0;Contrasena[3]=0; 
518E:  CLRF   x96
5190:  CLRF   x97
5192:  CLRF   x98
5194:  CLRF   x99
....................          } 
....................       } 
....................     }     
.................... //_--------------------------------------------------------------------------------------------------------------------------------------------------------     
....................  
.................... //_--------------------------------------------------------------------------------------------------------------------------------------------------------       
....................       if(Menu==91){ // Menu de Cambio de Contrasea 
5196:  MOVF   x6B,W
5198:  SUBLW  5B
519A:  BTFSS  FD8.2
519C:  BRA    55A2
....................          
....................       strcpy(Menus.Letra,"Clave Nueva"); 
519E:  MOVLW  05
51A0:  MOVWF  FEA
51A2:  MOVLW  EE
51A4:  MOVWF  FE9
51A6:  MOVFF  FF2,60E
51AA:  BCF    FF2.7
51AC:  MOVLW  00
51AE:  MOVLB  0
51B0:  CALL   0968
51B4:  TBLRD*-
51B6:  TBLRD*+
51B8:  MOVF   FF5,W
51BA:  MOVWF  FEE
51BC:  IORLW  00
51BE:  BNZ   51B6
51C0:  MOVLB  6
51C2:  BTFSC  x0E.7
51C4:  BSF    FF2.7
....................       displayMenu(Menus.Letra,0,0,1,2);      
51C6:  MOVLW  05
51C8:  MOVWF  x0F
51CA:  MOVLW  EE
51CC:  MOVWF  x0E
51CE:  CLRF   x10
51D0:  CLRF   x11
51D2:  MOVLW  01
51D4:  MOVWF  x12
51D6:  MOVLW  02
51D8:  MOVWF  x13
51DA:  MOVLB  0
51DC:  CALL   1470
....................        
....................       if(unidad==1) 
51E0:  MOVLB  5
51E2:  DECFSZ x6C,W
51E4:  BRA    5244
....................       { 
....................          displayContrasena(Password[0],20,30,1); 
51E6:  MOVFF  59A,610
51EA:  MOVLW  14
51EC:  MOVLB  6
51EE:  MOVWF  x11
51F0:  MOVLW  1E
51F2:  MOVWF  x12
51F4:  MOVLW  01
51F6:  MOVWF  x13
51F8:  MOVLB  0
51FA:  CALL   1696
....................          displayContrasena(Password[1],40,30,0); 
51FE:  MOVFF  59B,610
5202:  MOVLW  28
5204:  MOVLB  6
5206:  MOVWF  x11
5208:  MOVLW  1E
520A:  MOVWF  x12
520C:  CLRF   x13
520E:  MOVLB  0
5210:  CALL   1696
....................          displayContrasena(Password[2],60,30,0); 
5214:  MOVFF  59C,610
5218:  MOVLW  3C
521A:  MOVLB  6
521C:  MOVWF  x11
521E:  MOVLW  1E
5220:  MOVWF  x12
5222:  CLRF   x13
5224:  MOVLB  0
5226:  CALL   1696
....................          displayContrasena(Password[3],80,30,0); 
522A:  MOVFF  59D,610
522E:  MOVLW  50
5230:  MOVLB  6
5232:  MOVWF  x11
5234:  MOVLW  1E
5236:  MOVWF  x12
5238:  CLRF   x13
523A:  MOVLB  0
523C:  CALL   1696
....................       } 
....................       else 
5240:  BRA    536C
5242:  MOVLB  5
....................       { 
....................          if(unidad==2) 
5244:  MOVF   x6C,W
5246:  SUBLW  02
5248:  BNZ   52A8
....................          { 
....................             displayContrasena(Password[0],20,30,0); 
524A:  MOVFF  59A,610
524E:  MOVLW  14
5250:  MOVLB  6
5252:  MOVWF  x11
5254:  MOVLW  1E
5256:  MOVWF  x12
5258:  CLRF   x13
525A:  MOVLB  0
525C:  CALL   1696
....................             displayContrasena(Password[1],40,30,1); 
5260:  MOVFF  59B,610
5264:  MOVLW  28
5266:  MOVLB  6
5268:  MOVWF  x11
526A:  MOVLW  1E
526C:  MOVWF  x12
526E:  MOVLW  01
5270:  MOVWF  x13
5272:  MOVLB  0
5274:  CALL   1696
....................             displayContrasena(Password[2],60,30,0); 
5278:  MOVFF  59C,610
527C:  MOVLW  3C
527E:  MOVLB  6
5280:  MOVWF  x11
5282:  MOVLW  1E
5284:  MOVWF  x12
5286:  CLRF   x13
5288:  MOVLB  0
528A:  CALL   1696
....................             displayContrasena(Password[3],80,30,0); 
528E:  MOVFF  59D,610
5292:  MOVLW  50
5294:  MOVLB  6
5296:  MOVWF  x11
5298:  MOVLW  1E
529A:  MOVWF  x12
529C:  CLRF   x13
529E:  MOVLB  0
52A0:  CALL   1696
....................          } 
....................          else 
52A4:  BRA    536C
52A6:  MOVLB  5
....................          { 
....................             if(unidad==3) 
52A8:  MOVF   x6C,W
52AA:  SUBLW  03
52AC:  BNZ   530C
....................             { 
....................                displayContrasena(Password[0],20,30,0); 
52AE:  MOVFF  59A,610
52B2:  MOVLW  14
52B4:  MOVLB  6
52B6:  MOVWF  x11
52B8:  MOVLW  1E
52BA:  MOVWF  x12
52BC:  CLRF   x13
52BE:  MOVLB  0
52C0:  CALL   1696
....................                displayContrasena(Password[1],40,30,0); 
52C4:  MOVFF  59B,610
52C8:  MOVLW  28
52CA:  MOVLB  6
52CC:  MOVWF  x11
52CE:  MOVLW  1E
52D0:  MOVWF  x12
52D2:  CLRF   x13
52D4:  MOVLB  0
52D6:  CALL   1696
....................                displayContrasena(Password[2],60,30,1); 
52DA:  MOVFF  59C,610
52DE:  MOVLW  3C
52E0:  MOVLB  6
52E2:  MOVWF  x11
52E4:  MOVLW  1E
52E6:  MOVWF  x12
52E8:  MOVLW  01
52EA:  MOVWF  x13
52EC:  MOVLB  0
52EE:  CALL   1696
....................                displayContrasena(Password[3],80,30,0); 
52F2:  MOVFF  59D,610
52F6:  MOVLW  50
52F8:  MOVLB  6
52FA:  MOVWF  x11
52FC:  MOVLW  1E
52FE:  MOVWF  x12
5300:  CLRF   x13
5302:  MOVLB  0
5304:  CALL   1696
....................             } 
....................             else 
5308:  BRA    536C
530A:  MOVLB  5
....................             { 
....................                if(unidad==4) 
530C:  MOVF   x6C,W
530E:  SUBLW  04
5310:  BNZ   536E
....................                { 
....................                   displayContrasena(Password[0],20,30,0); 
5312:  MOVFF  59A,610
5316:  MOVLW  14
5318:  MOVLB  6
531A:  MOVWF  x11
531C:  MOVLW  1E
531E:  MOVWF  x12
5320:  CLRF   x13
5322:  MOVLB  0
5324:  CALL   1696
....................                   displayContrasena(Password[1],40,30,0); 
5328:  MOVFF  59B,610
532C:  MOVLW  28
532E:  MOVLB  6
5330:  MOVWF  x11
5332:  MOVLW  1E
5334:  MOVWF  x12
5336:  CLRF   x13
5338:  MOVLB  0
533A:  CALL   1696
....................                   displayContrasena(Password[2],60,30,0); 
533E:  MOVFF  59C,610
5342:  MOVLW  3C
5344:  MOVLB  6
5346:  MOVWF  x11
5348:  MOVLW  1E
534A:  MOVWF  x12
534C:  CLRF   x13
534E:  MOVLB  0
5350:  CALL   1696
....................                   displayContrasena(Password[3],80,30,1); 
5354:  MOVFF  59D,610
5358:  MOVLW  50
535A:  MOVLB  6
535C:  MOVWF  x11
535E:  MOVLW  1E
5360:  MOVWF  x12
5362:  MOVLW  01
5364:  MOVWF  x13
5366:  MOVLB  0
5368:  CALL   1696
536C:  MOVLB  5
....................                } 
....................             } 
....................          } 
....................       } 
....................        
....................       if(UP)//Si oprime hacia arriba 
536E:  BSF    F92.5
5370:  BTFSS  F80.5
5372:  BRA    53DC
....................       { 
....................          if(Flanco == 0) 
5374:  BTFSC  x66.0
5376:  BRA    53DA
....................          { 
....................             Flanco = 1;delay_ms(30); 
5378:  BSF    x66.0
537A:  MOVLW  1E
537C:  MOVLB  6
537E:  MOVWF  x14
5380:  MOVLB  0
5382:  CALL   0D28
....................             for(i=1;i<=4;i++) 
5386:  MOVLW  01
5388:  MOVLB  5
538A:  MOVWF  x6D
538C:  MOVF   x6D,W
538E:  SUBLW  04
5390:  BNC   53DA
....................             { 
....................                if(unidad==i) 
5392:  MOVF   x6D,W
5394:  SUBWF  x6C,W
5396:  BNZ   53D6
....................                { 
....................                   Password[i-1]++; 
5398:  MOVLW  01
539A:  SUBWF  x6D,W
539C:  CLRF   03
539E:  ADDLW  9A
53A0:  MOVWF  FE9
53A2:  MOVLW  05
53A4:  ADDWFC 03,W
53A6:  MOVWF  FEA
53A8:  INCF   FEF,F
....................                   if(Password[i-1]>9)    
53AA:  MOVLW  01
53AC:  SUBWF  x6D,W
53AE:  CLRF   03
53B0:  ADDLW  9A
53B2:  MOVWF  FE9
53B4:  MOVLW  05
53B6:  ADDWFC 03,W
53B8:  MOVWF  FEA
53BA:  BTFSC  FEF.7
53BC:  BRA    53D6
53BE:  MOVF   FEF,W
53C0:  SUBLW  09
53C2:  BC    53D6
....................                   { 
....................                      Password[i-1]=0; 
53C4:  MOVLW  01
53C6:  SUBWF  x6D,W
53C8:  CLRF   03
53CA:  ADDLW  9A
53CC:  MOVWF  FE9
53CE:  MOVLW  05
53D0:  ADDWFC 03,W
53D2:  MOVWF  FEA
53D4:  CLRF   FEF
....................                   } 
....................                } 
....................             } 
53D6:  INCF   x6D,F
53D8:  BRA    538C
....................          } 
....................       } 
....................       else 
53DA:  BRA    53DE
....................       { 
....................          Flanco = 0; 
53DC:  BCF    x66.0
....................       } 
....................              
....................       if(DOWN)//Si oprime hacia abajo 
53DE:  BSF    F96.0
53E0:  BTFSS  F84.0
53E2:  BRA    544A
....................       { 
....................          if(Flanco2 == 0) 
53E4:  BTFSC  x66.2
53E6:  BRA    5448
....................             {Flanco2 = 1;delay_ms(30); 
53E8:  BSF    x66.2
53EA:  MOVLW  1E
53EC:  MOVLB  6
53EE:  MOVWF  x14
53F0:  MOVLB  0
53F2:  CALL   0D28
....................                for(i=1;i<=4;i++) 
53F6:  MOVLW  01
53F8:  MOVLB  5
53FA:  MOVWF  x6D
53FC:  MOVF   x6D,W
53FE:  SUBLW  04
5400:  BNC   5448
....................                { 
....................                   if(unidad==i) 
5402:  MOVF   x6D,W
5404:  SUBWF  x6C,W
5406:  BNZ   5444
....................                   { 
....................                      Password[i-1]--; 
5408:  MOVLW  01
540A:  SUBWF  x6D,W
540C:  CLRF   03
540E:  ADDLW  9A
5410:  MOVWF  FE9
5412:  MOVLW  05
5414:  ADDWFC 03,W
5416:  MOVWF  FEA
5418:  DECF   FEF,F
....................                      if(Password[i-1]<0) 
541A:  MOVLW  01
541C:  SUBWF  x6D,W
541E:  CLRF   03
5420:  ADDLW  9A
5422:  MOVWF  FE9
5424:  MOVLW  05
5426:  ADDWFC 03,W
5428:  MOVWF  FEA
542A:  BTFSC  FEF.7
542C:  BRA    5430
542E:  BRA    5444
....................                      { 
....................                         Password[i-1]=9; 
5430:  MOVLW  01
5432:  SUBWF  x6D,W
5434:  CLRF   03
5436:  ADDLW  9A
5438:  MOVWF  FE9
543A:  MOVLW  05
543C:  ADDWFC 03,W
543E:  MOVWF  FEA
5440:  MOVLW  09
5442:  MOVWF  FEF
....................                      } 
....................                   } 
....................                }       
5444:  INCF   x6D,F
5446:  BRA    53FC
....................             }      
....................       } 
....................       else 
5448:  BRA    544C
....................       { 
....................          Flanco2 = 0; 
544A:  BCF    x66.2
....................       } 
....................              
....................       if(RIGHT)//Si oprime RIGHT 
544C:  BSF    F96.1
544E:  BTFSS  F84.1
5450:  BRA    5474
....................       { 
....................          if(Flanco1 == 0) 
5452:  BTFSC  x66.1
5454:  BRA    5472
....................             {Flanco1 = 1;delay_ms(300);unidad++;} 
5456:  BSF    x66.1
5458:  MOVLW  02
545A:  MOVLB  6
545C:  MOVWF  x0E
545E:  MOVLW  96
5460:  MOVWF  x14
5462:  MOVLB  0
5464:  CALL   0D28
5468:  MOVLB  6
546A:  DECFSZ x0E,F
546C:  BRA    545E
546E:  MOVLB  5
5470:  INCF   x6C,F
....................       } 
....................       else 
5472:  BRA    5476
....................       { 
....................          Flanco1 = 0; 
5474:  BCF    x66.1
....................       } 
....................        
....................       if(LEFT)//Si oprime Izquierda 
5476:  BSF    F96.2
5478:  BTFSS  F84.2
547A:  BRA    54A4
....................       { 
....................          delay_ms(700);Menu=1;glcd_fillscreen(OFF); 
547C:  MOVLW  04
547E:  MOVLB  6
5480:  MOVWF  x0E
5482:  MOVLW  AF
5484:  MOVWF  x14
5486:  MOVLB  0
5488:  CALL   0D28
548C:  MOVLB  6
548E:  DECFSZ x0E,F
5490:  BRA    5482
5492:  MOVLW  01
5494:  MOVLB  5
5496:  MOVWF  x6B
5498:  MOVLB  6
549A:  CLRF   x0F
549C:  MOVLB  0
549E:  CALL   0E42
54A2:  MOVLB  5
....................       } 
....................        
....................       if(unidad>4) 
54A4:  MOVF   x6C,W
54A6:  SUBLW  04
54A8:  BTFSC  FD8.0
54AA:  BRA    55A2
....................       { 
....................          Opcion=1;unidad=1; 
54AC:  MOVLW  01
54AE:  MOVWF  x71
54B0:  MOVWF  x6C
....................          write_eeprom(10,Password[0]); 
54B2:  MOVLW  0A
54B4:  MOVWF  FA9
54B6:  MOVFF  59A,FA8
54BA:  BCF    FA6.6
54BC:  BCF    FA6.7
54BE:  BSF    FA6.2
54C0:  MOVF   FF2,W
54C2:  MOVWF  00
54C4:  BCF    FF2.7
54C6:  MOVLB  F
54C8:  MOVLW  55
54CA:  MOVWF  FA7
54CC:  MOVLW  AA
54CE:  MOVWF  FA7
54D0:  BSF    FA6.1
54D2:  BTFSC  FA6.1
54D4:  BRA    54D2
54D6:  BCF    FA6.2
54D8:  MOVF   00,W
54DA:  IORWF  FF2,F
....................          delay_ms(50);    
54DC:  MOVLW  32
54DE:  MOVLB  6
54E0:  MOVWF  x14
54E2:  MOVLB  0
54E4:  CALL   0D28
....................          write_eeprom(11,Password[1]); 
54E8:  MOVLW  0B
54EA:  MOVWF  FA9
54EC:  MOVFF  59B,FA8
54F0:  BCF    FA6.6
54F2:  BCF    FA6.7
54F4:  BSF    FA6.2
54F6:  MOVF   FF2,W
54F8:  MOVWF  00
54FA:  BCF    FF2.7
54FC:  MOVLB  F
54FE:  MOVLW  55
5500:  MOVWF  FA7
5502:  MOVLW  AA
5504:  MOVWF  FA7
5506:  BSF    FA6.1
5508:  BTFSC  FA6.1
550A:  BRA    5508
550C:  BCF    FA6.2
550E:  MOVF   00,W
5510:  IORWF  FF2,F
....................          delay_ms(50);    
5512:  MOVLW  32
5514:  MOVLB  6
5516:  MOVWF  x14
5518:  MOVLB  0
551A:  CALL   0D28
....................          write_eeprom(12,Password[2]); 
551E:  MOVLW  0C
5520:  MOVWF  FA9
5522:  MOVFF  59C,FA8
5526:  BCF    FA6.6
5528:  BCF    FA6.7
552A:  BSF    FA6.2
552C:  MOVF   FF2,W
552E:  MOVWF  00
5530:  BCF    FF2.7
5532:  MOVLB  F
5534:  MOVLW  55
5536:  MOVWF  FA7
5538:  MOVLW  AA
553A:  MOVWF  FA7
553C:  BSF    FA6.1
553E:  BTFSC  FA6.1
5540:  BRA    553E
5542:  BCF    FA6.2
5544:  MOVF   00,W
5546:  IORWF  FF2,F
....................          delay_ms(50);    
5548:  MOVLW  32
554A:  MOVLB  6
554C:  MOVWF  x14
554E:  MOVLB  0
5550:  CALL   0D28
....................          write_eeprom(13,Password[3]); 
5554:  MOVLW  0D
5556:  MOVWF  FA9
5558:  MOVFF  59D,FA8
555C:  BCF    FA6.6
555E:  BCF    FA6.7
5560:  BSF    FA6.2
5562:  MOVF   FF2,W
5564:  MOVWF  00
5566:  BCF    FF2.7
5568:  MOVLB  F
556A:  MOVLW  55
556C:  MOVWF  FA7
556E:  MOVLW  AA
5570:  MOVWF  FA7
5572:  BSF    FA6.1
5574:  BTFSC  FA6.1
5576:  BRA    5574
5578:  BCF    FA6.2
557A:  MOVF   00,W
557C:  IORWF  FF2,F
....................          delay_ms(1000);glcd_fillScreen(OFF);Menu=1; 
557E:  MOVLW  04
5580:  MOVLB  6
5582:  MOVWF  x0E
5584:  MOVLW  FA
5586:  MOVWF  x14
5588:  MOVLB  0
558A:  CALL   0D28
558E:  MOVLB  6
5590:  DECFSZ x0E,F
5592:  BRA    5584
5594:  CLRF   x0F
5596:  MOVLB  0
5598:  CALL   0E42
559C:  MOVLW  01
559E:  MOVLB  5
55A0:  MOVWF  x6B
....................       } 
....................     }     
.................... //_--------------------------------------------------------------------------------------------------------------------------------------------------------     
....................  
....................  
....................  
.................... //_-------------------------------------------------------------------------------------------------------------------------------------------------------- 
....................       if(Menu==20){ //Menu de Funcionamiento 
55A2:  MOVF   x6B,W
55A4:  SUBLW  14
55A6:  BTFSS  FD8.2
55A8:  GOTO   6358
....................        
....................       // Muestra imagen de fondo en Display GLCD 
....................       glcd_imagen(5); 
55AC:  MOVLW  05
55AE:  MOVLB  6
55B0:  MOVWF  x0E
55B2:  MOVLB  0
55B4:  GOTO   2774
....................        
....................        
....................       if(Pausa==0 && !DOOR && !TERM) 
55B8:  MOVLB  5
55BA:  MOVF   x6E,F
55BC:  BTFSS  FD8.2
55BE:  BRA    597E
55C0:  BSF    F92.3
55C2:  BTFSC  F80.3
55C4:  BRA    597E
55C6:  BSF    F92.4
55C8:  BTFSC  F80.4
55CA:  BRA    597E
....................       { 
....................          if(Enfria==1) 
55CC:  DECFSZ x6A,W
55CE:  BRA    57A8
....................          { 
....................             if(Temperatura<=Setpoint) 
55D0:  MOVFF  581,615
55D4:  MOVFF  580,614
55D8:  MOVLB  0
55DA:  CALL   0D52
55DE:  MOVFF  5D9,611
55E2:  MOVFF  5D8,610
55E6:  MOVFF  5D7,60F
55EA:  MOVFF  5D6,60E
55EE:  MOVFF  03,615
55F2:  MOVFF  02,614
55F6:  MOVFF  01,613
55FA:  MOVFF  00,612
55FE:  CALL   0D88
5602:  BC    5606
5604:  BNZ   560C
....................             { 
....................                flag_setpoint=1; 
5606:  MOVLB  5
5608:  BSF    x67.3
560A:  MOVLB  0
....................             } 
....................             if(Temperatura>Setpoint-1.2) 
560C:  MOVFF  581,615
5610:  MOVFF  580,614
5614:  CALL   0D52
5618:  BSF    FD8.1
561A:  MOVFF  03,616
561E:  MOVFF  02,615
5622:  MOVFF  01,614
5626:  MOVFF  00,613
562A:  MOVLW  9A
562C:  MOVLB  6
562E:  MOVWF  x1A
5630:  MOVLW  99
5632:  MOVWF  x19
5634:  MOVLW  19
5636:  MOVWF  x18
5638:  MOVLW  7F
563A:  MOVWF  x17
563C:  MOVLB  0
563E:  CALL   1904
5642:  MOVFF  03,611
5646:  MOVFF  02,610
564A:  MOVFF  01,60F
564E:  MOVFF  00,60E
5652:  MOVFF  5D9,615
5656:  MOVFF  5D8,614
565A:  MOVFF  5D7,613
565E:  MOVFF  5D6,612
5662:  CALL   0D88
5666:  BNC   566E
....................             { 
....................                flag_setpoint=0; 
5668:  MOVLB  5
566A:  BCF    x67.3
566C:  MOVLB  0
....................             } 
....................             if(Temperatura<=Setpoint+1.0) 
566E:  MOVFF  581,615
5672:  MOVFF  580,614
5676:  CALL   0D52
567A:  BCF    FD8.1
567C:  MOVFF  03,616
5680:  MOVFF  02,615
5684:  MOVFF  01,614
5688:  MOVFF  00,613
568C:  MOVLB  6
568E:  CLRF   x1A
5690:  CLRF   x19
5692:  CLRF   x18
5694:  MOVLW  7F
5696:  MOVWF  x17
5698:  MOVLB  0
569A:  CALL   1904
569E:  MOVFF  5D9,611
56A2:  MOVFF  5D8,610
56A6:  MOVFF  5D7,60F
56AA:  MOVFF  5D6,60E
56AE:  MOVFF  03,615
56B2:  MOVFF  02,614
56B6:  MOVFF  01,613
56BA:  MOVFF  00,612
56BE:  CALL   0D88
56C2:  BC    56C6
56C4:  BNZ   5738
....................             { 
....................                glcd_rect(0, 55, 127, 63, YES, OFF); 
56C6:  MOVLB  6
56C8:  CLRF   x21
56CA:  MOVLW  37
56CC:  MOVWF  x22
56CE:  MOVLW  7F
56D0:  MOVWF  x23
56D2:  MOVLW  3F
56D4:  MOVWF  x24
56D6:  MOVLW  01
56D8:  MOVWF  x25
56DA:  CLRF   x26
56DC:  MOVLB  0
56DE:  CALL   13AE
....................                strcpy(Menus.Letra,"Status:Controlando"); 
56E2:  MOVLW  05
56E4:  MOVWF  FEA
56E6:  MOVLW  EE
56E8:  MOVWF  FE9
56EA:  MOVFF  FF2,60E
56EE:  BCF    FF2.7
56F0:  MOVLW  00
56F2:  CALL   098E
56F6:  TBLRD*-
56F8:  TBLRD*+
56FA:  MOVF   FF5,W
56FC:  MOVWF  FEE
56FE:  IORLW  00
5700:  BNZ   56F8
5702:  MOVLB  6
5704:  BTFSC  x0E.7
5706:  BSF    FF2.7
....................                displayMenu(Menus.Letra,0,55,2,1); 
5708:  MOVLW  05
570A:  MOVWF  x0F
570C:  MOVLW  EE
570E:  MOVWF  x0E
5710:  CLRF   x10
5712:  MOVLW  37
5714:  MOVWF  x11
5716:  MOVLW  02
5718:  MOVWF  x12
571A:  MOVLW  01
571C:  MOVWF  x13
571E:  MOVLB  0
5720:  CALL   1470
....................                tiempo_esterilizacion=1; 
5724:  MOVLW  01
5726:  MOVLB  5
5728:  MOVWF  x72
....................                Controla(); 
572A:  MOVLB  0
572C:  CALL   28D0
....................                flag_tiempocalentamiento=0; 
5730:  MOVLB  5
5732:  BCF    x67.1
....................             } 
....................             else 
5734:  BRA    57A6
5736:  MOVLB  0
....................             { 
....................                flag_tiempocalentamiento=0; 
5738:  MOVLB  5
573A:  BCF    x67.1
....................                glcd_rect(0, 55, 127, 63, YES, OFF); 
573C:  MOVLB  6
573E:  CLRF   x21
5740:  MOVLW  37
5742:  MOVWF  x22
5744:  MOVLW  7F
5746:  MOVWF  x23
5748:  MOVLW  3F
574A:  MOVWF  x24
574C:  MOVLW  01
574E:  MOVWF  x25
5750:  CLRF   x26
5752:  MOVLB  0
5754:  CALL   13AE
....................                strcpy(Menus.Letra,"Status:Enfriando"); 
5758:  MOVLW  05
575A:  MOVWF  FEA
575C:  MOVLW  EE
575E:  MOVWF  FE9
5760:  MOVFF  FF2,60E
5764:  BCF    FF2.7
5766:  MOVLW  00
5768:  CALL   09BC
576C:  TBLRD*-
576E:  TBLRD*+
5770:  MOVF   FF5,W
5772:  MOVWF  FEE
5774:  IORLW  00
5776:  BNZ   576E
5778:  MOVLB  6
577A:  BTFSC  x0E.7
577C:  BSF    FF2.7
....................                displayMenu(Menus.Letra,0,55,2,1); 
577E:  MOVLW  05
5780:  MOVWF  x0F
5782:  MOVLW  EE
5784:  MOVWF  x0E
5786:  CLRF   x10
5788:  MOVLW  37
578A:  MOVWF  x11
578C:  MOVLW  02
578E:  MOVWF  x12
5790:  MOVLW  01
5792:  MOVWF  x13
5794:  MOVLB  0
5796:  CALL   1470
....................                tiempo_esterilizacion=0; 
579A:  MOVLB  5
579C:  CLRF   x72
....................                Controla(); 
579E:  MOVLB  0
57A0:  CALL   28D0
57A4:  MOVLB  5
....................             } 
....................          } 
....................          else 
57A6:  BRA    597E
....................          { 
....................             if(Temperatura>=Setpoint) 
57A8:  MOVFF  581,615
57AC:  MOVFF  580,614
57B0:  MOVLB  0
57B2:  CALL   0D52
57B6:  MOVFF  03,611
57BA:  MOVFF  02,610
57BE:  MOVFF  01,60F
57C2:  MOVFF  00,60E
57C6:  MOVFF  5D9,615
57CA:  MOVFF  5D8,614
57CE:  MOVFF  5D7,613
57D2:  MOVFF  5D6,612
57D6:  CALL   0D88
57DA:  BC    57DE
57DC:  BNZ   57E4
....................             { 
....................                flag_setpoint=1; 
57DE:  MOVLB  5
57E0:  BSF    x67.3
57E2:  MOVLB  0
....................             } 
....................             if(Temperatura<Setpoint-1.2) 
57E4:  MOVFF  581,615
57E8:  MOVFF  580,614
57EC:  CALL   0D52
57F0:  BSF    FD8.1
57F2:  MOVFF  03,616
57F6:  MOVFF  02,615
57FA:  MOVFF  01,614
57FE:  MOVFF  00,613
5802:  MOVLW  9A
5804:  MOVLB  6
5806:  MOVWF  x1A
5808:  MOVLW  99
580A:  MOVWF  x19
580C:  MOVLW  19
580E:  MOVWF  x18
5810:  MOVLW  7F
5812:  MOVWF  x17
5814:  MOVLB  0
5816:  CALL   1904
581A:  MOVFF  5D9,611
581E:  MOVFF  5D8,610
5822:  MOVFF  5D7,60F
5826:  MOVFF  5D6,60E
582A:  MOVFF  03,615
582E:  MOVFF  02,614
5832:  MOVFF  01,613
5836:  MOVFF  00,612
583A:  CALL   0D88
583E:  BNC   5846
....................             { 
....................                flag_setpoint=0; 
5840:  MOVLB  5
5842:  BCF    x67.3
5844:  MOVLB  0
....................             } 
....................             if(Temperatura>=Setpoint-1.0) 
5846:  MOVFF  581,615
584A:  MOVFF  580,614
584E:  CALL   0D52
5852:  BSF    FD8.1
5854:  MOVFF  03,616
5858:  MOVFF  02,615
585C:  MOVFF  01,614
5860:  MOVFF  00,613
5864:  MOVLB  6
5866:  CLRF   x1A
5868:  CLRF   x19
586A:  CLRF   x18
586C:  MOVLW  7F
586E:  MOVWF  x17
5870:  MOVLB  0
5872:  CALL   1904
5876:  MOVFF  03,611
587A:  MOVFF  02,610
587E:  MOVFF  01,60F
5882:  MOVFF  00,60E
5886:  MOVFF  5D9,615
588A:  MOVFF  5D8,614
588E:  MOVFF  5D7,613
5892:  MOVFF  5D6,612
5896:  CALL   0D88
589A:  BC    589E
589C:  BNZ   5910
....................             { 
....................                glcd_rect(0, 55, 127, 63, YES, OFF); 
589E:  MOVLB  6
58A0:  CLRF   x21
58A2:  MOVLW  37
58A4:  MOVWF  x22
58A6:  MOVLW  7F
58A8:  MOVWF  x23
58AA:  MOVLW  3F
58AC:  MOVWF  x24
58AE:  MOVLW  01
58B0:  MOVWF  x25
58B2:  CLRF   x26
58B4:  MOVLB  0
58B6:  CALL   13AE
....................                strcpy(Menus.Letra,"Status:Controlando"); 
58BA:  MOVLW  05
58BC:  MOVWF  FEA
58BE:  MOVLW  EE
58C0:  MOVWF  FE9
58C2:  MOVFF  FF2,60E
58C6:  BCF    FF2.7
58C8:  MOVLW  00
58CA:  CALL   098E
58CE:  TBLRD*-
58D0:  TBLRD*+
58D2:  MOVF   FF5,W
58D4:  MOVWF  FEE
58D6:  IORLW  00
58D8:  BNZ   58D0
58DA:  MOVLB  6
58DC:  BTFSC  x0E.7
58DE:  BSF    FF2.7
....................                displayMenu(Menus.Letra,0,55,2,1); 
58E0:  MOVLW  05
58E2:  MOVWF  x0F
58E4:  MOVLW  EE
58E6:  MOVWF  x0E
58E8:  CLRF   x10
58EA:  MOVLW  37
58EC:  MOVWF  x11
58EE:  MOVLW  02
58F0:  MOVWF  x12
58F2:  MOVLW  01
58F4:  MOVWF  x13
58F6:  MOVLB  0
58F8:  CALL   1470
....................                tiempo_esterilizacion=1; 
58FC:  MOVLW  01
58FE:  MOVLB  5
5900:  MOVWF  x72
....................                Controla(); 
5902:  MOVLB  0
5904:  CALL   28D0
....................                flag_tiempocalentamiento=0; 
5908:  MOVLB  5
590A:  BCF    x67.1
....................             } 
....................             else 
590C:  BRA    597E
590E:  MOVLB  0
....................             { 
....................                flag_tiempocalentamiento=1; 
5910:  MOVLB  5
5912:  BSF    x67.1
....................                glcd_rect(0, 55, 127, 63, YES, OFF); 
5914:  MOVLB  6
5916:  CLRF   x21
5918:  MOVLW  37
591A:  MOVWF  x22
591C:  MOVLW  7F
591E:  MOVWF  x23
5920:  MOVLW  3F
5922:  MOVWF  x24
5924:  MOVLW  01
5926:  MOVWF  x25
5928:  CLRF   x26
592A:  MOVLB  0
592C:  CALL   13AE
....................                strcpy(Menus.Letra,"Status:Calentando"); 
5930:  MOVLW  05
5932:  MOVWF  FEA
5934:  MOVLW  EE
5936:  MOVWF  FE9
5938:  MOVFF  FF2,60E
593C:  BCF    FF2.7
593E:  MOVLW  00
5940:  CALL   09E8
5944:  TBLRD*-
5946:  TBLRD*+
5948:  MOVF   FF5,W
594A:  MOVWF  FEE
594C:  IORLW  00
594E:  BNZ   5946
5950:  MOVLB  6
5952:  BTFSC  x0E.7
5954:  BSF    FF2.7
....................                displayMenu(Menus.Letra,0,55,2,1); 
5956:  MOVLW  05
5958:  MOVWF  x0F
595A:  MOVLW  EE
595C:  MOVWF  x0E
595E:  CLRF   x10
5960:  MOVLW  37
5962:  MOVWF  x11
5964:  MOVLW  02
5966:  MOVWF  x12
5968:  MOVLW  01
596A:  MOVWF  x13
596C:  MOVLB  0
596E:  CALL   1470
....................                tiempo_esterilizacion=0; 
5972:  MOVLB  5
5974:  CLRF   x72
....................                Controla(); 
5976:  MOVLB  0
5978:  CALL   28D0
597C:  MOVLB  5
....................             } 
....................          } 
....................       } 
....................        
....................       if(Pausa==1 && !DOOR && !TERM) 
597E:  DECFSZ x6E,W
5980:  BRA    59E8
5982:  BSF    F92.3
5984:  BTFSC  F80.3
5986:  BRA    59E8
5988:  BSF    F92.4
598A:  BTFSC  F80.4
598C:  BRA    59E8
....................       { 
....................          flag_tiempocalentamiento=0; 
598E:  BCF    x67.1
....................          strcpy(Menus.Letra,"Status:Pausado"); 
5990:  MOVLW  05
5992:  MOVWF  FEA
5994:  MOVLW  EE
5996:  MOVWF  FE9
5998:  MOVFF  FF2,60E
599C:  BCF    FF2.7
599E:  MOVLW  00
59A0:  MOVLB  0
59A2:  CALL   0A14
59A6:  TBLRD*-
59A8:  TBLRD*+
59AA:  MOVF   FF5,W
59AC:  MOVWF  FEE
59AE:  IORLW  00
59B0:  BNZ   59A8
59B2:  MOVLB  6
59B4:  BTFSC  x0E.7
59B6:  BSF    FF2.7
....................          displayMenu(Menus.Letra,0,55,2,1); 
59B8:  MOVLW  05
59BA:  MOVWF  x0F
59BC:  MOVLW  EE
59BE:  MOVWF  x0E
59C0:  CLRF   x10
59C2:  MOVLW  37
59C4:  MOVWF  x11
59C6:  MOVLW  02
59C8:  MOVWF  x12
59CA:  MOVLW  01
59CC:  MOVWF  x13
59CE:  MOVLB  0
59D0:  CALL   1470
....................          tiempo_esterilizacion=0; 
59D4:  MOVLB  5
59D6:  CLRF   x72
....................          Resistencia_off; 
59D8:  BCF    F8B.0
59DA:  BCF    F94.0
....................          Peltier_off; 
59DC:  BCF    F8B.2
59DE:  BCF    F94.2
....................           
....................          Tpulso=0.0; 
59E0:  CLRF   xB1
59E2:  CLRF   xB0
59E4:  CLRF   xAF
59E6:  CLRF   xAE
....................       } 
....................        
....................       if(DOOR) 
59E8:  BSF    F92.3
59EA:  BTFSS  F80.3
59EC:  BRA    5B1E
....................       { 
....................          flag_tiempocalentamiento=0; 
59EE:  BCF    x67.1
....................          if(flag_clear2==0) 
59F0:  BTFSC  x66.6
59F2:  BRA    5AD6
....................          { 
....................             Ganancia=read_eeprom(90); 
59F4:  MOVFF  FF2,60E
59F8:  BCF    FF2.7
59FA:  MOVLW  5A
59FC:  MOVWF  FA9
59FE:  BCF    FA6.6
5A00:  BCF    FA6.7
5A02:  BSF    FA6.0
5A04:  MOVF   FA8,W
5A06:  MOVLB  6
5A08:  BTFSC  x0E.7
5A0A:  BSF    FF2.7
5A0C:  CLRF   x15
5A0E:  MOVWF  x14
5A10:  MOVLB  0
5A12:  CALL   0D52
5A16:  MOVFF  03,5C5
5A1A:  MOVFF  02,5C4
5A1E:  MOVFF  01,5C3
5A22:  MOVFF  00,5C2
....................             Ganancia=Setpoint*(Ganancia/Coeficiente); 
5A26:  MOVFF  5C5,612
5A2A:  MOVFF  5C4,611
5A2E:  MOVFF  5C3,610
5A32:  MOVFF  5C2,60F
5A36:  MOVFF  5D1,616
5A3A:  MOVFF  5D0,615
5A3E:  MOVFF  5CF,614
5A42:  MOVFF  5CE,613
5A46:  CALL   17A6
5A4A:  MOVFF  00,60E
5A4E:  MOVFF  01,60F
5A52:  MOVFF  02,610
5A56:  MOVFF  03,611
5A5A:  MOVFF  581,615
5A5E:  MOVFF  580,614
5A62:  CALL   0D52
5A66:  MOVFF  03,62E
5A6A:  MOVFF  02,62D
5A6E:  MOVFF  01,62C
5A72:  MOVFF  00,62B
5A76:  MOVFF  611,632
5A7A:  MOVFF  610,631
5A7E:  MOVFF  60F,630
5A82:  MOVFF  60E,62F
5A86:  CALL   1B9E
5A8A:  MOVFF  03,5C5
5A8E:  MOVFF  02,5C4
5A92:  MOVFF  01,5C3
5A96:  MOVFF  00,5C2
....................             Pausa_ant=Pausa; 
5A9A:  MOVFF  56E,56F
....................             Pausa=0; 
5A9E:  MOVLB  5
5AA0:  CLRF   x6E
....................             //glcd_fillScreen(OFF); 
....................             glcd_rect(0, 55, 127, 63, YES, OFF); 
5AA2:  MOVLB  6
5AA4:  CLRF   x21
5AA6:  MOVLW  37
5AA8:  MOVWF  x22
5AAA:  MOVLW  7F
5AAC:  MOVWF  x23
5AAE:  MOVLW  3F
5AB0:  MOVWF  x24
5AB2:  MOVLW  01
5AB4:  MOVWF  x25
5AB6:  CLRF   x26
5AB8:  MOVLB  0
5ABA:  CALL   13AE
....................             tiempo_esterilizacion=0; 
5ABE:  MOVLB  5
5AC0:  CLRF   x72
....................             Resistencia_off; 
5AC2:  BCF    F8B.0
5AC4:  BCF    F94.0
....................             Peltier_off; 
5AC6:  BCF    F8B.2
5AC8:  BCF    F94.2
....................              
....................             Tpulso=0.0; 
5ACA:  CLRF   xB1
5ACC:  CLRF   xB0
5ACE:  CLRF   xAF
5AD0:  CLRF   xAE
....................             flag_clear2=1; 
5AD2:  BSF    x66.6
....................             flag_ganancia=0; 
5AD4:  CLRF   x64
....................          } 
....................          strcpy(Menus.Letra,"Status:Puerta Abierta"); 
5AD6:  MOVLW  05
5AD8:  MOVWF  FEA
5ADA:  MOVLW  EE
5ADC:  MOVWF  FE9
5ADE:  MOVFF  FF2,60E
5AE2:  BCF    FF2.7
5AE4:  MOVLW  00
5AE6:  MOVLB  0
5AE8:  CALL   0A3E
5AEC:  TBLRD*-
5AEE:  TBLRD*+
5AF0:  MOVF   FF5,W
5AF2:  MOVWF  FEE
5AF4:  IORLW  00
5AF6:  BNZ   5AEE
5AF8:  MOVLB  6
5AFA:  BTFSC  x0E.7
5AFC:  BSF    FF2.7
....................          displayMenu(Menus.Letra,0,55,2,1); 
5AFE:  MOVLW  05
5B00:  MOVWF  x0F
5B02:  MOVLW  EE
5B04:  MOVWF  x0E
5B06:  CLRF   x10
5B08:  MOVLW  37
5B0A:  MOVWF  x11
5B0C:  MOVLW  02
5B0E:  MOVWF  x12
5B10:  MOVLW  01
5B12:  MOVWF  x13
5B14:  MOVLB  0
5B16:  CALL   1470
....................       } 
....................       else 
5B1A:  BRA    5B48
5B1C:  MOVLB  5
....................       { 
....................          if(flag_clear2==1) 
5B1E:  BTFSS  x66.6
5B20:  BRA    5B46
....................          { 
....................             Pausa=Pausa_ant; 
5B22:  MOVFF  56F,56E
....................             //glcd_fillScreen(OFF); 
....................             glcd_rect(0, 55, 127, 63, YES, OFF); 
5B26:  MOVLB  6
5B28:  CLRF   x21
5B2A:  MOVLW  37
5B2C:  MOVWF  x22
5B2E:  MOVLW  7F
5B30:  MOVWF  x23
5B32:  MOVLW  3F
5B34:  MOVWF  x24
5B36:  MOVLW  01
5B38:  MOVWF  x25
5B3A:  CLRF   x26
5B3C:  MOVLB  0
5B3E:  CALL   13AE
....................             flag_clear2=0; 
5B42:  MOVLB  5
5B44:  BCF    x66.6
5B46:  MOVLB  0
....................          } 
....................       } 
....................        
....................       if(TERM) 
5B48:  BSF    F92.4
5B4A:  BTFSS  F80.4
5B4C:  BRA    5C0A
....................       { 
....................          flag_tiempocalentamiento=0; 
5B4E:  MOVLB  5
5B50:  BCF    x67.1
....................          if(flag_clear3==0) 
5B52:  BTFSC  x66.7
5B54:  BRA    5B90
....................          { 
....................             Pausa_ant=Pausa; 
5B56:  MOVFF  56E,56F
....................             Pausa=0; 
5B5A:  CLRF   x6E
....................             //glcd_fillScreen(OFF); 
....................             glcd_rect(0, 55, 127, 63, YES, OFF); 
5B5C:  MOVLB  6
5B5E:  CLRF   x21
5B60:  MOVLW  37
5B62:  MOVWF  x22
5B64:  MOVLW  7F
5B66:  MOVWF  x23
5B68:  MOVLW  3F
5B6A:  MOVWF  x24
5B6C:  MOVLW  01
5B6E:  MOVWF  x25
5B70:  CLRF   x26
5B72:  MOVLB  0
5B74:  CALL   13AE
....................             tiempo_esterilizacion=0; 
5B78:  MOVLB  5
5B7A:  CLRF   x72
....................             Resistencia_off; 
5B7C:  BCF    F8B.0
5B7E:  BCF    F94.0
....................             Peltier_off; 
5B80:  BCF    F8B.2
5B82:  BCF    F94.2
....................              
....................             Tpulso=0.0; 
5B84:  CLRF   xB1
5B86:  CLRF   xB0
5B88:  CLRF   xAF
5B8A:  CLRF   xAE
....................             flag_clear3=1; 
5B8C:  BSF    x66.7
....................             flag_ganancia=0; 
5B8E:  CLRF   x64
....................          } 
....................          strcpy(Menus.Letra,"Status:Alarma 01"); 
5B90:  MOVLW  05
5B92:  MOVWF  FEA
5B94:  MOVLW  EE
5B96:  MOVWF  FE9
5B98:  MOVFF  FF2,60E
5B9C:  BCF    FF2.7
5B9E:  MOVLW  00
5BA0:  MOVLB  0
5BA2:  CALL   0A6E
5BA6:  TBLRD*-
5BA8:  TBLRD*+
5BAA:  MOVF   FF5,W
5BAC:  MOVWF  FEE
5BAE:  IORLW  00
5BB0:  BNZ   5BA8
5BB2:  MOVLB  6
5BB4:  BTFSC  x0E.7
5BB6:  BSF    FF2.7
....................          displayMenu(Menus.Letra,0,55,2,1); 
5BB8:  MOVLW  05
5BBA:  MOVWF  x0F
5BBC:  MOVLW  EE
5BBE:  MOVWF  x0E
5BC0:  CLRF   x10
5BC2:  MOVLW  37
5BC4:  MOVWF  x11
5BC6:  MOVLW  02
5BC8:  MOVWF  x12
5BCA:  MOVLW  01
5BCC:  MOVWF  x13
5BCE:  MOVLB  0
5BD0:  CALL   1470
....................           
....................          Buzzer_on; 
5BD4:  BSF    F8B.1
5BD6:  BCF    F94.1
....................          delay_ms(1000); 
5BD8:  MOVLW  04
5BDA:  MOVLB  6
5BDC:  MOVWF  x0E
5BDE:  MOVLW  FA
5BE0:  MOVWF  x14
5BE2:  MOVLB  0
5BE4:  CALL   0D28
5BE8:  MOVLB  6
5BEA:  DECFSZ x0E,F
5BEC:  BRA    5BDE
....................          Buzzer_off; 
5BEE:  BCF    F8B.1
5BF0:  BCF    F94.1
....................          delay_ms(1000); 
5BF2:  MOVLW  04
5BF4:  MOVWF  x0E
5BF6:  MOVLW  FA
5BF8:  MOVWF  x14
5BFA:  MOVLB  0
5BFC:  CALL   0D28
5C00:  MOVLB  6
5C02:  DECFSZ x0E,F
5C04:  BRA    5BF6
....................       } 
....................       else 
5C06:  BRA    5C36
5C08:  MOVLB  0
....................       { 
....................          if(flag_clear3==1) 
5C0A:  MOVLB  5
5C0C:  BTFSS  x66.7
5C0E:  BRA    5C34
....................          { 
....................             Pausa=Pausa_ant; 
5C10:  MOVFF  56F,56E
....................             //glcd_fillScreen(OFF); 
....................             glcd_rect(0, 55, 127, 63, YES, OFF); 
5C14:  MOVLB  6
5C16:  CLRF   x21
5C18:  MOVLW  37
5C1A:  MOVWF  x22
5C1C:  MOVLW  7F
5C1E:  MOVWF  x23
5C20:  MOVLW  3F
5C22:  MOVWF  x24
5C24:  MOVLW  01
5C26:  MOVWF  x25
5C28:  CLRF   x26
5C2A:  MOVLB  0
5C2C:  CALL   13AE
....................             flag_clear3=0; 
5C30:  MOVLB  5
5C32:  BCF    x66.7
5C34:  MOVLB  6
....................          } 
....................       }   
....................        
....................       if(UP)//Si oprime hacia arriba 
5C36:  BSF    F92.5
5C38:  BTFSS  F80.5
5C3A:  BRA    5C74
....................       { 
....................          if(Pausa!=2) 
5C3C:  MOVLB  5
5C3E:  MOVF   x6E,W
5C40:  SUBLW  02
5C42:  BZ    5C72
....................          { 
....................             delay_ms(200);Pausa=0; 
5C44:  MOVLW  C8
5C46:  MOVLB  6
5C48:  MOVWF  x14
5C4A:  MOVLB  0
5C4C:  CALL   0D28
5C50:  MOVLB  5
5C52:  CLRF   x6E
....................             //glcd_fillScreen(OFF); 
....................             glcd_rect(0, 55, 127, 63, YES, OFF); 
5C54:  MOVLB  6
5C56:  CLRF   x21
5C58:  MOVLW  37
5C5A:  MOVWF  x22
5C5C:  MOVLW  7F
5C5E:  MOVWF  x23
5C60:  MOVLW  3F
5C62:  MOVWF  x24
5C64:  MOVLW  01
5C66:  MOVWF  x25
5C68:  CLRF   x26
5C6A:  MOVLB  0
5C6C:  CALL   13AE
5C70:  MOVLB  5
5C72:  MOVLB  6
....................          } 
....................       } 
....................              
....................       if(DOWN)//Si oprime hacia abajo 
5C74:  BSF    F96.0
5C76:  BTFSS  F84.0
5C78:  BRA    5CB4
....................       {   
....................          if(Pausa!=2) 
5C7A:  MOVLB  5
5C7C:  MOVF   x6E,W
5C7E:  SUBLW  02
5C80:  BZ    5CB2
....................          { 
....................             delay_ms(200);Pausa=1; 
5C82:  MOVLW  C8
5C84:  MOVLB  6
5C86:  MOVWF  x14
5C88:  MOVLB  0
5C8A:  CALL   0D28
5C8E:  MOVLW  01
5C90:  MOVLB  5
5C92:  MOVWF  x6E
....................             //glcd_fillScreen(OFF); 
....................             glcd_rect(0, 55, 127, 63, YES, OFF); 
5C94:  MOVLB  6
5C96:  CLRF   x21
5C98:  MOVLW  37
5C9A:  MOVWF  x22
5C9C:  MOVLW  7F
5C9E:  MOVWF  x23
5CA0:  MOVLW  3F
5CA2:  MOVWF  x24
5CA4:  MOVLW  01
5CA6:  MOVWF  x25
5CA8:  CLRF   x26
5CAA:  MOVLB  0
5CAC:  CALL   13AE
5CB0:  MOVLB  5
5CB2:  MOVLB  6
....................          } 
....................       } 
....................              
....................       if(RIGHT)//Si oprime SET 
5CB4:  BSF    F96.1
5CB6:  BTFSS  F84.1
5CB8:  BRA    5CC8
....................       {   
....................          glcd_init(ON);flag_display=!flag_display; 
5CBA:  MOVLW  01
5CBC:  MOVWF  x0E
5CBE:  MOVLB  0
5CC0:  CALL   0F54
5CC4:  MOVLB  5
5CC6:  BTG    x67.2
....................       }  
....................          
....................       if(Lectura==1)// Utilizado para visualizar la lectura de la temperatura 
5CC8:  MOVLB  5
5CCA:  BTFSS  x66.4
5CCC:  BRA    6158
....................       {                  
....................           
....................          Lectura=0; 
5CCE:  BCF    x66.4
....................          Potencia=(100.0/Tciclo)*Tpulso; 
5CD0:  MOVLB  6
5CD2:  CLRF   x12
5CD4:  CLRF   x11
5CD6:  MOVLW  48
5CD8:  MOVWF  x10
5CDA:  MOVLW  85
5CDC:  MOVWF  x0F
5CDE:  MOVFF  5AD,616
5CE2:  MOVFF  5AC,615
5CE6:  MOVFF  5AB,614
5CEA:  MOVFF  5AA,613
5CEE:  MOVLB  0
5CF0:  CALL   17A6
5CF4:  MOVFF  00,60E
5CF8:  MOVFF  01,60F
5CFC:  MOVFF  02,610
5D00:  MOVFF  03,611
5D04:  MOVFF  03,62E
5D08:  MOVFF  02,62D
5D0C:  MOVFF  01,62C
5D10:  MOVFF  00,62B
5D14:  MOVFF  5B1,632
5D18:  MOVFF  5B0,631
5D1C:  MOVFF  5AF,630
5D20:  MOVFF  5AE,62F
5D24:  CALL   1B9E
5D28:  MOVFF  03,585
5D2C:  MOVFF  02,584
5D30:  MOVFF  01,583
5D34:  MOVFF  00,582
....................          Temperatura=Leer_Sensor(MediaMovil); 
5D38:  MOVFF  562,60E
5D3C:  CALL   1C94
5D40:  MOVFF  03,5D9
5D44:  MOVFF  02,5D8
5D48:  MOVFF  01,5D7
5D4C:  MOVFF  00,5D6
....................          displayT(Temperatura,15,29,2); 
5D50:  MOVFF  5D9,611
5D54:  MOVFF  5D8,610
5D58:  MOVFF  5D7,60F
5D5C:  MOVFF  5D6,60E
5D60:  MOVLW  0F
5D62:  MOVLB  6
5D64:  MOVWF  x12
5D66:  MOVLW  1D
5D68:  MOVWF  x13
5D6A:  MOVLW  02
5D6C:  MOVWF  x14
5D6E:  MOVLB  0
5D70:  CALL   3116
....................          glcd_circle(74,30,2,NO,ON); 
5D74:  MOVLW  4A
5D76:  MOVLB  6
5D78:  MOVWF  x0E
5D7A:  MOVLW  1E
5D7C:  MOVWF  x0F
5D7E:  MOVLW  02
5D80:  MOVWF  x10
5D82:  CLRF   x11
5D84:  MOVLW  01
5D86:  MOVWF  x12
5D88:  MOVLB  0
5D8A:  CALL   2088
....................          strcpy(Menus.Letra,"C");displayMenu(Menus.Letra,75,30,2,2); 
5D8E:  MOVLW  05
5D90:  MOVWF  FEA
5D92:  MOVLW  EE
5D94:  MOVWF  FE9
5D96:  MOVFF  FF2,60E
5D9A:  BCF    FF2.7
5D9C:  MOVLW  00
5D9E:  CALL   090C
5DA2:  TBLRD*-
5DA4:  TBLRD*+
5DA6:  MOVF   FF5,W
5DA8:  MOVWF  FEE
5DAA:  IORLW  00
5DAC:  BNZ   5DA4
5DAE:  MOVLB  6
5DB0:  BTFSC  x0E.7
5DB2:  BSF    FF2.7
5DB4:  MOVLW  05
5DB6:  MOVWF  x0F
5DB8:  MOVLW  EE
5DBA:  MOVWF  x0E
5DBC:  MOVLW  4B
5DBE:  MOVWF  x10
5DC0:  MOVLW  1E
5DC2:  MOVWF  x11
5DC4:  MOVLW  02
5DC6:  MOVWF  x12
5DC8:  MOVWF  x13
5DCA:  MOVLB  0
5DCC:  CALL   1470
....................           
....................          displayTemperatura(Setpoint,30,45,0,1); 
5DD0:  MOVFF  581,611
5DD4:  MOVFF  580,610
5DD8:  MOVLW  1E
5DDA:  MOVLB  6
5DDC:  MOVWF  x12
5DDE:  MOVLW  2D
5DE0:  MOVWF  x13
5DE2:  CLRF   x14
5DE4:  MOVLW  01
5DE6:  MOVWF  x15
5DE8:  MOVLB  0
5DEA:  CALL   2370
....................          glcd_circle(50,47,1,NO,ON); 
5DEE:  MOVLW  32
5DF0:  MOVLB  6
5DF2:  MOVWF  x0E
5DF4:  MOVLW  2F
5DF6:  MOVWF  x0F
5DF8:  MOVLW  01
5DFA:  MOVWF  x10
5DFC:  CLRF   x11
5DFE:  MOVWF  x12
5E00:  MOVLB  0
5E02:  CALL   2088
....................          strcpy(Menus.Letra,"C");displayMenu(Menus.Letra,53,45,2,1); 
5E06:  MOVLW  05
5E08:  MOVWF  FEA
5E0A:  MOVLW  EE
5E0C:  MOVWF  FE9
5E0E:  MOVFF  FF2,60E
5E12:  BCF    FF2.7
5E14:  MOVLW  00
5E16:  CALL   090C
5E1A:  TBLRD*-
5E1C:  TBLRD*+
5E1E:  MOVF   FF5,W
5E20:  MOVWF  FEE
5E22:  IORLW  00
5E24:  BNZ   5E1C
5E26:  MOVLB  6
5E28:  BTFSC  x0E.7
5E2A:  BSF    FF2.7
5E2C:  MOVLW  05
5E2E:  MOVWF  x0F
5E30:  MOVLW  EE
5E32:  MOVWF  x0E
5E34:  MOVLW  35
5E36:  MOVWF  x10
5E38:  MOVLW  2D
5E3A:  MOVWF  x11
5E3C:  MOVLW  02
5E3E:  MOVWF  x12
5E40:  MOVLW  01
5E42:  MOVWF  x13
5E44:  MOVLB  0
5E46:  CALL   1470
....................          strcpy(Menus.Letra,"Temp:");displayMenu(Menus.Letra,0,45,2,1);  
5E4A:  MOVLW  05
5E4C:  MOVWF  FEA
5E4E:  MOVLW  EE
5E50:  MOVWF  FE9
5E52:  MOVFF  FF2,60E
5E56:  BCF    FF2.7
5E58:  MOVLW  00
5E5A:  CALL   0A9A
5E5E:  TBLRD*-
5E60:  TBLRD*+
5E62:  MOVF   FF5,W
5E64:  MOVWF  FEE
5E66:  IORLW  00
5E68:  BNZ   5E60
5E6A:  MOVLB  6
5E6C:  BTFSC  x0E.7
5E6E:  BSF    FF2.7
5E70:  MOVLW  05
5E72:  MOVWF  x0F
5E74:  MOVLW  EE
5E76:  MOVWF  x0E
5E78:  CLRF   x10
5E7A:  MOVLW  2D
5E7C:  MOVWF  x11
5E7E:  MOVLW  02
5E80:  MOVWF  x12
5E82:  MOVLW  01
5E84:  MOVWF  x13
5E86:  MOVLB  0
5E88:  CALL   1470
....................           
....................          displayTiempo(Potencia,97,42,3,1);strcpy(Menus.Letra,"%");displayMenu(Menus.Letra,115,42,2,1); 
5E8C:  MOVFF  585,611
5E90:  MOVFF  584,610
5E94:  MOVFF  583,60F
5E98:  MOVFF  582,60E
5E9C:  CALL   2894
5EA0:  MOVFF  01,60E
5EA4:  MOVFF  01,60F
5EA8:  MOVLW  61
5EAA:  MOVLB  6
5EAC:  MOVWF  x10
5EAE:  MOVLW  2A
5EB0:  MOVWF  x11
5EB2:  MOVLW  03
5EB4:  MOVWF  x12
5EB6:  MOVLW  01
5EB8:  MOVWF  x13
5EBA:  MOVLB  0
5EBC:  CALL   25AE
5EC0:  MOVLW  05
5EC2:  MOVWF  FEA
5EC4:  MOVLW  EE
5EC6:  MOVWF  FE9
5EC8:  MOVFF  FF2,60E
5ECC:  BCF    FF2.7
5ECE:  MOVLW  00
5ED0:  CALL   0ABA
5ED4:  TBLRD*-
5ED6:  TBLRD*+
5ED8:  MOVF   FF5,W
5EDA:  MOVWF  FEE
5EDC:  IORLW  00
5EDE:  BNZ   5ED6
5EE0:  MOVLB  6
5EE2:  BTFSC  x0E.7
5EE4:  BSF    FF2.7
5EE6:  MOVLW  05
5EE8:  MOVWF  x0F
5EEA:  MOVLW  EE
5EEC:  MOVWF  x0E
5EEE:  MOVLW  73
5EF0:  MOVWF  x10
5EF2:  MOVLW  2A
5EF4:  MOVWF  x11
5EF6:  MOVLW  02
5EF8:  MOVWF  x12
5EFA:  MOVLW  01
5EFC:  MOVWF  x13
5EFE:  MOVLB  0
5F00:  CALL   1470
....................          //displayTiempo(Tpulsomin*10,97,42,3,1);strcpy(Menus.Letra,"%");displayMenu(Menus.Letra,115,42,2,1); 
....................           
....................          if(flag_display==1) 
5F04:  MOVLB  5
5F06:  BTFSS  x67.2
5F08:  BRA    5F30
....................             //displayTiempo(Ganancia,97,13,3,1); 
....................             //displayTemperatura(Prom,97,13,0,1); 
....................             displayT(Prom,97,13,1); 
5F0A:  MOVFF  5B9,611
5F0E:  MOVFF  5B8,610
5F12:  MOVFF  5B7,60F
5F16:  MOVFF  5B6,60E
5F1A:  MOVLW  61
5F1C:  MOVLB  6
5F1E:  MOVWF  x12
5F20:  MOVLW  0D
5F22:  MOVWF  x13
5F24:  MOVLW  01
5F26:  MOVWF  x14
5F28:  MOVLB  0
5F2A:  CALL   3116
....................          else 
5F2E:  BRA    5F4E
....................             glcd_rect(97, 13, 115, 18, YES, OFF); 
5F30:  MOVLW  61
5F32:  MOVLB  6
5F34:  MOVWF  x21
5F36:  MOVLW  0D
5F38:  MOVWF  x22
5F3A:  MOVLW  73
5F3C:  MOVWF  x23
5F3E:  MOVLW  12
5F40:  MOVWF  x24
5F42:  MOVLW  01
5F44:  MOVWF  x25
5F46:  CLRF   x26
5F48:  MOVLB  0
5F4A:  CALL   13AE
....................           
....................          // Muestra Valor de esterilizacion Programado. 
....................          displayTiempo(Testerilizacion[3],20,2,0,2);displayTiempo(Testerilizacion[2],33,2,0,2); 
5F4E:  MOVFF  591,60F
5F52:  MOVLW  14
5F54:  MOVLB  6
5F56:  MOVWF  x10
5F58:  MOVLW  02
5F5A:  MOVWF  x11
5F5C:  CLRF   x12
5F5E:  MOVWF  x13
5F60:  MOVLB  0
5F62:  CALL   25AE
5F66:  MOVFF  590,60F
5F6A:  MOVLW  21
5F6C:  MOVLB  6
5F6E:  MOVWF  x10
5F70:  MOVLW  02
5F72:  MOVWF  x11
5F74:  CLRF   x12
5F76:  MOVWF  x13
5F78:  MOVLB  0
5F7A:  CALL   25AE
....................          strcpy(Menus.Letra,":");displayMenu(Menus.Letra,46,2,2,2);  
5F7E:  MOVLW  05
5F80:  MOVWF  FEA
5F82:  MOVLW  EE
5F84:  MOVWF  FE9
5F86:  MOVFF  FF2,60E
5F8A:  BCF    FF2.7
5F8C:  MOVLW  00
5F8E:  CALL   094C
5F92:  TBLRD*-
5F94:  TBLRD*+
5F96:  MOVF   FF5,W
5F98:  MOVWF  FEE
5F9A:  IORLW  00
5F9C:  BNZ   5F94
5F9E:  MOVLB  6
5FA0:  BTFSC  x0E.7
5FA2:  BSF    FF2.7
5FA4:  MOVLW  05
5FA6:  MOVWF  x0F
5FA8:  MOVLW  EE
5FAA:  MOVWF  x0E
5FAC:  MOVLW  2E
5FAE:  MOVWF  x10
5FB0:  MOVLW  02
5FB2:  MOVWF  x11
5FB4:  MOVWF  x12
5FB6:  MOVWF  x13
5FB8:  MOVLB  0
5FBA:  CALL   1470
....................          displayTiempo(Testerilizacion[1],55,2,0,2);displayTiempo(Testerilizacion[0],68,2,0,2); 
5FBE:  MOVFF  58F,60F
5FC2:  MOVLW  37
5FC4:  MOVLB  6
5FC6:  MOVWF  x10
5FC8:  MOVLW  02
5FCA:  MOVWF  x11
5FCC:  CLRF   x12
5FCE:  MOVWF  x13
5FD0:  MOVLB  0
5FD2:  CALL   25AE
5FD6:  MOVFF  58E,60F
5FDA:  MOVLW  44
5FDC:  MOVLB  6
5FDE:  MOVWF  x10
5FE0:  MOVLW  02
5FE2:  MOVWF  x11
5FE4:  CLRF   x12
5FE6:  MOVWF  x13
5FE8:  MOVLB  0
5FEA:  CALL   25AE
....................           
....................          // Muestra Valor de esterilizacion actual. 
....................          strcpy(Menus.Letra,"Time:");displayMenu(Menus.Letra,0,18,2,1);  
5FEE:  MOVLW  05
5FF0:  MOVWF  FEA
5FF2:  MOVLW  EE
5FF4:  MOVWF  FE9
5FF6:  MOVFF  FF2,60E
5FFA:  BCF    FF2.7
5FFC:  MOVLW  00
5FFE:  CALL   0AD6
6002:  TBLRD*-
6004:  TBLRD*+
6006:  MOVF   FF5,W
6008:  MOVWF  FEE
600A:  IORLW  00
600C:  BNZ   6004
600E:  MOVLB  6
6010:  BTFSC  x0E.7
6012:  BSF    FF2.7
6014:  MOVLW  05
6016:  MOVWF  x0F
6018:  MOVLW  EE
601A:  MOVWF  x0E
601C:  CLRF   x10
601E:  MOVLW  12
6020:  MOVWF  x11
6022:  MOVLW  02
6024:  MOVWF  x12
6026:  MOVLW  01
6028:  MOVWF  x13
602A:  MOVLB  0
602C:  CALL   1470
....................          displayTiempo(Testerilizacionp[3],30,18,0,1);displayTiempo(Testerilizacionp[2],36,18,0,1); 
6030:  MOVFF  595,60F
6034:  MOVLW  1E
6036:  MOVLB  6
6038:  MOVWF  x10
603A:  MOVLW  12
603C:  MOVWF  x11
603E:  CLRF   x12
6040:  MOVLW  01
6042:  MOVWF  x13
6044:  MOVLB  0
6046:  CALL   25AE
604A:  MOVFF  594,60F
604E:  MOVLW  24
6050:  MOVLB  6
6052:  MOVWF  x10
6054:  MOVLW  12
6056:  MOVWF  x11
6058:  CLRF   x12
605A:  MOVLW  01
605C:  MOVWF  x13
605E:  MOVLB  0
6060:  CALL   25AE
....................          strcpy(Menus.Letra,":");displayMenu(Menus.Letra,42,18,2,1);  
6064:  MOVLW  05
6066:  MOVWF  FEA
6068:  MOVLW  EE
606A:  MOVWF  FE9
606C:  MOVFF  FF2,60E
6070:  BCF    FF2.7
6072:  MOVLW  00
6074:  CALL   094C
6078:  TBLRD*-
607A:  TBLRD*+
607C:  MOVF   FF5,W
607E:  MOVWF  FEE
6080:  IORLW  00
6082:  BNZ   607A
6084:  MOVLB  6
6086:  BTFSC  x0E.7
6088:  BSF    FF2.7
608A:  MOVLW  05
608C:  MOVWF  x0F
608E:  MOVLW  EE
6090:  MOVWF  x0E
6092:  MOVLW  2A
6094:  MOVWF  x10
6096:  MOVLW  12
6098:  MOVWF  x11
609A:  MOVLW  02
609C:  MOVWF  x12
609E:  MOVLW  01
60A0:  MOVWF  x13
60A2:  MOVLB  0
60A4:  CALL   1470
....................          displayTiempo(Testerilizacionp[1],48,18,0,1);displayTiempo(Testerilizacionp[0],54,18,0,1); 
60A8:  MOVFF  593,60F
60AC:  MOVLW  30
60AE:  MOVLB  6
60B0:  MOVWF  x10
60B2:  MOVLW  12
60B4:  MOVWF  x11
60B6:  CLRF   x12
60B8:  MOVLW  01
60BA:  MOVWF  x13
60BC:  MOVLB  0
60BE:  CALL   25AE
60C2:  MOVFF  592,60F
60C6:  MOVLW  36
60C8:  MOVLB  6
60CA:  MOVWF  x10
60CC:  MOVLW  12
60CE:  MOVWF  x11
60D0:  CLRF   x12
60D2:  MOVLW  01
60D4:  MOVWF  x13
60D6:  MOVLB  0
60D8:  CALL   25AE
....................          strcpy(Menus.Letra,"(H:M)");displayMenu(Menus.Letra,60,18,2,1);  
60DC:  MOVLW  05
60DE:  MOVWF  FEA
60E0:  MOVLW  EE
60E2:  MOVWF  FE9
60E4:  MOVFF  FF2,60E
60E8:  BCF    FF2.7
60EA:  MOVLW  00
60EC:  CALL   0AF6
60F0:  TBLRD*-
60F2:  TBLRD*+
60F4:  MOVF   FF5,W
60F6:  MOVWF  FEE
60F8:  IORLW  00
60FA:  BNZ   60F2
60FC:  MOVLB  6
60FE:  BTFSC  x0E.7
6100:  BSF    FF2.7
6102:  MOVLW  05
6104:  MOVWF  x0F
6106:  MOVLW  EE
6108:  MOVWF  x0E
610A:  MOVLW  3C
610C:  MOVWF  x10
610E:  MOVLW  12
6110:  MOVWF  x11
6112:  MOVLW  02
6114:  MOVWF  x12
6116:  MOVLW  01
6118:  MOVWF  x13
611A:  MOVLB  0
611C:  CALL   1470
....................           
....................          glcd_rect(0, 0, 89, 27, NO, ON); 
6120:  MOVLB  6
6122:  CLRF   x21
6124:  CLRF   x22
6126:  MOVLW  59
6128:  MOVWF  x23
612A:  MOVLW  1B
612C:  MOVWF  x24
612E:  CLRF   x25
6130:  MOVLW  01
6132:  MOVWF  x26
6134:  MOVLB  0
6136:  CALL   13AE
....................          glcd_rect(0, 27, 89, 54, NO, ON); 
613A:  MOVLB  6
613C:  CLRF   x21
613E:  MOVLW  1B
6140:  MOVWF  x22
6142:  MOVLW  59
6144:  MOVWF  x23
6146:  MOVLW  36
6148:  MOVWF  x24
614A:  CLRF   x25
614C:  MOVLW  01
614E:  MOVWF  x26
6150:  MOVLB  0
6152:  CALL   13AE
6156:  MOVLB  5
....................       }  
....................        
....................       // Si cumplio el tiempo de esterilizacin, Muestre ciclo finalizado y detenga control de temperatura. 
....................       if((Testerilizacion[0]>=Testerilizacionp[0])&&(Testerilizacion[1]>=Testerilizacionp[1])&&(Testerilizacion[2]>=Testerilizacionp[2])&&(Testerilizacion[3]>=Testerilizacionp[3]) && tiempo_esterilizacion==1) 
6158:  MOVF   x92,W
615A:  XORLW  80
615C:  MOVWF  00
615E:  MOVF   x8E,W
6160:  XORLW  80
6162:  SUBWF  00,W
6164:  BZ    6168
6166:  BC    620C
6168:  MOVF   x93,W
616A:  XORLW  80
616C:  MOVWF  00
616E:  MOVF   x8F,W
6170:  XORLW  80
6172:  SUBWF  00,W
6174:  BZ    6178
6176:  BC    620C
6178:  MOVF   x94,W
617A:  XORLW  80
617C:  MOVWF  00
617E:  MOVF   x90,W
6180:  XORLW  80
6182:  SUBWF  00,W
6184:  BZ    6188
6186:  BC    620C
6188:  MOVF   x95,W
618A:  XORLW  80
618C:  MOVWF  00
618E:  MOVF   x91,W
6190:  XORLW  80
6192:  SUBWF  00,W
6194:  BZ    6198
6196:  BC    620C
6198:  DECFSZ x72,W
619A:  BRA    620C
....................       { 
....................          if(flag_clear==0) 
619C:  BTFSC  x66.5
619E:  BRA    61C6
....................          { 
....................             glcd_fillScreen(OFF); 
61A0:  MOVLB  6
61A2:  CLRF   x0F
61A4:  MOVLB  0
61A6:  CALL   0E42
....................             //glcd_rect(0, 55, 127, 63, YES, OFF); 
....................             tiempo_esterilizacion=0; 
61AA:  MOVLB  5
61AC:  CLRF   x72
....................             Pausa=2; 
61AE:  MOVLW  02
61B0:  MOVWF  x6E
....................             flag_clear=1; 
61B2:  BSF    x66.5
....................             Resistencia_off; 
61B4:  BCF    F8B.0
61B6:  BCF    F94.0
....................             Peltier_off; 
61B8:  BCF    F8B.2
61BA:  BCF    F94.2
....................              
....................             Tpulso=0.0; 
61BC:  CLRF   xB1
61BE:  CLRF   xB0
61C0:  CLRF   xAF
61C2:  CLRF   xAE
....................             flag_ganancia=0; 
61C4:  CLRF   x64
....................          } 
....................          strcpy(Menus.Letra,"Status:Finalizado"); 
61C6:  MOVLW  05
61C8:  MOVWF  FEA
61CA:  MOVLW  EE
61CC:  MOVWF  FE9
61CE:  MOVFF  FF2,60E
61D2:  BCF    FF2.7
61D4:  MOVLW  00
61D6:  MOVLB  0
61D8:  CALL   0B16
61DC:  TBLRD*-
61DE:  TBLRD*+
61E0:  MOVF   FF5,W
61E2:  MOVWF  FEE
61E4:  IORLW  00
61E6:  BNZ   61DE
61E8:  MOVLB  6
61EA:  BTFSC  x0E.7
61EC:  BSF    FF2.7
....................          displayMenu(Menus.Letra,0,55,2,1); 
61EE:  MOVLW  05
61F0:  MOVWF  x0F
61F2:  MOVLW  EE
61F4:  MOVWF  x0E
61F6:  CLRF   x10
61F8:  MOVLW  37
61FA:  MOVWF  x11
61FC:  MOVLW  02
61FE:  MOVWF  x12
6200:  MOVLW  01
6202:  MOVWF  x13
6204:  MOVLB  0
6206:  CALL   1470
620A:  MOVLB  5
....................       }  
....................        
....................       // Si ha pasado un tiempo x y no ha llegado al setpoint 
....................       if(tiempocalentamiento>7200 && tiempo_esterilizacion==0) 
620C:  MOVF   x7D,W
620E:  SUBLW  1B
6210:  BC    62D6
6212:  XORLW  FF
6214:  BNZ   621C
6216:  MOVF   x7C,W
6218:  SUBLW  20
621A:  BC    62D6
621C:  MOVF   x72,F
621E:  BNZ   62D6
....................       { 
....................          Buzzer_on; 
6220:  BSF    F8B.1
6222:  BCF    F94.1
....................          delay_ms(1000); 
6224:  MOVLW  04
6226:  MOVLB  6
6228:  MOVWF  x0E
622A:  MOVLW  FA
622C:  MOVWF  x14
622E:  MOVLB  0
6230:  CALL   0D28
6234:  MOVLB  6
6236:  DECFSZ x0E,F
6238:  BRA    622A
....................          Buzzer_off; 
623A:  BCF    F8B.1
623C:  BCF    F94.1
....................          delay_ms(1000); 
623E:  MOVLW  04
6240:  MOVWF  x0E
6242:  MOVLW  FA
6244:  MOVWF  x14
6246:  MOVLB  0
6248:  CALL   0D28
624C:  MOVLB  6
624E:  DECFSZ x0E,F
6250:  BRA    6242
....................          if(flag_clear4==0) 
6252:  MOVLB  5
6254:  BTFSC  x67.0
6256:  BRA    6290
....................          { 
....................             glcd_rect(0, 55, 127, 63, YES, OFF); 
6258:  MOVLB  6
625A:  CLRF   x21
625C:  MOVLW  37
625E:  MOVWF  x22
6260:  MOVLW  7F
6262:  MOVWF  x23
6264:  MOVLW  3F
6266:  MOVWF  x24
6268:  MOVLW  01
626A:  MOVWF  x25
626C:  CLRF   x26
626E:  MOVLB  0
6270:  CALL   13AE
....................             tiempo_esterilizacion=0; 
6274:  MOVLB  5
6276:  CLRF   x72
....................             Pausa=2; 
6278:  MOVLW  02
627A:  MOVWF  x6E
....................             flag_clear4=1; 
627C:  BSF    x67.0
....................             Resistencia_off; 
627E:  BCF    F8B.0
6280:  BCF    F94.0
....................             Peltier_off; 
6282:  BCF    F8B.2
6284:  BCF    F94.2
....................              
....................             Tpulso=0.0; 
6286:  CLRF   xB1
6288:  CLRF   xB0
628A:  CLRF   xAF
628C:  CLRF   xAE
....................             flag_ganancia=0; 
628E:  CLRF   x64
....................          } 
....................          strcpy(Menus.Letra,"Status:Alarma 02"); 
6290:  MOVLW  05
6292:  MOVWF  FEA
6294:  MOVLW  EE
6296:  MOVWF  FE9
6298:  MOVFF  FF2,60E
629C:  BCF    FF2.7
629E:  MOVLW  00
62A0:  MOVLB  0
62A2:  CALL   0B42
62A6:  TBLRD*-
62A8:  TBLRD*+
62AA:  MOVF   FF5,W
62AC:  MOVWF  FEE
62AE:  IORLW  00
62B0:  BNZ   62A8
62B2:  MOVLB  6
62B4:  BTFSC  x0E.7
62B6:  BSF    FF2.7
....................          displayMenu(Menus.Letra,0,55,2,1); 
62B8:  MOVLW  05
62BA:  MOVWF  x0F
62BC:  MOVLW  EE
62BE:  MOVWF  x0E
62C0:  CLRF   x10
62C2:  MOVLW  37
62C4:  MOVWF  x11
62C6:  MOVLW  02
62C8:  MOVWF  x12
62CA:  MOVLW  01
62CC:  MOVWF  x13
62CE:  MOVLB  0
62D0:  CALL   1470
62D4:  MOVLB  5
....................       } 
....................        
....................       if(tinicio>=60) 
62D6:  MOVF   x7B,F
62D8:  BNZ   62E0
62DA:  MOVF   x7A,W
62DC:  SUBLW  3B
62DE:  BC    631C
....................       { 
....................          tinicio=0; 
62E0:  CLRF   x7B
62E2:  CLRF   x7A
....................          Testerilizacion[0]++; 
62E4:  INCF   x8E,F
....................          if(Testerilizacion[0]>9) 
62E6:  BTFSC  x8E.7
62E8:  BRA    62F4
62EA:  MOVF   x8E,W
62EC:  SUBLW  09
62EE:  BC    62F4
....................          { 
....................             Testerilizacion[0]=0; 
62F0:  CLRF   x8E
....................             Testerilizacion[1]++; 
62F2:  INCF   x8F,F
....................          } 
....................          if(Testerilizacion[1]>5) 
62F4:  BTFSC  x8F.7
62F6:  BRA    6302
62F8:  MOVF   x8F,W
62FA:  SUBLW  05
62FC:  BC    6302
....................          { 
....................             Testerilizacion[1]=0; 
62FE:  CLRF   x8F
....................             Testerilizacion[2]++; 
6300:  INCF   x90,F
....................          } 
....................          if(Testerilizacion[2]>9) 
6302:  BTFSC  x90.7
6304:  BRA    6310
6306:  MOVF   x90,W
6308:  SUBLW  09
630A:  BC    6310
....................          { 
....................             Testerilizacion[2]=0; 
630C:  CLRF   x90
....................             Testerilizacion[3]++; 
630E:  INCF   x91,F
....................          } 
....................          if(Testerilizacion[3]>9) 
6310:  BTFSC  x91.7
6312:  BRA    631C
6314:  MOVF   x91,W
6316:  SUBLW  09
6318:  BC    631C
....................          { 
....................             Testerilizacion[3]=0; 
631A:  CLRF   x91
....................          } 
....................       } 
....................        
....................       if(LEFT)//Si oprime boton de Toma. 
631C:  BSF    F96.2
631E:  BTFSS  F84.2
6320:  BRA    6358
....................       { 
....................          if(Pausa!=2) 
6322:  MOVF   x6E,W
6324:  SUBLW  02
6326:  BZ    6358
....................          { 
....................             delay_ms(500);Menu=30;glcd_fillscreen(OFF);Opcion=1;visual=1;Pausa=1; 
6328:  MOVLW  02
632A:  MOVLB  6
632C:  MOVWF  x0E
632E:  MOVLW  FA
6330:  MOVWF  x14
6332:  MOVLB  0
6334:  CALL   0D28
6338:  MOVLB  6
633A:  DECFSZ x0E,F
633C:  BRA    632E
633E:  MOVLW  1E
6340:  MOVLB  5
6342:  MOVWF  x6B
6344:  MOVLB  6
6346:  CLRF   x0F
6348:  MOVLB  0
634A:  CALL   0E42
634E:  MOVLW  01
6350:  MOVLB  5
6352:  MOVWF  x71
6354:  BSF    x66.3
6356:  MOVWF  x6E
....................          } 
....................       } 
....................          
....................     } 
.................... //_--------------------------------------------------------------------------------------------------------------------------------------------------------        
....................  
.................... //_-------------------------------------------------------------------------------------------------------------------------------------------------------- 
....................       if(Menu==30){ //Menu de Retroceso 
6358:  MOVF   x6B,W
635A:  SUBLW  1E
635C:  BTFSS  FD8.2
635E:  BRA    657E
....................        
....................       strcpy(Menus.Letra,"Regresar"); 
6360:  MOVLW  05
6362:  MOVWF  FEA
6364:  MOVLW  EE
6366:  MOVWF  FE9
6368:  MOVFF  FF2,60E
636C:  BCF    FF2.7
636E:  MOVLW  00
6370:  MOVLB  0
6372:  CALL   0B6E
6376:  TBLRD*-
6378:  TBLRD*+
637A:  MOVF   FF5,W
637C:  MOVWF  FEE
637E:  IORLW  00
6380:  BNZ   6378
6382:  MOVLB  6
6384:  BTFSC  x0E.7
6386:  BSF    FF2.7
....................       displayMenu(Menus.Letra,0,0,1,2); 
6388:  MOVLW  05
638A:  MOVWF  x0F
638C:  MOVLW  EE
638E:  MOVWF  x0E
6390:  CLRF   x10
6392:  CLRF   x11
6394:  MOVLW  01
6396:  MOVWF  x12
6398:  MOVLW  02
639A:  MOVWF  x13
639C:  MOVLB  0
639E:  CALL   1470
....................           
....................       if(Opcion==2) 
63A2:  MOVLB  5
63A4:  MOVF   x71,W
63A6:  SUBLW  02
63A8:  BNZ   6434
....................       {strcpy(Menus.Letra,"SI"); 
63AA:  MOVLW  05
63AC:  MOVWF  FEA
63AE:  MOVLW  EE
63B0:  MOVWF  FE9
63B2:  MOVFF  FF2,60E
63B6:  BCF    FF2.7
63B8:  MOVLW  00
63BA:  MOVLB  0
63BC:  CALL   08D0
63C0:  TBLRD*-
63C2:  TBLRD*+
63C4:  MOVF   FF5,W
63C6:  MOVWF  FEE
63C8:  IORLW  00
63CA:  BNZ   63C2
63CC:  MOVLB  6
63CE:  BTFSC  x0E.7
63D0:  BSF    FF2.7
....................       displayMenu(Menus.Letra,50,25,1,2); 
63D2:  MOVLW  05
63D4:  MOVWF  x0F
63D6:  MOVLW  EE
63D8:  MOVWF  x0E
63DA:  MOVLW  32
63DC:  MOVWF  x10
63DE:  MOVLW  19
63E0:  MOVWF  x11
63E2:  MOVLW  01
63E4:  MOVWF  x12
63E6:  MOVLW  02
63E8:  MOVWF  x13
63EA:  MOVLB  0
63EC:  CALL   1470
....................       strcpy(Menus.Letra,"NO"); 
63F0:  MOVLW  05
63F2:  MOVWF  FEA
63F4:  MOVLW  EE
63F6:  MOVWF  FE9
63F8:  MOVFF  FF2,60E
63FC:  BCF    FF2.7
63FE:  MOVLW  00
6400:  CALL   08EE
6404:  TBLRD*-
6406:  TBLRD*+
6408:  MOVF   FF5,W
640A:  MOVWF  FEE
640C:  IORLW  00
640E:  BNZ   6406
6410:  MOVLB  6
6412:  BTFSC  x0E.7
6414:  BSF    FF2.7
....................       displayMenu(Menus.Letra,50,45,0,2); 
6416:  MOVLW  05
6418:  MOVWF  x0F
641A:  MOVLW  EE
641C:  MOVWF  x0E
641E:  MOVLW  32
6420:  MOVWF  x10
6422:  MOVLW  2D
6424:  MOVWF  x11
6426:  CLRF   x12
6428:  MOVLW  02
642A:  MOVWF  x13
642C:  MOVLB  0
642E:  CALL   1470
6432:  MOVLB  5
....................       } 
....................       if(Opcion==1) 
6434:  DECFSZ x71,W
6436:  BRA    64C2
....................       {strcpy(Menus.Letra,"SI"); 
6438:  MOVLW  05
643A:  MOVWF  FEA
643C:  MOVLW  EE
643E:  MOVWF  FE9
6440:  MOVFF  FF2,60E
6444:  BCF    FF2.7
6446:  MOVLW  00
6448:  MOVLB  0
644A:  CALL   08D0
644E:  TBLRD*-
6450:  TBLRD*+
6452:  MOVF   FF5,W
6454:  MOVWF  FEE
6456:  IORLW  00
6458:  BNZ   6450
645A:  MOVLB  6
645C:  BTFSC  x0E.7
645E:  BSF    FF2.7
....................       displayMenu(Menus.Letra,50,25,0,2); 
6460:  MOVLW  05
6462:  MOVWF  x0F
6464:  MOVLW  EE
6466:  MOVWF  x0E
6468:  MOVLW  32
646A:  MOVWF  x10
646C:  MOVLW  19
646E:  MOVWF  x11
6470:  CLRF   x12
6472:  MOVLW  02
6474:  MOVWF  x13
6476:  MOVLB  0
6478:  CALL   1470
....................       strcpy(Menus.Letra,"NO"); 
647C:  MOVLW  05
647E:  MOVWF  FEA
6480:  MOVLW  EE
6482:  MOVWF  FE9
6484:  MOVFF  FF2,60E
6488:  BCF    FF2.7
648A:  MOVLW  00
648C:  CALL   08EE
6490:  TBLRD*-
6492:  TBLRD*+
6494:  MOVF   FF5,W
6496:  MOVWF  FEE
6498:  IORLW  00
649A:  BNZ   6492
649C:  MOVLB  6
649E:  BTFSC  x0E.7
64A0:  BSF    FF2.7
....................       displayMenu(Menus.Letra,50,45,1,2); 
64A2:  MOVLW  05
64A4:  MOVWF  x0F
64A6:  MOVLW  EE
64A8:  MOVWF  x0E
64AA:  MOVLW  32
64AC:  MOVWF  x10
64AE:  MOVLW  2D
64B0:  MOVWF  x11
64B2:  MOVLW  01
64B4:  MOVWF  x12
64B6:  MOVLW  02
64B8:  MOVWF  x13
64BA:  MOVLB  0
64BC:  CALL   1470
64C0:  MOVLB  5
....................       }   
....................          
....................       if(UP)//Si oprime hacia arriba 
64C2:  BSF    F92.5
64C4:  BTFSS  F80.5
64C6:  BRA    64D2
....................       { 
....................          if(Opcion<2) 
64C8:  MOVF   x71,W
64CA:  SUBLW  01
64CC:  BNC   64D0
....................          { 
....................             Opcion++; 
64CE:  INCF   x71,F
....................          } 
....................          visual=1; 
64D0:  BSF    x66.3
....................       } 
....................              
....................       if(DOWN)//Si oprime hacia abajo 
64D2:  BSF    F96.0
64D4:  BTFSS  F84.0
64D6:  BRA    64E2
....................       {   
....................          if(Opcion>1) 
64D8:  MOVF   x71,W
64DA:  SUBLW  01
64DC:  BC    64E0
....................          { 
....................             Opcion--; 
64DE:  DECF   x71,F
....................          }   
....................          visual=1; 
64E0:  BSF    x66.3
....................       } 
....................              
....................       if(RIGHT)//Si oprime SET 
64E2:  BSF    F96.1
64E4:  BTFSS  F84.1
64E6:  BRA    654A
....................       {   
....................          if(Opcion==2) 
64E8:  MOVF   x71,W
64EA:  SUBLW  02
64EC:  BNZ   651C
....................          { 
....................             Menu=1;glcd_fillScreen(OFF);Testerilizacion[0]=0;Testerilizacion[1]=0;Testerilizacion[2]=0;Testerilizacion[3]=0; 
64EE:  MOVLW  01
64F0:  MOVWF  x6B
64F2:  MOVLB  6
64F4:  CLRF   x0F
64F6:  MOVLB  0
64F8:  CALL   0E42
64FC:  MOVLB  5
64FE:  CLRF   x8E
6500:  CLRF   x8F
6502:  CLRF   x90
6504:  CLRF   x91
....................             Resistencia_off; 
6506:  BCF    F8B.0
6508:  BCF    F94.0
....................             Peltier_off; 
650A:  BCF    F8B.2
650C:  BCF    F94.2
....................              
....................             Tpulso=0.0; 
650E:  CLRF   xB1
6510:  CLRF   xB0
6512:  CLRF   xAF
6514:  CLRF   xAE
....................             Opcion=1; 
6516:  MOVLW  01
6518:  MOVWF  x71
....................          } 
....................          else 
651A:  BRA    654A
....................          { 
....................             delay_ms(700);Menu=20;glcd_fillscreen(OFF);Opcion=1;visual=1; 
651C:  MOVLW  04
651E:  MOVLB  6
6520:  MOVWF  x0E
6522:  MOVLW  AF
6524:  MOVWF  x14
6526:  MOVLB  0
6528:  CALL   0D28
652C:  MOVLB  6
652E:  DECFSZ x0E,F
6530:  BRA    6522
6532:  MOVLW  14
6534:  MOVLB  5
6536:  MOVWF  x6B
6538:  MOVLB  6
653A:  CLRF   x0F
653C:  MOVLB  0
653E:  CALL   0E42
6542:  MOVLW  01
6544:  MOVLB  5
6546:  MOVWF  x71
6548:  BSF    x66.3
....................          } 
....................       }  
....................                    
....................       if(LEFT)//Si oprime boton de Toma. 
654A:  BSF    F96.2
654C:  BTFSS  F84.2
654E:  BRA    657E
....................       { 
....................          delay_ms(700);Menu=20;glcd_fillscreen(OFF);Opcion=1;visual=1; 
6550:  MOVLW  04
6552:  MOVLB  6
6554:  MOVWF  x0E
6556:  MOVLW  AF
6558:  MOVWF  x14
655A:  MOVLB  0
655C:  CALL   0D28
6560:  MOVLB  6
6562:  DECFSZ x0E,F
6564:  BRA    6556
6566:  MOVLW  14
6568:  MOVLB  5
656A:  MOVWF  x6B
656C:  MOVLB  6
656E:  CLRF   x0F
6570:  MOVLB  0
6572:  CALL   0E42
6576:  MOVLW  01
6578:  MOVLB  5
657A:  MOVWF  x71
657C:  BSF    x66.3
....................       } 
....................          
....................     } 
.................... //_--------------------------------------------------------------------------------------------------------------------------------------------------------        
....................  
.................... //_-------------------------------------------------------------------------------------------------------------------------------------------------------- 
....................       if(Menu==100){ //Menu de Configuracin de Parametros de Control 
657E:  MOVF   x6B,W
6580:  SUBLW  64
6582:  BTFSS  FD8.2
6584:  BRA    696E
....................        
....................       if(Opcion>6) 
6586:  MOVF   x71,W
6588:  SUBLW  06
658A:  BC    6590
....................       {Opcion=1;} 
658C:  MOVLW  01
658E:  MOVWF  x71
....................       if(Opcion<1) 
6590:  MOVF   x71,F
6592:  BNZ   6598
....................       {Opcion=6;} 
6594:  MOVLW  06
6596:  MOVWF  x71
....................        
....................          if(Opcion==1)    
6598:  DECFSZ x71,W
659A:  BRA    65E0
....................             {strcpy(Menus.Letra,"Ganancia"); 
659C:  MOVLW  05
659E:  MOVWF  FEA
65A0:  MOVLW  EE
65A2:  MOVWF  FE9
65A4:  MOVFF  FF2,60E
65A8:  BCF    FF2.7
65AA:  MOVLW  00
65AC:  MOVLB  0
65AE:  CALL   0B92
65B2:  TBLRD*-
65B4:  TBLRD*+
65B6:  MOVF   FF5,W
65B8:  MOVWF  FEE
65BA:  IORLW  00
65BC:  BNZ   65B4
65BE:  MOVLB  6
65C0:  BTFSC  x0E.7
65C2:  BSF    FF2.7
....................             displayMenu(Menus.Letra,0,0,1,1);} 
65C4:  MOVLW  05
65C6:  MOVWF  x0F
65C8:  MOVLW  EE
65CA:  MOVWF  x0E
65CC:  CLRF   x10
65CE:  CLRF   x11
65D0:  MOVLW  01
65D2:  MOVWF  x12
65D4:  MOVWF  x13
65D6:  MOVLB  0
65D8:  CALL   1470
....................          else 
65DC:  BRA    6620
65DE:  MOVLB  5
....................             {strcpy(Menus.Letra,"Ganancia"); 
65E0:  MOVLW  05
65E2:  MOVWF  FEA
65E4:  MOVLW  EE
65E6:  MOVWF  FE9
65E8:  MOVFF  FF2,60E
65EC:  BCF    FF2.7
65EE:  MOVLW  00
65F0:  MOVLB  0
65F2:  CALL   0B92
65F6:  TBLRD*-
65F8:  TBLRD*+
65FA:  MOVF   FF5,W
65FC:  MOVWF  FEE
65FE:  IORLW  00
6600:  BNZ   65F8
6602:  MOVLB  6
6604:  BTFSC  x0E.7
6606:  BSF    FF2.7
....................             displayMenu(Menus.Letra,0,0,0,1);} 
6608:  MOVLW  05
660A:  MOVWF  x0F
660C:  MOVLW  EE
660E:  MOVWF  x0E
6610:  CLRF   x10
6612:  CLRF   x11
6614:  CLRF   x12
6616:  MOVLW  01
6618:  MOVWF  x13
661A:  MOVLB  0
661C:  CALL   1470
....................           
....................          if(Opcion==2)    
6620:  MOVLB  5
6622:  MOVF   x71,W
6624:  SUBLW  02
6626:  BNZ   666E
....................             {strcpy(Menus.Letra,"Tciclo"); 
6628:  MOVLW  05
662A:  MOVWF  FEA
662C:  MOVLW  EE
662E:  MOVWF  FE9
6630:  MOVFF  FF2,60E
6634:  BCF    FF2.7
6636:  MOVLW  00
6638:  MOVLB  0
663A:  CALL   0BB6
663E:  TBLRD*-
6640:  TBLRD*+
6642:  MOVF   FF5,W
6644:  MOVWF  FEE
6646:  IORLW  00
6648:  BNZ   6640
664A:  MOVLB  6
664C:  BTFSC  x0E.7
664E:  BSF    FF2.7
....................             displayMenu(Menus.Letra,0,9,1,1);} 
6650:  MOVLW  05
6652:  MOVWF  x0F
6654:  MOVLW  EE
6656:  MOVWF  x0E
6658:  CLRF   x10
665A:  MOVLW  09
665C:  MOVWF  x11
665E:  MOVLW  01
6660:  MOVWF  x12
6662:  MOVWF  x13
6664:  MOVLB  0
6666:  CALL   1470
....................          else 
666A:  BRA    66B0
666C:  MOVLB  5
....................             {strcpy(Menus.Letra,"Tciclo"); 
666E:  MOVLW  05
6670:  MOVWF  FEA
6672:  MOVLW  EE
6674:  MOVWF  FE9
6676:  MOVFF  FF2,60E
667A:  BCF    FF2.7
667C:  MOVLW  00
667E:  MOVLB  0
6680:  CALL   0BB6
6684:  TBLRD*-
6686:  TBLRD*+
6688:  MOVF   FF5,W
668A:  MOVWF  FEE
668C:  IORLW  00
668E:  BNZ   6686
6690:  MOVLB  6
6692:  BTFSC  x0E.7
6694:  BSF    FF2.7
....................             displayMenu(Menus.Letra,0,9,0,1);} 
6696:  MOVLW  05
6698:  MOVWF  x0F
669A:  MOVLW  EE
669C:  MOVWF  x0E
669E:  CLRF   x10
66A0:  MOVLW  09
66A2:  MOVWF  x11
66A4:  CLRF   x12
66A6:  MOVLW  01
66A8:  MOVWF  x13
66AA:  MOVLB  0
66AC:  CALL   1470
....................              
....................          if(Opcion==3)    
66B0:  MOVLB  5
66B2:  MOVF   x71,W
66B4:  SUBLW  03
66B6:  BNZ   66FE
....................             {strcpy(Menus.Letra,"Ajuste +"); 
66B8:  MOVLW  05
66BA:  MOVWF  FEA
66BC:  MOVLW  EE
66BE:  MOVWF  FE9
66C0:  MOVFF  FF2,60E
66C4:  BCF    FF2.7
66C6:  MOVLW  00
66C8:  MOVLB  0
66CA:  CALL   0BD8
66CE:  TBLRD*-
66D0:  TBLRD*+
66D2:  MOVF   FF5,W
66D4:  MOVWF  FEE
66D6:  IORLW  00
66D8:  BNZ   66D0
66DA:  MOVLB  6
66DC:  BTFSC  x0E.7
66DE:  BSF    FF2.7
....................             displayMenu(Menus.Letra,0,18,1,1);} 
66E0:  MOVLW  05
66E2:  MOVWF  x0F
66E4:  MOVLW  EE
66E6:  MOVWF  x0E
66E8:  CLRF   x10
66EA:  MOVLW  12
66EC:  MOVWF  x11
66EE:  MOVLW  01
66F0:  MOVWF  x12
66F2:  MOVWF  x13
66F4:  MOVLB  0
66F6:  CALL   1470
....................          else 
66FA:  BRA    6740
66FC:  MOVLB  5
....................             {strcpy(Menus.Letra,"Ajuste +"); 
66FE:  MOVLW  05
6700:  MOVWF  FEA
6702:  MOVLW  EE
6704:  MOVWF  FE9
6706:  MOVFF  FF2,60E
670A:  BCF    FF2.7
670C:  MOVLW  00
670E:  MOVLB  0
6710:  CALL   0BD8
6714:  TBLRD*-
6716:  TBLRD*+
6718:  MOVF   FF5,W
671A:  MOVWF  FEE
671C:  IORLW  00
671E:  BNZ   6716
6720:  MOVLB  6
6722:  BTFSC  x0E.7
6724:  BSF    FF2.7
....................             displayMenu(Menus.Letra,0,18,0,1);}    
6726:  MOVLW  05
6728:  MOVWF  x0F
672A:  MOVLW  EE
672C:  MOVWF  x0E
672E:  CLRF   x10
6730:  MOVLW  12
6732:  MOVWF  x11
6734:  CLRF   x12
6736:  MOVLW  01
6738:  MOVWF  x13
673A:  MOVLB  0
673C:  CALL   1470
....................                          
....................          if(Opcion==4)    
6740:  MOVLB  5
6742:  MOVF   x71,W
6744:  SUBLW  04
6746:  BNZ   678E
....................             {strcpy(Menus.Letra,"Ajuste -"); 
6748:  MOVLW  05
674A:  MOVWF  FEA
674C:  MOVLW  EE
674E:  MOVWF  FE9
6750:  MOVFF  FF2,60E
6754:  BCF    FF2.7
6756:  MOVLW  00
6758:  MOVLB  0
675A:  CALL   0BFC
675E:  TBLRD*-
6760:  TBLRD*+
6762:  MOVF   FF5,W
6764:  MOVWF  FEE
6766:  IORLW  00
6768:  BNZ   6760
676A:  MOVLB  6
676C:  BTFSC  x0E.7
676E:  BSF    FF2.7
....................             displayMenu(Menus.Letra,0,27,1,1);} 
6770:  MOVLW  05
6772:  MOVWF  x0F
6774:  MOVLW  EE
6776:  MOVWF  x0E
6778:  CLRF   x10
677A:  MOVLW  1B
677C:  MOVWF  x11
677E:  MOVLW  01
6780:  MOVWF  x12
6782:  MOVWF  x13
6784:  MOVLB  0
6786:  CALL   1470
....................          else 
678A:  BRA    67D0
678C:  MOVLB  5
....................             {strcpy(Menus.Letra,"Ajuste -"); 
678E:  MOVLW  05
6790:  MOVWF  FEA
6792:  MOVLW  EE
6794:  MOVWF  FE9
6796:  MOVFF  FF2,60E
679A:  BCF    FF2.7
679C:  MOVLW  00
679E:  MOVLB  0
67A0:  CALL   0BFC
67A4:  TBLRD*-
67A6:  TBLRD*+
67A8:  MOVF   FF5,W
67AA:  MOVWF  FEE
67AC:  IORLW  00
67AE:  BNZ   67A6
67B0:  MOVLB  6
67B2:  BTFSC  x0E.7
67B4:  BSF    FF2.7
....................             displayMenu(Menus.Letra,0,27,0,1);}      
67B6:  MOVLW  05
67B8:  MOVWF  x0F
67BA:  MOVLW  EE
67BC:  MOVWF  x0E
67BE:  CLRF   x10
67C0:  MOVLW  1B
67C2:  MOVWF  x11
67C4:  CLRF   x12
67C6:  MOVLW  01
67C8:  MOVWF  x13
67CA:  MOVLB  0
67CC:  CALL   1470
....................              
....................          if(Opcion==5)    
67D0:  MOVLB  5
67D2:  MOVF   x71,W
67D4:  SUBLW  05
67D6:  BNZ   681E
....................             {strcpy(Menus.Letra,"Media Movil"); 
67D8:  MOVLW  05
67DA:  MOVWF  FEA
67DC:  MOVLW  EE
67DE:  MOVWF  FE9
67E0:  MOVFF  FF2,60E
67E4:  BCF    FF2.7
67E6:  MOVLW  00
67E8:  MOVLB  0
67EA:  CALL   0C20
67EE:  TBLRD*-
67F0:  TBLRD*+
67F2:  MOVF   FF5,W
67F4:  MOVWF  FEE
67F6:  IORLW  00
67F8:  BNZ   67F0
67FA:  MOVLB  6
67FC:  BTFSC  x0E.7
67FE:  BSF    FF2.7
....................             displayMenu(Menus.Letra,0,36,1,1);} 
6800:  MOVLW  05
6802:  MOVWF  x0F
6804:  MOVLW  EE
6806:  MOVWF  x0E
6808:  CLRF   x10
680A:  MOVLW  24
680C:  MOVWF  x11
680E:  MOVLW  01
6810:  MOVWF  x12
6812:  MOVWF  x13
6814:  MOVLB  0
6816:  CALL   1470
....................          else 
681A:  BRA    6860
681C:  MOVLB  5
....................             {strcpy(Menus.Letra,"Media Movil"); 
681E:  MOVLW  05
6820:  MOVWF  FEA
6822:  MOVLW  EE
6824:  MOVWF  FE9
6826:  MOVFF  FF2,60E
682A:  BCF    FF2.7
682C:  MOVLW  00
682E:  MOVLB  0
6830:  CALL   0C20
6834:  TBLRD*-
6836:  TBLRD*+
6838:  MOVF   FF5,W
683A:  MOVWF  FEE
683C:  IORLW  00
683E:  BNZ   6836
6840:  MOVLB  6
6842:  BTFSC  x0E.7
6844:  BSF    FF2.7
....................             displayMenu(Menus.Letra,0,36,0,1);}      
6846:  MOVLW  05
6848:  MOVWF  x0F
684A:  MOVLW  EE
684C:  MOVWF  x0E
684E:  CLRF   x10
6850:  MOVLW  24
6852:  MOVWF  x11
6854:  CLRF   x12
6856:  MOVLW  01
6858:  MOVWF  x13
685A:  MOVLB  0
685C:  CALL   1470
....................              
....................          if(Opcion==6)    
6860:  MOVLB  5
6862:  MOVF   x71,W
6864:  SUBLW  06
6866:  BNZ   68AE
....................             {strcpy(Menus.Letra,"Coeficiente"); 
6868:  MOVLW  05
686A:  MOVWF  FEA
686C:  MOVLW  EE
686E:  MOVWF  FE9
6870:  MOVFF  FF2,60E
6874:  BCF    FF2.7
6876:  MOVLW  00
6878:  MOVLB  0
687A:  CALL   0C46
687E:  TBLRD*-
6880:  TBLRD*+
6882:  MOVF   FF5,W
6884:  MOVWF  FEE
6886:  IORLW  00
6888:  BNZ   6880
688A:  MOVLB  6
688C:  BTFSC  x0E.7
688E:  BSF    FF2.7
....................             displayMenu(Menus.Letra,0,45,1,1);} 
6890:  MOVLW  05
6892:  MOVWF  x0F
6894:  MOVLW  EE
6896:  MOVWF  x0E
6898:  CLRF   x10
689A:  MOVLW  2D
689C:  MOVWF  x11
689E:  MOVLW  01
68A0:  MOVWF  x12
68A2:  MOVWF  x13
68A4:  MOVLB  0
68A6:  CALL   1470
....................          else 
68AA:  BRA    68F0
68AC:  MOVLB  5
....................             {strcpy(Menus.Letra,"Coeficiente"); 
68AE:  MOVLW  05
68B0:  MOVWF  FEA
68B2:  MOVLW  EE
68B4:  MOVWF  FE9
68B6:  MOVFF  FF2,60E
68BA:  BCF    FF2.7
68BC:  MOVLW  00
68BE:  MOVLB  0
68C0:  CALL   0C46
68C4:  TBLRD*-
68C6:  TBLRD*+
68C8:  MOVF   FF5,W
68CA:  MOVWF  FEE
68CC:  IORLW  00
68CE:  BNZ   68C6
68D0:  MOVLB  6
68D2:  BTFSC  x0E.7
68D4:  BSF    FF2.7
....................             displayMenu(Menus.Letra,0,45,0,1);}     
68D6:  MOVLW  05
68D8:  MOVWF  x0F
68DA:  MOVLW  EE
68DC:  MOVWF  x0E
68DE:  CLRF   x10
68E0:  MOVLW  2D
68E2:  MOVWF  x11
68E4:  CLRF   x12
68E6:  MOVLW  01
68E8:  MOVWF  x13
68EA:  MOVLB  0
68EC:  CALL   1470
....................                
....................        
....................       if(UP)//Si oprime hacia arriba 
68F0:  BSF    F92.5
68F2:  BTFSS  F80.5
68F4:  BRA    6912
....................          {  if(Flanco == 0)  
68F6:  MOVLB  5
68F8:  BTFSC  x66.0
68FA:  BRA    6910
....................                {Flanco = 1;delay_ms(30);Opcion--;visual=1; 
68FC:  BSF    x66.0
68FE:  MOVLW  1E
6900:  MOVLB  6
6902:  MOVWF  x14
6904:  MOVLB  0
6906:  CALL   0D28
690A:  MOVLB  5
690C:  DECF   x71,F
690E:  BSF    x66.3
....................                } 
....................          } 
....................             else 
6910:  BRA    6916
....................                {Flanco = 0;} 
6912:  MOVLB  5
6914:  BCF    x66.0
....................                    
....................          if(DOWN)//Si oprime hacia abajo 
6916:  BSF    F96.0
6918:  BTFSS  F84.0
691A:  BRA    6936
....................          {  if(Flanco2 == 0)  
691C:  BTFSC  x66.2
691E:  BRA    6934
....................                {Flanco2 = 1;delay_ms(30);Opcion++;visual=1; 
6920:  BSF    x66.2
6922:  MOVLW  1E
6924:  MOVLB  6
6926:  MOVWF  x14
6928:  MOVLB  0
692A:  CALL   0D28
692E:  MOVLB  5
6930:  INCF   x71,F
6932:  BSF    x66.3
....................                }      
....................          } 
....................             else 
6934:  BRA    6938
....................                {Flanco2 = 0;}   
6936:  BCF    x66.2
....................                 
....................        if(RIGHT)//Si oprime SET 
6938:  BSF    F96.1
693A:  BTFSS  F84.1
693C:  BRA    696C
....................          {  if(Flanco1 == 0)  
693E:  BTFSC  x66.1
6940:  BRA    696A
....................                {Flanco1 = 1;delay_ms(30);Menu=Opcion+100;Opcion=1;glcd_fillscreen(OFF);visual=1; 
6942:  BSF    x66.1
6944:  MOVLW  1E
6946:  MOVLB  6
6948:  MOVWF  x14
694A:  MOVLB  0
694C:  CALL   0D28
6950:  MOVLW  64
6952:  MOVLB  5
6954:  ADDWF  x71,W
6956:  MOVWF  x6B
6958:  MOVLW  01
695A:  MOVWF  x71
695C:  MOVLB  6
695E:  CLRF   x0F
6960:  MOVLB  0
6962:  CALL   0E42
6966:  MOVLB  5
6968:  BSF    x66.3
....................                } 
....................          } 
....................             else 
696A:  BRA    696E
....................                {Flanco1 = 0;}   
696C:  BCF    x66.1
....................          
....................     } 
.................... //_--------------------------------------------------------------------------------------------------------------------------------------------------------        
....................  
.................... //_--------------------------------------------------------------------------------------------------------------------------------------------------------       
....................       if(Menu==101){ // Menu de Ajuste de Ganancia 
696E:  MOVF   x6B,W
6970:  SUBLW  65
6972:  BTFSS  FD8.2
6974:  BRA    6BCA
....................        
....................       if(Ganancia>40) 
6976:  MOVLB  6
6978:  CLRF   x11
697A:  CLRF   x10
697C:  MOVLW  20
697E:  MOVWF  x0F
6980:  MOVLW  84
6982:  MOVWF  x0E
6984:  MOVFF  5C5,615
6988:  MOVFF  5C4,614
698C:  MOVFF  5C3,613
6990:  MOVFF  5C2,612
6994:  MOVLB  0
6996:  CALL   0D88
699A:  BNC   69A8
....................       { 
....................          Ganancia=2; 
699C:  MOVLB  5
699E:  CLRF   xC5
69A0:  CLRF   xC4
69A2:  CLRF   xC3
69A4:  MOVLW  80
69A6:  MOVWF  xC2
....................       } 
....................        
....................       if(visual==1) 
69A8:  MOVLB  5
69AA:  BTFSS  x66.3
69AC:  BRA    6A34
....................       { 
....................          glcd_fillScreen(OFF); 
69AE:  MOVLB  6
69B0:  CLRF   x0F
69B2:  MOVLB  0
69B4:  CALL   0E42
....................          strcpy(Menus.Letra,"Ganancia"); 
69B8:  MOVLW  05
69BA:  MOVWF  FEA
69BC:  MOVLW  EE
69BE:  MOVWF  FE9
69C0:  MOVFF  FF2,60E
69C4:  BCF    FF2.7
69C6:  MOVLW  00
69C8:  CALL   0B92
69CC:  TBLRD*-
69CE:  TBLRD*+
69D0:  MOVF   FF5,W
69D2:  MOVWF  FEE
69D4:  IORLW  00
69D6:  BNZ   69CE
69D8:  MOVLB  6
69DA:  BTFSC  x0E.7
69DC:  BSF    FF2.7
....................          displayMenu(Menus.Letra,0,0,1,2); 
69DE:  MOVLW  05
69E0:  MOVWF  x0F
69E2:  MOVLW  EE
69E4:  MOVWF  x0E
69E6:  CLRF   x10
69E8:  CLRF   x11
69EA:  MOVLW  01
69EC:  MOVWF  x12
69EE:  MOVLW  02
69F0:  MOVWF  x13
69F2:  MOVLB  0
69F4:  CALL   1470
....................           
....................          displayTemperatura(Ganancia,30,30,0,3); 
69F8:  MOVFF  5C5,611
69FC:  MOVFF  5C4,610
6A00:  MOVFF  5C3,60F
6A04:  MOVFF  5C2,60E
6A08:  CALL   2894
6A0C:  MOVFF  02,60F
6A10:  MOVFF  01,60E
6A14:  MOVFF  02,611
6A18:  MOVFF  01,610
6A1C:  MOVLW  1E
6A1E:  MOVLB  6
6A20:  MOVWF  x12
6A22:  MOVWF  x13
6A24:  CLRF   x14
6A26:  MOVLW  03
6A28:  MOVWF  x15
6A2A:  MOVLB  0
6A2C:  CALL   2370
....................           
....................          visual=0; 
6A30:  MOVLB  5
6A32:  BCF    x66.3
....................       } 
....................        
....................          if(UP)//Si oprime hacia arriba 
6A34:  BSF    F92.5
6A36:  BTFSS  F80.5
6A38:  BRA    6AC6
....................          {   
....................             if(Ganancia>40) 
6A3A:  MOVLB  6
6A3C:  CLRF   x11
6A3E:  CLRF   x10
6A40:  MOVLW  20
6A42:  MOVWF  x0F
6A44:  MOVLW  84
6A46:  MOVWF  x0E
6A48:  MOVFF  5C5,615
6A4C:  MOVFF  5C4,614
6A50:  MOVFF  5C3,613
6A54:  MOVFF  5C2,612
6A58:  MOVLB  0
6A5A:  CALL   0D88
6A5E:  BNC   6A82
....................             { 
....................                Ganancia=40;delay_ms(100);visual=1; 
6A60:  MOVLB  5
6A62:  CLRF   xC5
6A64:  CLRF   xC4
6A66:  MOVLW  20
6A68:  MOVWF  xC3
6A6A:  MOVLW  84
6A6C:  MOVWF  xC2
6A6E:  MOVLW  64
6A70:  MOVLB  6
6A72:  MOVWF  x14
6A74:  MOVLB  0
6A76:  CALL   0D28
6A7A:  MOVLB  5
6A7C:  BSF    x66.3
....................             } 
....................             else 
6A7E:  BRA    6AC6
6A80:  MOVLB  0
....................             { 
....................                delay_ms(30);Ganancia+=1.0;visual=1; 
6A82:  MOVLW  1E
6A84:  MOVLB  6
6A86:  MOVWF  x14
6A88:  MOVLB  0
6A8A:  CALL   0D28
6A8E:  BCF    FD8.1
6A90:  MOVFF  5C5,616
6A94:  MOVFF  5C4,615
6A98:  MOVFF  5C3,614
6A9C:  MOVFF  5C2,613
6AA0:  MOVLB  6
6AA2:  CLRF   x1A
6AA4:  CLRF   x19
6AA6:  CLRF   x18
6AA8:  MOVLW  7F
6AAA:  MOVWF  x17
6AAC:  MOVLB  0
6AAE:  CALL   1904
6AB2:  MOVFF  03,5C5
6AB6:  MOVFF  02,5C4
6ABA:  MOVFF  01,5C3
6ABE:  MOVFF  00,5C2
6AC2:  MOVLB  5
6AC4:  BSF    x66.3
....................             } 
....................          } 
....................                 
....................          if(DOWN)//Si oprime hacia abajo 
6AC6:  BSF    F96.0
6AC8:  BTFSS  F84.0
6ACA:  BRA    6B34
....................          {   
....................             if(Ganancia>1) 
6ACC:  MOVLB  6
6ACE:  CLRF   x11
6AD0:  CLRF   x10
6AD2:  CLRF   x0F
6AD4:  MOVLW  7F
6AD6:  MOVWF  x0E
6AD8:  MOVFF  5C5,615
6ADC:  MOVFF  5C4,614
6AE0:  MOVFF  5C3,613
6AE4:  MOVFF  5C2,612
6AE8:  MOVLB  0
6AEA:  CALL   0D88
6AEE:  BNC   6B36
....................             { 
....................                delay_ms(30);Ganancia-=1.0;visual=1;      
6AF0:  MOVLW  1E
6AF2:  MOVLB  6
6AF4:  MOVWF  x14
6AF6:  MOVLB  0
6AF8:  CALL   0D28
6AFC:  BSF    FD8.1
6AFE:  MOVFF  5C5,616
6B02:  MOVFF  5C4,615
6B06:  MOVFF  5C3,614
6B0A:  MOVFF  5C2,613
6B0E:  MOVLB  6
6B10:  CLRF   x1A
6B12:  CLRF   x19
6B14:  CLRF   x18
6B16:  MOVLW  7F
6B18:  MOVWF  x17
6B1A:  MOVLB  0
6B1C:  CALL   1904
6B20:  MOVFF  03,5C5
6B24:  MOVFF  02,5C4
6B28:  MOVFF  01,5C3
6B2C:  MOVFF  00,5C2
6B30:  MOVLB  5
6B32:  BSF    x66.3
6B34:  MOVLB  0
....................             } 
....................          } 
....................                 
....................          if(RIGHT)//Si oprime SET 
6B36:  BSF    F96.1
6B38:  BTFSS  F84.1
6B3A:  BRA    6B4E
....................          {   
....................             delay_ms(30);visual=1; 
6B3C:  MOVLW  1E
6B3E:  MOVLB  6
6B40:  MOVWF  x14
6B42:  MOVLB  0
6B44:  CALL   0D28
6B48:  MOVLB  5
6B4A:  BSF    x66.3
6B4C:  MOVLB  0
....................          }  
....................                    
....................          if(LEFT)//Si oprime boton de Toma. 
6B4E:  BSF    F96.2
6B50:  BTFSS  F84.2
6B52:  BRA    6BC8
....................          { 
....................             delay_ms(700);Menu=100;glcd_fillscreen(OFF);Opcion=1;visual=1; 
6B54:  MOVLW  04
6B56:  MOVLB  6
6B58:  MOVWF  x0E
6B5A:  MOVLW  AF
6B5C:  MOVWF  x14
6B5E:  MOVLB  0
6B60:  CALL   0D28
6B64:  MOVLB  6
6B66:  DECFSZ x0E,F
6B68:  BRA    6B5A
6B6A:  MOVLW  64
6B6C:  MOVLB  5
6B6E:  MOVWF  x6B
6B70:  MOVLB  6
6B72:  CLRF   x0F
6B74:  MOVLB  0
6B76:  CALL   0E42
6B7A:  MOVLW  01
6B7C:  MOVLB  5
6B7E:  MOVWF  x71
6B80:  BSF    x66.3
....................             write_eeprom(90,(int8)Ganancia); 
6B82:  MOVFF  5C5,611
6B86:  MOVFF  5C4,610
6B8A:  MOVFF  5C3,60F
6B8E:  MOVFF  5C2,60E
6B92:  MOVLB  0
6B94:  CALL   2894
6B98:  MOVFF  01,60E
6B9C:  MOVLW  5A
6B9E:  MOVWF  FA9
6BA0:  MOVFF  60E,FA8
6BA4:  BCF    FA6.6
6BA6:  BCF    FA6.7
6BA8:  BSF    FA6.2
6BAA:  MOVF   FF2,W
6BAC:  MOVWF  00
6BAE:  BCF    FF2.7
6BB0:  MOVLB  F
6BB2:  MOVLW  55
6BB4:  MOVWF  FA7
6BB6:  MOVLW  AA
6BB8:  MOVWF  FA7
6BBA:  BSF    FA6.1
6BBC:  BTFSC  FA6.1
6BBE:  BRA    6BBC
6BC0:  BCF    FA6.2
6BC2:  MOVF   00,W
6BC4:  IORWF  FF2,F
6BC6:  MOVLB  0
6BC8:  MOVLB  5
....................          } 
....................      } 
.................... //_-------------------------------------------------------------------------------------------------------------------------------------------------------- 
....................  
....................  
.................... //_--------------------------------------------------------------------------------------------------------------------------------------------------------       
....................       if(Menu==102){ // Menu de Ajuste de Ganancia2 
6BCA:  MOVF   x6B,W
6BCC:  SUBLW  66
6BCE:  BTFSS  FD8.2
6BD0:  BRA    6E28
....................        
....................       if(Tciclo>40) 
6BD2:  MOVLB  6
6BD4:  CLRF   x11
6BD6:  CLRF   x10
6BD8:  MOVLW  20
6BDA:  MOVWF  x0F
6BDC:  MOVLW  84
6BDE:  MOVWF  x0E
6BE0:  MOVFF  5AD,615
6BE4:  MOVFF  5AC,614
6BE8:  MOVFF  5AB,613
6BEC:  MOVFF  5AA,612
6BF0:  MOVLB  0
6BF2:  CALL   0D88
6BF6:  BNC   6C06
....................       { 
....................          Tciclo=40; 
6BF8:  MOVLB  5
6BFA:  CLRF   xAD
6BFC:  CLRF   xAC
6BFE:  MOVLW  20
6C00:  MOVWF  xAB
6C02:  MOVLW  84
6C04:  MOVWF  xAA
....................       } 
....................        
....................       if(visual==1) 
6C06:  MOVLB  5
6C08:  BTFSS  x66.3
6C0A:  BRA    6C92
....................       { 
....................          glcd_fillScreen(OFF); 
6C0C:  MOVLB  6
6C0E:  CLRF   x0F
6C10:  MOVLB  0
6C12:  CALL   0E42
....................          strcpy(Menus.Letra,"Tciclo"); 
6C16:  MOVLW  05
6C18:  MOVWF  FEA
6C1A:  MOVLW  EE
6C1C:  MOVWF  FE9
6C1E:  MOVFF  FF2,60E
6C22:  BCF    FF2.7
6C24:  MOVLW  00
6C26:  CALL   0BB6
6C2A:  TBLRD*-
6C2C:  TBLRD*+
6C2E:  MOVF   FF5,W
6C30:  MOVWF  FEE
6C32:  IORLW  00
6C34:  BNZ   6C2C
6C36:  MOVLB  6
6C38:  BTFSC  x0E.7
6C3A:  BSF    FF2.7
....................          displayMenu(Menus.Letra,0,0,1,2); 
6C3C:  MOVLW  05
6C3E:  MOVWF  x0F
6C40:  MOVLW  EE
6C42:  MOVWF  x0E
6C44:  CLRF   x10
6C46:  CLRF   x11
6C48:  MOVLW  01
6C4A:  MOVWF  x12
6C4C:  MOVLW  02
6C4E:  MOVWF  x13
6C50:  MOVLB  0
6C52:  CALL   1470
....................           
....................          displayTemperatura(Tciclo,30,30,0,3); 
6C56:  MOVFF  5AD,611
6C5A:  MOVFF  5AC,610
6C5E:  MOVFF  5AB,60F
6C62:  MOVFF  5AA,60E
6C66:  CALL   2894
6C6A:  MOVFF  02,60F
6C6E:  MOVFF  01,60E
6C72:  MOVFF  02,611
6C76:  MOVFF  01,610
6C7A:  MOVLW  1E
6C7C:  MOVLB  6
6C7E:  MOVWF  x12
6C80:  MOVWF  x13
6C82:  CLRF   x14
6C84:  MOVLW  03
6C86:  MOVWF  x15
6C88:  MOVLB  0
6C8A:  CALL   2370
....................           
....................          visual=0; 
6C8E:  MOVLB  5
6C90:  BCF    x66.3
....................       } 
....................        
....................          if(UP)//Si oprime hacia arriba 
6C92:  BSF    F92.5
6C94:  BTFSS  F80.5
6C96:  BRA    6D24
....................          {   
....................             if(Tciclo>40) 
6C98:  MOVLB  6
6C9A:  CLRF   x11
6C9C:  CLRF   x10
6C9E:  MOVLW  20
6CA0:  MOVWF  x0F
6CA2:  MOVLW  84
6CA4:  MOVWF  x0E
6CA6:  MOVFF  5AD,615
6CAA:  MOVFF  5AC,614
6CAE:  MOVFF  5AB,613
6CB2:  MOVFF  5AA,612
6CB6:  MOVLB  0
6CB8:  CALL   0D88
6CBC:  BNC   6CE0
....................             { 
....................                Tciclo=40;delay_ms(100);visual=1; 
6CBE:  MOVLB  5
6CC0:  CLRF   xAD
6CC2:  CLRF   xAC
6CC4:  MOVLW  20
6CC6:  MOVWF  xAB
6CC8:  MOVLW  84
6CCA:  MOVWF  xAA
6CCC:  MOVLW  64
6CCE:  MOVLB  6
6CD0:  MOVWF  x14
6CD2:  MOVLB  0
6CD4:  CALL   0D28
6CD8:  MOVLB  5
6CDA:  BSF    x66.3
....................             } 
....................             else 
6CDC:  BRA    6D24
6CDE:  MOVLB  0
....................             { 
....................                delay_ms(30);Tciclo+=1.0;visual=1; 
6CE0:  MOVLW  1E
6CE2:  MOVLB  6
6CE4:  MOVWF  x14
6CE6:  MOVLB  0
6CE8:  CALL   0D28
6CEC:  BCF    FD8.1
6CEE:  MOVFF  5AD,616
6CF2:  MOVFF  5AC,615
6CF6:  MOVFF  5AB,614
6CFA:  MOVFF  5AA,613
6CFE:  MOVLB  6
6D00:  CLRF   x1A
6D02:  CLRF   x19
6D04:  CLRF   x18
6D06:  MOVLW  7F
6D08:  MOVWF  x17
6D0A:  MOVLB  0
6D0C:  CALL   1904
6D10:  MOVFF  03,5AD
6D14:  MOVFF  02,5AC
6D18:  MOVFF  01,5AB
6D1C:  MOVFF  00,5AA
6D20:  MOVLB  5
6D22:  BSF    x66.3
....................             } 
....................          } 
....................                 
....................          if(DOWN)//Si oprime hacia abajo 
6D24:  BSF    F96.0
6D26:  BTFSS  F84.0
6D28:  BRA    6D92
....................          {   
....................             if(Tciclo>1) 
6D2A:  MOVLB  6
6D2C:  CLRF   x11
6D2E:  CLRF   x10
6D30:  CLRF   x0F
6D32:  MOVLW  7F
6D34:  MOVWF  x0E
6D36:  MOVFF  5AD,615
6D3A:  MOVFF  5AC,614
6D3E:  MOVFF  5AB,613
6D42:  MOVFF  5AA,612
6D46:  MOVLB  0
6D48:  CALL   0D88
6D4C:  BNC   6D94
....................             { 
....................                delay_ms(30);Tciclo-=1.0;visual=1;      
6D4E:  MOVLW  1E
6D50:  MOVLB  6
6D52:  MOVWF  x14
6D54:  MOVLB  0
6D56:  CALL   0D28
6D5A:  BSF    FD8.1
6D5C:  MOVFF  5AD,616
6D60:  MOVFF  5AC,615
6D64:  MOVFF  5AB,614
6D68:  MOVFF  5AA,613
6D6C:  MOVLB  6
6D6E:  CLRF   x1A
6D70:  CLRF   x19
6D72:  CLRF   x18
6D74:  MOVLW  7F
6D76:  MOVWF  x17
6D78:  MOVLB  0
6D7A:  CALL   1904
6D7E:  MOVFF  03,5AD
6D82:  MOVFF  02,5AC
6D86:  MOVFF  01,5AB
6D8A:  MOVFF  00,5AA
6D8E:  MOVLB  5
6D90:  BSF    x66.3
6D92:  MOVLB  0
....................             } 
....................          } 
....................                 
....................          if(RIGHT)//Si oprime SET 
6D94:  BSF    F96.1
6D96:  BTFSS  F84.1
6D98:  BRA    6DAC
....................          {   
....................             delay_ms(30);visual=1; 
6D9A:  MOVLW  1E
6D9C:  MOVLB  6
6D9E:  MOVWF  x14
6DA0:  MOVLB  0
6DA2:  CALL   0D28
6DA6:  MOVLB  5
6DA8:  BSF    x66.3
6DAA:  MOVLB  0
....................          }  
....................                    
....................          if(LEFT)//Si oprime boton de Toma. 
6DAC:  BSF    F96.2
6DAE:  BTFSS  F84.2
6DB0:  BRA    6E26
....................          { 
....................             delay_ms(700);Menu=100;glcd_fillscreen(OFF);Opcion=1;visual=1; 
6DB2:  MOVLW  04
6DB4:  MOVLB  6
6DB6:  MOVWF  x0E
6DB8:  MOVLW  AF
6DBA:  MOVWF  x14
6DBC:  MOVLB  0
6DBE:  CALL   0D28
6DC2:  MOVLB  6
6DC4:  DECFSZ x0E,F
6DC6:  BRA    6DB8
6DC8:  MOVLW  64
6DCA:  MOVLB  5
6DCC:  MOVWF  x6B
6DCE:  MOVLB  6
6DD0:  CLRF   x0F
6DD2:  MOVLB  0
6DD4:  CALL   0E42
6DD8:  MOVLW  01
6DDA:  MOVLB  5
6DDC:  MOVWF  x71
6DDE:  BSF    x66.3
....................             write_eeprom(30,(int8)Tciclo); 
6DE0:  MOVFF  5AD,611
6DE4:  MOVFF  5AC,610
6DE8:  MOVFF  5AB,60F
6DEC:  MOVFF  5AA,60E
6DF0:  MOVLB  0
6DF2:  CALL   2894
6DF6:  MOVFF  01,60E
6DFA:  MOVLW  1E
6DFC:  MOVWF  FA9
6DFE:  MOVFF  60E,FA8
6E02:  BCF    FA6.6
6E04:  BCF    FA6.7
6E06:  BSF    FA6.2
6E08:  MOVF   FF2,W
6E0A:  MOVWF  00
6E0C:  BCF    FF2.7
6E0E:  MOVLB  F
6E10:  MOVLW  55
6E12:  MOVWF  FA7
6E14:  MOVLW  AA
6E16:  MOVWF  FA7
6E18:  BSF    FA6.1
6E1A:  BTFSC  FA6.1
6E1C:  BRA    6E1A
6E1E:  BCF    FA6.2
6E20:  MOVF   00,W
6E22:  IORWF  FF2,F
6E24:  MOVLB  0
6E26:  MOVLB  5
....................          } 
....................      } 
.................... //_-------------------------------------------------------------------------------------------------------------------------------------------------------- 
....................  
.................... //_--------------------------------------------------------------------------------------------------------------------------------------------------------       
....................       if(Menu==103){ // Menu de Ajuste de Ajuste 
6E28:  MOVF   x6B,W
6E2A:  SUBLW  67
6E2C:  BTFSS  FD8.2
6E2E:  BRA    6FF8
....................        
....................       if(Ajuste>100) 
6E30:  MOVF   x60,W
6E32:  SUBLW  64
6E34:  BC    6E38
....................       { 
....................          Ajuste=0; 
6E36:  CLRF   x60
....................       } 
....................        
....................       if(visual==1) 
6E38:  BTFSS  x66.3
6E3A:  BRA    6EA4
....................       { 
....................          glcd_fillScreen(OFF); 
6E3C:  MOVLB  6
6E3E:  CLRF   x0F
6E40:  MOVLB  0
6E42:  CALL   0E42
....................          strcpy(Menus.Letra,"Ajuste"); 
6E46:  MOVLW  05
6E48:  MOVWF  FEA
6E4A:  MOVLW  EE
6E4C:  MOVWF  FE9
6E4E:  MOVFF  FF2,60E
6E52:  BCF    FF2.7
6E54:  MOVLW  00
6E56:  CALL   0C6C
6E5A:  TBLRD*-
6E5C:  TBLRD*+
6E5E:  MOVF   FF5,W
6E60:  MOVWF  FEE
6E62:  IORLW  00
6E64:  BNZ   6E5C
6E66:  MOVLB  6
6E68:  BTFSC  x0E.7
6E6A:  BSF    FF2.7
....................          displayMenu(Menus.Letra,0,0,1,2); 
6E6C:  MOVLW  05
6E6E:  MOVWF  x0F
6E70:  MOVLW  EE
6E72:  MOVWF  x0E
6E74:  CLRF   x10
6E76:  CLRF   x11
6E78:  MOVLW  01
6E7A:  MOVWF  x12
6E7C:  MOVLW  02
6E7E:  MOVWF  x13
6E80:  MOVLB  0
6E82:  CALL   1470
....................           
....................          displayTemperatura(Ajuste,30,30,0,3); 
6E86:  MOVLB  6
6E88:  CLRF   x11
6E8A:  MOVFF  560,610
6E8E:  MOVLW  1E
6E90:  MOVWF  x12
6E92:  MOVWF  x13
6E94:  CLRF   x14
6E96:  MOVLW  03
6E98:  MOVWF  x15
6E9A:  MOVLB  0
6E9C:  CALL   2370
....................           
....................          visual=0; 
6EA0:  MOVLB  5
6EA2:  BCF    x66.3
....................       } 
....................        
....................          if(UP)//Si oprime hacia arriba 
6EA4:  BSF    F92.5
6EA6:  BTFSS  F80.5
6EA8:  BRA    6F1E
....................          {   
....................             if(Ajuste>100) 
6EAA:  MOVF   x60,W
6EAC:  SUBLW  64
6EAE:  BC    6EC4
....................             { 
....................                Ajuste=100;delay_ms(100);visual=1; 
6EB0:  MOVLW  64
6EB2:  MOVWF  x60
6EB4:  MOVLB  6
6EB6:  MOVWF  x14
6EB8:  MOVLB  0
6EBA:  CALL   0D28
6EBE:  MOVLB  5
6EC0:  BSF    x66.3
....................             } 
....................             else 
6EC2:  BRA    6F1E
....................             { 
....................                delay_ms(30);Ajuste+=1.0;visual=1; 
6EC4:  MOVLW  1E
6EC6:  MOVLB  6
6EC8:  MOVWF  x14
6ECA:  MOVLB  0
6ECC:  CALL   0D28
6ED0:  MOVLB  6
6ED2:  CLRF   x15
6ED4:  MOVFF  560,614
6ED8:  MOVLB  0
6EDA:  CALL   0D52
6EDE:  BCF    FD8.1
6EE0:  MOVFF  03,616
6EE4:  MOVFF  02,615
6EE8:  MOVFF  01,614
6EEC:  MOVFF  00,613
6EF0:  MOVLB  6
6EF2:  CLRF   x1A
6EF4:  CLRF   x19
6EF6:  CLRF   x18
6EF8:  MOVLW  7F
6EFA:  MOVWF  x17
6EFC:  MOVLB  0
6EFE:  CALL   1904
6F02:  MOVFF  03,611
6F06:  MOVFF  02,610
6F0A:  MOVFF  01,60F
6F0E:  MOVFF  00,60E
6F12:  CALL   2894
6F16:  MOVFF  01,560
6F1A:  MOVLB  5
6F1C:  BSF    x66.3
....................             } 
....................          } 
....................                 
....................          if(DOWN)//Si oprime hacia abajo 
6F1E:  BSF    F96.0
6F20:  BTFSS  F84.0
6F22:  BRA    6F82
....................          {   
....................             if(Ajuste>0) 
6F24:  MOVF   x60,F
6F26:  BZ    6F82
....................             { 
....................                delay_ms(30);Ajuste-=1.0;visual=1;      
6F28:  MOVLW  1E
6F2A:  MOVLB  6
6F2C:  MOVWF  x14
6F2E:  MOVLB  0
6F30:  CALL   0D28
6F34:  MOVLB  6
6F36:  CLRF   x15
6F38:  MOVFF  560,614
6F3C:  MOVLB  0
6F3E:  CALL   0D52
6F42:  BSF    FD8.1
6F44:  MOVFF  03,616
6F48:  MOVFF  02,615
6F4C:  MOVFF  01,614
6F50:  MOVFF  00,613
6F54:  MOVLB  6
6F56:  CLRF   x1A
6F58:  CLRF   x19
6F5A:  CLRF   x18
6F5C:  MOVLW  7F
6F5E:  MOVWF  x17
6F60:  MOVLB  0
6F62:  CALL   1904
6F66:  MOVFF  03,611
6F6A:  MOVFF  02,610
6F6E:  MOVFF  01,60F
6F72:  MOVFF  00,60E
6F76:  CALL   2894
6F7A:  MOVFF  01,560
6F7E:  MOVLB  5
6F80:  BSF    x66.3
....................             } 
....................          } 
....................                 
....................          if(RIGHT)//Si oprime SET 
6F82:  BSF    F96.1
6F84:  BTFSS  F84.1
6F86:  BRA    6F98
....................          {   
....................             delay_ms(30);visual=1; 
6F88:  MOVLW  1E
6F8A:  MOVLB  6
6F8C:  MOVWF  x14
6F8E:  MOVLB  0
6F90:  CALL   0D28
6F94:  MOVLB  5
6F96:  BSF    x66.3
....................          }  
....................                    
....................          if(LEFT)//Si oprime boton de Toma. 
6F98:  BSF    F96.2
6F9A:  BTFSS  F84.2
6F9C:  BRA    6FF8
....................          { 
....................             delay_ms(700);Menu=100;glcd_fillscreen(OFF);Opcion=1;visual=1; 
6F9E:  MOVLW  04
6FA0:  MOVLB  6
6FA2:  MOVWF  x0E
6FA4:  MOVLW  AF
6FA6:  MOVWF  x14
6FA8:  MOVLB  0
6FAA:  CALL   0D28
6FAE:  MOVLB  6
6FB0:  DECFSZ x0E,F
6FB2:  BRA    6FA4
6FB4:  MOVLW  64
6FB6:  MOVLB  5
6FB8:  MOVWF  x6B
6FBA:  MOVLB  6
6FBC:  CLRF   x0F
6FBE:  MOVLB  0
6FC0:  CALL   0E42
6FC4:  MOVLW  01
6FC6:  MOVLB  5
6FC8:  MOVWF  x71
6FCA:  BSF    x66.3
....................             write_eeprom(40,Ajuste); 
6FCC:  MOVLW  28
6FCE:  MOVWF  FA9
6FD0:  MOVFF  560,FA8
6FD4:  BCF    FA6.6
6FD6:  BCF    FA6.7
6FD8:  BSF    FA6.2
6FDA:  MOVF   FF2,W
6FDC:  MOVWF  00
6FDE:  BCF    FF2.7
6FE0:  MOVLB  F
6FE2:  MOVLW  55
6FE4:  MOVWF  FA7
6FE6:  MOVLW  AA
6FE8:  MOVWF  FA7
6FEA:  BSF    FA6.1
6FEC:  BTFSC  FA6.1
6FEE:  BRA    6FEC
6FF0:  BCF    FA6.2
6FF2:  MOVF   00,W
6FF4:  IORWF  FF2,F
6FF6:  MOVLB  5
....................          } 
....................      } 
.................... //_-------------------------------------------------------------------------------------------------------------------------------------------------------- 
....................  
.................... //_--------------------------------------------------------------------------------------------------------------------------------------------------------       
....................       if(Menu==104){ // Menu de Ajuste de Ajusten 
6FF8:  MOVF   x6B,W
6FFA:  SUBLW  68
6FFC:  BTFSS  FD8.2
6FFE:  BRA    71C8
....................        
....................       if(Ajusten>100) 
7000:  MOVF   x61,W
7002:  SUBLW  64
7004:  BC    7008
....................       { 
....................          Ajusten=0; 
7006:  CLRF   x61
....................       } 
....................        
....................       if(visual==1) 
7008:  BTFSS  x66.3
700A:  BRA    7074
....................       { 
....................          glcd_fillScreen(OFF); 
700C:  MOVLB  6
700E:  CLRF   x0F
7010:  MOVLB  0
7012:  CALL   0E42
....................          strcpy(Menus.Letra,"Ajusten"); 
7016:  MOVLW  05
7018:  MOVWF  FEA
701A:  MOVLW  EE
701C:  MOVWF  FE9
701E:  MOVFF  FF2,60E
7022:  BCF    FF2.7
7024:  MOVLW  00
7026:  CALL   0C8E
702A:  TBLRD*-
702C:  TBLRD*+
702E:  MOVF   FF5,W
7030:  MOVWF  FEE
7032:  IORLW  00
7034:  BNZ   702C
7036:  MOVLB  6
7038:  BTFSC  x0E.7
703A:  BSF    FF2.7
....................          displayMenu(Menus.Letra,0,0,1,2); 
703C:  MOVLW  05
703E:  MOVWF  x0F
7040:  MOVLW  EE
7042:  MOVWF  x0E
7044:  CLRF   x10
7046:  CLRF   x11
7048:  MOVLW  01
704A:  MOVWF  x12
704C:  MOVLW  02
704E:  MOVWF  x13
7050:  MOVLB  0
7052:  CALL   1470
....................           
....................          displayTemperatura(Ajusten,30,30,0,3); 
7056:  MOVLB  6
7058:  CLRF   x11
705A:  MOVFF  561,610
705E:  MOVLW  1E
7060:  MOVWF  x12
7062:  MOVWF  x13
7064:  CLRF   x14
7066:  MOVLW  03
7068:  MOVWF  x15
706A:  MOVLB  0
706C:  CALL   2370
....................           
....................          visual=0; 
7070:  MOVLB  5
7072:  BCF    x66.3
....................       } 
....................        
....................          if(UP)//Si oprime hacia arriba 
7074:  BSF    F92.5
7076:  BTFSS  F80.5
7078:  BRA    70EE
....................          {   
....................             if(Ajusten>100) 
707A:  MOVF   x61,W
707C:  SUBLW  64
707E:  BC    7094
....................             { 
....................                Ajusten=100;delay_ms(100);visual=1; 
7080:  MOVLW  64
7082:  MOVWF  x61
7084:  MOVLB  6
7086:  MOVWF  x14
7088:  MOVLB  0
708A:  CALL   0D28
708E:  MOVLB  5
7090:  BSF    x66.3
....................             } 
....................             else 
7092:  BRA    70EE
....................             { 
....................                delay_ms(30);Ajusten+=1.0;visual=1; 
7094:  MOVLW  1E
7096:  MOVLB  6
7098:  MOVWF  x14
709A:  MOVLB  0
709C:  CALL   0D28
70A0:  MOVLB  6
70A2:  CLRF   x15
70A4:  MOVFF  561,614
70A8:  MOVLB  0
70AA:  CALL   0D52
70AE:  BCF    FD8.1
70B0:  MOVFF  03,616
70B4:  MOVFF  02,615
70B8:  MOVFF  01,614
70BC:  MOVFF  00,613
70C0:  MOVLB  6
70C2:  CLRF   x1A
70C4:  CLRF   x19
70C6:  CLRF   x18
70C8:  MOVLW  7F
70CA:  MOVWF  x17
70CC:  MOVLB  0
70CE:  CALL   1904
70D2:  MOVFF  03,611
70D6:  MOVFF  02,610
70DA:  MOVFF  01,60F
70DE:  MOVFF  00,60E
70E2:  CALL   2894
70E6:  MOVFF  01,561
70EA:  MOVLB  5
70EC:  BSF    x66.3
....................             } 
....................          } 
....................                 
....................          if(DOWN)//Si oprime hacia abajo 
70EE:  BSF    F96.0
70F0:  BTFSS  F84.0
70F2:  BRA    7152
....................          {   
....................             if(Ajusten>0) 
70F4:  MOVF   x61,F
70F6:  BZ    7152
....................             { 
....................                delay_ms(30);Ajusten-=1.0;visual=1;      
70F8:  MOVLW  1E
70FA:  MOVLB  6
70FC:  MOVWF  x14
70FE:  MOVLB  0
7100:  CALL   0D28
7104:  MOVLB  6
7106:  CLRF   x15
7108:  MOVFF  561,614
710C:  MOVLB  0
710E:  CALL   0D52
7112:  BSF    FD8.1
7114:  MOVFF  03,616
7118:  MOVFF  02,615
711C:  MOVFF  01,614
7120:  MOVFF  00,613
7124:  MOVLB  6
7126:  CLRF   x1A
7128:  CLRF   x19
712A:  CLRF   x18
712C:  MOVLW  7F
712E:  MOVWF  x17
7130:  MOVLB  0
7132:  CALL   1904
7136:  MOVFF  03,611
713A:  MOVFF  02,610
713E:  MOVFF  01,60F
7142:  MOVFF  00,60E
7146:  CALL   2894
714A:  MOVFF  01,561
714E:  MOVLB  5
7150:  BSF    x66.3
....................             } 
....................          } 
....................                 
....................          if(RIGHT)//Si oprime SET 
7152:  BSF    F96.1
7154:  BTFSS  F84.1
7156:  BRA    7168
....................          {   
....................             delay_ms(30);visual=1; 
7158:  MOVLW  1E
715A:  MOVLB  6
715C:  MOVWF  x14
715E:  MOVLB  0
7160:  CALL   0D28
7164:  MOVLB  5
7166:  BSF    x66.3
....................          }  
....................                    
....................          if(LEFT)//Si oprime boton de Toma. 
7168:  BSF    F96.2
716A:  BTFSS  F84.2
716C:  BRA    71C8
....................          { 
....................             delay_ms(700);Menu=100;glcd_fillscreen(OFF);Opcion=1;visual=1; 
716E:  MOVLW  04
7170:  MOVLB  6
7172:  MOVWF  x0E
7174:  MOVLW  AF
7176:  MOVWF  x14
7178:  MOVLB  0
717A:  CALL   0D28
717E:  MOVLB  6
7180:  DECFSZ x0E,F
7182:  BRA    7174
7184:  MOVLW  64
7186:  MOVLB  5
7188:  MOVWF  x6B
718A:  MOVLB  6
718C:  CLRF   x0F
718E:  MOVLB  0
7190:  CALL   0E42
7194:  MOVLW  01
7196:  MOVLB  5
7198:  MOVWF  x71
719A:  BSF    x66.3
....................             write_eeprom(50,Ajusten); 
719C:  MOVLW  32
719E:  MOVWF  FA9
71A0:  MOVFF  561,FA8
71A4:  BCF    FA6.6
71A6:  BCF    FA6.7
71A8:  BSF    FA6.2
71AA:  MOVF   FF2,W
71AC:  MOVWF  00
71AE:  BCF    FF2.7
71B0:  MOVLB  F
71B2:  MOVLW  55
71B4:  MOVWF  FA7
71B6:  MOVLW  AA
71B8:  MOVWF  FA7
71BA:  BSF    FA6.1
71BC:  BTFSC  FA6.1
71BE:  BRA    71BC
71C0:  BCF    FA6.2
71C2:  MOVF   00,W
71C4:  IORWF  FF2,F
71C6:  MOVLB  5
....................          } 
....................      } 
.................... //_-------------------------------------------------------------------------------------------------------------------------------------------------------- 
....................  
.................... //_--------------------------------------------------------------------------------------------------------------------------------------------------------       
....................       if(Menu==105){ // Menu de Ajuste de Media Movil 
71C8:  MOVF   x6B,W
71CA:  SUBLW  69
71CC:  BTFSS  FD8.2
71CE:  BRA    739E
....................        
....................       if(MediaMovil>79) 
71D0:  MOVF   x62,W
71D2:  SUBLW  4F
71D4:  BC    71DA
....................       { 
....................          MediaMovil=10; 
71D6:  MOVLW  0A
71D8:  MOVWF  x62
....................       } 
....................        
....................       if(visual==1) 
71DA:  BTFSS  x66.3
71DC:  BRA    7246
....................       { 
....................          glcd_fillScreen(OFF); 
71DE:  MOVLB  6
71E0:  CLRF   x0F
71E2:  MOVLB  0
71E4:  CALL   0E42
....................          strcpy(Menus.Letra,"Media"); 
71E8:  MOVLW  05
71EA:  MOVWF  FEA
71EC:  MOVLW  EE
71EE:  MOVWF  FE9
71F0:  MOVFF  FF2,60E
71F4:  BCF    FF2.7
71F6:  MOVLW  00
71F8:  CALL   0CB0
71FC:  TBLRD*-
71FE:  TBLRD*+
7200:  MOVF   FF5,W
7202:  MOVWF  FEE
7204:  IORLW  00
7206:  BNZ   71FE
7208:  MOVLB  6
720A:  BTFSC  x0E.7
720C:  BSF    FF2.7
....................          displayMenu(Menus.Letra,0,0,1,2); 
720E:  MOVLW  05
7210:  MOVWF  x0F
7212:  MOVLW  EE
7214:  MOVWF  x0E
7216:  CLRF   x10
7218:  CLRF   x11
721A:  MOVLW  01
721C:  MOVWF  x12
721E:  MOVLW  02
7220:  MOVWF  x13
7222:  MOVLB  0
7224:  CALL   1470
....................           
....................          displayTemperatura(MediaMovil,30,30,0,3); 
7228:  MOVLB  6
722A:  CLRF   x11
722C:  MOVFF  562,610
7230:  MOVLW  1E
7232:  MOVWF  x12
7234:  MOVWF  x13
7236:  CLRF   x14
7238:  MOVLW  03
723A:  MOVWF  x15
723C:  MOVLB  0
723E:  CALL   2370
....................           
....................          visual=0; 
7242:  MOVLB  5
7244:  BCF    x66.3
....................       } 
....................        
....................          if(UP)//Si oprime hacia arriba 
7246:  BSF    F92.5
7248:  BTFSS  F80.5
724A:  BRA    72C2
....................          {   
....................             if(MediaMovil>79) 
724C:  MOVF   x62,W
724E:  SUBLW  4F
7250:  BC    7268
....................             { 
....................                MediaMovil=79;delay_ms(100);visual=1; 
7252:  MOVLW  4F
7254:  MOVWF  x62
7256:  MOVLW  64
7258:  MOVLB  6
725A:  MOVWF  x14
725C:  MOVLB  0
725E:  CALL   0D28
7262:  MOVLB  5
7264:  BSF    x66.3
....................             } 
....................             else 
7266:  BRA    72C2
....................             { 
....................                delay_ms(30);MediaMovil+=1.0;visual=1; 
7268:  MOVLW  1E
726A:  MOVLB  6
726C:  MOVWF  x14
726E:  MOVLB  0
7270:  CALL   0D28
7274:  MOVLB  6
7276:  CLRF   x15
7278:  MOVFF  562,614
727C:  MOVLB  0
727E:  CALL   0D52
7282:  BCF    FD8.1
7284:  MOVFF  03,616
7288:  MOVFF  02,615
728C:  MOVFF  01,614
7290:  MOVFF  00,613
7294:  MOVLB  6
7296:  CLRF   x1A
7298:  CLRF   x19
729A:  CLRF   x18
729C:  MOVLW  7F
729E:  MOVWF  x17
72A0:  MOVLB  0
72A2:  CALL   1904
72A6:  MOVFF  03,611
72AA:  MOVFF  02,610
72AE:  MOVFF  01,60F
72B2:  MOVFF  00,60E
72B6:  CALL   2894
72BA:  MOVFF  01,562
72BE:  MOVLB  5
72C0:  BSF    x66.3
....................             } 
....................          } 
....................                 
....................          if(DOWN)//Si oprime hacia abajo 
72C2:  BSF    F96.0
72C4:  BTFSS  F84.0
72C6:  BRA    7328
....................          {   
....................             if(MediaMovil>1) 
72C8:  MOVF   x62,W
72CA:  SUBLW  01
72CC:  BC    7328
....................             { 
....................                delay_ms(30);MediaMovil-=1.0;visual=1;      
72CE:  MOVLW  1E
72D0:  MOVLB  6
72D2:  MOVWF  x14
72D4:  MOVLB  0
72D6:  CALL   0D28
72DA:  MOVLB  6
72DC:  CLRF   x15
72DE:  MOVFF  562,614
72E2:  MOVLB  0
72E4:  CALL   0D52
72E8:  BSF    FD8.1
72EA:  MOVFF  03,616
72EE:  MOVFF  02,615
72F2:  MOVFF  01,614
72F6:  MOVFF  00,613
72FA:  MOVLB  6
72FC:  CLRF   x1A
72FE:  CLRF   x19
7300:  CLRF   x18
7302:  MOVLW  7F
7304:  MOVWF  x17
7306:  MOVLB  0
7308:  CALL   1904
730C:  MOVFF  03,611
7310:  MOVFF  02,610
7314:  MOVFF  01,60F
7318:  MOVFF  00,60E
731C:  CALL   2894
7320:  MOVFF  01,562
7324:  MOVLB  5
7326:  BSF    x66.3
....................             } 
....................          } 
....................                 
....................          if(RIGHT)//Si oprime SET 
7328:  BSF    F96.1
732A:  BTFSS  F84.1
732C:  BRA    733E
....................          {   
....................             delay_ms(30);visual=1; 
732E:  MOVLW  1E
7330:  MOVLB  6
7332:  MOVWF  x14
7334:  MOVLB  0
7336:  CALL   0D28
733A:  MOVLB  5
733C:  BSF    x66.3
....................          }  
....................                    
....................          if(LEFT)//Si oprime boton de Toma. 
733E:  BSF    F96.2
7340:  BTFSS  F84.2
7342:  BRA    739E
....................          { 
....................             delay_ms(700);Menu=100;glcd_fillscreen(OFF);Opcion=1;visual=1; 
7344:  MOVLW  04
7346:  MOVLB  6
7348:  MOVWF  x0E
734A:  MOVLW  AF
734C:  MOVWF  x14
734E:  MOVLB  0
7350:  CALL   0D28
7354:  MOVLB  6
7356:  DECFSZ x0E,F
7358:  BRA    734A
735A:  MOVLW  64
735C:  MOVLB  5
735E:  MOVWF  x6B
7360:  MOVLB  6
7362:  CLRF   x0F
7364:  MOVLB  0
7366:  CALL   0E42
736A:  MOVLW  01
736C:  MOVLB  5
736E:  MOVWF  x71
7370:  BSF    x66.3
....................             write_eeprom(60,MediaMovil); 
7372:  MOVLW  3C
7374:  MOVWF  FA9
7376:  MOVFF  562,FA8
737A:  BCF    FA6.6
737C:  BCF    FA6.7
737E:  BSF    FA6.2
7380:  MOVF   FF2,W
7382:  MOVWF  00
7384:  BCF    FF2.7
7386:  MOVLB  F
7388:  MOVLW  55
738A:  MOVWF  FA7
738C:  MOVLW  AA
738E:  MOVWF  FA7
7390:  BSF    FA6.1
7392:  BTFSC  FA6.1
7394:  BRA    7392
7396:  BCF    FA6.2
7398:  MOVF   00,W
739A:  IORWF  FF2,F
739C:  MOVLB  5
....................          } 
....................      } 
.................... //_-------------------------------------------------------------------------------------------------------------------------------------------------------- 
....................  
.................... //_--------------------------------------------------------------------------------------------------------------------------------------------------------       
....................       if(Menu==106){ // Menu de Ajuste de Coeficiente Regulador 
739E:  MOVF   x6B,W
73A0:  SUBLW  6A
73A2:  BTFSS  FD8.2
73A4:  BRA    75FC
....................        
....................       if(Coeficiente>250) 
73A6:  MOVLB  6
73A8:  CLRF   x11
73AA:  CLRF   x10
73AC:  MOVLW  7A
73AE:  MOVWF  x0F
73B0:  MOVLW  86
73B2:  MOVWF  x0E
73B4:  MOVFF  5D1,615
73B8:  MOVFF  5D0,614
73BC:  MOVFF  5CF,613
73C0:  MOVFF  5CE,612
73C4:  MOVLB  0
73C6:  CALL   0D88
73CA:  BNC   73DA
....................       { 
....................          Coeficiente=100; 
73CC:  MOVLB  5
73CE:  CLRF   xD1
73D0:  CLRF   xD0
73D2:  MOVLW  48
73D4:  MOVWF  xCF
73D6:  MOVLW  85
73D8:  MOVWF  xCE
....................       } 
....................        
....................       if(visual==1) 
73DA:  MOVLB  5
73DC:  BTFSS  x66.3
73DE:  BRA    7466
....................       { 
....................          glcd_fillScreen(OFF); 
73E0:  MOVLB  6
73E2:  CLRF   x0F
73E4:  MOVLB  0
73E6:  CALL   0E42
....................          strcpy(Menus.Letra,"Coeficiente"); 
73EA:  MOVLW  05
73EC:  MOVWF  FEA
73EE:  MOVLW  EE
73F0:  MOVWF  FE9
73F2:  MOVFF  FF2,60E
73F6:  BCF    FF2.7
73F8:  MOVLW  00
73FA:  CALL   0C46
73FE:  TBLRD*-
7400:  TBLRD*+
7402:  MOVF   FF5,W
7404:  MOVWF  FEE
7406:  IORLW  00
7408:  BNZ   7400
740A:  MOVLB  6
740C:  BTFSC  x0E.7
740E:  BSF    FF2.7
....................          displayMenu(Menus.Letra,0,0,1,2); 
7410:  MOVLW  05
7412:  MOVWF  x0F
7414:  MOVLW  EE
7416:  MOVWF  x0E
7418:  CLRF   x10
741A:  CLRF   x11
741C:  MOVLW  01
741E:  MOVWF  x12
7420:  MOVLW  02
7422:  MOVWF  x13
7424:  MOVLB  0
7426:  CALL   1470
....................           
....................          displayTemperatura(Coeficiente,30,30,0,3); 
742A:  MOVFF  5D1,611
742E:  MOVFF  5D0,610
7432:  MOVFF  5CF,60F
7436:  MOVFF  5CE,60E
743A:  CALL   2894
743E:  MOVFF  02,60F
7442:  MOVFF  01,60E
7446:  MOVFF  02,611
744A:  MOVFF  01,610
744E:  MOVLW  1E
7450:  MOVLB  6
7452:  MOVWF  x12
7454:  MOVWF  x13
7456:  CLRF   x14
7458:  MOVLW  03
745A:  MOVWF  x15
745C:  MOVLB  0
745E:  CALL   2370
....................           
....................          visual=0; 
7462:  MOVLB  5
7464:  BCF    x66.3
....................       } 
....................        
....................          if(UP)//Si oprime hacia arriba 
7466:  BSF    F92.5
7468:  BTFSS  F80.5
746A:  BRA    74F8
....................          {   
....................             if(Coeficiente>250) 
746C:  MOVLB  6
746E:  CLRF   x11
7470:  CLRF   x10
7472:  MOVLW  7A
7474:  MOVWF  x0F
7476:  MOVLW  86
7478:  MOVWF  x0E
747A:  MOVFF  5D1,615
747E:  MOVFF  5D0,614
7482:  MOVFF  5CF,613
7486:  MOVFF  5CE,612
748A:  MOVLB  0
748C:  CALL   0D88
7490:  BNC   74B4
....................             { 
....................                Coeficiente=250;delay_ms(100);visual=1; 
7492:  MOVLB  5
7494:  CLRF   xD1
7496:  CLRF   xD0
7498:  MOVLW  7A
749A:  MOVWF  xCF
749C:  MOVLW  86
749E:  MOVWF  xCE
74A0:  MOVLW  64
74A2:  MOVLB  6
74A4:  MOVWF  x14
74A6:  MOVLB  0
74A8:  CALL   0D28
74AC:  MOVLB  5
74AE:  BSF    x66.3
....................             } 
....................             else 
74B0:  BRA    74F8
74B2:  MOVLB  0
....................             { 
....................                delay_ms(30);Coeficiente+=1.0;visual=1; 
74B4:  MOVLW  1E
74B6:  MOVLB  6
74B8:  MOVWF  x14
74BA:  MOVLB  0
74BC:  CALL   0D28
74C0:  BCF    FD8.1
74C2:  MOVFF  5D1,616
74C6:  MOVFF  5D0,615
74CA:  MOVFF  5CF,614
74CE:  MOVFF  5CE,613
74D2:  MOVLB  6
74D4:  CLRF   x1A
74D6:  CLRF   x19
74D8:  CLRF   x18
74DA:  MOVLW  7F
74DC:  MOVWF  x17
74DE:  MOVLB  0
74E0:  CALL   1904
74E4:  MOVFF  03,5D1
74E8:  MOVFF  02,5D0
74EC:  MOVFF  01,5CF
74F0:  MOVFF  00,5CE
74F4:  MOVLB  5
74F6:  BSF    x66.3
....................             } 
....................          } 
....................                 
....................          if(DOWN)//Si oprime hacia abajo 
74F8:  BSF    F96.0
74FA:  BTFSS  F84.0
74FC:  BRA    7566
....................          {   
....................             if(Coeficiente>1) 
74FE:  MOVLB  6
7500:  CLRF   x11
7502:  CLRF   x10
7504:  CLRF   x0F
7506:  MOVLW  7F
7508:  MOVWF  x0E
750A:  MOVFF  5D1,615
750E:  MOVFF  5D0,614
7512:  MOVFF  5CF,613
7516:  MOVFF  5CE,612
751A:  MOVLB  0
751C:  CALL   0D88
7520:  BNC   7568
....................             { 
....................                delay_ms(30);Coeficiente-=1.0;visual=1;      
7522:  MOVLW  1E
7524:  MOVLB  6
7526:  MOVWF  x14
7528:  MOVLB  0
752A:  CALL   0D28
752E:  BSF    FD8.1
7530:  MOVFF  5D1,616
7534:  MOVFF  5D0,615
7538:  MOVFF  5CF,614
753C:  MOVFF  5CE,613
7540:  MOVLB  6
7542:  CLRF   x1A
7544:  CLRF   x19
7546:  CLRF   x18
7548:  MOVLW  7F
754A:  MOVWF  x17
754C:  MOVLB  0
754E:  CALL   1904
7552:  MOVFF  03,5D1
7556:  MOVFF  02,5D0
755A:  MOVFF  01,5CF
755E:  MOVFF  00,5CE
7562:  MOVLB  5
7564:  BSF    x66.3
7566:  MOVLB  0
....................             } 
....................          } 
....................                 
....................          if(RIGHT)//Si oprime SET 
7568:  BSF    F96.1
756A:  BTFSS  F84.1
756C:  BRA    7580
....................          {   
....................             delay_ms(30);visual=1; 
756E:  MOVLW  1E
7570:  MOVLB  6
7572:  MOVWF  x14
7574:  MOVLB  0
7576:  CALL   0D28
757A:  MOVLB  5
757C:  BSF    x66.3
757E:  MOVLB  0
....................          }  
....................                    
....................          if(LEFT)//Si oprime boton de Toma. 
7580:  BSF    F96.2
7582:  BTFSS  F84.2
7584:  BRA    75FA
....................          { 
....................             delay_ms(700);Menu=100;glcd_fillscreen(OFF);Opcion=1;visual=1; 
7586:  MOVLW  04
7588:  MOVLB  6
758A:  MOVWF  x0E
758C:  MOVLW  AF
758E:  MOVWF  x14
7590:  MOVLB  0
7592:  CALL   0D28
7596:  MOVLB  6
7598:  DECFSZ x0E,F
759A:  BRA    758C
759C:  MOVLW  64
759E:  MOVLB  5
75A0:  MOVWF  x6B
75A2:  MOVLB  6
75A4:  CLRF   x0F
75A6:  MOVLB  0
75A8:  CALL   0E42
75AC:  MOVLW  01
75AE:  MOVLB  5
75B0:  MOVWF  x71
75B2:  BSF    x66.3
....................             write_eeprom(70,(int8)Coeficiente); 
75B4:  MOVFF  5D1,611
75B8:  MOVFF  5D0,610
75BC:  MOVFF  5CF,60F
75C0:  MOVFF  5CE,60E
75C4:  MOVLB  0
75C6:  CALL   2894
75CA:  MOVFF  01,60E
75CE:  MOVLW  46
75D0:  MOVWF  FA9
75D2:  MOVFF  60E,FA8
75D6:  BCF    FA6.6
75D8:  BCF    FA6.7
75DA:  BSF    FA6.2
75DC:  MOVF   FF2,W
75DE:  MOVWF  00
75E0:  BCF    FF2.7
75E2:  MOVLB  F
75E4:  MOVLW  55
75E6:  MOVWF  FA7
75E8:  MOVLW  AA
75EA:  MOVWF  FA7
75EC:  BSF    FA6.1
75EE:  BTFSC  FA6.1
75F0:  BRA    75EE
75F2:  BCF    FA6.2
75F4:  MOVF   00,W
75F6:  IORWF  FF2,F
75F8:  MOVLB  0
75FA:  MOVLB  5
....................          } 
....................      } 
.................... //_-------------------------------------------------------------------------------------------------------------------------------------------------------- 
....................  
....................  
....................       if(tiemporeset>=60) 
75FC:  MOVF   x69,W
75FE:  SUBLW  3B
7600:  BC    7612
....................       { 
....................          glcd_init(ON); 
7602:  MOVLW  01
7604:  MOVLB  6
7606:  MOVWF  x0E
7608:  MOVLB  0
760A:  CALL   0F54
....................          tiemporeset=0; 
760E:  MOVLB  5
7610:  CLRF   x69
....................       }  
....................  
....................    } 
7612:  GOTO   3AAE
.................... } 
7616:  SLEEP 

Configuration Fuses:
   Word  1: C220   XTPLL IESO FCMEN PLL1 CPUDIV1 USBDIV
   Word  2: 1E3E   BROWNOUT NOWDT BORV20 PUT WDT32768 VREGEN
   Word  3: 0700   PBADEN CCP2C1 NOMCLR LPT1OSC
   Word  4: 0081   STVREN NODEBUG NOLVP NOXINST NOICPRT
   Word  5: C00F   NOPROTECT NOCPD NOCPB
   Word  6: E00F   NOWRT NOWRTD NOWRTC NOWRTB
   Word  7: 400F   NOEBTR NOEBTRB
